   1              		.file	"audio.cpp"
   2              		.machine ppc
   3              		.section	".text"
   4              	.Ltext0:
   5              		.file 1 "F:/GameModding/MarioKartWii/Mods/Distro/RetroRewind6/dev/Launcher/RRLauncher/launcher/lib
   6              		.section	.text._Z9InitAudiov,"ax",@progbits
   7              		.align 2
   8              		.globl _Z9InitAudiov
   9              		.type	_Z9InitAudiov, @function
  10              	_Z9InitAudiov:
  11              	.LFB61:
  12              		.loc 1 19 1 view -0
  13              		.cfi_startproc
  14              		.loc 1 20 2 view .LVU1
  15              		.loc 1 19 1 is_stmt 0 view .LVU2
  16 0000 9421FFF8 		stwu 1,-8(1)
  17              		.cfi_def_cfa_offset 8
  18 0004 7C0802A6 		mflr 0
  19              		.loc 1 20 12 view .LVU3
  20 0008 38600000 		li 3,0
  21              		.loc 1 19 1 view .LVU4
  22 000c 9001000C 		stw 0,12(1)
  23              		.cfi_offset 65, 4
  24              		.loc 1 20 12 view .LVU5
  25 0010 48000001 		bl AUDIO_Init
  26              	.LVL0:
  27              		.loc 1 21 2 is_stmt 1 view .LVU6
  28              		.loc 1 21 11 is_stmt 0 view .LVU7
  29 0014 48000001 		bl ASND_Init
  30              	.LVL1:
  31              		.loc 1 22 2 is_stmt 1 view .LVU8
  32              		.loc 1 23 1 is_stmt 0 view .LVU9
  33 0018 8001000C 		lwz 0,12(1)
  34              		.loc 1 22 12 view .LVU10
  35 001c 38600000 		li 3,0
  36              		.loc 1 23 1 view .LVU11
  37 0020 38210008 		addi 1,1,8
  38              		.cfi_def_cfa_offset 0
  39 0024 7C0803A6 		mtlr 0
  40              		.cfi_restore 65
  41              		.loc 1 22 12 view .LVU12
  42 0028 48000000 		b ASND_Pause
  43              	.LVL2:
  44              		.cfi_endproc
  45              	.LFE61:
  46              		.size	_Z9InitAudiov, .-_Z9InitAudiov
  47              		.section	.text._Z13ShutdownAudiov,"ax",@progbits
  48              		.align 2
  49              		.globl _Z13ShutdownAudiov
  50              		.type	_Z13ShutdownAudiov, @function
  51              	_Z13ShutdownAudiov:
  52              	.LFB62:
  53              		.loc 1 32 1 is_stmt 1 view -0
  54              		.cfi_startproc
  55              		.loc 1 33 2 view .LVU14
  56              		.loc 1 32 1 is_stmt 0 view .LVU15
  57 0000 9421FFF8 		stwu 1,-8(1)
  58              		.cfi_def_cfa_offset 8
  59 0004 7C0802A6 		mflr 0
  60              		.loc 1 33 12 view .LVU16
  61 0008 38600001 		li 3,1
  62              		.loc 1 32 1 view .LVU17
  63 000c 9001000C 		stw 0,12(1)
  64              		.cfi_offset 65, 4
  65              		.loc 1 33 12 view .LVU18
  66 0010 48000001 		bl ASND_Pause
  67              	.LVL3:
  68              		.loc 1 34 2 is_stmt 1 view .LVU19
  69              		.loc 1 35 1 is_stmt 0 view .LVU20
  70 0014 8001000C 		lwz 0,12(1)
  71 0018 38210008 		addi 1,1,8
  72              		.cfi_def_cfa_offset 0
  73 001c 7C0803A6 		mtlr 0
  74              		.cfi_restore 65
  75              		.loc 1 34 10 view .LVU21
  76 0020 48000000 		b ASND_End
  77              	.LVL4:
  78              		.cfi_endproc
  79              	.LFE62:
  80              		.size	_Z13ShutdownAudiov, .-_Z13ShutdownAudiov
  81              		.section	".text"
  82              	.Letext0:
  83              		.file 2 "C:/devkitPro/devkitPPC/powerpc-eabi/include/machine/_default_types.h"
  84              		.file 3 "C:/devkitPro/devkitPPC/powerpc-eabi/include/sys/_stdint.h"
  85              		.file 4 "C:/devkitPro/libogc/include/gctypes.h"
  86              		.file 5 "C:/devkitPro/libogc/include/asndlib.h"
  87              		.file 6 "C:/devkitPro/libogc/include/ogc/audio.h"