   1              		.file	"FreeTypeGX.cpp"
   2              		.machine ppc
   3              		.section	".text"
   4              	.Ltext0:
   5              		.file 1 "F:/GameModding/MarioKartWii/Mods/Distro/RetroRewind6/dev/Launcher/RRLauncher/launcher/lib
   6              		.section	.text._ZNSt8_Rb_treeIwSt4pairIKw13ftgxCharData_ESt10_Select1stIS3_ESt4lessIwESaIS3_EE8_M_
   7              		.align 2
   8              		.type	_ZNSt8_Rb_treeIwSt4pairIKw13ftgxCharData_ESt10_Select1stIS3_ESt4lessIwESaIS3_EE8_M_eraseEPSt
   9              	_ZNSt8_Rb_treeIwSt4pairIKw13ftgxCharData_ESt10_Select1stIS3_ESt4lessIwESaIS3_EE8_M_eraseEPSt13_Rb_t
  10              	.LVL0:
  11              	.LFB1538:
  12              		.file 2 "C:/devkitPro/devkitPPC/powerpc-eabi/include/c++/13.1.0/bits/stl_tree.h"
  13              		.loc 2 1930 5 view -0
  14              		.cfi_startproc
  15              		.loc 2 1934 18 view .LVU1
  16              		.loc 2 1930 5 is_stmt 0 view .LVU2
  17 0000 9421FFD0 		stwu 1,-48(1)
  18              		.cfi_def_cfa_offset 48
  19 0004 93410018 		stw 26,24(1)
  20              		.cfi_offset 26, -24
  21              		.loc 2 1934 18 view .LVU3
  22 0008 7C7A1B79 		mr. 26,3
  23 000c 41820194 		beq- 0,.L1
  24 0010 7C0802A6 		mflr 0
  25              		.cfi_register 65, 0
  26 0014 93210014 		stw 25,20(1)
  27              		.cfi_offset 25, -28
  28 0018 90010034 		stw 0,52(1)
  29              		.cfi_offset 65, 4
  30              	.LVL1:
  31              	.L19:
  32              	.LBB1056:
  33              	.LBB1057:
  34              	.LBI1057:
  35              		.loc 2 789 7 is_stmt 1 view .LVU4
  36              	.LBB1058:
  37              		.loc 2 790 53 is_stmt 0 view .LVU5
  38 001c 833A000C 		lwz 25,12(26)
  39              	.LVL2:
  40              		.loc 2 790 53 view .LVU6
  41              	.LBE1058:
  42              	.LBE1057:
  43              	.LBB1059:
  44              	.LBI1059:
  45              		.loc 2 1930 5 is_stmt 1 view .LVU7
  46              	.LBB1060:
  47              		.loc 2 1934 18 view .LVU8
  48 0020 2C190000 		cmpwi 0,25,0
  49 0024 41820158 		beq- 0,.L3
  50              		.loc 2 1934 18 is_stmt 0 view .LVU9
  51 0028 92E1000C 		stw 23,12(1)
  52              		.cfi_offset 23, -36
  53 002c 93010010 		stw 24,16(1)
  54              		.cfi_offset 24, -32
  55 0030 93A10024 		stw 29,36(1)
  56              		.cfi_offset 29, -12
  57 0034 93E1002C 		stw 31,44(1)
  58              		.cfi_offset 31, -4
  59              	.L18:
  60              	.LVL3:
  61              	.LBB1061:
  62              	.LBB1062:
  63              	.LBI1062:
  64              		.loc 2 789 7 is_stmt 1 view .LVU10
  65              	.LBB1063:
  66              		.loc 2 790 53 is_stmt 0 view .LVU11
  67 0038 8319000C 		lwz 24,12(25)
  68              	.LVL4:
  69              		.loc 2 790 53 view .LVU12
  70              	.LBE1063:
  71              	.LBE1062:
  72              	.LBB1064:
  73              	.LBI1064:
  74              		.loc 2 1930 5 is_stmt 1 view .LVU13
  75              	.LBB1065:
  76              		.loc 2 1934 18 view .LVU14
  77 003c 2C180000 		cmpwi 0,24,0
  78 0040 41820114 		beq- 0,.L4
  79              	.L17:
  80              	.LVL5:
  81              	.LBB1066:
  82              	.LBB1067:
  83              	.LBI1067:
  84              		.loc 2 789 7 view .LVU15
  85              	.LBB1068:
  86              		.loc 2 790 53 is_stmt 0 view .LVU16
  87 0044 82F8000C 		lwz 23,12(24)
  88              	.LVL6:
  89              		.loc 2 790 53 view .LVU17
  90              	.LBE1068:
  91              	.LBE1067:
  92              	.LBB1069:
  93              	.LBI1069:
  94              		.loc 2 1930 5 is_stmt 1 view .LVU18
  95              	.LBB1070:
  96              		.loc 2 1934 18 view .LVU19
  97 0048 2C170000 		cmpwi 0,23,0
  98 004c 418200F0 		beq- 0,.L5
  99              	.L16:
 100              	.LVL7:
 101              	.LBB1071:
 102              	.LBB1072:
 103              	.LBI1072:
 104              		.loc 2 789 7 view .LVU20
 105              	.LBB1073:
 106              		.loc 2 790 53 is_stmt 0 view .LVU21
 107 0050 83F7000C 		lwz 31,12(23)
 108              	.LVL8:
 109              		.loc 2 790 53 view .LVU22
 110              	.LBE1073:
 111              	.LBE1072:
 112              	.LBB1074:
 113              	.LBI1074:
 114              		.loc 2 1930 5 is_stmt 1 view .LVU23
 115              	.LBB1075:
 116              		.loc 2 1934 18 view .LVU24
 117 0054 2C1F0000 		cmpwi 0,31,0
 118 0058 418200CC 		beq- 0,.L6
 119              	.L15:
 120              	.LVL9:
 121              	.LBB1076:
 122              	.LBB1077:
 123              	.LBI1077:
 124              		.loc 2 789 7 view .LVU25
 125              	.LBB1078:
 126              		.loc 2 790 53 is_stmt 0 view .LVU26
 127 005c 83BF000C 		lwz 29,12(31)
 128              	.LVL10:
 129              		.loc 2 790 53 view .LVU27
 130              	.LBE1078:
 131              	.LBE1077:
 132              	.LBB1079:
 133              	.LBI1079:
 134              		.loc 2 1930 5 is_stmt 1 view .LVU28
 135              	.LBB1080:
 136              		.loc 2 1934 18 view .LVU29
 137 0060 2C1D0000 		cmpwi 0,29,0
 138 0064 418200A8 		beq- 0,.L7
 139              		.loc 2 1934 18 is_stmt 0 view .LVU30
 140 0068 93810020 		stw 28,32(1)
 141              		.cfi_offset 28, -16
 142              	.L14:
 143              	.LVL11:
 144              	.LBB1081:
 145              	.LBB1082:
 146              	.LBI1082:
 147              		.loc 2 789 7 is_stmt 1 view .LVU31
 148              	.LBB1083:
 149              		.loc 2 790 53 is_stmt 0 view .LVU32
 150 006c 839D000C 		lwz 28,12(29)
 151              	.LVL12:
 152              		.loc 2 790 53 view .LVU33
 153              	.LBE1083:
 154              	.LBE1082:
 155              	.LBB1084:
 156              	.LBI1084:
 157              		.loc 2 1930 5 is_stmt 1 view .LVU34
 158              	.LBB1085:
 159              		.loc 2 1934 18 view .LVU35
 160 0070 2C1C0000 		cmpwi 0,28,0
 161 0074 4182007C 		beq- 0,.L8
 162              		.loc 2 1934 18 is_stmt 0 view .LVU36
 163 0078 9361001C 		stw 27,28(1)
 164              		.cfi_offset 27, -20
 165 007c 93C10028 		stw 30,40(1)
 166              		.cfi_offset 30, -8
 167              	.L13:
 168              	.LVL13:
 169              	.LBB1086:
 170              	.LBB1087:
 171              	.LBI1087:
 172              		.loc 2 789 7 is_stmt 1 view .LVU37
 173              	.LBB1088:
 174              		.loc 2 790 53 is_stmt 0 view .LVU38
 175 0080 83DC000C 		lwz 30,12(28)
 176              	.LVL14:
 177              		.loc 2 790 53 view .LVU39
 178              	.LBE1088:
 179              	.LBE1087:
 180              	.LBB1089:
 181              	.LBI1089:
 182              		.loc 2 1930 5 is_stmt 1 view .LVU40
 183              	.LBB1090:
 184              		.loc 2 1934 18 view .LVU41
 185 0084 2C1E0000 		cmpwi 0,30,0
 186 0088 41820048 		beq- 0,.L9
 187              	.L12:
 188              	.LVL15:
 189              	.LBB1091:
 190              	.LBB1092:
 191              	.LBI1092:
 192              		.loc 2 789 7 view .LVU42
 193              	.LBB1093:
 194              		.loc 2 790 53 is_stmt 0 view .LVU43
 195 008c 837E000C 		lwz 27,12(30)
 196              	.LVL16:
 197              		.loc 2 790 53 view .LVU44
 198              	.LBE1093:
 199              	.LBE1092:
 200              	.LBB1094:
 201              	.LBI1094:
 202              		.loc 2 1930 5 is_stmt 1 view .LVU45
 203              	.LBB1095:
 204              		.loc 2 1934 18 view .LVU46
 205 0090 2C1B0000 		cmpwi 0,27,0
 206 0094 41820024 		beq- 0,.L10
 207              	.L11:
 208              	.LVL17:
 209              	.LBB1096:
 210              	.LBB1097:
 211              	.LBI1097:
 212              		.loc 2 789 7 view .LVU47
 213              		.loc 2 789 7 is_stmt 0 view .LVU48
 214              	.LBE1097:
 215              		.loc 2 1936 12 discriminator 1 view .LVU49
 216 0098 807B000C 		lwz 3,12(27)
 217 009c 4BFFFF65 		bl _ZNSt8_Rb_treeIwSt4pairIKw13ftgxCharData_ESt10_Select1stIS3_ESt4lessIwESaIS3_EE8_M_eraseEPSt13_
 218              	.LVL18:
 219              	.LBB1098:
 220              	.LBI1098:
 221              		.loc 2 781 7 is_stmt 1 view .LVU50
 222 00a0 7F63DB78 		mr 3,27
 223              	.LBB1099:
 224              		.loc 2 782 52 is_stmt 0 view .LVU51
 225 00a4 837B0008 		lwz 27,8(27)
 226              	.LVL19:
 227              		.loc 2 782 52 view .LVU52
 228              	.LBE1099:
 229              	.LBE1098:
 230              	.LBB1100:
 231              	.LBI1100:
 232              		.loc 2 631 7 is_stmt 1 view .LVU53
 233              	.LBB1101:
 234              	.LBI1101:
 235              		.loc 2 566 7 view .LVU54
 236              	.LBB1102:
 237              	.LBI1102:
 238              		.file 3 "C:/devkitPro/devkitPPC/powerpc-eabi/include/c++/13.1.0/bits/alloc_traits.h"
 239              		.loc 3 515 7 view .LVU55
 240              	.LBB1103:
 241              	.LBI1103:
 242              		.file 4 "C:/devkitPro/devkitPPC/powerpc-eabi/include/c++/13.1.0/bits/new_allocator.h"
 243              		.loc 4 152 7 view .LVU56
 244              	.LBB1104:
 245              		.loc 4 168 26 is_stmt 0 view .LVU57
 246 00a8 38800028 		li 4,40
 247 00ac 48000001 		bl _ZdlPvj
 248              	.LVL20:
 249              		.loc 4 168 26 view .LVU58
 250              	.LBE1104:
 251              	.LBE1103:
 252              	.LBE1102:
 253              	.LBE1101:
 254              	.LBE1100:
 255              	.LBE1096:
 256              		.loc 2 1934 18 is_stmt 1 view .LVU59
 257 00b0 2C1B0000 		cmpwi 0,27,0
 258 00b4 4082FFE4 		bne+ 0,.L11
 259              	.LVL21:
 260              	.L10:
 261              		.loc 2 1934 18 is_stmt 0 view .LVU60
 262              	.LBE1095:
 263              	.LBE1094:
 264              	.LBB1105:
 265              	.LBI1105:
 266              		.loc 2 781 7 is_stmt 1 view .LVU61
 267              	.LBE1105:
 268              	.LBB1107:
 269              	.LBB1108:
 270              	.LBB1109:
 271              	.LBB1110:
 272              	.LBB1111:
 273              		.loc 4 168 26 is_stmt 0 view .LVU62
 274 00b8 7FC3F378 		mr 3,30
 275              	.LBE1111:
 276              	.LBE1110:
 277              	.LBE1109:
 278              	.LBE1108:
 279              	.LBE1107:
 280              	.LBB1116:
 281              	.LBB1106:
 282              		.loc 2 782 52 view .LVU63
 283 00bc 83DE0008 		lwz 30,8(30)
 284              	.LVL22:
 285              		.loc 2 782 52 view .LVU64
 286              	.LBE1106:
 287              	.LBE1116:
 288              	.LBB1117:
 289              	.LBI1107:
 290              		.loc 2 631 7 is_stmt 1 view .LVU65
 291              	.LBB1115:
 292              	.LBI1108:
 293              		.loc 2 566 7 view .LVU66
 294              	.LBB1114:
 295              	.LBI1109:
 296              		.loc 3 515 7 view .LVU67
 297              	.LBB1113:
 298              	.LBI1110:
 299              		.loc 4 152 7 view .LVU68
 300              	.LBB1112:
 301              		.loc 4 168 26 is_stmt 0 view .LVU69
 302 00c0 38800028 		li 4,40
 303 00c4 48000001 		bl _ZdlPvj
 304              	.LVL23:
 305              		.loc 4 168 26 view .LVU70
 306              	.LBE1112:
 307              	.LBE1113:
 308              	.LBE1114:
 309              	.LBE1115:
 310              	.LBE1117:
 311              	.LBE1091:
 312              		.loc 2 1934 18 is_stmt 1 view .LVU71
 313 00c8 2C1E0000 		cmpwi 0,30,0
 314 00cc 4082FFC0 		bne+ 0,.L12
 315              	.LVL24:
 316              	.L9:
 317              		.loc 2 1934 18 is_stmt 0 view .LVU72
 318              	.LBE1090:
 319              	.LBE1089:
 320              	.LBB1118:
 321              	.LBI1118:
 322              		.loc 2 781 7 is_stmt 1 view .LVU73
 323              	.LBE1118:
 324              	.LBB1120:
 325              	.LBB1121:
 326              	.LBB1122:
 327              	.LBB1123:
 328              	.LBB1124:
 329              		.loc 4 168 26 is_stmt 0 view .LVU74
 330 00d0 7F83E378 		mr 3,28
 331              	.LBE1124:
 332              	.LBE1123:
 333              	.LBE1122:
 334              	.LBE1121:
 335              	.LBE1120:
 336              	.LBB1129:
 337              	.LBB1119:
 338              		.loc 2 782 52 view .LVU75
 339 00d4 839C0008 		lwz 28,8(28)
 340              	.LVL25:
 341              		.loc 2 782 52 view .LVU76
 342              	.LBE1119:
 343              	.LBE1129:
 344              	.LBB1130:
 345              	.LBI1120:
 346              		.loc 2 631 7 is_stmt 1 view .LVU77
 347              	.LBB1128:
 348              	.LBI1121:
 349              		.loc 2 566 7 view .LVU78
 350              	.LBB1127:
 351              	.LBI1122:
 352              		.loc 3 515 7 view .LVU79
 353              	.LBB1126:
 354              	.LBI1123:
 355              		.loc 4 152 7 view .LVU80
 356              	.LBB1125:
 357              		.loc 4 168 26 is_stmt 0 view .LVU81
 358 00d8 38800028 		li 4,40
 359 00dc 48000001 		bl _ZdlPvj
 360              	.LVL26:
 361              		.loc 4 168 26 view .LVU82
 362              	.LBE1125:
 363              	.LBE1126:
 364              	.LBE1127:
 365              	.LBE1128:
 366              	.LBE1130:
 367              	.LBE1086:
 368              		.loc 2 1934 18 is_stmt 1 view .LVU83
 369 00e0 2C1C0000 		cmpwi 0,28,0
 370 00e4 4082FF9C 		bne+ 0,.L13
 371 00e8 8361001C 		lwz 27,28(1)
 372              		.cfi_restore 27
 373 00ec 83C10028 		lwz 30,40(1)
 374              		.cfi_restore 30
 375              	.LVL27:
 376              	.L8:
 377              		.loc 2 1934 18 is_stmt 0 view .LVU84
 378              	.LBE1085:
 379              	.LBE1084:
 380              	.LBB1131:
 381              	.LBI1131:
 382              		.loc 2 781 7 is_stmt 1 view .LVU85
 383              	.LBE1131:
 384              	.LBB1133:
 385              	.LBB1134:
 386              	.LBB1135:
 387              	.LBB1136:
 388              	.LBB1137:
 389              		.loc 4 168 26 is_stmt 0 view .LVU86
 390 00f0 7FA3EB78 		mr 3,29
 391              	.LBE1137:
 392              	.LBE1136:
 393              	.LBE1135:
 394              	.LBE1134:
 395              	.LBE1133:
 396              	.LBB1142:
 397              	.LBB1132:
 398              		.loc 2 782 52 view .LVU87
 399 00f4 83BD0008 		lwz 29,8(29)
 400              	.LVL28:
 401              		.loc 2 782 52 view .LVU88
 402              	.LBE1132:
 403              	.LBE1142:
 404              	.LBB1143:
 405              	.LBI1133:
 406              		.loc 2 631 7 is_stmt 1 view .LVU89
 407              	.LBB1141:
 408              	.LBI1134:
 409              		.loc 2 566 7 view .LVU90
 410              	.LBB1140:
 411              	.LBI1135:
 412              		.loc 3 515 7 view .LVU91
 413              	.LBB1139:
 414              	.LBI1136:
 415              		.loc 4 152 7 view .LVU92
 416              	.LBB1138:
 417              		.loc 4 168 26 is_stmt 0 view .LVU93
 418 00f8 38800028 		li 4,40
 419 00fc 48000001 		bl _ZdlPvj
 420              	.LVL29:
 421              		.loc 4 168 26 view .LVU94
 422              	.LBE1138:
 423              	.LBE1139:
 424              	.LBE1140:
 425              	.LBE1141:
 426              	.LBE1143:
 427              	.LBE1081:
 428              		.loc 2 1934 18 is_stmt 1 view .LVU95
 429 0100 2C1D0000 		cmpwi 0,29,0
 430 0104 4082FF68 		bne+ 0,.L14
 431 0108 83810020 		lwz 28,32(1)
 432              		.cfi_restore 28
 433              	.LVL30:
 434              	.L7:
 435              		.loc 2 1934 18 is_stmt 0 view .LVU96
 436              	.LBE1080:
 437              	.LBE1079:
 438              	.LBB1144:
 439              	.LBI1144:
 440              		.loc 2 781 7 is_stmt 1 view .LVU97
 441              	.LBE1144:
 442              	.LBB1146:
 443              	.LBB1147:
 444              	.LBB1148:
 445              	.LBB1149:
 446              	.LBB1150:
 447              		.loc 4 168 26 is_stmt 0 view .LVU98
 448 010c 7FE3FB78 		mr 3,31
 449              	.LBE1150:
 450              	.LBE1149:
 451              	.LBE1148:
 452              	.LBE1147:
 453              	.LBE1146:
 454              	.LBB1155:
 455              	.LBB1145:
 456              		.loc 2 782 52 view .LVU99
 457 0110 83FF0008 		lwz 31,8(31)
 458              	.LVL31:
 459              		.loc 2 782 52 view .LVU100
 460              	.LBE1145:
 461              	.LBE1155:
 462              	.LBB1156:
 463              	.LBI1146:
 464              		.loc 2 631 7 is_stmt 1 view .LVU101
 465              	.LBB1154:
 466              	.LBI1147:
 467              		.loc 2 566 7 view .LVU102
 468              	.LBB1153:
 469              	.LBI1148:
 470              		.loc 3 515 7 view .LVU103
 471              	.LBB1152:
 472              	.LBI1149:
 473              		.loc 4 152 7 view .LVU104
 474              	.LBB1151:
 475              		.loc 4 168 26 is_stmt 0 view .LVU105
 476 0114 38800028 		li 4,40
 477 0118 48000001 		bl _ZdlPvj
 478              	.LVL32:
 479              		.loc 4 168 26 view .LVU106
 480              	.LBE1151:
 481              	.LBE1152:
 482              	.LBE1153:
 483              	.LBE1154:
 484              	.LBE1156:
 485              	.LBE1076:
 486              		.loc 2 1934 18 is_stmt 1 view .LVU107
 487 011c 2C1F0000 		cmpwi 0,31,0
 488 0120 4082FF3C 		bne+ 0,.L15
 489              	.LVL33:
 490              	.L6:
 491              		.loc 2 1934 18 is_stmt 0 view .LVU108
 492              	.LBE1075:
 493              	.LBE1074:
 494              	.LBB1157:
 495              	.LBI1157:
 496              		.loc 2 781 7 is_stmt 1 view .LVU109
 497              	.LBE1157:
 498              	.LBB1159:
 499              	.LBB1160:
 500              	.LBB1161:
 501              	.LBB1162:
 502              	.LBB1163:
 503              		.loc 4 168 26 is_stmt 0 view .LVU110
 504 0124 7EE3BB78 		mr 3,23
 505              	.LBE1163:
 506              	.LBE1162:
 507              	.LBE1161:
 508              	.LBE1160:
 509              	.LBE1159:
 510              	.LBB1168:
 511              	.LBB1158:
 512              		.loc 2 782 52 view .LVU111
 513 0128 82F70008 		lwz 23,8(23)
 514              	.LVL34:
 515              		.loc 2 782 52 view .LVU112
 516              	.LBE1158:
 517              	.LBE1168:
 518              	.LBB1169:
 519              	.LBI1159:
 520              		.loc 2 631 7 is_stmt 1 view .LVU113
 521              	.LBB1167:
 522              	.LBI1160:
 523              		.loc 2 566 7 view .LVU114
 524              	.LBB1166:
 525              	.LBI1161:
 526              		.loc 3 515 7 view .LVU115
 527              	.LBB1165:
 528              	.LBI1162:
 529              		.loc 4 152 7 view .LVU116
 530              	.LBB1164:
 531              		.loc 4 168 26 is_stmt 0 view .LVU117
 532 012c 38800028 		li 4,40
 533 0130 48000001 		bl _ZdlPvj
 534              	.LVL35:
 535              		.loc 4 168 26 view .LVU118
 536              	.LBE1164:
 537              	.LBE1165:
 538              	.LBE1166:
 539              	.LBE1167:
 540              	.LBE1169:
 541              	.LBE1071:
 542              		.loc 2 1934 18 is_stmt 1 view .LVU119
 543 0134 2C170000 		cmpwi 0,23,0
 544 0138 4082FF18 		bne+ 0,.L16
 545              	.LVL36:
 546              	.L5:
 547              		.loc 2 1934 18 is_stmt 0 view .LVU120
 548              	.LBE1070:
 549              	.LBE1069:
 550              	.LBB1170:
 551              	.LBI1170:
 552              		.loc 2 781 7 is_stmt 1 view .LVU121
 553              	.LBE1170:
 554              	.LBB1172:
 555              	.LBB1173:
 556              	.LBB1174:
 557              	.LBB1175:
 558              	.LBB1176:
 559              		.loc 4 168 26 is_stmt 0 view .LVU122
 560 013c 7F03C378 		mr 3,24
 561              	.LBE1176:
 562              	.LBE1175:
 563              	.LBE1174:
 564              	.LBE1173:
 565              	.LBE1172:
 566              	.LBB1181:
 567              	.LBB1171:
 568              		.loc 2 782 52 view .LVU123
 569 0140 83180008 		lwz 24,8(24)
 570              	.LVL37:
 571              		.loc 2 782 52 view .LVU124
 572              	.LBE1171:
 573              	.LBE1181:
 574              	.LBB1182:
 575              	.LBI1172:
 576              		.loc 2 631 7 is_stmt 1 view .LVU125
 577              	.LBB1180:
 578              	.LBI1173:
 579              		.loc 2 566 7 view .LVU126
 580              	.LBB1179:
 581              	.LBI1174:
 582              		.loc 3 515 7 view .LVU127
 583              	.LBB1178:
 584              	.LBI1175:
 585              		.loc 4 152 7 view .LVU128
 586              	.LBB1177:
 587              		.loc 4 168 26 is_stmt 0 view .LVU129
 588 0144 38800028 		li 4,40
 589 0148 48000001 		bl _ZdlPvj
 590              	.LVL38:
 591              		.loc 4 168 26 view .LVU130
 592              	.LBE1177:
 593              	.LBE1178:
 594              	.LBE1179:
 595              	.LBE1180:
 596              	.LBE1182:
 597              	.LBE1066:
 598              		.loc 2 1934 18 is_stmt 1 view .LVU131
 599 014c 2C180000 		cmpwi 0,24,0
 600 0150 4082FEF4 		bne+ 0,.L17
 601              	.LVL39:
 602              	.L4:
 603              		.loc 2 1934 18 is_stmt 0 view .LVU132
 604              	.LBE1065:
 605              	.LBE1064:
 606              	.LBB1183:
 607              	.LBI1183:
 608              		.loc 2 781 7 is_stmt 1 view .LVU133
 609              	.LBE1183:
 610              	.LBB1185:
 611              	.LBB1186:
 612              	.LBB1187:
 613              	.LBB1188:
 614              	.LBB1189:
 615              		.loc 4 168 26 is_stmt 0 view .LVU134
 616 0154 7F23CB78 		mr 3,25
 617              	.LBE1189:
 618              	.LBE1188:
 619              	.LBE1187:
 620              	.LBE1186:
 621              	.LBE1185:
 622              	.LBB1194:
 623              	.LBB1184:
 624              		.loc 2 782 52 view .LVU135
 625 0158 83390008 		lwz 25,8(25)
 626              	.LVL40:
 627              		.loc 2 782 52 view .LVU136
 628              	.LBE1184:
 629              	.LBE1194:
 630              	.LBB1195:
 631              	.LBI1185:
 632              		.loc 2 631 7 is_stmt 1 view .LVU137
 633              	.LBB1193:
 634              	.LBI1186:
 635              		.loc 2 566 7 view .LVU138
 636              	.LBB1192:
 637              	.LBI1187:
 638              		.loc 3 515 7 view .LVU139
 639              	.LBB1191:
 640              	.LBI1188:
 641              		.loc 4 152 7 view .LVU140
 642              	.LBB1190:
 643              		.loc 4 168 26 is_stmt 0 view .LVU141
 644 015c 38800028 		li 4,40
 645 0160 48000001 		bl _ZdlPvj
 646              	.LVL41:
 647              		.loc 4 168 26 view .LVU142
 648              	.LBE1190:
 649              	.LBE1191:
 650              	.LBE1192:
 651              	.LBE1193:
 652              	.LBE1195:
 653              	.LBE1061:
 654              		.loc 2 1934 18 is_stmt 1 view .LVU143
 655 0164 2C190000 		cmpwi 0,25,0
 656 0168 4082FED0 		bne+ 0,.L18
 657 016c 82E1000C 		lwz 23,12(1)
 658              		.cfi_restore 23
 659 0170 83010010 		lwz 24,16(1)
 660              		.cfi_restore 24
 661 0174 83A10024 		lwz 29,36(1)
 662              		.cfi_restore 29
 663 0178 83E1002C 		lwz 31,44(1)
 664              		.cfi_restore 31
 665              	.LVL42:
 666              	.L3:
 667              		.loc 2 1934 18 is_stmt 0 view .LVU144
 668              	.LBE1060:
 669              	.LBE1059:
 670              	.LBB1196:
 671              	.LBI1196:
 672              		.loc 2 781 7 is_stmt 1 view .LVU145
 673              	.LBE1196:
 674              	.LBB1198:
 675              	.LBB1199:
 676              	.LBB1200:
 677              	.LBB1201:
 678              	.LBB1202:
 679              		.loc 4 168 26 is_stmt 0 view .LVU146
 680 017c 7F43D378 		mr 3,26
 681              	.LBE1202:
 682              	.LBE1201:
 683              	.LBE1200:
 684              	.LBE1199:
 685              	.LBE1198:
 686              	.LBB1207:
 687              	.LBB1197:
 688              		.loc 2 782 52 view .LVU147
 689 0180 835A0008 		lwz 26,8(26)
 690              	.LVL43:
 691              		.loc 2 782 52 view .LVU148
 692              	.LBE1197:
 693              	.LBE1207:
 694              	.LBB1208:
 695              	.LBI1198:
 696              		.loc 2 631 7 is_stmt 1 view .LVU149
 697              	.LBB1206:
 698              	.LBI1199:
 699              		.loc 2 566 7 view .LVU150
 700              	.LBB1205:
 701              	.LBI1200:
 702              		.loc 3 515 7 view .LVU151
 703              	.LBB1204:
 704              	.LBI1201:
 705              		.loc 4 152 7 view .LVU152
 706              	.LBB1203:
 707              		.loc 4 168 26 is_stmt 0 view .LVU153
 708 0184 38800028 		li 4,40
 709 0188 48000001 		bl _ZdlPvj
 710              	.LVL44:
 711              		.loc 4 168 26 view .LVU154
 712              	.LBE1203:
 713              	.LBE1204:
 714              	.LBE1205:
 715              	.LBE1206:
 716              	.LBE1208:
 717              	.LBE1056:
 718              		.loc 2 1934 18 is_stmt 1 view .LVU155
 719 018c 2C1A0000 		cmpwi 0,26,0
 720 0190 4082FE8C 		bne+ 0,.L19
 721 0194 80010034 		lwz 0,52(1)
 722 0198 83210014 		lwz 25,20(1)
 723              		.cfi_restore 25
 724 019c 7C0803A6 		mtlr 0
 725              		.cfi_restore 65
 726              	.LVL45:
 727              	.L1:
 728              		.loc 2 1941 5 is_stmt 0 view .LVU156
 729 01a0 83410018 		lwz 26,24(1)
 730              	.LVL46:
 731              		.loc 2 1941 5 view .LVU157
 732 01a4 38210030 		addi 1,1,48
 733              		.cfi_restore 26
 734              		.cfi_def_cfa_offset 0
 735 01a8 4E800020 		blr
 736              		.cfi_endproc
 737              	.LFE1538:
 738              		.size	_ZNSt8_Rb_treeIwSt4pairIKw13ftgxCharData_ESt10_Select1stIS3_ESt4lessIwESaIS3_EE8_M_eraseEPSt
 739              		.section	.text._ZNSt8_Rb_treeIwSt4pairIKw13ftgxCharData_ESt10_Select1stIS3_ESt4lessIwESaIS3_EE22_M
 740              		.align 2
 741              		.type	_ZNSt8_Rb_treeIwSt4pairIKw13ftgxCharData_ESt10_Select1stIS3_ESt4lessIwESaIS3_EE22_M_emplace_
 742              	_ZNSt8_Rb_treeIwSt4pairIKw13ftgxCharData_ESt10_Select1stIS3_ESt4lessIwESaIS3_EE22_M_emplace_hint_un
 743              	.LVL47:
 744              	.LFB1541:
 745              		.loc 2 2458 7 is_stmt 1 view -0
 746              		.cfi_startproc
 747              		.loc 2 2458 7 is_stmt 0 view .LVU159
 748 0000 9421FFD8 		stwu 1,-40(1)
 749              		.cfi_def_cfa_offset 40
 750 0004 7C0802A6 		mflr 0
 751 0008 93410010 		stw 26,16(1)
 752 000c 93810018 		stw 28,24(1)
 753              		.cfi_register 65, 0
 754              		.cfi_offset 26, -24
 755              		.cfi_offset 28, -16
 756 0010 7C7C1B78 		mr 28,3
 757 0014 83440000 		lwz 26,0(4)
 758              	.LVL48:
 759              	.LBB1475:
 760              	.LBB1476:
 761              	.LBB1477:
 762              	.LBB1478:
 763              	.LBB1479:
 764              	.LBB1480:
 765              	.LBB1481:
 766              		.loc 4 147 48 view .LVU160
 767 0018 38600028 		li 3,40
 768              	.LVL49:
 769              		.loc 4 147 48 view .LVU161
 770              	.LBE1481:
 771              	.LBE1480:
 772              	.LBE1479:
 773              	.LBE1478:
 774              	.LBE1477:
 775              	.LBE1476:
 776              	.LBE1475:
 777              		.loc 2 2458 7 view .LVU162
 778 001c 9321000C 		stw 25,12(1)
 779              		.cfi_offset 25, -28
 780              	.LBB1523:
 781              	.LBB1524:
 782              	.LBB1525:
 783              	.LBB1526:
 784              	.LBB1527:
 785              		.loc 2 752 31 view .LVU163
 786 0020 3B3C0004 		addi 25,28,4
 787              	.LBE1527:
 788              	.LBE1526:
 789              	.LBE1525:
 790              	.LBE1524:
 791              	.LBE1523:
 792              		.loc 2 2458 7 view .LVU164
 793 0024 93C10020 		stw 30,32(1)
 794              		.cfi_offset 30, -8
 795 0028 7CBE2B78 		mr 30,5
 796              	.LVL50:
 797              	.LBB1672:
 798              	.LBI1475:
 799              		.loc 2 1635 4 is_stmt 1 view .LVU165
 800              	.LBB1520:
 801              	.LBI1476:
 802              		.loc 2 611 2 view .LVU166
 803              	.LBB1517:
 804              	.LBB1490:
 805              	.LBI1478:
 806              		.loc 2 562 7 view .LVU167
 807              	.LBB1487:
 808              	.LBI1479:
 809              		.loc 3 481 7 view .LVU168
 810              	.LBB1484:
 811              	.LBI1480:
 812              		.loc 4 122 7 view .LVU169
 813              		.loc 4 122 7 is_stmt 0 view .LVU170
 814              	.LBE1484:
 815              	.LBE1487:
 816              	.LBE1490:
 817              	.LBE1517:
 818              	.LBE1520:
 819              	.LBE1672:
 820              		.loc 2 2458 7 view .LVU171
 821 002c 93A1001C 		stw 29,28(1)
 822 0030 93E10024 		stw 31,36(1)
 823 0034 9001002C 		stw 0,44(1)
 824              		.cfi_offset 29, -12
 825              		.cfi_offset 31, -4
 826              		.cfi_offset 65, 4
 827              	.LBB1673:
 828              	.LBB1521:
 829              	.LBB1518:
 830              	.LBB1491:
 831              	.LBB1488:
 832              	.LBB1485:
 833              	.LBB1482:
 834              		.loc 4 147 48 view .LVU172
 835 0038 48000001 		bl _Znwj
 836              	.LVL51:
 837              		.loc 4 147 48 view .LVU173
 838              	.LBE1482:
 839              	.LBE1485:
 840              	.LBE1488:
 841              	.LBE1491:
 842              	.LBB1492:
 843              	.LBB1493:
 844              	.LBB1494:
 845              	.LBB1495:
 846              	.LBB1496:
 847              	.LBB1497:
 848              		.file 5 "C:/devkitPro/devkitPPC/powerpc-eabi/include/c++/13.1.0/tuple"
 849              		.loc 5 2253 9 discriminator 1 view .LVU174
 850 003c 815E0000 		lwz 10,0(30)
 851              	.LBE1497:
 852              	.LBE1496:
 853              	.LBE1495:
 854              	.LBE1494:
 855              	.LBE1493:
 856              	.LBE1492:
 857              	.LBE1518:
 858              	.LBE1521:
 859              	.LBE1673:
 860              	.LBB1674:
 861              	.LBB1664:
 862              	.LBB1654:
 863              		.loc 2 2218 7 discriminator 1 view .LVU175
 864 0040 7C19D040 		cmplw 0,25,26
 865              	.LBE1654:
 866              	.LBE1664:
 867              	.LBE1674:
 868              	.LBB1675:
 869              	.LBB1522:
 870              	.LBB1519:
 871              	.LBB1514:
 872              	.LBB1512:
 873              	.LBB1510:
 874              	.LBB1506:
 875              	.LBB1504:
 876              	.LBB1502:
 877              		.loc 5 2254 2 view .LVU176
 878 0044 39200000 		li 9,0
 879              	.LBE1502:
 880              	.LBE1504:
 881              	.LBE1506:
 882              	.LBE1510:
 883              	.LBE1512:
 884              	.LBE1514:
 885              	.LBB1515:
 886              	.LBB1489:
 887              	.LBB1486:
 888              	.LBB1483:
 889              		.loc 4 147 48 view .LVU177
 890 0048 7C7F1B78 		mr 31,3
 891              	.LVL52:
 892              		.loc 4 147 48 view .LVU178
 893              	.LBE1483:
 894              	.LBE1486:
 895              	.LBE1489:
 896              	.LBE1515:
 897              	.LBB1516:
 898              	.LBI1492:
 899              		.loc 2 592 2 is_stmt 1 view .LVU179
 900              	.LBB1513:
 901              	.LBI1493:
 902              		.loc 3 532 2 view .LVU180
 903              	.LBB1511:
 904              	.LBI1494:
 905              		.loc 4 185 2 view .LVU181
 906              	.LBB1507:
 907              	.LBI1507:
 908              		.loc 5 903 17 view .LVU182
 909              	.LBB1508:
 910              	.LBI1508:
 911              		.loc 5 527 7 view .LVU183
 912              		.loc 5 527 7 is_stmt 0 view .LVU184
 913              	.LBE1508:
 914              	.LBE1507:
 915              	.LBB1509:
 916              	.LBI1495:
 917              		.loc 5 2238 7 is_stmt 1 view .LVU185
 918              	.LBB1505:
 919              	.LBI1496:
 920              		.loc 5 2250 7 view .LVU186
 921              	.LBB1503:
 922              	.LBB1498:
 923              	.LBI1498:
 924              		.loc 5 1789 5 view .LVU187
 925              	.LBB1499:
 926              	.LBI1499:
 927              		.loc 5 1773 5 view .LVU188
 928              	.LBB1500:
 929              	.LBI1500:
 930              		.loc 5 497 7 view .LVU189
 931              	.LBB1501:
 932              	.LBI1501:
 933              		.loc 5 234 7 view .LVU190
 934              		.loc 5 234 7 is_stmt 0 view .LVU191
 935              	.LBE1501:
 936              	.LBE1500:
 937              	.LBE1499:
 938              	.LBE1498:
 939              		.loc 5 2253 9 discriminator 1 view .LVU192
 940 004c 83AA0000 		lwz 29,0(10)
 941 0050 7F5ED378 		mr 30,26
 942              	.LVL53:
 943              		.loc 5 2254 2 view .LVU193
 944 0054 91230014 		stw 9,20(3)
 945              		.loc 5 2253 9 discriminator 1 view .LVU194
 946 0058 93A30010 		stw 29,16(3)
 947              		.loc 5 2254 2 view .LVU195
 948 005c 91230018 		stw 9,24(3)
 949 0060 9123001C 		stw 9,28(3)
 950 0064 91230020 		stw 9,32(3)
 951 0068 91230024 		stw 9,36(3)
 952              	.LVL54:
 953              		.loc 5 2254 2 view .LVU196
 954              	.LBE1503:
 955              	.LBE1505:
 956              	.LBE1509:
 957              	.LBE1511:
 958              	.LBE1513:
 959              	.LBE1516:
 960              	.LBE1519:
 961              	.LBE1522:
 962              	.LBE1675:
 963              	.LBB1676:
 964              	.LBI1523:
 965              		.loc 2 2210 5 is_stmt 1 view .LVU197
 966              	.LBB1665:
 967              	.LBB1655:
 968              	.LBI1655:
 969              		.loc 2 354 7 view .LVU198
 970              	.LBB1656:
 971              	.LBI1656:
 972              		.loc 2 273 7 view .LVU199
 973              		.loc 2 273 7 is_stmt 0 view .LVU200
 974              	.LBE1656:
 975              	.LBE1655:
 976              	.LBB1657:
 977              	.LBB1528:
 978              	.LBI1526:
 979              		.loc 2 751 7 is_stmt 1 view .LVU201
 980              		.loc 2 751 7 is_stmt 0 view .LVU202
 981              	.LBE1528:
 982              		.loc 2 2218 7 discriminator 1 view .LVU203
 983 006c 41820104 		beq- 0,.L121
 984              	.LVL55:
 985              	.LBB1529:
 986              	.LBB1530:
 987              	.LBI1530:
 988              		.file 6 "C:/devkitPro/devkitPPC/powerpc-eabi/include/c++/13.1.0/bits/stl_function.h"
 989              		.loc 6 407 7 is_stmt 1 view .LVU204
 990              	.LBB1531:
 991              		.loc 6 408 20 is_stmt 0 view .LVU205
 992 0070 813A0010 		lwz 9,16(26)
 993              	.LVL56:
 994              		.loc 6 408 20 view .LVU206
 995              	.LBE1531:
 996              	.LBE1530:
 997              		.loc 2 2226 12 discriminator 1 view .LVU207
 998 0074 7C09E800 		cmpw 0,9,29
 999 0078 40810068 		ble- 0,.L68
 1000 007c 93610014 		stw 27,20(1)
 1001              		.cfi_offset 27, -20
 1002              	.LVL57:
 1003              	.LBB1532:
 1004              		.loc 2 2230 22 discriminator 1 view .LVU208
 1005 0080 837C000C 		lwz 27,12(28)
 1006              		.loc 2 2230 4 discriminator 1 view .LVU209
 1007 0084 7C1BD040 		cmplw 0,27,26
 1008 0088 41820188 		beq- 0,.L120
 1009              	.LVL58:
 1010              	.LBB1533:
 1011              	.LBI1533:
 1012              		.loc 2 300 7 is_stmt 1 view .LVU210
 1013              	.LBB1534:
 1014              		.loc 2 302 30 is_stmt 0 view .LVU211
 1015 008c 7F43D378 		mr 3,26
 1016              	.LVL59:
 1017              		.loc 2 302 30 view .LVU212
 1018 0090 48000001 		bl _ZSt18_Rb_tree_decrementPSt18_Rb_tree_node_base
 1019              	.LVL60:
 1020              	.LBE1534:
 1021              	.LBE1533:
 1022              		.loc 2 2232 9 discriminator 1 view .LVU213
 1023 0094 81430010 		lwz 10,16(3)
 1024              	.LBB1536:
 1025              	.LBB1535:
 1026              		.loc 2 302 30 view .LVU214
 1027 0098 7C691B78 		mr 9,3
 1028              	.LVL61:
 1029              		.loc 2 302 30 view .LVU215
 1030              	.LBE1535:
 1031              	.LBE1536:
 1032              	.LBB1537:
 1033              	.LBI1537:
 1034              		.loc 6 407 7 is_stmt 1 view .LVU216
 1035              		.loc 6 407 7 is_stmt 0 view .LVU217
 1036              	.LBE1537:
 1037              		.loc 2 2232 9 discriminator 1 view .LVU218
 1038 009c 7C0AE800 		cmpw 0,10,29
 1039 00a0 41800164 		blt- 0,.L122
 1040              	.LVL62:
 1041              	.LBB1538:
 1042              	.LBI1538:
 1043              		.loc 2 2108 5 is_stmt 1 view .LVU219
 1044              	.LBB1539:
 1045              	.LBB1540:
 1046              	.LBI1540:
 1047              		.loc 2 740 7 view .LVU220
 1048              	.LBB1541:
 1049              	.LBI1541:
 1050              		.loc 2 736 7 view .LVU221
 1051              	.LBB1542:
 1052              		.loc 2 737 73 is_stmt 0 view .LVU222
 1053 00a4 83DC0008 		lwz 30,8(28)
 1054              	.LVL63:
 1055              		.loc 2 737 73 view .LVU223
 1056              	.LBE1542:
 1057              	.LBE1541:
 1058              	.LBE1540:
 1059              		.loc 2 2115 18 is_stmt 1 view .LVU224
 1060 00a8 2C1E0000 		cmpwi 0,30,0
 1061 00ac 40A20018 		bne+ 0,.L74
 1062 00b0 480002B0 		b .L123
 1063              	.LVL64:
 1064              	.L125:
 1065              	.LBB1543:
 1066              	.LBB1544:
 1067              		.loc 2 782 52 is_stmt 0 view .LVU225
 1068 00b4 813E0008 		lwz 9,8(30)
 1069              	.LVL65:
 1070              	.L73:
 1071              		.loc 2 782 52 view .LVU226
 1072              	.LBE1544:
 1073              	.LBE1543:
 1074              		.loc 2 2115 18 is_stmt 1 view .LVU227
 1075 00b8 2C090000 		cmpwi 0,9,0
 1076 00bc 418201B4 		beq- 0,.L124
 1077 00c0 7D3E4B78 		mr 30,9
 1078              	.LVL66:
 1079              	.L74:
 1080              	.LBB1545:
 1081              	.LBI1545:
 1082              		.loc 6 407 7 view .LVU228
 1083              		.loc 6 407 7 is_stmt 0 view .LVU229
 1084              	.LBE1545:
 1085              	.LBB1547:
 1086              	.LBI1543:
 1087              		.loc 2 781 7 is_stmt 1 view .LVU230
 1088              		.loc 2 781 7 is_stmt 0 view .LVU231
 1089              	.LBE1547:
 1090              	.LBB1548:
 1091              	.LBI1548:
 1092              		.loc 2 789 7 is_stmt 1 view .LVU232
 1093              	.LBE1548:
 1094              	.LBB1550:
 1095              	.LBB1546:
 1096              		.loc 6 408 20 is_stmt 0 view .LVU233
 1097 00c4 815E0010 		lwz 10,16(30)
 1098              	.LVL67:
 1099              		.loc 6 408 20 view .LVU234
 1100              	.LBE1546:
 1101              	.LBE1550:
 1102 00c8 39000001 		li 8,1
 1103              		.loc 2 2119 17 view .LVU235
 1104 00cc 7C1D5000 		cmpw 0,29,10
 1105 00d0 41A0FFE4 		blt- 0,.L125
 1106              	.LBB1551:
 1107              	.LBB1549:
 1108              		.loc 2 790 53 view .LVU236
 1109 00d4 813E000C 		lwz 9,12(30)
 1110              	.LVL68:
 1111              		.loc 2 790 53 view .LVU237
 1112 00d8 39000000 		li 8,0
 1113 00dc 4BFFFFDC 		b .L73
 1114              	.LVL69:
 1115              	.L68:
 1116              		.cfi_restore 27
 1117              		.loc 2 790 53 view .LVU238
 1118              	.LBE1549:
 1119              	.LBE1551:
 1120              	.LBE1539:
 1121              	.LBE1538:
 1122              	.LBE1532:
 1123              	.LBB1571:
 1124              		.loc 2 2242 12 discriminator 1 view .LVU239
 1125 00e0 40800058 		bge- 0,.L67
 1126              	.LVL70:
 1127              	.LBB1572:
 1128              		.loc 2 2246 4 discriminator 1 view .LVU240
 1129 00e4 813C0010 		lwz 9,16(28)
 1130 00e8 7C09D000 		cmpw 0,9,26
 1131 00ec 418200AC 		beq- 0,.L76
 1132              	.LVL71:
 1133              	.LBB1573:
 1134              	.LBI1573:
 1135              		.loc 2 285 7 is_stmt 1 view .LVU241
 1136              	.LBB1574:
 1137              		.loc 2 287 30 is_stmt 0 view .LVU242
 1138 00f0 7F43D378 		mr 3,26
 1139              	.LVL72:
 1140              		.loc 2 287 30 view .LVU243
 1141 00f4 48000001 		bl _ZSt18_Rb_tree_incrementPSt18_Rb_tree_node_base
 1142              	.LVL73:
 1143              		.loc 2 287 30 view .LVU244
 1144              	.LBE1574:
 1145              	.LBE1573:
 1146              	.LBB1575:
 1147              	.LBI1575:
 1148              		.loc 6 407 7 is_stmt 1 view .LVU245
 1149              		.loc 6 407 7 is_stmt 0 view .LVU246
 1150              	.LBE1575:
 1151              		.loc 2 2248 9 discriminator 1 view .LVU247
 1152 00f8 81230010 		lwz 9,16(3)
 1153 00fc 7C09E800 		cmpw 0,9,29
 1154 0100 408101B0 		ble- 0,.L77
 1155              	.LVL74:
 1156              	.LBB1576:
 1157              	.LBI1576:
 1158              		.loc 2 789 7 is_stmt 1 view .LVU248
 1159              		.loc 2 789 7 is_stmt 0 view .LVU249
 1160              	.LBE1576:
 1161              		.loc 2 2250 8 discriminator 1 view .LVU250
 1162 0104 813A000C 		lwz 9,12(26)
 1163 0108 2C090000 		cmpwi 0,9,0
 1164 010c 4182008C 		beq- 0,.L76
 1165              	.LBE1572:
 1166              	.LBE1571:
 1167              	.LBE1529:
 1168              	.LBE1657:
 1169              	.LBE1665:
 1170              	.LBE1676:
 1171              		.loc 2 2463 44 discriminator 1 view .LVU251
 1172 0110 7C7E1B78 		mr 30,3
 1173              	.LVL75:
 1174              	.LBB1677:
 1175              	.LBB1678:
 1176              	.LBB1679:
 1177              	.LBB1680:
 1178              		.loc 2 2382 8 discriminator 2 view .LVU252
 1179 0114 38600001 		li 3,1
 1180              	.LVL76:
 1181              		.loc 2 2382 8 discriminator 2 view .LVU253
 1182 0118 48000100 		b .L69
 1183              	.LVL77:
 1184              	.L127:
 1185              		.cfi_offset 27, -20
 1186              		.loc 2 2382 8 discriminator 2 view .LVU254
 1187              	.LBE1680:
 1188              	.LBE1679:
 1189              	.LBE1678:
 1190              	.LBE1677:
 1191              	.LBB1698:
 1192              	.LBB1666:
 1193              	.LBB1658:
 1194              	.LBB1615:
 1195              	.LBB1616:
 1196              	.LBB1617:
 1197              	.LBI1617:
 1198              		.loc 2 273 7 is_stmt 1 view .LVU255
 1199              		.loc 2 273 7 is_stmt 0 view .LVU256
 1200              	.LBE1617:
 1201              		.loc 2 2122 7 view .LVU257
 1202 011c 71080001 		andi. 8,8,0x1
 1203 0120 7F69DB78 		mr 9,27
 1204              	.LVL78:
 1205              		.loc 2 2122 7 view .LVU258
 1206 0124 40820168 		bne- 0,.L126
 1207              	.LVL79:
 1208              	.L66:
 1209              	.LBB1618:
 1210              	.LBI1618:
 1211              		.loc 6 407 7 is_stmt 1 view .LVU259
 1212              		.loc 6 407 7 is_stmt 0 view .LVU260
 1213              	.LBE1618:
 1214              		.loc 2 2129 7 discriminator 1 view .LVU261
 1215 0128 7C0AE800 		cmpw 0,10,29
 1216 012c 4180013C 		blt- 0,.L118
 1217              		.loc 2 2129 7 discriminator 1 view .LVU262
 1218              	.LBE1616:
 1219              	.LBE1615:
 1220              	.LBE1658:
 1221              	.LBE1666:
 1222              	.LBE1698:
 1223              		.loc 2 2463 44 discriminator 1 view .LVU263
 1224 0130 7F7EDB78 		mr 30,27
 1225              	.LVL80:
 1226              		.loc 2 2463 44 discriminator 1 view .LVU264
 1227 0134 83610014 		lwz 27,20(1)
 1228              		.cfi_restore 27
 1229              	.LVL81:
 1230              	.L67:
 1231              	.LBB1699:
 1232              	.LBI1699:
 1233              		.loc 2 273 7 is_stmt 1 view .LVU265
 1234              		.loc 2 273 7 is_stmt 0 view .LVU266
 1235              	.LBE1699:
 1236              	.LBB1700:
 1237              	.LBB1701:
 1238              	.LBB1702:
 1239              	.LBB1703:
 1240              	.LBB1704:
 1241              	.LBB1705:
 1242              		.loc 4 168 26 view .LVU267
 1243 0138 7FE3FB78 		mr 3,31
 1244 013c 38800028 		li 4,40
 1245              	.LVL82:
 1246              		.loc 4 168 26 view .LVU268
 1247              	.LBE1705:
 1248              	.LBE1704:
 1249              	.LBE1703:
 1250              	.LBE1702:
 1251              	.LBE1701:
 1252              	.LBI1700:
 1253              		.loc 2 1640 2 is_stmt 1 view .LVU269
 1254              	.LBB1710:
 1255              	.LBI1701:
 1256              		.loc 2 631 7 view .LVU270
 1257              	.LBB1709:
 1258              	.LBI1702:
 1259              		.loc 2 566 7 view .LVU271
 1260              	.LBB1708:
 1261              	.LBI1703:
 1262              		.loc 3 515 7 view .LVU272
 1263              	.LBB1707:
 1264              	.LBI1704:
 1265              		.loc 4 152 7 view .LVU273
 1266              	.LBB1706:
 1267              		.loc 4 168 26 is_stmt 0 view .LVU274
 1268 0140 48000001 		bl _ZdlPvj
 1269              	.LVL83:
 1270              		.loc 4 168 26 view .LVU275
 1271              	.LBE1706:
 1272              	.LBE1707:
 1273              	.LBE1708:
 1274              	.LBE1709:
 1275              	.LBE1710:
 1276              	.LBE1700:
 1277              		.loc 2 2467 7 view .LVU276
 1278 0144 8001002C 		lwz 0,44(1)
 1279 0148 7FC3F378 		mr 3,30
 1280 014c 8321000C 		lwz 25,12(1)
 1281 0150 83410010 		lwz 26,16(1)
 1282              	.LVL84:
 1283              		.loc 2 2467 7 view .LVU277
 1284 0154 7C0803A6 		mtlr 0
 1285              		.cfi_remember_state
 1286              		.cfi_restore 65
 1287 0158 83810018 		lwz 28,24(1)
 1288              	.LVL85:
 1289              		.loc 2 2467 7 view .LVU278
 1290 015c 83A1001C 		lwz 29,28(1)
 1291 0160 83C10020 		lwz 30,32(1)
 1292 0164 83E10024 		lwz 31,36(1)
 1293              	.LVL86:
 1294              		.loc 2 2467 7 view .LVU279
 1295 0168 38210028 		addi 1,1,40
 1296              		.cfi_restore 31
 1297              		.cfi_restore 30
 1298              		.cfi_restore 29
 1299              		.cfi_restore 28
 1300              		.cfi_restore 26
 1301              		.cfi_restore 25
 1302              		.cfi_def_cfa_offset 0
 1303 016c 4E800020 		blr
 1304              	.LVL87:
 1305              	.L121:
 1306              		.cfi_restore_state
 1307              	.LBB1711:
 1308              	.LBB1667:
 1309              	.LBB1659:
 1310              	.LBB1645:
 1311              	.LBI1645:
 1312              		.loc 2 1033 7 is_stmt 1 view .LVU280
 1313              		.loc 2 1033 7 is_stmt 0 view .LVU281
 1314              	.LBE1645:
 1315              		.loc 2 2221 8 view .LVU282
 1316 0170 813C0014 		lwz 9,20(28)
 1317 0174 2C090000 		cmpwi 0,9,0
 1318 0178 4182003C 		beq- 0,.L60
 1319              		.loc 2 2221 33 discriminator 1 view .LVU283
 1320 017c 813C0010 		lwz 9,16(28)
 1321              	.LVL88:
 1322              	.LBB1646:
 1323              	.LBI1646:
 1324              		.loc 6 407 7 is_stmt 1 view .LVU284
 1325              		.loc 6 407 7 is_stmt 0 view .LVU285
 1326              	.LBE1646:
 1327              		.loc 2 2221 8 discriminator 1 view .LVU286
 1328 0180 81490010 		lwz 10,16(9)
 1329 0184 7C0AE800 		cmpw 0,10,29
 1330 0188 4080002C 		bge- 0,.L60
 1331              	.LVL89:
 1332              	.L61:
 1333              		.loc 2 2221 8 discriminator 1 view .LVU287
 1334              	.LBE1659:
 1335              	.LBE1667:
 1336              	.LBE1711:
 1337              	.LBB1712:
 1338              	.LBB1693:
 1339              	.LBB1688:
 1340              	.LBB1683:
 1341              		.loc 2 2381 38 discriminator 1 view .LVU288
 1342 018c 7C194840 		cmplw 0,25,9
 1343 0190 41820188 		beq- 0,.L100
 1344 0194 7D3E4B78 		mr 30,9
 1345              	.L76:
 1346              	.LVL90:
 1347              	.LBB1681:
 1348              	.LBI1681:
 1349              		.loc 6 407 7 is_stmt 1 view .LVU289
 1350              		.loc 6 407 7 is_stmt 0 view .LVU290
 1351              	.LBE1681:
 1352              		.loc 2 2382 8 discriminator 3 view .LVU291
 1353 0198 813E0010 		lwz 9,16(30)
 1354 019c 7FAAFE70 		srawi 10,29,31
 1355 01a0 55230FFE 		srwi 3,9,31
 1356 01a4 7D29E810 		subfc 9,9,29
 1357 01a8 7C635114 		adde 3,3,10
 1358 01ac 68630001 		xori 3,3,0x1
 1359 01b0 48000068 		b .L69
 1360              	.LVL91:
 1361              	.L60:
 1362              		.loc 2 2382 8 discriminator 3 view .LVU292
 1363 01b4 93610014 		stw 27,20(1)
 1364              		.cfi_offset 27, -20
 1365              	.LVL92:
 1366              		.loc 2 2382 8 discriminator 3 view .LVU293
 1367              	.LBE1683:
 1368              	.LBE1688:
 1369              	.LBE1693:
 1370              	.LBE1712:
 1371              	.LBB1713:
 1372              	.LBB1668:
 1373              	.LBB1660:
 1374              	.LBB1647:
 1375              	.LBI1615:
 1376              		.loc 2 2108 5 is_stmt 1 view .LVU294
 1377              	.LBB1643:
 1378              	.LBB1620:
 1379              	.LBI1620:
 1380              		.loc 2 740 7 view .LVU295
 1381              	.LBB1621:
 1382              	.LBI1621:
 1383              		.loc 2 736 7 view .LVU296
 1384              	.LBB1622:
 1385              		.loc 2 737 73 is_stmt 0 view .LVU297
 1386 01b8 837C0008 		lwz 27,8(28)
 1387              	.LVL93:
 1388              		.loc 2 737 73 view .LVU298
 1389              	.LBE1622:
 1390              	.LBE1621:
 1391              	.LBE1620:
 1392              		.loc 2 2115 18 is_stmt 1 view .LVU299
 1393 01bc 2C1B0000 		cmpwi 0,27,0
 1394 01c0 40A20028 		bne+ 0,.L65
 1395              	.LVL94:
 1396              	.LBB1623:
 1397              	.LBI1623:
 1398              		.loc 2 997 7 view .LVU300
 1399              	.LBB1624:
 1400              	.LBB1625:
 1401              	.LBI1625:
 1402              		.loc 2 273 7 view .LVU301
 1403              		.loc 2 273 7 is_stmt 0 view .LVU302
 1404              	.LBE1625:
 1405              	.LBE1624:
 1406              	.LBE1623:
 1407              		.loc 2 2124 4 discriminator 2 view .LVU303
 1408 01c4 813C000C 		lwz 9,12(28)
 1409              		.loc 2 2113 17 discriminator 1 view .LVU304
 1410 01c8 7F5BD378 		mr 27,26
 1411              	.LVL95:
 1412              		.loc 2 2124 4 discriminator 2 view .LVU305
 1413 01cc 7C1A4800 		cmpw 0,26,9
 1414 01d0 40A200C8 		bne+ 0,.L84
 1415 01d4 4800003C 		b .L120
 1416              	.LVL96:
 1417              	.L128:
 1418              	.LBB1628:
 1419              	.LBB1629:
 1420              		.loc 2 782 52 view .LVU306
 1421 01d8 813B0008 		lwz 9,8(27)
 1422              	.LVL97:
 1423              	.L64:
 1424              		.loc 2 782 52 view .LVU307
 1425              	.LBE1629:
 1426              	.LBE1628:
 1427              		.loc 2 2115 18 is_stmt 1 view .LVU308
 1428 01dc 2C090000 		cmpwi 0,9,0
 1429 01e0 41A2FF3C 		beq- 0,.L127
 1430 01e4 7D3B4B78 		mr 27,9
 1431              	.LVL98:
 1432              	.L65:
 1433              	.LBB1630:
 1434              	.LBI1630:
 1435              		.loc 6 407 7 view .LVU309
 1436              		.loc 6 407 7 is_stmt 0 view .LVU310
 1437              	.LBE1630:
 1438              	.LBB1632:
 1439              	.LBI1628:
 1440              		.loc 2 781 7 is_stmt 1 view .LVU311
 1441              		.loc 2 781 7 is_stmt 0 view .LVU312
 1442              	.LBE1632:
 1443              	.LBB1633:
 1444              	.LBI1633:
 1445              		.loc 2 789 7 is_stmt 1 view .LVU313
 1446              	.LBE1633:
 1447              	.LBB1635:
 1448              	.LBB1631:
 1449              		.loc 6 408 20 is_stmt 0 view .LVU314
 1450 01e8 815B0010 		lwz 10,16(27)
 1451              	.LVL99:
 1452              		.loc 6 408 20 view .LVU315
 1453              	.LBE1631:
 1454              	.LBE1635:
 1455 01ec 39000001 		li 8,1
 1456              		.loc 2 2119 17 view .LVU316
 1457 01f0 7C1D5000 		cmpw 0,29,10
 1458 01f4 41A0FFE4 		blt- 0,.L128
 1459              	.LBB1636:
 1460              	.LBB1634:
 1461              		.loc 2 790 53 view .LVU317
 1462 01f8 813B000C 		lwz 9,12(27)
 1463              	.LVL100:
 1464              		.loc 2 790 53 view .LVU318
 1465 01fc 39000000 		li 8,0
 1466 0200 4BFFFFDC 		b .L64
 1467              	.LVL101:
 1468              	.L122:
 1469              		.loc 2 790 53 view .LVU319
 1470              	.LBE1634:
 1471              	.LBE1636:
 1472              	.LBE1643:
 1473              	.LBE1647:
 1474              	.LBB1648:
 1475              	.LBB1609:
 1476              	.LBB1567:
 1477              	.LBI1567:
 1478              		.loc 2 789 7 is_stmt 1 view .LVU320
 1479              		.loc 2 789 7 is_stmt 0 view .LVU321
 1480              	.LBE1567:
 1481              		.loc 2 2234 8 discriminator 1 view .LVU322
 1482 0204 8143000C 		lwz 10,12(3)
 1483 0208 2C0A0000 		cmpwi 0,10,0
 1484 020c 4182005C 		beq- 0,.L118
 1485              	.LVL102:
 1486              	.L120:
 1487              		.loc 2 2234 8 discriminator 1 view .LVU323
 1488 0210 83610014 		lwz 27,20(1)
 1489              		.cfi_restore 27
 1490              	.LBE1609:
 1491              	.LBE1648:
 1492              	.LBE1660:
 1493              	.LBE1668:
 1494              	.LBE1713:
 1495              	.LBB1714:
 1496              	.LBB1694:
 1497              	.LBB1689:
 1498              	.LBB1684:
 1499              		.loc 2 2382 8 discriminator 2 view .LVU324
 1500 0214 38600001 		li 3,1
 1501              	.LVL103:
 1502              	.L69:
 1503              		.loc 2 2385 36 view .LVU325
 1504 0218 7F26CB78 		mr 6,25
 1505 021c 7FC5F378 		mr 5,30
 1506 0220 5463063E 		rlwinm 3,3,0,0xff
 1507              		.loc 2 2385 36 view .LVU326
 1508 0224 7FE4FB78 		mr 4,31
 1509 0228 48000001 		bl _ZSt29_Rb_tree_insert_and_rebalancebPSt18_Rb_tree_node_baseS0_RS_
 1510              	.LVL104:
 1511              		.loc 2 2387 7 view .LVU327
 1512 022c 813C0014 		lwz 9,20(28)
 1513              	.LBE1684:
 1514              	.LBE1689:
 1515              	.LBE1694:
 1516              	.LBE1714:
 1517              		.loc 2 2467 7 view .LVU328
 1518 0230 8001002C 		lwz 0,44(1)
 1519 0234 7FFEFB78 		mr 30,31
 1520              	.LBB1715:
 1521              	.LBB1695:
 1522              	.LBB1690:
 1523              	.LBB1685:
 1524              		.loc 2 2387 7 view .LVU329
 1525 0238 39290001 		addi 9,9,1
 1526              	.LBE1685:
 1527              	.LBE1690:
 1528              	.LBE1695:
 1529              	.LBE1715:
 1530              		.loc 2 2467 7 view .LVU330
 1531 023c 7FC3F378 		mr 3,30
 1532              	.LBB1716:
 1533              	.LBB1696:
 1534              	.LBB1691:
 1535              	.LBB1686:
 1536              		.loc 2 2387 7 view .LVU331
 1537 0240 913C0014 		stw 9,20(28)
 1538              	.LVL105:
 1539              	.LBB1682:
 1540              	.LBI1682:
 1541              		.loc 2 273 7 is_stmt 1 view .LVU332
 1542              		.loc 2 273 7 is_stmt 0 view .LVU333
 1543              	.LBE1682:
 1544              	.LBE1686:
 1545              	.LBE1691:
 1546              	.LBE1696:
 1547              	.LBE1716:
 1548              	.LBB1717:
 1549              		.loc 2 1640 2 is_stmt 1 view .LVU334
 1550              	.LBE1717:
 1551              		.loc 2 2467 7 is_stmt 0 view .LVU335
 1552 0244 7C0803A6 		mtlr 0
 1553              		.cfi_restore 65
 1554 0248 8321000C 		lwz 25,12(1)
 1555 024c 83410010 		lwz 26,16(1)
 1556              	.LVL106:
 1557              		.loc 2 2467 7 view .LVU336
 1558 0250 83810018 		lwz 28,24(1)
 1559              	.LVL107:
 1560              		.loc 2 2467 7 view .LVU337
 1561 0254 83A1001C 		lwz 29,28(1)
 1562 0258 83C10020 		lwz 30,32(1)
 1563 025c 83E10024 		lwz 31,36(1)
 1564              	.LVL108:
 1565              		.loc 2 2467 7 view .LVU338
 1566 0260 38210028 		addi 1,1,40
 1567              		.cfi_restore 31
 1568              		.cfi_restore 30
 1569              		.cfi_restore 29
 1570              		.cfi_restore 28
 1571              		.cfi_restore 26
 1572              		.cfi_restore 25
 1573              		.cfi_def_cfa_offset 0
 1574 0264 4E800020 		blr
 1575              	.LVL109:
 1576              	.L118:
 1577              		.cfi_def_cfa_offset 40
 1578              		.cfi_offset 25, -28
 1579              		.cfi_offset 26, -24
 1580              		.cfi_offset 27, -20
 1581              		.cfi_offset 28, -16
 1582              		.cfi_offset 29, -12
 1583              		.cfi_offset 30, -8
 1584              		.cfi_offset 31, -4
 1585              		.cfi_offset 65, 4
 1586              		.loc 2 2467 7 view .LVU339
 1587 0268 83610014 		lwz 27,20(1)
 1588              		.cfi_remember_state
 1589              		.cfi_restore 27
 1590 026c 4BFFFF20 		b .L61
 1591              	.LVL110:
 1592              	.L124:
 1593              		.cfi_restore_state
 1594              	.LBB1718:
 1595              	.LBB1669:
 1596              	.LBB1661:
 1597              	.LBB1649:
 1598              	.LBB1610:
 1599              	.LBB1568:
 1600              	.LBB1564:
 1601              	.LBB1552:
 1602              	.LBI1552:
 1603              		.loc 2 273 7 is_stmt 1 view .LVU340
 1604              		.loc 2 273 7 is_stmt 0 view .LVU341
 1605              	.LBE1552:
 1606              		.loc 2 2122 7 view .LVU342
 1607 0270 71080001 		andi. 8,8,0x1
 1608 0274 7FC9F378 		mr 9,30
 1609              	.LVL111:
 1610              		.loc 2 2122 7 view .LVU343
 1611 0278 408200C8 		bne- 0,.L129
 1612              	.LVL112:
 1613              	.L75:
 1614              	.LBB1553:
 1615              	.LBI1553:
 1616              		.loc 6 407 7 is_stmt 1 view .LVU344
 1617              		.loc 6 407 7 is_stmt 0 view .LVU345
 1618              	.LBE1553:
 1619              		.loc 2 2129 7 discriminator 1 view .LVU346
 1620 027c 7C0AE800 		cmpw 0,10,29
 1621 0280 83610014 		lwz 27,20(1)
 1622              		.cfi_remember_state
 1623              		.cfi_restore 27
 1624 0284 41A0FF08 		blt- 0,.L61
 1625              		.loc 2 2129 7 discriminator 1 view .LVU347
 1626 0288 4BFFFEB0 		b .L67
 1627              	.LVL113:
 1628              	.L126:
 1629              		.cfi_restore_state
 1630              		.loc 2 2129 7 discriminator 1 view .LVU348
 1631              	.LBE1564:
 1632              	.LBE1568:
 1633              	.LBE1610:
 1634              	.LBE1649:
 1635              	.LBB1650:
 1636              	.LBB1644:
 1637              	.LBB1637:
 1638              		.loc 2 997 7 is_stmt 1 view .LVU349
 1639              	.LBB1627:
 1640              	.LBB1626:
 1641              		.loc 2 273 7 view .LVU350
 1642              		.loc 2 273 7 is_stmt 0 view .LVU351
 1643              	.LBE1626:
 1644              	.LBE1627:
 1645              	.LBE1637:
 1646              		.loc 2 2124 4 discriminator 2 view .LVU352
 1647 028c 815C000C 		lwz 10,12(28)
 1648 0290 7C0AD800 		cmpw 0,10,27
 1649 0294 41A2FFD4 		beq- 0,.L118
 1650              	.LVL114:
 1651              	.L84:
 1652              	.LBB1638:
 1653              	.LBI1638:
 1654              		.loc 2 300 7 is_stmt 1 view .LVU353
 1655              	.LBB1639:
 1656              		.loc 2 302 30 is_stmt 0 view .LVU354
 1657 0298 7F63DB78 		mr 3,27
 1658              	.LVL115:
 1659              		.loc 2 302 30 view .LVU355
 1660 029c 48000001 		bl _ZSt18_Rb_tree_decrementPSt18_Rb_tree_node_base
 1661              	.LVL116:
 1662              		.loc 2 303 10 view .LVU356
 1663 02a0 7F69DB78 		mr 9,27
 1664              	.LBE1639:
 1665              	.LBE1638:
 1666              	.LBB1641:
 1667              	.LBB1619:
 1668              		.loc 6 408 20 view .LVU357
 1669 02a4 81430010 		lwz 10,16(3)
 1670              	.LBE1619:
 1671              	.LBE1641:
 1672              	.LBB1642:
 1673              	.LBB1640:
 1674              		.loc 2 302 10 discriminator 1 view .LVU358
 1675 02a8 7C7B1B78 		mr 27,3
 1676              		.loc 2 303 10 view .LVU359
 1677 02ac 4BFFFE7C 		b .L66
 1678              	.LVL117:
 1679              	.L77:
 1680              		.cfi_restore 27
 1681              		.loc 2 303 10 view .LVU360
 1682              	.LBE1640:
 1683              	.LBE1642:
 1684              	.LBE1644:
 1685              	.LBE1650:
 1686              	.LBB1651:
 1687              	.LBB1611:
 1688              	.LBB1607:
 1689              	.LBB1577:
 1690              	.LBI1577:
 1691              		.loc 2 2108 5 is_stmt 1 view .LVU361
 1692              	.LBB1578:
 1693              	.LBB1579:
 1694              	.LBI1579:
 1695              		.loc 2 740 7 view .LVU362
 1696              	.LBB1580:
 1697              	.LBI1580:
 1698              		.loc 2 736 7 view .LVU363
 1699              	.LBB1581:
 1700              		.loc 2 737 73 is_stmt 0 view .LVU364
 1701 02b0 83DC0008 		lwz 30,8(28)
 1702              	.LVL118:
 1703              		.loc 2 737 73 view .LVU365
 1704              	.LBE1581:
 1705              	.LBE1580:
 1706              	.LBE1579:
 1707              		.loc 2 2115 18 is_stmt 1 view .LVU366
 1708 02b4 2C1E0000 		cmpwi 0,30,0
 1709 02b8 40A20044 		bne+ 0,.L81
 1710              	.LVL119:
 1711              	.LBB1582:
 1712              	.LBI1582:
 1713              		.loc 2 997 7 view .LVU367
 1714              	.LBB1583:
 1715              	.LBB1584:
 1716              	.LBI1584:
 1717              		.loc 2 273 7 view .LVU368
 1718              		.loc 2 273 7 is_stmt 0 view .LVU369
 1719              	.LBE1584:
 1720              	.LBE1583:
 1721              	.LBE1582:
 1722              		.loc 2 2124 4 discriminator 2 view .LVU370
 1723 02bc 813C000C 		lwz 9,12(28)
 1724              		.loc 2 2113 17 discriminator 1 view .LVU371
 1725 02c0 7F3ECB78 		mr 30,25
 1726              	.LVL120:
 1727              		.loc 2 2124 4 discriminator 2 view .LVU372
 1728 02c4 7C194800 		cmpw 0,25,9
 1729 02c8 41820050 		beq- 0,.L100
 1730              	.LVL121:
 1731              	.L86:
 1732              	.LBB1587:
 1733              	.LBI1587:
 1734              		.loc 2 300 7 is_stmt 1 view .LVU373
 1735              	.LBB1588:
 1736              		.loc 2 302 30 is_stmt 0 view .LVU374
 1737 02cc 7FC3F378 		mr 3,30
 1738              	.LVL122:
 1739              		.loc 2 302 30 view .LVU375
 1740 02d0 48000001 		bl _ZSt18_Rb_tree_decrementPSt18_Rb_tree_node_base
 1741              	.LVL123:
 1742              		.loc 2 303 10 view .LVU376
 1743 02d4 7FC9F378 		mr 9,30
 1744              	.LBE1588:
 1745              	.LBE1587:
 1746              	.LBB1590:
 1747              	.LBB1591:
 1748              		.loc 6 408 20 view .LVU377
 1749 02d8 81430010 		lwz 10,16(3)
 1750              	.LBE1591:
 1751              	.LBE1590:
 1752              	.LBB1592:
 1753              	.LBB1589:
 1754              		.loc 2 302 10 discriminator 1 view .LVU378
 1755 02dc 7C7E1B78 		mr 30,3
 1756 02e0 7F9D5000 		cmpw 7,29,10
 1757              	.LVL124:
 1758              	.L82:
 1759              		.loc 2 302 10 discriminator 1 view .LVU379
 1760              	.LBE1589:
 1761              	.LBE1592:
 1762              	.LBB1593:
 1763              	.LBI1590:
 1764              		.loc 6 407 7 is_stmt 1 view .LVU380
 1765              		.loc 6 407 7 is_stmt 0 view .LVU381
 1766              	.LBE1593:
 1767              		.loc 2 2129 7 discriminator 1 view .LVU382
 1768 02e4 40BDFE54 		ble- 7,.L67
 1769              		.loc 2 2129 7 discriminator 1 view .LVU383
 1770 02e8 4BFFFEA4 		b .L61
 1771              	.LVL125:
 1772              	.L131:
 1773              	.LBB1594:
 1774              	.LBB1595:
 1775              		.loc 2 782 52 view .LVU384
 1776 02ec 813E0008 		lwz 9,8(30)
 1777              	.LVL126:
 1778              	.L80:
 1779              		.loc 2 782 52 view .LVU385
 1780              	.LBE1595:
 1781              	.LBE1594:
 1782              		.loc 2 2115 18 is_stmt 1 view .LVU386
 1783 02f0 2C090000 		cmpwi 0,9,0
 1784 02f4 41820030 		beq- 0,.L130
 1785 02f8 7D3E4B78 		mr 30,9
 1786              	.LVL127:
 1787              	.L81:
 1788              	.LBB1596:
 1789              	.LBI1596:
 1790              		.loc 6 407 7 view .LVU387
 1791              		.loc 6 407 7 is_stmt 0 view .LVU388
 1792              	.LBE1596:
 1793              	.LBB1598:
 1794              	.LBI1594:
 1795              		.loc 2 781 7 is_stmt 1 view .LVU389
 1796              		.loc 2 781 7 is_stmt 0 view .LVU390
 1797              	.LBE1598:
 1798              	.LBB1599:
 1799              	.LBI1599:
 1800              		.loc 2 789 7 is_stmt 1 view .LVU391
 1801              	.LBE1599:
 1802              	.LBB1601:
 1803              	.LBB1597:
 1804              		.loc 6 408 20 is_stmt 0 view .LVU392
 1805 02fc 813E0010 		lwz 9,16(30)
 1806              	.LVL128:
 1807              		.loc 6 408 20 view .LVU393
 1808              	.LBE1597:
 1809              	.LBE1601:
 1810 0300 39400001 		li 10,1
 1811              		.loc 2 2119 17 view .LVU394
 1812 0304 7F9D4800 		cmpw 7,29,9
 1813 0308 41BCFFE4 		blt- 7,.L131
 1814              	.LBB1602:
 1815              	.LBB1600:
 1816              		.loc 2 790 53 view .LVU395
 1817 030c 813E000C 		lwz 9,12(30)
 1818              	.LVL129:
 1819              		.loc 2 790 53 view .LVU396
 1820 0310 39400000 		li 10,0
 1821 0314 4BFFFFDC 		b .L80
 1822              	.LVL130:
 1823              	.L100:
 1824              		.loc 2 790 53 view .LVU397
 1825              	.LBE1600:
 1826              	.LBE1602:
 1827              	.LBE1578:
 1828              	.LBE1577:
 1829              	.LBE1607:
 1830              	.LBE1611:
 1831              	.LBE1651:
 1832              	.LBE1661:
 1833              	.LBE1669:
 1834              	.LBE1718:
 1835              		.loc 2 2463 44 discriminator 1 view .LVU398
 1836 0318 7F3ECB78 		mr 30,25
 1837              	.LBB1719:
 1838              	.LBB1697:
 1839              	.LBB1692:
 1840              	.LBB1687:
 1841              		.loc 2 2382 8 discriminator 2 view .LVU399
 1842 031c 38600001 		li 3,1
 1843 0320 4BFFFEF8 		b .L69
 1844              	.LVL131:
 1845              	.L130:
 1846              		.loc 2 2382 8 discriminator 2 view .LVU400
 1847              	.LBE1687:
 1848              	.LBE1692:
 1849              	.LBE1697:
 1850              	.LBE1719:
 1851              	.LBB1720:
 1852              	.LBB1670:
 1853              	.LBB1662:
 1854              	.LBB1652:
 1855              	.LBB1612:
 1856              	.LBB1608:
 1857              	.LBB1606:
 1858              	.LBB1605:
 1859              	.LBB1603:
 1860              	.LBI1603:
 1861              		.loc 2 273 7 is_stmt 1 view .LVU401
 1862              		.loc 2 273 7 is_stmt 0 view .LVU402
 1863              	.LBE1603:
 1864              		.loc 2 2122 7 view .LVU403
 1865 0324 714A0001 		andi. 10,10,0x1
 1866 0328 7FC9F378 		mr 9,30
 1867              	.LVL132:
 1868              		.loc 2 2122 7 view .LVU404
 1869 032c 4182FFB8 		beq+ 0,.L82
 1870              	.LVL133:
 1871              	.LBB1604:
 1872              		.loc 2 997 7 is_stmt 1 view .LVU405
 1873              	.LBB1586:
 1874              	.LBB1585:
 1875              		.loc 2 273 7 view .LVU406
 1876              		.loc 2 273 7 is_stmt 0 view .LVU407
 1877              	.LBE1585:
 1878              	.LBE1586:
 1879              	.LBE1604:
 1880              		.loc 2 2124 4 discriminator 2 view .LVU408
 1881 0330 815C000C 		lwz 10,12(28)
 1882 0334 7C1E5000 		cmpw 0,30,10
 1883 0338 4082FF94 		bne+ 0,.L86
 1884 033c 4BFFFE50 		b .L61
 1885              	.LVL134:
 1886              	.L129:
 1887              		.cfi_offset 27, -20
 1888              		.loc 2 2124 4 discriminator 2 view .LVU409
 1889              	.LBE1605:
 1890              	.LBE1606:
 1891              	.LBE1608:
 1892              	.LBE1612:
 1893              	.LBB1613:
 1894              	.LBB1569:
 1895              	.LBB1565:
 1896              	.LBB1555:
 1897              	.LBI1555:
 1898              		.loc 2 997 7 is_stmt 1 view .LVU410
 1899              	.LBB1556:
 1900              	.LBI1556:
 1901              		.loc 2 273 7 view .LVU411
 1902              		.loc 2 273 7 is_stmt 0 view .LVU412
 1903              	.LBE1556:
 1904              	.LBE1555:
 1905              		.loc 2 2124 4 discriminator 2 view .LVU413
 1906 0340 7C1BF040 		cmplw 0,27,30
 1907 0344 41A2FF24 		beq- 0,.L118
 1908              	.LVL135:
 1909              	.L85:
 1910              	.LBB1558:
 1911              	.LBI1558:
 1912              		.loc 2 300 7 is_stmt 1 view .LVU414
 1913              	.LBB1559:
 1914              		.loc 2 302 30 is_stmt 0 view .LVU415
 1915 0348 7FC3F378 		mr 3,30
 1916              	.LVL136:
 1917              		.loc 2 302 30 view .LVU416
 1918 034c 48000001 		bl _ZSt18_Rb_tree_decrementPSt18_Rb_tree_node_base
 1919              	.LVL137:
 1920              		.loc 2 303 10 view .LVU417
 1921 0350 7FC9F378 		mr 9,30
 1922              	.LBE1559:
 1923              	.LBE1558:
 1924              	.LBB1561:
 1925              	.LBB1554:
 1926              		.loc 6 408 20 view .LVU418
 1927 0354 81430010 		lwz 10,16(3)
 1928              	.LBE1554:
 1929              	.LBE1561:
 1930              	.LBB1562:
 1931              	.LBB1560:
 1932              		.loc 2 302 10 discriminator 1 view .LVU419
 1933 0358 7C7E1B78 		mr 30,3
 1934              		.loc 2 303 10 view .LVU420
 1935 035c 4BFFFF20 		b .L75
 1936              	.LVL138:
 1937              	.L123:
 1938              		.loc 2 303 10 view .LVU421
 1939              	.LBE1560:
 1940              	.LBE1562:
 1941              	.LBB1563:
 1942              		.loc 2 997 7 is_stmt 1 view .LVU422
 1943              	.LBB1557:
 1944              		.loc 2 273 7 view .LVU423
 1945              		.loc 2 273 7 is_stmt 0 view .LVU424
 1946              	.LBE1557:
 1947              	.LBE1563:
 1948              		.loc 2 2124 4 discriminator 2 view .LVU425
 1949 0360 7C19D840 		cmplw 0,25,27
 1950              	.LBE1565:
 1951              	.LBE1569:
 1952              	.LBE1613:
 1953              	.LBE1652:
 1954              	.LBE1662:
 1955              	.LBE1670:
 1956              	.LBE1720:
 1957              		.loc 2 2463 44 discriminator 1 view .LVU426
 1958 0364 7F3ECB78 		mr 30,25
 1959              	.LVL139:
 1960              	.LBB1721:
 1961              	.LBB1671:
 1962              	.LBB1663:
 1963              	.LBB1653:
 1964              	.LBB1614:
 1965              	.LBB1570:
 1966              	.LBB1566:
 1967              		.loc 2 2124 4 discriminator 2 view .LVU427
 1968 0368 4082FFE0 		bne+ 0,.L85
 1969              		.loc 2 2124 4 discriminator 2 view .LVU428
 1970 036c 4BFFFEA4 		b .L120
 1971              	.LBE1566:
 1972              	.LBE1570:
 1973              	.LBE1614:
 1974              	.LBE1653:
 1975              	.LBE1663:
 1976              	.LBE1671:
 1977              	.LBE1721:
 1978              		.cfi_endproc
 1979              	.LFE1541:
 1980              		.size	_ZNSt8_Rb_treeIwSt4pairIKw13ftgxCharData_ESt10_Select1stIS3_ESt4lessIwESaIS3_EE22_M_emplace_
 1981              		.section	.text._Z12InitFreeTypePhl,"ax",@progbits
 1982              		.align 2
 1983              		.globl _Z12InitFreeTypePhl
 1984              		.type	_Z12InitFreeTypePhl, @function
 1985              	_Z12InitFreeTypePhl:
 1986              	.LVL140:
 1987              	.LFB1324:
 1988              		.loc 1 32 1 is_stmt 1 view -0
 1989              		.cfi_startproc
 1990              		.loc 1 33 2 view .LVU430
 1991              		.loc 1 32 1 is_stmt 0 view .LVU431
 1992 0000 9421FFE8 		stwu 1,-24(1)
 1993              		.cfi_def_cfa_offset 24
 1994 0004 7C0802A6 		mflr 0
 1995 0008 93810008 		stw 28,8(1)
 1996              		.cfi_register 65, 0
 1997              		.cfi_offset 28, -16
 1998              		.loc 1 33 18 view .LVU432
 1999 000c 3F800000 		lis 28,_ZL9ftLibrary@ha
 2000              		.loc 1 32 1 view .LVU433
 2001 0010 93E10014 		stw 31,20(1)
 2002              		.cfi_offset 31, -4
 2003 0014 7C7F1B78 		mr 31,3
 2004              		.loc 1 33 18 view .LVU434
 2005 0018 387C0000 		la 3,_ZL9ftLibrary@l(28)
 2006              	.LVL141:
 2007              		.loc 1 32 1 view .LVU435
 2008 001c 9001001C 		stw 0,28(1)
 2009 0020 93A1000C 		stw 29,12(1)
 2010              		.cfi_offset 65, 4
 2011              		.cfi_offset 29, -12
 2012              		.loc 1 34 20 view .LVU436
 2013 0024 3FA00000 		lis 29,_ZL6ftFace@ha
 2014              		.loc 1 32 1 view .LVU437
 2015 0028 93C10010 		stw 30,16(1)
 2016              		.cfi_offset 30, -8
 2017              		.loc 1 32 1 view .LVU438
 2018 002c 7C9E2378 		mr 30,4
 2019              		.loc 1 33 18 view .LVU439
 2020 0030 48000001 		bl FT_Init_FreeType
 2021              	.LVL142:
 2022              		.loc 1 34 2 is_stmt 1 view .LVU440
 2023              		.loc 1 34 20 is_stmt 0 view .LVU441
 2024 0034 807C0000 		lwz 3,_ZL9ftLibrary@l(28)
 2025 0038 7FC5F378 		mr 5,30
 2026 003c 7FE4FB78 		mr 4,31
 2027 0040 38FD0000 		la 7,_ZL6ftFace@l(29)
 2028 0044 38C00000 		li 6,0
 2029 0048 48000001 		bl FT_New_Memory_Face
 2030              	.LVL143:
 2031              		.loc 1 35 2 is_stmt 1 view .LVU442
 2032              		.loc 1 35 19 is_stmt 0 view .LVU443
 2033 004c 815D0000 		lwz 10,_ZL6ftFace@l(29)
 2034              		.loc 1 39 1 view .LVU444
 2035 0050 8001001C 		lwz 0,28(1)
 2036              	.LBB1722:
 2037              		.loc 1 38 17 view .LVU445
 2038 0054 3C600000 		lis 3,fontSystem@ha
 2039              	.LBE1722:
 2040              		.loc 1 35 9 view .LVU446
 2041 0058 814A0054 		lwz 10,84(10)
 2042 005c 3D200000 		lis 9,_ZL6ftSlot@ha
 2043              		.loc 1 39 1 view .LVU447
 2044 0060 83810008 		lwz 28,8(1)
 2045              	.LBB1723:
 2046              		.loc 1 38 17 view .LVU448
 2047 0064 38630000 		la 3,fontSystem@l(3)
 2048              	.LBE1723:
 2049              		.loc 1 39 1 view .LVU449
 2050 0068 83A1000C 		lwz 29,12(1)
 2051              	.LBB1724:
 2052              		.loc 1 38 17 view .LVU450
 2053 006c 38A000C8 		li 5,200
 2054              	.LBE1724:
 2055              		.loc 1 39 1 view .LVU451
 2056 0070 83C10010 		lwz 30,16(1)
 2057              	.LVL144:
 2058              	.LBB1725:
 2059              		.loc 1 38 17 view .LVU452
 2060 0074 38800000 		li 4,0
 2061              	.LBE1725:
 2062              		.loc 1 39 1 view .LVU453
 2063 0078 83E10014 		lwz 31,20(1)
 2064              	.LVL145:
 2065              		.loc 1 39 1 view .LVU454
 2066 007c 7C0803A6 		mtlr 0
 2067              		.cfi_restore 65
 2068              		.loc 1 35 9 view .LVU455
 2069 0080 91490000 		stw 10,_ZL6ftSlot@l(9)
 2070              		.loc 1 37 2 is_stmt 1 view .LVU456
 2071              	.LVL146:
 2072              	.LBB1726:
 2073              		.loc 1 37 16 discriminator 1 view .LVU457
 2074              	.LBE1726:
 2075              		.loc 1 39 1 is_stmt 0 view .LVU458
 2076 0084 38210018 		addi 1,1,24
 2077              		.cfi_restore 31
 2078              		.cfi_restore 30
 2079              		.cfi_restore 29
 2080              		.cfi_restore 28
 2081              		.cfi_def_cfa_offset 0
 2082              	.LBB1727:
 2083              		.loc 1 38 17 view .LVU459
 2084 0088 48000000 		b memset
 2085              	.LVL147:
 2086              	.LBE1727:
 2087              		.cfi_endproc
 2088              	.LFE1324:
 2089              		.size	_Z12InitFreeTypePhl, .-_Z12InitFreeTypePhl
 2090              		.section	.text._Z14ChangeFontSizej,"ax",@progbits
 2091              		.align 2
 2092              		.globl _Z14ChangeFontSizej
 2093              		.type	_Z14ChangeFontSizej, @function
 2094              	_Z14ChangeFontSizej:
 2095              	.LVL148:
 2096              	.LFB1325:
 2097              		.loc 1 42 1 is_stmt 1 view -0
 2098              		.cfi_startproc
 2099              		.loc 1 43 2 view .LVU461
 2100              		.loc 1 43 20 is_stmt 0 view .LVU462
 2101 0000 3D200000 		lis 9,_ZL6ftFace@ha
 2102              		.loc 1 42 1 view .LVU463
 2103 0004 7C651B78 		mr 5,3
 2104              		.loc 1 43 20 view .LVU464
 2105 0008 80690000 		lwz 3,_ZL6ftFace@l(9)
 2106              	.LVL149:
 2107              		.loc 1 43 20 view .LVU465
 2108 000c 38800000 		li 4,0
 2109 0010 48000000 		b FT_Set_Pixel_Sizes
 2110              	.LVL150:
 2111              		.loc 1 43 20 view .LVU466
 2112              		.cfi_endproc
 2113              	.LFE1325:
 2114              		.size	_Z14ChangeFontSizej, .-_Z14ChangeFontSizej
 2115              		.section	.text._Z13ClearFontDatav,"ax",@progbits
 2116              		.align 2
 2117              		.globl _Z13ClearFontDatav
 2118              		.type	_Z13ClearFontDatav, @function
 2119              	_Z13ClearFontDatav:
 2120              	.LFB1326:
 2121              		.loc 1 47 1 is_stmt 1 view -0
 2122              		.cfi_startproc
 2123              		.loc 1 48 2 view .LVU468
 2124              	.LVL151:
 2125              	.LBB1820:
 2126              		.loc 1 48 16 discriminator 1 view .LVU469
 2127              	.LBE1820:
 2128              		.loc 1 47 1 is_stmt 0 view .LVU470
 2129 0000 9421FFE0 		stwu 1,-32(1)
 2130              		.cfi_def_cfa_offset 32
 2131 0004 7C0802A6 		mflr 0
 2132 0008 93A10014 		stw 29,20(1)
 2133              		.cfi_register 65, 0
 2134              		.cfi_offset 29, -12
 2135 000c 3FA00000 		lis 29,fontSystem-4@ha
 2136 0010 3BBD0000 		la 29,fontSystem-4@l(29)
 2137 0014 90010024 		stw 0,36(1)
 2138 0018 93810010 		stw 28,16(1)
 2139 001c 93C10018 		stw 30,24(1)
 2140 0020 93E1001C 		stw 31,28(1)
 2141 0024 93410008 		stw 26,8(1)
 2142              		.cfi_offset 65, 4
 2143              		.cfi_offset 28, -16
 2144              		.cfi_offset 30, -8
 2145              		.cfi_offset 31, -4
 2146              		.cfi_offset 26, -24
 2147              	.LBB1887:
 2148              		.loc 1 52 17 view .LVU471
 2149 0028 3B400000 		li 26,0
 2150              	.LBE1887:
 2151              		.loc 1 47 1 view .LVU472
 2152 002c 9361000C 		stw 27,12(1)
 2153              		.cfi_offset 27, -20
 2154 0030 3B7D00C8 		addi 27,29,200
 2155              	.LVL152:
 2156              	.L144:
 2157              	.LBB1888:
 2158              		.loc 1 50 3 is_stmt 1 view .LVU473
 2159              		.loc 1 50 18 is_stmt 0 view .LVU474
 2160 0034 87DD0004 		lwzu 30,4(29)
 2161              		.loc 1 50 3 view .LVU475
 2162 0038 2C1E0000 		cmpwi 0,30,0
 2163 003c 41820074 		beq- 0,.L136
 2164              		.loc 1 51 4 is_stmt 1 view .LVU476
 2165              	.LVL153:
 2166              	.LBB1821:
 2167              	.LBI1821:
 2168              		.loc 1 110 1 view .LVU477
 2169              		.loc 1 112 2 view .LVU478
 2170              	.LBB1822:
 2171              	.LBI1822:
 2172              		.loc 1 203 6 view .LVU479
 2173              	.LBB1823:
 2174              		.loc 1 205 2 view .LVU480
 2175              	.LBB1824:
 2176              	.LBI1824:
 2177              		.file 7 "C:/devkitPro/devkitPPC/powerpc-eabi/include/c++/13.1.0/bits/stl_map.h"
 2178              		.loc 7 480 7 view .LVU481
 2179              	.LBB1825:
 2180              	.LBI1825:
 2181              		.loc 2 1033 7 view .LVU482
 2182              		.loc 2 1033 7 is_stmt 0 view .LVU483
 2183              	.LBE1825:
 2184              	.LBE1824:
 2185              		.loc 1 205 2 discriminator 1 view .LVU484
 2186 0040 813E0020 		lwz 9,32(30)
 2187 0044 2C090000 		cmpwi 0,9,0
 2188 0048 4182009C 		beq- 0,.L156
 2189              	.LVL154:
 2190              	.LBB1826:
 2191              	.LBI1826:
 2192              		.loc 1 203 6 is_stmt 1 view .LVU485
 2193              		.loc 1 207 2 view .LVU486
 2194              	.LBB1827:
 2195              	.LBB1828:
 2196              	.LBI1828:
 2197              		.loc 7 366 7 view .LVU487
 2198              	.LBB1829:
 2199              	.LBI1829:
 2200              		.loc 2 997 7 view .LVU488
 2201              	.LBB1830:
 2202              		.loc 2 998 16 is_stmt 0 view .LVU489
 2203 004c 83FE0018 		lwz 31,24(30)
 2204              	.LVL155:
 2205              	.LBB1831:
 2206              	.LBI1831:
 2207              		.loc 2 273 7 is_stmt 1 view .LVU490
 2208              		.loc 2 273 7 is_stmt 0 view .LVU491
 2209              	.LBE1831:
 2210              	.LBE1830:
 2211              	.LBE1829:
 2212              	.LBE1828:
 2213              		.loc 1 207 78 is_stmt 1 discriminator 1 view .LVU492
 2214              	.LBB1832:
 2215              	.LBI1832:
 2216              		.loc 7 384 7 view .LVU493
 2217              	.LBB1833:
 2218              	.LBI1833:
 2219              		.loc 2 1005 7 view .LVU494
 2220              	.LBB1834:
 2221              		.loc 2 1006 16 is_stmt 0 view .LVU495
 2222 0050 3B9E0010 		addi 28,30,16
 2223              	.LVL156:
 2224              	.LBB1835:
 2225              	.LBI1835:
 2226              		.loc 2 273 7 is_stmt 1 view .LVU496
 2227              		.loc 2 273 7 is_stmt 0 view .LVU497
 2228              	.LBE1835:
 2229              	.LBE1834:
 2230              	.LBE1833:
 2231              	.LBE1832:
 2232              		.loc 1 207 78 discriminator 2 view .LVU498
 2233 0054 7C1FE040 		cmplw 0,31,28
 2234 0058 41820020 		beq- 0,.L143
 2235              	.L140:
 2236              		.loc 1 208 3 is_stmt 1 view .LVU499
 2237              		.loc 1 208 7 is_stmt 0 discriminator 1 view .LVU500
 2238 005c 807F0024 		lwz 3,36(31)
 2239 0060 48000001 		bl free
 2240              	.LVL157:
 2241              		.loc 1 207 2 is_stmt 1 discriminator 3 view .LVU501
 2242              	.LBB1839:
 2243              	.LBI1839:
 2244              		.loc 2 292 7 view .LVU502
 2245              	.LBB1840:
 2246              		.loc 2 295 30 is_stmt 0 view .LVU503
 2247 0064 7FE3FB78 		mr 3,31
 2248 0068 48000001 		bl _ZSt18_Rb_tree_incrementPSt18_Rb_tree_node_base
 2249              	.LVL158:
 2250              	.LBE1840:
 2251              	.LBE1839:
 2252              		.loc 1 207 78 discriminator 2 view .LVU504
 2253 006c 7C03E040 		cmplw 0,3,28
 2254              	.LBB1842:
 2255              	.LBB1841:
 2256              		.loc 2 295 30 view .LVU505
 2257 0070 7C7F1B78 		mr 31,3
 2258              	.LVL159:
 2259              		.loc 2 295 30 view .LVU506
 2260              	.LBE1841:
 2261              	.LBE1842:
 2262              		.loc 1 207 78 is_stmt 1 discriminator 1 view .LVU507
 2263              	.LBB1843:
 2264              		.loc 7 384 7 view .LVU508
 2265              	.LBB1838:
 2266              		.loc 2 1005 7 view .LVU509
 2267              	.LBB1837:
 2268              	.LBB1836:
 2269              		.loc 2 273 7 view .LVU510
 2270              		.loc 2 273 7 is_stmt 0 view .LVU511
 2271              	.LBE1836:
 2272              	.LBE1837:
 2273              	.LBE1838:
 2274              	.LBE1843:
 2275              		.loc 1 207 78 discriminator 2 view .LVU512
 2276 0074 4082FFE8 		bne+ 0,.L140
 2277              	.LVL160:
 2278              	.L143:
 2279              		.loc 1 207 78 discriminator 2 view .LVU513
 2280              	.LBE1827:
 2281              		.loc 1 209 2 is_stmt 1 view .LVU514
 2282              	.LBB1844:
 2283              	.LBI1844:
 2284              		.loc 7 1181 7 view .LVU515
 2285              	.LBB1845:
 2286              	.LBI1845:
 2287              		.loc 2 1253 7 view .LVU516
 2288              	.LBB1846:
 2289              	.LBI1846:
 2290              		.loc 2 740 7 view .LVU517
 2291              	.LBB1847:
 2292              	.LBI1847:
 2293              		.loc 2 736 7 view .LVU518
 2294              	.LBB1848:
 2295              		.loc 2 737 73 is_stmt 0 view .LVU519
 2296 0078 83FE0014 		lwz 31,20(30)
 2297              	.LVL161:
 2298              		.loc 2 737 73 view .LVU520
 2299              	.LBE1848:
 2300              	.LBE1847:
 2301              	.LBE1846:
 2302              	.LBB1851:
 2303              	.LBI1851:
 2304              		.loc 2 1930 5 is_stmt 1 view .LVU521
 2305              	.LBB1852:
 2306              		.loc 2 1934 18 view .LVU522
 2307 007c 2C1F0000 		cmpwi 0,31,0
 2308 0080 41820024 		beq- 0,.L139
 2309              	.L141:
 2310              	.LVL162:
 2311              	.LBB1853:
 2312              	.LBB1854:
 2313              	.LBI1854:
 2314              		.loc 2 789 7 view .LVU523
 2315              		.loc 2 789 7 is_stmt 0 view .LVU524
 2316              	.LBE1854:
 2317              		.loc 2 1936 12 discriminator 1 view .LVU525
 2318 0084 807F000C 		lwz 3,12(31)
 2319 0088 48000001 		bl _ZNSt8_Rb_treeIwSt4pairIKw13ftgxCharData_ESt10_Select1stIS3_ESt4lessIwESaIS3_EE8_M_eraseEPSt13_
 2320              	.LVL163:
 2321              	.LBB1855:
 2322              	.LBI1855:
 2323              		.loc 2 781 7 is_stmt 1 view .LVU526
 2324 008c 7FE3FB78 		mr 3,31
 2325              	.LBB1856:
 2326              		.loc 2 782 52 is_stmt 0 view .LVU527
 2327 0090 83FF0008 		lwz 31,8(31)
 2328              	.LVL164:
 2329              		.loc 2 782 52 view .LVU528
 2330              	.LBE1856:
 2331              	.LBE1855:
 2332              	.LBB1857:
 2333              	.LBI1857:
 2334              		.loc 2 631 7 is_stmt 1 view .LVU529
 2335              	.LBB1858:
 2336              	.LBI1858:
 2337              		.loc 2 566 7 view .LVU530
 2338              	.LBB1859:
 2339              	.LBI1859:
 2340              		.loc 3 515 7 view .LVU531
 2341              	.LBB1860:
 2342              	.LBI1860:
 2343              		.loc 4 152 7 view .LVU532
 2344              	.LBB1861:
 2345              		.loc 4 168 26 is_stmt 0 view .LVU533
 2346 0094 38800028 		li 4,40
 2347 0098 48000001 		bl _ZdlPvj
 2348              	.LVL165:
 2349              		.loc 4 168 26 view .LVU534
 2350              	.LBE1861:
 2351              	.LBE1860:
 2352              	.LBE1859:
 2353              	.LBE1858:
 2354              	.LBE1857:
 2355              	.LBE1853:
 2356              		.loc 2 1934 18 is_stmt 1 view .LVU535
 2357 009c 2C1F0000 		cmpwi 0,31,0
 2358 00a0 4082FFE4 		bne+ 0,.L141
 2359              	.LVL166:
 2360              	.L139:
 2361              		.loc 2 1934 18 is_stmt 0 view .LVU536
 2362              	.LBE1852:
 2363              	.LBE1851:
 2364              	.LBE1845:
 2365              	.LBE1844:
 2366              	.LBE1826:
 2367              	.LBE1823:
 2368              	.LBE1822:
 2369              	.LBB1867:
 2370              	.LBB1868:
 2371              	.LBB1869:
 2372              	.LBI1869:
 2373              		.loc 2 662 9 is_stmt 1 view .LVU537
 2374              	.LBB1870:
 2375              	.LBI1870:
 2376              		.file 8 "C:/devkitPro/devkitPPC/powerpc-eabi/include/c++/13.1.0/bits/allocator.h"
 2377              		.loc 8 184 7 view .LVU538
 2378              		.loc 8 184 7 is_stmt 0 view .LVU539
 2379              	.LBE1870:
 2380              	.LBE1869:
 2381              	.LBE1868:
 2382              	.LBE1867:
 2383              	.LBE1821:
 2384              		.loc 1 51 23 discriminator 1 view .LVU540
 2385 00a4 7FC3F378 		mr 3,30
 2386 00a8 38800024 		li 4,36
 2387 00ac 48000001 		bl _ZdlPvj
 2388              	.LVL167:
 2389              	.L136:
 2390              		.loc 1 52 3 is_stmt 1 view .LVU541
 2391              		.loc 1 48 16 is_stmt 0 discriminator 1 view .LVU542
 2392 00b0 7C1BE840 		cmplw 0,27,29
 2393              		.loc 1 52 17 view .LVU543
 2394 00b4 935D0000 		stw 26,0(29)
 2395              		.loc 1 48 2 is_stmt 1 discriminator 2 view .LVU544
 2396              		.loc 1 48 16 discriminator 1 view .LVU545
 2397 00b8 4082FF7C 		bne+ 0,.L144
 2398              	.LBE1888:
 2399              		.loc 1 54 1 is_stmt 0 view .LVU546
 2400 00bc 80010024 		lwz 0,36(1)
 2401 00c0 83410008 		lwz 26,8(1)
 2402 00c4 8361000C 		lwz 27,12(1)
 2403 00c8 7C0803A6 		mtlr 0
 2404              		.cfi_remember_state
 2405              		.cfi_restore 65
 2406 00cc 83810010 		lwz 28,16(1)
 2407 00d0 83A10014 		lwz 29,20(1)
 2408 00d4 83C10018 		lwz 30,24(1)
 2409 00d8 83E1001C 		lwz 31,28(1)
 2410 00dc 38210020 		addi 1,1,32
 2411              		.cfi_restore 31
 2412              		.cfi_restore 30
 2413              		.cfi_restore 29
 2414              		.cfi_restore 28
 2415              		.cfi_restore 27
 2416              		.cfi_restore 26
 2417              		.cfi_def_cfa_offset 0
 2418 00e0 4E800020 		blr
 2419              	.LVL168:
 2420              	.L156:
 2421              		.cfi_restore_state
 2422              	.LBB1889:
 2423              	.LBB1886:
 2424              	.LBB1884:
 2425              	.LBB1866:
 2426              	.LBB1865:
 2427              	.LBB1864:
 2428              	.LBB1863:
 2429              	.LBB1862:
 2430              	.LBB1850:
 2431              	.LBB1849:
 2432              		.loc 2 737 73 view .LVU547
 2433 00e4 83FE0014 		lwz 31,20(30)
 2434              	.LVL169:
 2435              		.loc 2 737 73 view .LVU548
 2436              	.LBE1849:
 2437              	.LBE1850:
 2438              	.LBE1862:
 2439              	.LBE1863:
 2440              	.LBE1864:
 2441              	.LBE1865:
 2442              	.LBE1866:
 2443              	.LBE1884:
 2444              	.LBB1885:
 2445              	.LBI1867:
 2446              		.loc 7 312 7 is_stmt 1 view .LVU549
 2447              	.LBB1883:
 2448              	.LBI1868:
 2449              		.loc 2 985 7 view .LVU550
 2450              	.LBB1871:
 2451              	.LBI1871:
 2452              		.loc 2 740 7 view .LVU551
 2453              		.loc 2 740 7 is_stmt 0 view .LVU552
 2454              	.LBE1871:
 2455              	.LBB1872:
 2456              	.LBI1872:
 2457              		.loc 2 1930 5 is_stmt 1 view .LVU553
 2458              	.LBB1873:
 2459              		.loc 2 1934 18 view .LVU554
 2460 00e8 2C1F0000 		cmpwi 0,31,0
 2461 00ec 41A2FFB8 		beq- 0,.L139
 2462              	.LVL170:
 2463              	.L138:
 2464              	.LBB1874:
 2465              	.LBB1875:
 2466              	.LBI1875:
 2467              		.loc 2 789 7 view .LVU555
 2468              		.loc 2 789 7 is_stmt 0 view .LVU556
 2469              	.LBE1875:
 2470              		.loc 2 1936 12 discriminator 1 view .LVU557
 2471 00f0 807F000C 		lwz 3,12(31)
 2472 00f4 48000001 		bl _ZNSt8_Rb_treeIwSt4pairIKw13ftgxCharData_ESt10_Select1stIS3_ESt4lessIwESaIS3_EE8_M_eraseEPSt13_
 2473              	.LVL171:
 2474              	.LBB1876:
 2475              	.LBI1876:
 2476              		.loc 2 781 7 is_stmt 1 view .LVU558
 2477 00f8 7FE3FB78 		mr 3,31
 2478              	.LBB1877:
 2479              		.loc 2 782 52 is_stmt 0 view .LVU559
 2480 00fc 83FF0008 		lwz 31,8(31)
 2481              	.LVL172:
 2482              		.loc 2 782 52 view .LVU560
 2483              	.LBE1877:
 2484              	.LBE1876:
 2485              	.LBB1878:
 2486              	.LBI1878:
 2487              		.loc 2 631 7 is_stmt 1 view .LVU561
 2488              	.LBB1879:
 2489              	.LBI1879:
 2490              		.loc 2 566 7 view .LVU562
 2491              	.LBB1880:
 2492              	.LBI1880:
 2493              		.loc 3 515 7 view .LVU563
 2494              	.LBB1881:
 2495              	.LBI1881:
 2496              		.loc 4 152 7 view .LVU564
 2497              	.LBB1882:
 2498              		.loc 4 168 26 is_stmt 0 view .LVU565
 2499 0100 38800028 		li 4,40
 2500 0104 48000001 		bl _ZdlPvj
 2501              	.LVL173:
 2502              		.loc 4 168 26 view .LVU566
 2503              	.LBE1882:
 2504              	.LBE1881:
 2505              	.LBE1880:
 2506              	.LBE1879:
 2507              	.LBE1878:
 2508              	.LBE1874:
 2509              		.loc 2 1934 18 is_stmt 1 view .LVU567
 2510 0108 2C1F0000 		cmpwi 0,31,0
 2511 010c 4082FFE4 		bne+ 0,.L138
 2512 0110 4BFFFF94 		b .L139
 2513              	.LBE1873:
 2514              	.LBE1872:
 2515              	.LBE1883:
 2516              	.LBE1885:
 2517              	.LBE1886:
 2518              	.LBE1889:
 2519              		.cfi_endproc
 2520              	.LFE1326:
 2521              		.size	_Z13ClearFontDatav, .-_Z13ClearFontDatav
 2522              		.section	.text._Z14charToWideCharPKc,"ax",@progbits
 2523              		.align 2
 2524              		.globl _Z14charToWideCharPKc
 2525              		.type	_Z14charToWideCharPKc, @function
 2526              	_Z14charToWideCharPKc:
 2527              	.LVL174:
 2528              	.LFB1327:
 2529              		.loc 1 67 1 view -0
 2530              		.cfi_startproc
 2531              		.loc 1 68 2 view .LVU569
 2532              		.loc 1 69 2 view .LVU570
 2533              		.loc 1 67 1 is_stmt 0 view .LVU571
 2534 0000 9421FFF0 		stwu 1,-16(1)
 2535              		.cfi_def_cfa_offset 16
 2536 0004 7C0802A6 		mflr 0
 2537 0008 93E1000C 		stw 31,12(1)
 2538              		.cfi_register 65, 0
 2539              		.cfi_offset 31, -4
 2540 000c 7C7F1B78 		mr 31,3
 2541 0010 90010014 		stw 0,20(1)
 2542              		.cfi_offset 65, 4
 2543              		.loc 1 69 31 view .LVU572
 2544 0014 48000001 		bl strlen
 2545              	.LVL175:
 2546              		.loc 1 69 41 discriminator 1 view .LVU573
 2547 0018 38630001 		addi 3,3,1
 2548              		.loc 1 69 44 discriminator 1 view .LVU574
 2549 001c 3D202000 		lis 9,0x2000
 2550 0020 7C034840 		cmplw 0,3,9
 2551 0024 40800038 		bge- 0,.L158
 2552              		.loc 1 69 44 discriminator 3 view .LVU575
 2553 0028 5463103A 		slwi 3,3,2
 2554 002c 3BFFFFFF 		addi 31,31,-1
 2555              	.LVL176:
 2556              		.loc 1 69 44 discriminator 3 view .LVU576
 2557 0030 48000001 		bl _Znaj
 2558              	.LVL177:
 2559              		.loc 1 71 2 is_stmt 1 view .LVU577
 2560              		.loc 1 72 2 view .LVU578
 2561              		.loc 1 73 2 view .LVU579
 2562 0034 3903FFFC 		addi 8,3,-4
 2563              	.LVL178:
 2564              	.L159:
 2565              		.loc 1 73 21 discriminator 1 view .LVU580
 2566              		.loc 1 73 23 is_stmt 0 discriminator 1 view .LVU581
 2567 0038 8D3F0001 		lbzu 9,1(31)
 2568              	.LVL179:
 2569              		.loc 1 73 21 discriminator 1 view .LVU582
 2570 003c 2C090000 		cmpwi 0,9,0
 2571 0040 95280004 		stwu 9,4(8)
 2572              	.LVL180:
 2573              		.loc 1 73 21 discriminator 1 view .LVU583
 2574 0044 4082FFF4 		bne+ 0,.L159
 2575              		.loc 1 75 2 is_stmt 1 view .LVU584
 2576              		.loc 1 76 1 is_stmt 0 view .LVU585
 2577 0048 80010014 		lwz 0,20(1)
 2578 004c 83E1000C 		lwz 31,12(1)
 2579              	.LVL181:
 2580              		.loc 1 76 1 view .LVU586
 2581 0050 38210010 		addi 1,1,16
 2582              		.cfi_remember_state
 2583              		.cfi_restore 31
 2584              		.cfi_def_cfa_offset 0
 2585 0054 7C0803A6 		mtlr 0
 2586              		.cfi_restore 65
 2587 0058 4E800020 		blr
 2588              	.LVL182:
 2589              	.L158:
 2590              		.cfi_restore_state
 2591              		.loc 1 69 44 discriminator 2 view .LVU587
 2592 005c 48000001 		bl __cxa_throw_bad_array_new_length
 2593              	.LVL183:
 2594              		.cfi_endproc
 2595              	.LFE1327:
 2596              		.size	_Z14charToWideCharPKc, .-_Z14charToWideCharPKc
 2597              		.section	.text._Z15shortToWideCharPKs,"ax",@progbits
 2598              		.align 2
 2599              		.globl _Z15shortToWideCharPKs
 2600              		.type	_Z15shortToWideCharPKs, @function
 2601              	_Z15shortToWideCharPKs:
 2602              	.LVL184:
 2603              	.LFB1328:
 2604              		.loc 1 79 1 is_stmt 1 view -0
 2605              		.cfi_startproc
 2606              		.loc 1 80 2 view .LVU589
 2607              		.loc 1 81 2 view .LVU590
 2608              		.loc 1 84 2 view .LVU591
 2609              		.loc 1 84 22 discriminator 1 view .LVU592
 2610 0000 A9230000 		lha 9,0(3)
 2611              		.loc 1 79 1 is_stmt 0 view .LVU593
 2612 0004 7C0802A6 		mflr 0
 2613 0008 9421FFF0 		stwu 1,-16(1)
 2614              		.cfi_def_cfa_offset 16
 2615              		.cfi_register 65, 0
 2616              		.loc 1 84 22 discriminator 1 view .LVU594
 2617 000c 2C090000 		cmpwi 0,9,0
 2618              		.loc 1 79 1 view .LVU595
 2619 0010 93E1000C 		stw 31,12(1)
 2620              		.cfi_offset 31, -4
 2621 0014 7C7F1B78 		mr 31,3
 2622 0018 90010014 		stw 0,20(1)
 2623              		.cfi_offset 65, 4
 2624              		.loc 1 84 22 discriminator 1 view .LVU596
 2625 001c 41820064 		beq- 0,.L167
 2626 0020 7C6A1B78 		mr 10,3
 2627              		.loc 1 84 8 view .LVU597
 2628 0024 39200000 		li 9,0
 2629              	.LVL185:
 2630              	.L164:
 2631              		.loc 1 84 2 is_stmt 1 discriminator 3 view .LVU598
 2632              		.loc 1 84 22 is_stmt 0 discriminator 1 view .LVU599
 2633 0028 AD0A0002 		lhau 8,2(10)
 2634 002c 7D234B78 		mr 3,9
 2635              		.loc 1 84 2 discriminator 3 view .LVU600
 2636 0030 39290001 		addi 9,9,1
 2637              	.LVL186:
 2638              		.loc 1 84 22 is_stmt 1 discriminator 1 view .LVU601
 2639 0034 2C080000 		cmpwi 0,8,0
 2640 0038 4082FFF0 		bne+ 0,.L164
 2641              		.loc 1 85 2 view .LVU602
 2642              		.loc 1 85 37 is_stmt 0 view .LVU603
 2643 003c 38630002 		addi 3,3,2
 2644              		.loc 1 85 39 view .LVU604
 2645 0040 3D202000 		lis 9,0x2000
 2646              	.LVL187:
 2647              		.loc 1 85 39 view .LVU605
 2648 0044 7C034800 		cmpw 0,3,9
 2649 0048 40800040 		bge- 0,.L165
 2650              		.loc 1 85 39 discriminator 1 view .LVU606
 2651 004c 5463103A 		slwi 3,3,2
 2652              	.LVL188:
 2653              	.L163:
 2654              		.loc 1 85 39 discriminator 3 view .LVU607
 2655 0050 48000001 		bl _Znaj
 2656              	.LVL189:
 2657              		.loc 1 87 2 is_stmt 1 view .LVU608
 2658 0054 3BFFFFFE 		addi 31,31,-2
 2659              	.LVL190:
 2660              		.loc 1 87 2 is_stmt 0 view .LVU609
 2661 0058 3903FFFC 		addi 8,3,-4
 2662              	.LVL191:
 2663              	.L166:
 2664              		.loc 1 87 21 is_stmt 1 discriminator 1 view .LVU610
 2665              		.loc 1 87 23 is_stmt 0 discriminator 1 view .LVU611
 2666 005c AD3F0002 		lhau 9,2(31)
 2667              	.LVL192:
 2668              		.loc 1 87 21 discriminator 1 view .LVU612
 2669 0060 2C090000 		cmpwi 0,9,0
 2670 0064 95280004 		stwu 9,4(8)
 2671              	.LVL193:
 2672              		.loc 1 87 21 discriminator 1 view .LVU613
 2673 0068 4082FFF4 		bne+ 0,.L166
 2674              		.loc 1 89 2 is_stmt 1 view .LVU614
 2675              		.loc 1 90 1 is_stmt 0 view .LVU615
 2676 006c 80010014 		lwz 0,20(1)
 2677 0070 83E1000C 		lwz 31,12(1)
 2678              	.LVL194:
 2679              		.loc 1 90 1 view .LVU616
 2680 0074 38210010 		addi 1,1,16
 2681              		.cfi_remember_state
 2682              		.cfi_restore 31
 2683              		.cfi_def_cfa_offset 0
 2684 0078 7C0803A6 		mtlr 0
 2685              		.cfi_restore 65
 2686 007c 4E800020 		blr
 2687              	.LVL195:
 2688              	.L167:
 2689              		.cfi_restore_state
 2690              		.loc 1 84 22 discriminator 1 view .LVU617
 2691 0080 38600004 		li 3,4
 2692              	.LVL196:
 2693              		.loc 1 84 22 discriminator 1 view .LVU618
 2694 0084 4BFFFFCC 		b .L163
 2695              	.LVL197:
 2696              	.L165:
 2697              		.loc 1 85 39 discriminator 2 view .LVU619
 2698 0088 48000001 		bl __cxa_throw_bad_array_new_length
 2699              	.LVL198:
 2700              		.loc 1 85 39 discriminator 2 view .LVU620
 2701              		.cfi_endproc
 2702              	.LFE1328:
 2703              		.size	_Z15shortToWideCharPKs, .-_Z15shortToWideCharPKs
 2704              		.section	.text._ZN10FreeTypeGXC2Ejhh,"ax",@progbits
 2705              		.align 2
 2706              		.globl _ZN10FreeTypeGXC2Ejhh
 2707              		.type	_ZN10FreeTypeGXC2Ejhh, @function
 2708              	_ZN10FreeTypeGXC2Ejhh:
 2709              	.LVL199:
 2710              	.LFB1345:
 2711              		.loc 1 98 1 is_stmt 1 view -0
 2712              		.cfi_startproc
 2713              		.cfi_personality 0,__gxx_personality_v0
 2714              		.cfi_lsda 0,.LLSDA1345
 2715              		.loc 1 98 1 is_stmt 0 view .LVU622
 2716 0000 9421FFF0 		stwu 1,-16(1)
 2717              		.cfi_def_cfa_offset 16
 2718              	.LBB1917:
 2719              	.LBB1918:
 2720              	.LBB1919:
 2721              	.LBB1920:
 2722              	.LBB1921:
 2723              	.LBB1922:
 2724              		.loc 2 175 26 view .LVU623
 2725 0004 39200000 		li 9,0
 2726              	.LBE1922:
 2727              	.LBE1921:
 2728              	.LBE1920:
 2729              	.LBE1919:
 2730              	.LBE1918:
 2731              	.LBE1917:
 2732              		.loc 1 98 1 view .LVU624
 2733 0008 7C0802A6 		mflr 0
 2734              	.LBB1981:
 2735              	.LBB1950:
 2736              	.LBB1951:
 2737              		.loc 1 127 18 view .LVU625
 2738 000c 38E00000 		li 7,0
 2739              	.LBE1951:
 2740              	.LBE1950:
 2741              	.LBE1981:
 2742              		.loc 1 98 1 view .LVU626
 2743 0010 93E1000C 		stw 31,12(1)
 2744              		.cfi_register 65, 0
 2745              		.cfi_offset 31, -4
 2746 0014 7C7F1B78 		mr 31,3
 2747              	.LVL200:
 2748              	.LBB1982:
 2749              	.LBB1957:
 2750              	.LBI1918:
 2751              		.loc 7 195 7 is_stmt 1 view .LVU627
 2752              	.LBB1946:
 2753              	.LBI1919:
 2754              		.loc 2 930 7 view .LVU628
 2755              	.LBB1942:
 2756              	.LBI1920:
 2757              		.loc 2 669 4 view .LVU629
 2758              	.LBB1935:
 2759              	.LBI1935:
 2760              		.loc 8 163 7 view .LVU630
 2761              	.LBB1936:
 2762              	.LBI1936:
 2763              		.loc 4 88 7 view .LVU631
 2764              		.loc 4 88 7 is_stmt 0 view .LVU632
 2765              	.LBE1936:
 2766              	.LBE1935:
 2767              	.LBB1937:
 2768              	.LBI1937:
 2769              		.loc 2 146 7 is_stmt 1 view .LVU633
 2770              		.loc 2 146 7 is_stmt 0 view .LVU634
 2771              	.LBE1937:
 2772              	.LBB1938:
 2773              	.LBI1921:
 2774              		.loc 2 173 5 is_stmt 1 view .LVU635
 2775              	.LBB1931:
 2776              		.loc 2 175 7 view .LVU636
 2777              	.LBB1923:
 2778              	.LBB1924:
 2779              		.loc 2 209 27 is_stmt 0 view .LVU637
 2780 0018 395F0010 		addi 10,31,16
 2781              	.LBE1924:
 2782              	.LBE1923:
 2783              	.LBE1931:
 2784              	.LBE1938:
 2785              	.LBE1942:
 2786              	.LBE1946:
 2787              	.LBE1957:
 2788              	.LBE1982:
 2789              		.loc 1 98 1 view .LVU638
 2790 001c 93C10008 		stw 30,8(1)
 2791 0020 90010014 		stw 0,20(1)
 2792              		.cfi_offset 30, -8
 2793              		.cfi_offset 65, 4
 2794              		.loc 1 98 1 view .LVU639
 2795 0024 7CC33378 		mr 3,6
 2796              	.LVL201:
 2797              	.LBB1983:
 2798              	.LBB1958:
 2799              	.LBB1952:
 2800              		.loc 1 126 20 view .LVU640
 2801 0028 98DF0006 		stb 6,6(31)
 2802              	.LBE1952:
 2803              	.LBE1958:
 2804              	.LBE1983:
 2805              		.loc 1 98 1 view .LVU641
 2806 002c 7C9E2378 		mr 30,4
 2807              	.LBB1984:
 2808              		.loc 1 100 22 view .LVU642
 2809 0030 98BF0005 		stb 5,5(31)
 2810              	.LBB1959:
 2811              	.LBB1953:
 2812              		.loc 1 127 18 view .LVU643
 2813 0034 38C00003 		li 6,3
 2814              	.LVL202:
 2815              		.loc 1 127 18 view .LVU644
 2816              	.LBE1953:
 2817              	.LBE1959:
 2818              	.LBB1960:
 2819              	.LBB1947:
 2820              	.LBB1943:
 2821              	.LBB1939:
 2822              	.LBB1932:
 2823              	.LBB1928:
 2824              	.LBB1925:
 2825              		.loc 2 209 25 view .LVU645
 2826 0038 915F0018 		stw 10,24(31)
 2827              	.LBE1925:
 2828              	.LBE1928:
 2829              	.LBE1932:
 2830              	.LBE1939:
 2831              	.LBE1943:
 2832              	.LBE1947:
 2833              	.LBE1960:
 2834              	.LBB1961:
 2835              	.LBB1954:
 2836              		.loc 1 127 18 view .LVU646
 2837 003c 38A00000 		li 5,0
 2838              	.LVL203:
 2839              		.loc 1 127 18 view .LVU647
 2840              	.LBE1954:
 2841              	.LBE1961:
 2842              	.LBB1962:
 2843              	.LBB1948:
 2844              	.LBB1944:
 2845              	.LBB1940:
 2846              	.LBB1933:
 2847              	.LBB1929:
 2848              	.LBB1926:
 2849              		.loc 2 210 26 view .LVU648
 2850 0040 915F001C 		stw 10,28(31)
 2851              	.LBE1926:
 2852              	.LBE1929:
 2853              	.LBE1933:
 2854              	.LBE1940:
 2855              	.LBE1944:
 2856              	.LBE1948:
 2857              	.LBE1962:
 2858              	.LBB1963:
 2859              	.LBB1955:
 2860              		.loc 1 127 18 view .LVU649
 2861 0044 38800009 		li 4,9
 2862              	.LVL204:
 2863              		.loc 1 127 18 view .LVU650
 2864              	.LBE1955:
 2865              	.LBE1963:
 2866              	.LBB1964:
 2867              	.LBB1949:
 2868              	.LBB1945:
 2869              	.LBB1941:
 2870              	.LBB1934:
 2871              		.loc 2 175 26 view .LVU651
 2872 0048 913F0010 		stw 9,16(31)
 2873              		.loc 2 176 7 is_stmt 1 view .LVU652
 2874              	.LVL205:
 2875              	.LBB1930:
 2876              	.LBI1923:
 2877              		.loc 2 206 5 view .LVU653
 2878              	.LBB1927:
 2879              		.loc 2 208 7 view .LVU654
 2880              		.loc 2 208 27 is_stmt 0 view .LVU655
 2881 004c 913F0014 		stw 9,20(31)
 2882              		.loc 2 209 7 is_stmt 1 view .LVU656
 2883              		.loc 2 210 7 view .LVU657
 2884              		.loc 2 211 7 view .LVU658
 2885              		.loc 2 211 21 is_stmt 0 view .LVU659
 2886 0050 913F0020 		stw 9,32(31)
 2887              	.LVL206:
 2888              		.loc 2 211 21 view .LVU660
 2889              	.LBE1927:
 2890              	.LBE1930:
 2891              	.LBE1934:
 2892              	.LBE1941:
 2893              	.LBE1945:
 2894              	.LBE1949:
 2895              	.LBE1964:
 2896              		.loc 1 100 2 is_stmt 1 view .LVU661
 2897              		.loc 1 101 2 view .LVU662
 2898              	.LBB1965:
 2899              	.LBI1950:
 2900              		.loc 1 124 6 view .LVU663
 2901              	.LBB1956:
 2902              		.loc 1 126 2 view .LVU664
 2903              		.loc 1 127 2 view .LVU665
 2904              	.LEHB0:
 2905              		.loc 1 127 18 is_stmt 0 view .LVU666
 2906 0054 48000001 		bl GX_SetVtxAttrFmt
 2907              	.LVL207:
 2908              		.loc 1 128 2 is_stmt 1 view .LVU667
 2909              		.loc 1 128 18 is_stmt 0 view .LVU668
 2910 0058 887F0006 		lbz 3,6(31)
 2911 005c 38E00000 		li 7,0
 2912 0060 38C00004 		li 6,4
 2913 0064 38A00001 		li 5,1
 2914 0068 3880000D 		li 4,13
 2915 006c 48000001 		bl GX_SetVtxAttrFmt
 2916              	.LVL208:
 2917              		.loc 1 129 2 is_stmt 1 view .LVU669
 2918              		.loc 1 129 18 is_stmt 0 view .LVU670
 2919 0070 887F0006 		lbz 3,6(31)
 2920 0074 38E00000 		li 7,0
 2921 0078 38C00005 		li 6,5
 2922 007c 38A00001 		li 5,1
 2923 0080 3880000B 		li 4,11
 2924 0084 48000001 		bl GX_SetVtxAttrFmt
 2925              	.LVL209:
 2926              	.LEHE0:
 2927              		.loc 1 129 18 view .LVU671
 2928              	.LBE1956:
 2929              	.LBE1965:
 2930              		.loc 1 102 2 is_stmt 1 view .LVU672
 2931              	.LBB1966:
 2932              	.LBI1966:
 2933              		.loc 1 142 6 view .LVU673
 2934              	.LBB1967:
 2935              		.loc 1 144 2 view .LVU674
 2936              	.LBE1967:
 2937              	.LBE1966:
 2938              		.loc 1 104 27 is_stmt 0 view .LVU675
 2939 0088 3D200000 		lis 9,_ZL6ftFace@ha
 2940              	.LBE1984:
 2941              		.loc 1 105 1 view .LVU676
 2942 008c 80010014 		lwz 0,20(1)
 2943              	.LBB1985:
 2944              		.loc 1 104 27 view .LVU677
 2945 0090 81290000 		lwz 9,_ZL6ftFace@l(9)
 2946              	.LBB1970:
 2947              	.LBB1968:
 2948              		.loc 1 144 26 view .LVU678
 2949 0094 39400110 		li 10,272
 2950              	.LBE1968:
 2951              	.LBE1970:
 2952              		.loc 1 103 20 view .LVU679
 2953 0098 93DF0000 		stw 30,0(31)
 2954              	.LBE1985:
 2955              		.loc 1 105 1 view .LVU680
 2956 009c 7C0803A6 		mtlr 0
 2957              		.cfi_remember_state
 2958              		.cfi_restore 65
 2959              	.LBB1986:
 2960              		.loc 1 104 27 view .LVU681
 2961 00a0 81290008 		lwz 9,8(9)
 2962              	.LBE1986:
 2963              		.loc 1 105 1 view .LVU682
 2964 00a4 83C10008 		lwz 30,8(1)
 2965              	.LVL210:
 2966              	.LBB1987:
 2967              		.loc 1 104 27 view .LVU683
 2968 00a8 5529D7FE 		rlwinm 9,9,26,31,31
 2969              	.LBB1971:
 2970              	.LBB1969:
 2971              		.loc 1 144 26 view .LVU684
 2972 00ac 915F0008 		stw 10,8(31)
 2973              	.LVL211:
 2974              		.loc 1 144 26 view .LVU685
 2975              	.LBE1969:
 2976              	.LBE1971:
 2977              		.loc 1 103 2 is_stmt 1 view .LVU686
 2978              		.loc 1 104 2 view .LVU687
 2979              		.loc 1 104 25 is_stmt 0 view .LVU688
 2980 00b0 993F0004 		stb 9,4(31)
 2981              	.LBE1987:
 2982              		.loc 1 105 1 view .LVU689
 2983 00b4 83E1000C 		lwz 31,12(1)
 2984              	.LVL212:
 2985              		.loc 1 105 1 view .LVU690
 2986 00b8 38210010 		addi 1,1,16
 2987              		.cfi_restore 31
 2988              		.cfi_restore 30
 2989              		.cfi_def_cfa_offset 0
 2990 00bc 4E800020 		blr
 2991              	.LVL213:
 2992              	.L173:
 2993              		.cfi_restore_state
 2994              	.LBB1988:
 2995              	.LBB1972:
 2996              	.LBB1973:
 2997              	.LBB1974:
 2998              		.loc 2 986 17 discriminator 1 view .LVU691
 2999 00c0 7C691B78 		mr 9,3
 3000 00c4 807F0014 		lwz 3,20(31)
 3001 00c8 7D3F4B78 		mr 31,9
 3002              	.LVL214:
 3003              		.loc 2 986 17 discriminator 1 view .LVU692
 3004              	.LBE1974:
 3005              	.LBE1973:
 3006              	.LBI1972:
 3007              		.loc 7 312 7 is_stmt 1 view .LVU693
 3008              	.LBB1980:
 3009              	.LBI1973:
 3010              		.loc 2 985 7 view .LVU694
 3011              	.LBB1979:
 3012              	.LBB1975:
 3013              	.LBI1975:
 3014              		.loc 2 740 7 view .LVU695
 3015              	.LBB1976:
 3016              	.LBI1976:
 3017              		.loc 2 736 7 view .LVU696
 3018              		.loc 2 736 7 is_stmt 0 view .LVU697
 3019              	.LBE1976:
 3020              	.LBE1975:
 3021              		.loc 2 986 17 discriminator 1 view .LVU698
 3022 00cc 48000001 		bl _ZNSt8_Rb_treeIwSt4pairIKw13ftgxCharData_ESt10_Select1stIS3_ESt4lessIwESaIS3_EE8_M_eraseEPSt13_
 3023              	.LVL215:
 3024              	.LBB1977:
 3025              	.LBI1977:
 3026              		.loc 2 662 9 is_stmt 1 view .LVU699
 3027              	.LBB1978:
 3028              	.LBI1978:
 3029              		.loc 8 184 7 view .LVU700
 3030              		.loc 8 184 7 is_stmt 0 view .LVU701
 3031 00d0 7FE3FB78 		mr 3,31
 3032              	.LEHB1:
 3033 00d4 48000001 		bl _Unwind_Resume
 3034              	.LVL216:
 3035              	.LEHE1:
 3036              	.LBE1978:
 3037              	.LBE1977:
 3038              	.LBE1979:
 3039              	.LBE1980:
 3040              	.LBE1972:
 3041              	.LBE1988:
 3042              		.cfi_endproc
 3043              	.LFE1345:
 3044              		.globl __gxx_personality_v0
 3045              		.section	.gcc_except_table._ZN10FreeTypeGXC2Ejhh,"a",@progbits
 3046              	.LLSDA1345:
 3047 0000 FF       		.byte	0xff
 3048 0001 FF       		.byte	0xff
 3049 0002 01       		.byte	0x1
 3050 0003 0A       		.uleb128 .LLSDACSE1345-.LLSDACSB1345
 3051              	.LLSDACSB1345:
 3052 0004 54       		.uleb128 .LEHB0-.LFB1345
 3053 0005 34       		.uleb128 .LEHE0-.LEHB0
 3054 0006 C001     		.uleb128 .L173-.LFB1345
 3055 0008 00       		.uleb128 0
 3056 0009 D401     		.uleb128 .LEHB1-.LFB1345
 3057 000b 04       		.uleb128 .LEHE1-.LEHB1
 3058 000c 00       		.uleb128 0
 3059 000d 00       		.uleb128 0
 3060              	.LLSDACSE1345:
 3061              		.section	.text._ZN10FreeTypeGXC2Ejhh
 3062              		.size	_ZN10FreeTypeGXC2Ejhh, .-_ZN10FreeTypeGXC2Ejhh
 3063              		.globl _ZN10FreeTypeGXC1Ejhh
 3064              		.set	_ZN10FreeTypeGXC1Ejhh,_ZN10FreeTypeGXC2Ejhh
 3065              		.section	.text._ZN10FreeTypeGXD2Ev,"ax",@progbits
 3066              		.align 2
 3067              		.globl _ZN10FreeTypeGXD2Ev
 3068              		.type	_ZN10FreeTypeGXD2Ev, @function
 3069              	_ZN10FreeTypeGXD2Ev:
 3070              	.LVL217:
 3071              	.LFB1348:
 3072              		.loc 1 110 1 is_stmt 1 view -0
 3073              		.cfi_startproc
 3074              		.loc 1 112 2 view .LVU703
 3075              	.LBB2078:
 3076              	.LBI2078:
 3077              		.loc 1 203 6 view .LVU704
 3078              	.LBB2079:
 3079              		.loc 1 205 2 view .LVU705
 3080              	.LBB2080:
 3081              	.LBI2080:
 3082              		.loc 7 480 7 view .LVU706
 3083              	.LBB2081:
 3084              	.LBI2081:
 3085              		.loc 2 1033 7 view .LVU707
 3086              		.loc 2 1033 7 is_stmt 0 view .LVU708
 3087              	.LBE2081:
 3088              	.LBE2080:
 3089              		.loc 1 205 2 discriminator 1 view .LVU709
 3090 0000 81230020 		lwz 9,32(3)
 3091              	.LBE2079:
 3092              	.LBE2078:
 3093              		.loc 1 110 1 view .LVU710
 3094 0004 7C0802A6 		mflr 0
 3095 0008 9421FFE8 		stwu 1,-24(1)
 3096              		.cfi_def_cfa_offset 24
 3097              		.cfi_register 65, 0
 3098              	.LBB2129:
 3099              	.LBB2126:
 3100              		.loc 1 205 2 discriminator 1 view .LVU711
 3101 000c 2C090000 		cmpwi 0,9,0
 3102              	.LBE2126:
 3103              	.LBE2129:
 3104              		.loc 1 110 1 view .LVU712
 3105 0010 93A1000C 		stw 29,12(1)
 3106              		.cfi_offset 29, -12
 3107 0014 7C7D1B78 		mr 29,3
 3108 0018 9001001C 		stw 0,28(1)
 3109 001c 93E10014 		stw 31,20(1)
 3110              		.cfi_offset 65, 4
 3111              		.cfi_offset 31, -4
 3112              	.LBB2130:
 3113              	.LBB2127:
 3114              		.loc 1 205 2 discriminator 1 view .LVU713
 3115 0020 4182007C 		beq- 0,.L192
 3116              	.LBB2082:
 3117              	.LBB2083:
 3118              	.LBB2084:
 3119              	.LBB2085:
 3120              	.LBB2086:
 3121              		.loc 2 998 16 view .LVU714
 3122 0024 83E30018 		lwz 31,24(3)
 3123 0028 93C10010 		stw 30,16(1)
 3124              		.cfi_offset 30, -8
 3125              	.LVL218:
 3126              		.loc 2 998 16 view .LVU715
 3127              	.LBE2086:
 3128              	.LBE2085:
 3129              	.LBE2084:
 3130              	.LBE2083:
 3131              	.LBI2082:
 3132              		.loc 1 203 6 is_stmt 1 view .LVU716
 3133              		.loc 1 207 2 view .LVU717
 3134              	.LBB2103:
 3135              	.LBB2090:
 3136              	.LBI2084:
 3137              		.loc 7 366 7 view .LVU718
 3138              	.LBB2089:
 3139              	.LBI2085:
 3140              		.loc 2 997 7 view .LVU719
 3141              	.LBB2088:
 3142              	.LBB2087:
 3143              	.LBI2087:
 3144              		.loc 2 273 7 view .LVU720
 3145              		.loc 2 273 7 is_stmt 0 view .LVU721
 3146              	.LBE2087:
 3147              	.LBE2088:
 3148              	.LBE2089:
 3149              	.LBE2090:
 3150              		.loc 1 207 78 is_stmt 1 discriminator 1 view .LVU722
 3151              	.LBB2091:
 3152              	.LBI2091:
 3153              		.loc 7 384 7 view .LVU723
 3154              	.LBB2092:
 3155              	.LBI2092:
 3156              		.loc 2 1005 7 view .LVU724
 3157              	.LBB2093:
 3158              		.loc 2 1006 16 is_stmt 0 view .LVU725
 3159 002c 3BC30010 		addi 30,3,16
 3160              	.LVL219:
 3161              	.LBB2094:
 3162              	.LBI2094:
 3163              		.loc 2 273 7 is_stmt 1 view .LVU726
 3164              		.loc 2 273 7 is_stmt 0 view .LVU727
 3165              	.LBE2094:
 3166              	.LBE2093:
 3167              	.LBE2092:
 3168              	.LBE2091:
 3169              		.loc 1 207 78 discriminator 2 view .LVU728
 3170 0030 7C1EF840 		cmplw 0,30,31
 3171 0034 41820020 		beq- 0,.L183
 3172              	.LVL220:
 3173              	.L180:
 3174              		.loc 1 208 3 is_stmt 1 view .LVU729
 3175              		.loc 1 208 7 is_stmt 0 discriminator 1 view .LVU730
 3176 0038 807F0024 		lwz 3,36(31)
 3177 003c 48000001 		bl free
 3178              	.LVL221:
 3179              		.loc 1 207 2 is_stmt 1 discriminator 3 view .LVU731
 3180              	.LBB2098:
 3181              	.LBI2098:
 3182              		.loc 2 292 7 view .LVU732
 3183              	.LBB2099:
 3184              		.loc 2 295 30 is_stmt 0 view .LVU733
 3185 0040 7FE3FB78 		mr 3,31
 3186 0044 48000001 		bl _ZSt18_Rb_tree_incrementPSt18_Rb_tree_node_base
 3187              	.LVL222:
 3188              	.LBE2099:
 3189              	.LBE2098:
 3190              		.loc 1 207 78 discriminator 2 view .LVU734
 3191 0048 7C1E1840 		cmplw 0,30,3
 3192              	.LBB2101:
 3193              	.LBB2100:
 3194              		.loc 2 295 30 view .LVU735
 3195 004c 7C7F1B78 		mr 31,3
 3196              	.LVL223:
 3197              		.loc 2 295 30 view .LVU736
 3198              	.LBE2100:
 3199              	.LBE2101:
 3200              		.loc 1 207 78 is_stmt 1 discriminator 1 view .LVU737
 3201              	.LBB2102:
 3202              		.loc 7 384 7 view .LVU738
 3203              	.LBB2097:
 3204              		.loc 2 1005 7 view .LVU739
 3205              	.LBB2096:
 3206              	.LBB2095:
 3207              		.loc 2 273 7 view .LVU740
 3208              		.loc 2 273 7 is_stmt 0 view .LVU741
 3209              	.LBE2095:
 3210              	.LBE2096:
 3211              	.LBE2097:
 3212              	.LBE2102:
 3213              		.loc 1 207 78 discriminator 2 view .LVU742
 3214 0050 4082FFE8 		bne+ 0,.L180
 3215              	.LVL224:
 3216              	.L183:
 3217              		.loc 1 207 78 discriminator 2 view .LVU743
 3218              	.LBE2103:
 3219              		.loc 1 209 2 is_stmt 1 view .LVU744
 3220              	.LBB2104:
 3221              	.LBI2104:
 3222              		.loc 7 1181 7 view .LVU745
 3223              	.LBB2105:
 3224              	.LBI2105:
 3225              		.loc 2 1253 7 view .LVU746
 3226              	.LBB2106:
 3227              	.LBI2106:
 3228              		.loc 2 740 7 view .LVU747
 3229              	.LBB2107:
 3230              	.LBI2107:
 3231              		.loc 2 736 7 view .LVU748
 3232              	.LBB2108:
 3233              		.loc 2 737 73 is_stmt 0 view .LVU749
 3234 0054 83FD0014 		lwz 31,20(29)
 3235              	.LVL225:
 3236              		.loc 2 737 73 view .LVU750
 3237              	.LBE2108:
 3238              	.LBE2107:
 3239              	.LBE2106:
 3240              	.LBB2111:
 3241              	.LBI2111:
 3242              		.loc 2 1930 5 is_stmt 1 view .LVU751
 3243              	.LBB2112:
 3244              		.loc 2 1934 18 view .LVU752
 3245 0058 2C1F0000 		cmpwi 0,31,0
 3246 005c 41820024 		beq- 0,.L191
 3247              	.L181:
 3248              	.LVL226:
 3249              	.LBB2113:
 3250              	.LBB2114:
 3251              	.LBI2114:
 3252              		.loc 2 789 7 view .LVU753
 3253              		.loc 2 789 7 is_stmt 0 view .LVU754
 3254              	.LBE2114:
 3255              		.loc 2 1936 12 discriminator 1 view .LVU755
 3256 0060 807F000C 		lwz 3,12(31)
 3257 0064 48000001 		bl _ZNSt8_Rb_treeIwSt4pairIKw13ftgxCharData_ESt10_Select1stIS3_ESt4lessIwESaIS3_EE8_M_eraseEPSt13_
 3258              	.LVL227:
 3259              	.LBB2115:
 3260              	.LBI2115:
 3261              		.loc 2 781 7 is_stmt 1 view .LVU756
 3262 0068 7FE3FB78 		mr 3,31
 3263              	.LBB2116:
 3264              		.loc 2 782 52 is_stmt 0 view .LVU757
 3265 006c 83FF0008 		lwz 31,8(31)
 3266              	.LVL228:
 3267              		.loc 2 782 52 view .LVU758
 3268              	.LBE2116:
 3269              	.LBE2115:
 3270              	.LBB2117:
 3271              	.LBI2117:
 3272              		.loc 2 631 7 is_stmt 1 view .LVU759
 3273              	.LBB2118:
 3274              	.LBI2118:
 3275              		.loc 2 566 7 view .LVU760
 3276              	.LBB2119:
 3277              	.LBI2119:
 3278              		.loc 3 515 7 view .LVU761
 3279              	.LBB2120:
 3280              	.LBI2120:
 3281              		.loc 4 152 7 view .LVU762
 3282              	.LBB2121:
 3283              		.loc 4 168 26 is_stmt 0 view .LVU763
 3284 0070 38800028 		li 4,40
 3285 0074 48000001 		bl _ZdlPvj
 3286              	.LVL229:
 3287              		.loc 4 168 26 view .LVU764
 3288              	.LBE2121:
 3289              	.LBE2120:
 3290              	.LBE2119:
 3291              	.LBE2118:
 3292              	.LBE2117:
 3293              	.LBE2113:
 3294              		.loc 2 1934 18 is_stmt 1 view .LVU765
 3295 0078 2C1F0000 		cmpwi 0,31,0
 3296 007c 4082FFE4 		bne+ 0,.L181
 3297              	.LVL230:
 3298              	.L191:
 3299              		.loc 2 1934 18 is_stmt 0 view .LVU766
 3300 0080 83C10010 		lwz 30,16(1)
 3301              		.cfi_restore 30
 3302              	.LVL231:
 3303              	.L176:
 3304              		.loc 2 1934 18 view .LVU767
 3305              	.LBE2112:
 3306              	.LBE2111:
 3307              	.LBE2105:
 3308              	.LBE2104:
 3309              	.LBE2082:
 3310              	.LBE2127:
 3311              	.LBE2130:
 3312              		.loc 1 113 1 view .LVU768
 3313 0084 8001001C 		lwz 0,28(1)
 3314 0088 83A1000C 		lwz 29,12(1)
 3315              	.LVL232:
 3316              		.loc 1 113 1 view .LVU769
 3317 008c 83E10014 		lwz 31,20(1)
 3318 0090 7C0803A6 		mtlr 0
 3319              		.cfi_remember_state
 3320              		.cfi_restore 65
 3321 0094 38210018 		addi 1,1,24
 3322              		.cfi_restore 31
 3323              		.cfi_restore 29
 3324              		.cfi_def_cfa_offset 0
 3325 0098 4E800020 		blr
 3326              	.LVL233:
 3327              	.L192:
 3328              		.cfi_restore_state
 3329              	.LBB2131:
 3330              	.LBB2128:
 3331              	.LBB2125:
 3332              	.LBB2124:
 3333              	.LBB2123:
 3334              	.LBB2122:
 3335              	.LBB2110:
 3336              	.LBB2109:
 3337              		.loc 2 737 73 view .LVU770
 3338 009c 83E30014 		lwz 31,20(3)
 3339              	.LVL234:
 3340              		.loc 2 737 73 view .LVU771
 3341              	.LBE2109:
 3342              	.LBE2110:
 3343              	.LBE2122:
 3344              	.LBE2123:
 3345              	.LBE2124:
 3346              	.LBE2125:
 3347              	.LBE2128:
 3348              	.LBE2131:
 3349              	.LBB2132:
 3350              	.LBI2132:
 3351              		.loc 7 312 7 is_stmt 1 view .LVU772
 3352              	.LBB2133:
 3353              	.LBI2133:
 3354              		.loc 2 985 7 view .LVU773
 3355              	.LBB2134:
 3356              	.LBI2134:
 3357              		.loc 2 740 7 view .LVU774
 3358              		.loc 2 740 7 is_stmt 0 view .LVU775
 3359              	.LBE2134:
 3360              	.LBB2135:
 3361              	.LBI2135:
 3362              		.loc 2 1930 5 is_stmt 1 view .LVU776
 3363              	.LBB2136:
 3364              		.loc 2 1934 18 view .LVU777
 3365 00a0 2C1F0000 		cmpwi 0,31,0
 3366 00a4 41A2FFE0 		beq- 0,.L176
 3367              	.LVL235:
 3368              	.L178:
 3369              	.LBB2137:
 3370              	.LBB2138:
 3371              	.LBI2138:
 3372              		.loc 2 789 7 view .LVU778
 3373              		.loc 2 789 7 is_stmt 0 view .LVU779
 3374              	.LBE2138:
 3375              		.loc 2 1936 12 discriminator 1 view .LVU780
 3376 00a8 807F000C 		lwz 3,12(31)
 3377 00ac 48000001 		bl _ZNSt8_Rb_treeIwSt4pairIKw13ftgxCharData_ESt10_Select1stIS3_ESt4lessIwESaIS3_EE8_M_eraseEPSt13_
 3378              	.LVL236:
 3379              	.LBB2139:
 3380              	.LBI2139:
 3381              		.loc 2 781 7 is_stmt 1 view .LVU781
 3382 00b0 7FE3FB78 		mr 3,31
 3383              	.LBB2140:
 3384              		.loc 2 782 52 is_stmt 0 view .LVU782
 3385 00b4 83FF0008 		lwz 31,8(31)
 3386              	.LVL237:
 3387              		.loc 2 782 52 view .LVU783
 3388              	.LBE2140:
 3389              	.LBE2139:
 3390              	.LBB2141:
 3391              	.LBI2141:
 3392              		.loc 2 631 7 is_stmt 1 view .LVU784
 3393              	.LBB2142:
 3394              	.LBI2142:
 3395              		.loc 2 566 7 view .LVU785
 3396              	.LBB2143:
 3397              	.LBI2143:
 3398              		.loc 3 515 7 view .LVU786
 3399              	.LBB2144:
 3400              	.LBI2144:
 3401              		.loc 4 152 7 view .LVU787
 3402              	.LBB2145:
 3403              		.loc 4 168 26 is_stmt 0 view .LVU788
 3404 00b8 38800028 		li 4,40
 3405 00bc 48000001 		bl _ZdlPvj
 3406              	.LVL238:
 3407              		.loc 4 168 26 view .LVU789
 3408              	.LBE2145:
 3409              	.LBE2144:
 3410              	.LBE2143:
 3411              	.LBE2142:
 3412              	.LBE2141:
 3413              	.LBE2137:
 3414              		.loc 2 1934 18 is_stmt 1 view .LVU790
 3415 00c0 2C1F0000 		cmpwi 0,31,0
 3416 00c4 4082FFE4 		bne+ 0,.L178
 3417              	.LBE2136:
 3418              	.LBE2135:
 3419              	.LBE2133:
 3420              	.LBE2132:
 3421              		.loc 1 113 1 is_stmt 0 view .LVU791
 3422 00c8 8001001C 		lwz 0,28(1)
 3423 00cc 83A1000C 		lwz 29,12(1)
 3424              	.LVL239:
 3425              		.loc 1 113 1 view .LVU792
 3426 00d0 83E10014 		lwz 31,20(1)
 3427              	.LVL240:
 3428              		.loc 1 113 1 view .LVU793
 3429 00d4 7C0803A6 		mtlr 0
 3430              		.cfi_restore 65
 3431 00d8 38210018 		addi 1,1,24
 3432              		.cfi_restore 31
 3433              		.cfi_restore 29
 3434              		.cfi_def_cfa_offset 0
 3435 00dc 4E800020 		blr
 3436              		.cfi_endproc
 3437              	.LFE1348:
 3438              		.size	_ZN10FreeTypeGXD2Ev, .-_ZN10FreeTypeGXD2Ev
 3439              		.globl _ZN10FreeTypeGXD1Ev
 3440              		.set	_ZN10FreeTypeGXD1Ev,_ZN10FreeTypeGXD2Ev
 3441              		.section	.text._ZN10FreeTypeGX15setVertexFormatEh,"ax",@progbits
 3442              		.align 2
 3443              		.globl _ZN10FreeTypeGX15setVertexFormatEh
 3444              		.type	_ZN10FreeTypeGX15setVertexFormatEh, @function
 3445              	_ZN10FreeTypeGX15setVertexFormatEh:
 3446              	.LVL241:
 3447              	.LFB1350:
 3448              		.loc 1 125 1 is_stmt 1 view -0
 3449              		.cfi_startproc
 3450              		.loc 1 126 2 view .LVU795
 3451              		.loc 1 125 1 is_stmt 0 view .LVU796
 3452 0000 9421FFF0 		stwu 1,-16(1)
 3453              		.cfi_def_cfa_offset 16
 3454 0004 7C0802A6 		mflr 0
 3455              		.loc 1 127 18 view .LVU797
 3456 0008 38E00000 		li 7,0
 3457 000c 38C00003 		li 6,3
 3458              		.loc 1 125 1 view .LVU798
 3459 0010 93E1000C 		stw 31,12(1)
 3460              		.cfi_register 65, 0
 3461              		.cfi_offset 31, -4
 3462 0014 7C7F1B78 		mr 31,3
 3463 0018 90010014 		stw 0,20(1)
 3464              		.cfi_offset 65, 4
 3465              		.loc 1 125 1 view .LVU799
 3466 001c 7C832378 		mr 3,4
 3467              	.LVL242:
 3468              		.loc 1 126 20 view .LVU800
 3469 0020 989F0006 		stb 4,6(31)
 3470              		.loc 1 127 2 is_stmt 1 view .LVU801
 3471              		.loc 1 127 18 is_stmt 0 view .LVU802
 3472 0024 38A00000 		li 5,0
 3473 0028 38800009 		li 4,9
 3474              	.LVL243:
 3475              		.loc 1 127 18 view .LVU803
 3476 002c 48000001 		bl GX_SetVtxAttrFmt
 3477              	.LVL244:
 3478              		.loc 1 128 2 is_stmt 1 view .LVU804
 3479              		.loc 1 128 18 is_stmt 0 view .LVU805
 3480 0030 887F0006 		lbz 3,6(31)
 3481 0034 38E00000 		li 7,0
 3482 0038 38C00004 		li 6,4
 3483 003c 38A00001 		li 5,1
 3484 0040 3880000D 		li 4,13
 3485 0044 48000001 		bl GX_SetVtxAttrFmt
 3486              	.LVL245:
 3487              		.loc 1 129 2 is_stmt 1 view .LVU806
 3488              		.loc 1 130 1 is_stmt 0 view .LVU807
 3489 0048 80010014 		lwz 0,20(1)
 3490              		.loc 1 129 18 view .LVU808
 3491 004c 887F0006 		lbz 3,6(31)
 3492 0050 38E00000 		li 7,0
 3493              		.loc 1 130 1 view .LVU809
 3494 0054 83E1000C 		lwz 31,12(1)
 3495              	.LVL246:
 3496              		.loc 1 129 18 view .LVU810
 3497 0058 38C00005 		li 6,5
 3498 005c 38A00001 		li 5,1
 3499 0060 3880000B 		li 4,11
 3500              		.loc 1 130 1 view .LVU811
 3501 0064 7C0803A6 		mtlr 0
 3502              		.cfi_restore 65
 3503 0068 38210010 		addi 1,1,16
 3504              		.cfi_restore 31
 3505              		.cfi_def_cfa_offset 0
 3506              		.loc 1 129 18 view .LVU812
 3507 006c 48000000 		b GX_SetVtxAttrFmt
 3508              	.LVL247:
 3509              		.cfi_endproc
 3510              	.LFE1350:
 3511              		.size	_ZN10FreeTypeGX15setVertexFormatEh, .-_ZN10FreeTypeGX15setVertexFormatEh
 3512              		.section	.text._ZN10FreeTypeGX20setCompatibilityModeEj,"ax",@progbits
 3513              		.align 2
 3514              		.globl _ZN10FreeTypeGX20setCompatibilityModeEj
 3515              		.type	_ZN10FreeTypeGX20setCompatibilityModeEj, @function
 3516              	_ZN10FreeTypeGX20setCompatibilityModeEj:
 3517              	.LVL248:
 3518              	.LFB1351:
 3519              		.loc 1 143 1 is_stmt 1 view -0
 3520              		.cfi_startproc
 3521              		.loc 1 144 2 view .LVU814
 3522              		.loc 1 144 26 is_stmt 0 view .LVU815
 3523 0000 90830008 		stw 4,8(3)
 3524              		.loc 1 145 1 view .LVU816
 3525 0004 4E800020 		blr
 3526              		.cfi_endproc
 3527              	.LFE1351:
 3528              		.size	_ZN10FreeTypeGX20setCompatibilityModeEj, .-_ZN10FreeTypeGX20setCompatibilityModeEj
 3529              		.section	.text._ZN10FreeTypeGX14setDefaultModeEv,"ax",@progbits
 3530              		.align 2
 3531              		.globl _ZN10FreeTypeGX14setDefaultModeEv
 3532              		.type	_ZN10FreeTypeGX14setDefaultModeEv, @function
 3533              	_ZN10FreeTypeGX14setDefaultModeEv:
 3534              	.LVL249:
 3535              	.LFB1352:
 3536              		.loc 1 154 1 is_stmt 1 view -0
 3537              		.cfi_startproc
 3538              		.loc 1 155 2 view .LVU818
 3539              		.loc 1 155 11 is_stmt 0 view .LVU819
 3540 0000 81230008 		lwz 9,8(3)
 3541              		.loc 1 155 2 view .LVU820
 3542 0004 2C090000 		cmpwi 0,9,0
 3543 0008 4D820020 		beqlr- 0
 3544              		.loc 1 157 3 is_stmt 1 view .LVU821
 3545              		.loc 1 157 34 is_stmt 0 view .LVU822
 3546 000c 552A063E 		rlwinm 10,9,0,24,31
 3547              		.loc 1 157 3 view .LVU823
 3548 0010 280A0010 		cmplwi 0,10,16
 3549 0014 41810080 		bgt- 0,.L215
 3550 0018 3D000000 		lis 8,.L200@ha
 3551 001c 554A103A 		slwi 10,10,2
 3552 0020 39080000 		la 8,.L200@l(8)
 3553              		.loc 1 154 1 view .LVU824
 3554 0024 9421FFF0 		stwu 1,-16(1)
 3555              		.cfi_def_cfa_offset 16
 3556              		.loc 1 157 3 view .LVU825
 3557 0028 7D48502E 		lwzx 10,8,10
 3558              		.loc 1 154 1 view .LVU826
 3559 002c 7C0802A6 		mflr 0
 3560 0030 93E1000C 		stw 31,12(1)
 3561              		.cfi_register 65, 0
 3562              		.cfi_offset 31, -4
 3563 0034 7C7F1B78 		mr 31,3
 3564              		.loc 1 157 3 view .LVU827
 3565 0038 7D4A4214 		add 10,10,8
 3566              		.loc 1 154 1 view .LVU828
 3567 003c 90010014 		stw 0,20(1)
 3568              		.cfi_offset 65, 4
 3569              		.loc 1 157 3 view .LVU829
 3570 0040 7D4903A6 		mtctr 10
 3571 0044 4E800420 		bctr
 3572              		.section	.rodata._ZN10FreeTypeGX14setDefaultModeEv,"a",@progbits
 3573              		.align 2
 3574              		.align 2
 3575              	.L200:
 3576 0000 00000000 		.long .L198-.L200
 3577 0004 00000000 		.long .L204-.L200
 3578 0008 00000000 		.long .L203-.L200
 3579 000c 00000000 		.long .L198-.L200
 3580 0010 00000000 		.long .L202-.L200
 3581 0014 00000000 		.long .L198-.L200
 3582 0018 00000000 		.long .L198-.L200
 3583 001c 00000000 		.long .L198-.L200
 3584 0020 00000000 		.long .L201-.L200
 3585 0024 00000000 		.long .L198-.L200
 3586 0028 00000000 		.long .L198-.L200
 3587 002c 00000000 		.long .L198-.L200
 3588 0030 00000000 		.long .L198-.L200
 3589 0034 00000000 		.long .L198-.L200
 3590 0038 00000000 		.long .L198-.L200
 3591 003c 00000000 		.long .L198-.L200
 3592 0040 00000000 		.long .L199-.L200
 3593              		.section	.text._ZN10FreeTypeGX14setDefaultModeEv
 3594              	.L201:
 3595              		.loc 1 168 4 is_stmt 1 view .LVU830
 3596              		.loc 1 169 5 view .LVU831
 3597              		.loc 1 169 16 is_stmt 0 view .LVU832
 3598 0048 38800003 		li 4,3
 3599 004c 38600000 		li 3,0
 3600              	.LVL250:
 3601              		.loc 1 169 16 view .LVU833
 3602 0050 48000001 		bl GX_SetTevOp
 3603              	.LVL251:
 3604              		.loc 1 170 5 is_stmt 1 view .LVU834
 3605 0054 813F0008 		lwz 9,8(31)
 3606              	.L198:
 3607              	.LBB2148:
 3608              	.LBI2148:
 3609              		.loc 1 153 6 view .LVU835
 3610              	.LVL252:
 3611              	.LBB2149:
 3612              		.loc 1 178 3 view .LVU836
 3613              		.loc 1 178 34 is_stmt 0 view .LVU837
 3614 0058 5529042E 		rlwinm 9,9,0,16,23
 3615              		.loc 1 178 3 view .LVU838
 3616 005c 28090400 		cmplwi 0,9,1024
 3617 0060 418200D0 		beq- 0,.L205
 3618 0064 4181005C 		bgt- 0,.L206
 3619 0068 28090100 		cmplwi 0,9,256
 3620 006c 418200CC 		beq- 0,.L207
 3621 0070 28090200 		cmplwi 0,9,512
 3622              		.loc 1 184 18 view .LVU839
 3623 0074 38800001 		li 4,1
 3624              		.loc 1 178 3 view .LVU840
 3625 0078 40820054 		bne- 0,.L196
 3626              	.L230:
 3627              	.LBE2149:
 3628              	.LBE2148:
 3629              		.loc 1 196 1 view .LVU841
 3630 007c 80010014 		lwz 0,20(1)
 3631              	.LBB2154:
 3632              	.LBB2150:
 3633              		.loc 1 190 18 view .LVU842
 3634 0080 3860000D 		li 3,13
 3635              	.LBE2150:
 3636              	.LBE2154:
 3637              		.loc 1 196 1 view .LVU843
 3638 0084 83E1000C 		lwz 31,12(1)
 3639              	.LVL253:
 3640              		.loc 1 196 1 view .LVU844
 3641 0088 38210010 		addi 1,1,16
 3642              		.cfi_restore 31
 3643              		.cfi_def_cfa_offset 0
 3644 008c 7C0803A6 		mtlr 0
 3645              		.cfi_restore 65
 3646              	.LBB2155:
 3647              	.LBB2151:
 3648              		.loc 1 190 18 view .LVU845
 3649 0090 48000000 		b GX_SetVtxDesc
 3650              	.LVL254:
 3651              	.L215:
 3652              		.loc 1 190 18 view .LVU846
 3653              	.LBE2151:
 3654              		.loc 1 153 6 is_stmt 1 view .LVU847
 3655              	.LBB2152:
 3656              		.loc 1 178 3 view .LVU848
 3657              		.loc 1 178 34 is_stmt 0 view .LVU849
 3658 0094 5529042E 		rlwinm 9,9,0,16,23
 3659              		.loc 1 178 3 view .LVU850
 3660 0098 28090400 		cmplwi 0,9,1024
 3661 009c 418200C4 		beq- 0,.L217
 3662 00a0 418100A0 		bgt- 0,.L219
 3663 00a4 28090100 		cmplwi 0,9,256
 3664 00a8 418200AC 		beq- 0,.L221
 3665 00ac 28090200 		cmplwi 0,9,512
 3666 00b0 4C820020 		bnelr- 0
 3667              		.loc 1 183 4 is_stmt 1 view .LVU851
 3668              		.loc 1 184 5 view .LVU852
 3669              		.loc 1 184 18 is_stmt 0 view .LVU853
 3670 00b4 38800001 		li 4,1
 3671 00b8 3860000D 		li 3,13
 3672              	.LVL255:
 3673              		.loc 1 184 18 view .LVU854
 3674 00bc 48000000 		b GX_SetVtxDesc
 3675              	.LVL256:
 3676              	.L206:
 3677              		.cfi_def_cfa_offset 16
 3678              		.cfi_offset 31, -4
 3679              		.cfi_offset 65, 4
 3680              		.loc 1 178 3 view .LVU855
 3681 00c0 28090800 		cmplwi 0,9,2048
 3682              		.loc 1 190 18 view .LVU856
 3683 00c4 38800003 		li 4,3
 3684              		.loc 1 178 3 view .LVU857
 3685 00c8 4182FFB4 		beq+ 0,.L230
 3686              	.L196:
 3687              	.LBE2152:
 3688              	.LBE2155:
 3689              		.loc 1 196 1 view .LVU858
 3690 00cc 80010014 		lwz 0,20(1)
 3691 00d0 83E1000C 		lwz 31,12(1)
 3692              	.LVL257:
 3693              		.loc 1 196 1 view .LVU859
 3694 00d4 38210010 		addi 1,1,16
 3695              		.cfi_remember_state
 3696              		.cfi_restore 31
 3697              		.cfi_def_cfa_offset 0
 3698 00d8 7C0803A6 		mtlr 0
 3699              		.cfi_restore 65
 3700 00dc 4E800020 		blr
 3701              	.LVL258:
 3702              	.L202:
 3703              		.cfi_restore_state
 3704              		.loc 1 165 4 is_stmt 1 view .LVU860
 3705              		.loc 1 166 5 view .LVU861
 3706              		.loc 1 166 16 is_stmt 0 view .LVU862
 3707 00e0 38800002 		li 4,2
 3708 00e4 38600000 		li 3,0
 3709              	.LVL259:
 3710              		.loc 1 166 16 view .LVU863
 3711 00e8 48000001 		bl GX_SetTevOp
 3712              	.LVL260:
 3713              		.loc 1 167 5 is_stmt 1 view .LVU864
 3714 00ec 813F0008 		lwz 9,8(31)
 3715 00f0 4BFFFF68 		b .L198
 3716              	.LVL261:
 3717              	.L199:
 3718              		.loc 1 171 4 view .LVU865
 3719              		.loc 1 172 5 view .LVU866
 3720              		.loc 1 172 16 is_stmt 0 view .LVU867
 3721 00f4 38800004 		li 4,4
 3722 00f8 38600000 		li 3,0
 3723              	.LVL262:
 3724              		.loc 1 172 16 view .LVU868
 3725 00fc 48000001 		bl GX_SetTevOp
 3726              	.LVL263:
 3727              		.loc 1 173 5 is_stmt 1 view .LVU869
 3728 0100 813F0008 		lwz 9,8(31)
 3729 0104 4BFFFF54 		b .L198
 3730              	.LVL264:
 3731              	.L203:
 3732              		.loc 1 162 4 view .LVU870
 3733              		.loc 1 163 5 view .LVU871
 3734              		.loc 1 163 16 is_stmt 0 view .LVU872
 3735 0108 38800001 		li 4,1
 3736 010c 38600000 		li 3,0
 3737              	.LVL265:
 3738              		.loc 1 163 16 view .LVU873
 3739 0110 48000001 		bl GX_SetTevOp
 3740              	.LVL266:
 3741              		.loc 1 164 5 is_stmt 1 view .LVU874
 3742 0114 813F0008 		lwz 9,8(31)
 3743 0118 4BFFFF40 		b .L198
 3744              	.LVL267:
 3745              	.L204:
 3746              		.loc 1 159 4 view .LVU875
 3747              		.loc 1 160 5 view .LVU876
 3748              		.loc 1 160 16 is_stmt 0 view .LVU877
 3749 011c 38800000 		li 4,0
 3750 0120 38600000 		li 3,0
 3751              	.LVL268:
 3752              		.loc 1 160 16 view .LVU878
 3753 0124 48000001 		bl GX_SetTevOp
 3754              	.LVL269:
 3755              		.loc 1 161 5 is_stmt 1 view .LVU879
 3756 0128 813F0008 		lwz 9,8(31)
 3757 012c 4BFFFF2C 		b .L198
 3758              	.LVL270:
 3759              	.L205:
 3760              	.LBB2156:
 3761              	.LBB2153:
 3762              		.loc 1 186 4 view .LVU880
 3763              		.loc 1 187 5 view .LVU881
 3764              		.loc 1 187 18 is_stmt 0 view .LVU882
 3765 0130 38800002 		li 4,2
 3766 0134 4BFFFF48 		b .L230
 3767              	.L207:
 3768              		.loc 1 180 4 is_stmt 1 view .LVU883
 3769              		.loc 1 181 5 view .LVU884
 3770              		.loc 1 181 18 is_stmt 0 view .LVU885
 3771 0138 38800000 		li 4,0
 3772 013c 4BFFFF40 		b .L230
 3773              	.LVL271:
 3774              	.L219:
 3775              		.cfi_def_cfa_offset 0
 3776              		.cfi_restore 31
 3777              		.cfi_restore 65
 3778              		.loc 1 178 3 view .LVU886
 3779 0140 28090800 		cmplwi 0,9,2048
 3780 0144 4C820020 		bnelr- 0
 3781              		.loc 1 189 4 is_stmt 1 view .LVU887
 3782              		.loc 1 190 5 view .LVU888
 3783              		.loc 1 190 18 is_stmt 0 view .LVU889
 3784 0148 38800003 		li 4,3
 3785 014c 3860000D 		li 3,13
 3786              	.LVL272:
 3787              		.loc 1 190 18 view .LVU890
 3788 0150 48000000 		b GX_SetVtxDesc
 3789              	.LVL273:
 3790              	.L221:
 3791              		.loc 1 180 4 is_stmt 1 view .LVU891
 3792              		.loc 1 181 5 view .LVU892
 3793              		.loc 1 181 18 is_stmt 0 view .LVU893
 3794 0154 38800000 		li 4,0
 3795 0158 3860000D 		li 3,13
 3796              	.LVL274:
 3797              		.loc 1 181 18 view .LVU894
 3798 015c 48000000 		b GX_SetVtxDesc
 3799              	.LVL275:
 3800              	.L217:
 3801              		.loc 1 186 4 is_stmt 1 view .LVU895
 3802              		.loc 1 187 5 view .LVU896
 3803              		.loc 1 187 18 is_stmt 0 view .LVU897
 3804 0160 38800002 		li 4,2
 3805 0164 3860000D 		li 3,13
 3806              	.LVL276:
 3807              		.loc 1 187 18 view .LVU898
 3808 0168 48000000 		b GX_SetVtxDesc
 3809              	.LVL277:
 3810              	.LBE2153:
 3811              	.LBE2156:
 3812              		.cfi_endproc
 3813              	.LFE1352:
 3814              		.size	_ZN10FreeTypeGX14setDefaultModeEv, .-_ZN10FreeTypeGX14setDefaultModeEv
 3815              		.section	.text._ZN10FreeTypeGX10unloadFontEv,"ax",@progbits
 3816              		.align 2
 3817              		.globl _ZN10FreeTypeGX10unloadFontEv
 3818              		.type	_ZN10FreeTypeGX10unloadFontEv, @function
 3819              	_ZN10FreeTypeGX10unloadFontEv:
 3820              	.LVL278:
 3821              	.LFB1353:
 3822              		.loc 1 204 1 is_stmt 1 view -0
 3823              		.cfi_startproc
 3824              		.loc 1 205 2 view .LVU900
 3825              	.LBB2217:
 3826              	.LBI2217:
 3827              		.loc 7 480 7 view .LVU901
 3828              	.LBB2218:
 3829              	.LBI2218:
 3830              		.loc 2 1033 7 view .LVU902
 3831              		.loc 2 1033 7 is_stmt 0 view .LVU903
 3832              	.LBE2218:
 3833              	.LBE2217:
 3834              		.loc 1 205 2 discriminator 1 view .LVU904
 3835 0000 81230020 		lwz 9,32(3)
 3836 0004 2C090000 		cmpwi 0,9,0
 3837 0008 4D820020 		beqlr- 0
 3838              		.loc 1 204 1 view .LVU905
 3839 000c 9421FFE8 		stwu 1,-24(1)
 3840              		.cfi_def_cfa_offset 24
 3841 0010 7C0802A6 		mflr 0
 3842 0014 93E10014 		stw 31,20(1)
 3843              		.cfi_register 65, 0
 3844              		.cfi_offset 31, -4
 3845              	.LBB2219:
 3846              	.LBB2220:
 3847              	.LBB2221:
 3848              	.LBB2222:
 3849              	.LBB2223:
 3850              		.loc 2 998 16 view .LVU906
 3851 0018 83E30018 		lwz 31,24(3)
 3852              	.LBE2223:
 3853              	.LBE2222:
 3854              	.LBE2221:
 3855              	.LBE2220:
 3856              	.LBE2219:
 3857              		.loc 1 204 1 view .LVU907
 3858 001c 93A1000C 		stw 29,12(1)
 3859              		.cfi_offset 29, -12
 3860              	.LBB2274:
 3861              	.LBB2243:
 3862              	.LBB2227:
 3863              	.LBB2228:
 3864              	.LBB2229:
 3865              		.loc 2 1006 16 view .LVU908
 3866 0020 3BA30010 		addi 29,3,16
 3867              	.LBE2229:
 3868              	.LBE2228:
 3869              	.LBE2227:
 3870              		.loc 1 207 78 discriminator 2 view .LVU909
 3871 0024 7C1FE840 		cmplw 0,31,29
 3872              	.LBE2243:
 3873              	.LBE2274:
 3874              		.loc 1 204 1 view .LVU910
 3875 0028 93C10010 		stw 30,16(1)
 3876 002c 9001001C 		stw 0,28(1)
 3877              		.cfi_offset 30, -8
 3878              		.cfi_offset 65, 4
 3879 0030 7C7E1B78 		mr 30,3
 3880              	.LVL279:
 3881              	.LBB2275:
 3882              	.LBI2219:
 3883              		.loc 1 203 6 is_stmt 1 view .LVU911
 3884              		.loc 1 207 2 view .LVU912
 3885              	.LBB2244:
 3886              	.LBB2236:
 3887              	.LBI2221:
 3888              		.loc 7 366 7 view .LVU913
 3889              	.LBB2226:
 3890              	.LBI2222:
 3891              		.loc 2 997 7 view .LVU914
 3892              	.LBB2225:
 3893              	.LBB2224:
 3894              	.LBI2224:
 3895              		.loc 2 273 7 view .LVU915
 3896              		.loc 2 273 7 is_stmt 0 view .LVU916
 3897              	.LBE2224:
 3898              	.LBE2225:
 3899              	.LBE2226:
 3900              	.LBE2236:
 3901              		.loc 1 207 78 is_stmt 1 discriminator 1 view .LVU917
 3902              	.LBB2237:
 3903              	.LBI2227:
 3904              		.loc 7 384 7 view .LVU918
 3905              	.LBB2234:
 3906              	.LBI2228:
 3907              		.loc 2 1005 7 view .LVU919
 3908              	.LBB2232:
 3909              	.LBB2230:
 3910              	.LBI2230:
 3911              		.loc 2 273 7 view .LVU920
 3912              		.loc 2 273 7 is_stmt 0 view .LVU921
 3913              	.LBE2230:
 3914              	.LBE2232:
 3915              	.LBE2234:
 3916              	.LBE2237:
 3917              		.loc 1 207 78 discriminator 2 view .LVU922
 3918 0034 41820020 		beq- 0,.L233
 3919              	.LVL280:
 3920              	.L234:
 3921              		.loc 1 208 3 is_stmt 1 view .LVU923
 3922              		.loc 1 208 7 is_stmt 0 discriminator 1 view .LVU924
 3923 0038 807F0024 		lwz 3,36(31)
 3924 003c 48000001 		bl free
 3925              	.LVL281:
 3926              		.loc 1 207 2 is_stmt 1 discriminator 3 view .LVU925
 3927              	.LBB2238:
 3928              	.LBI2238:
 3929              		.loc 2 292 7 view .LVU926
 3930              	.LBB2239:
 3931              		.loc 2 295 30 is_stmt 0 view .LVU927
 3932 0040 7FE3FB78 		mr 3,31
 3933 0044 48000001 		bl _ZSt18_Rb_tree_incrementPSt18_Rb_tree_node_base
 3934              	.LVL282:
 3935              	.LBE2239:
 3936              	.LBE2238:
 3937              		.loc 1 207 78 discriminator 2 view .LVU928
 3938 0048 7C03E840 		cmplw 0,3,29
 3939              	.LBB2241:
 3940              	.LBB2240:
 3941              		.loc 2 295 30 view .LVU929
 3942 004c 7C7F1B78 		mr 31,3
 3943              	.LVL283:
 3944              		.loc 2 295 30 view .LVU930
 3945              	.LBE2240:
 3946              	.LBE2241:
 3947              		.loc 1 207 78 is_stmt 1 discriminator 1 view .LVU931
 3948              	.LBB2242:
 3949              		.loc 7 384 7 view .LVU932
 3950              	.LBB2235:
 3951              		.loc 2 1005 7 view .LVU933
 3952              	.LBB2233:
 3953              	.LBB2231:
 3954              		.loc 2 273 7 view .LVU934
 3955              		.loc 2 273 7 is_stmt 0 view .LVU935
 3956              	.LBE2231:
 3957              	.LBE2233:
 3958              	.LBE2235:
 3959              	.LBE2242:
 3960              		.loc 1 207 78 discriminator 2 view .LVU936
 3961 0050 4082FFE8 		bne+ 0,.L234
 3962              	.LVL284:
 3963              	.L233:
 3964              		.loc 1 207 78 discriminator 2 view .LVU937
 3965              	.LBE2244:
 3966              		.loc 1 209 2 is_stmt 1 view .LVU938
 3967              	.LBB2245:
 3968              	.LBI2245:
 3969              		.loc 7 1181 7 view .LVU939
 3970              	.LBB2246:
 3971              	.LBB2247:
 3972              	.LBI2247:
 3973              		.loc 2 1253 7 view .LVU940
 3974              	.LBB2248:
 3975              	.LBI2248:
 3976              		.loc 2 740 7 view .LVU941
 3977              	.LBB2249:
 3978              	.LBI2249:
 3979              		.loc 2 736 7 view .LVU942
 3980              	.LBB2250:
 3981              		.loc 2 737 73 is_stmt 0 view .LVU943
 3982 0054 83FE0014 		lwz 31,20(30)
 3983              	.LVL285:
 3984              		.loc 2 737 73 view .LVU944
 3985              	.LBE2250:
 3986              	.LBE2249:
 3987              	.LBE2248:
 3988              	.LBB2251:
 3989              	.LBI2251:
 3990              		.loc 2 1930 5 is_stmt 1 view .LVU945
 3991              	.LBB2252:
 3992              		.loc 2 1934 18 view .LVU946
 3993 0058 2C1F0000 		cmpwi 0,31,0
 3994 005c 41820024 		beq- 0,.L235
 3995              	.L236:
 3996              	.LVL286:
 3997              	.LBB2253:
 3998              	.LBB2254:
 3999              	.LBI2254:
 4000              		.loc 2 789 7 view .LVU947
 4001              		.loc 2 789 7 is_stmt 0 view .LVU948
 4002              	.LBE2254:
 4003              		.loc 2 1936 12 discriminator 1 view .LVU949
 4004 0060 807F000C 		lwz 3,12(31)
 4005 0064 48000001 		bl _ZNSt8_Rb_treeIwSt4pairIKw13ftgxCharData_ESt10_Select1stIS3_ESt4lessIwESaIS3_EE8_M_eraseEPSt13_
 4006              	.LVL287:
 4007              	.LBB2255:
 4008              	.LBI2255:
 4009              		.loc 2 781 7 is_stmt 1 view .LVU950
 4010 0068 7FE3FB78 		mr 3,31
 4011              	.LBB2256:
 4012              		.loc 2 782 52 is_stmt 0 view .LVU951
 4013 006c 83FF0008 		lwz 31,8(31)
 4014              	.LVL288:
 4015              		.loc 2 782 52 view .LVU952
 4016              	.LBE2256:
 4017              	.LBE2255:
 4018              	.LBB2257:
 4019              	.LBI2257:
 4020              		.loc 2 631 7 is_stmt 1 view .LVU953
 4021              	.LBB2258:
 4022              	.LBI2258:
 4023              		.loc 2 566 7 view .LVU954
 4024              	.LBB2259:
 4025              	.LBI2259:
 4026              		.loc 3 515 7 view .LVU955
 4027              	.LBB2260:
 4028              	.LBI2260:
 4029              		.loc 4 152 7 view .LVU956
 4030              	.LBB2261:
 4031              		.loc 4 168 26 is_stmt 0 view .LVU957
 4032 0070 38800028 		li 4,40
 4033 0074 48000001 		bl _ZdlPvj
 4034              	.LVL289:
 4035              		.loc 4 168 26 view .LVU958
 4036              	.LBE2261:
 4037              	.LBE2260:
 4038              	.LBE2259:
 4039              	.LBE2258:
 4040              	.LBE2257:
 4041              	.LBE2253:
 4042              		.loc 2 1934 18 is_stmt 1 view .LVU959
 4043 0078 2C1F0000 		cmpwi 0,31,0
 4044 007c 4082FFE4 		bne+ 0,.L236
 4045              	.LVL290:
 4046              	.L235:
 4047              		.loc 2 1934 18 is_stmt 0 view .LVU960
 4048              	.LBE2252:
 4049              	.LBE2251:
 4050              	.LBB2262:
 4051              	.LBI2262:
 4052              		.loc 2 206 5 is_stmt 1 view .LVU961
 4053              	.LBB2263:
 4054              		.loc 2 208 7 view .LVU962
 4055              	.LBE2263:
 4056              	.LBE2262:
 4057              	.LBE2247:
 4058              	.LBE2246:
 4059              	.LBE2245:
 4060              	.LBE2275:
 4061              		.loc 1 210 1 is_stmt 0 view .LVU963
 4062 0080 8001001C 		lwz 0,28(1)
 4063              	.LBB2276:
 4064              	.LBB2272:
 4065              	.LBB2270:
 4066              	.LBB2268:
 4067              	.LBB2266:
 4068              	.LBB2264:
 4069              		.loc 2 208 27 view .LVU964
 4070 0084 39200000 		li 9,0
 4071              		.loc 2 209 25 view .LVU965
 4072 0088 93BE0018 		stw 29,24(30)
 4073              		.loc 2 210 26 view .LVU966
 4074 008c 93BE001C 		stw 29,28(30)
 4075              	.LBE2264:
 4076              	.LBE2266:
 4077              	.LBE2268:
 4078              	.LBE2270:
 4079              	.LBE2272:
 4080              	.LBE2276:
 4081              		.loc 1 210 1 view .LVU967
 4082 0090 7C0803A6 		mtlr 0
 4083              		.cfi_restore 65
 4084              	.LBB2277:
 4085              	.LBB2273:
 4086              	.LBB2271:
 4087              	.LBB2269:
 4088              	.LBB2267:
 4089              	.LBB2265:
 4090              		.loc 2 208 27 view .LVU968
 4091 0094 913E0014 		stw 9,20(30)
 4092              		.loc 2 209 7 is_stmt 1 view .LVU969
 4093              		.loc 2 210 7 view .LVU970
 4094              		.loc 2 211 7 view .LVU971
 4095              		.loc 2 211 21 is_stmt 0 view .LVU972
 4096 0098 913E0020 		stw 9,32(30)
 4097              	.LVL291:
 4098              		.loc 2 211 21 view .LVU973
 4099              	.LBE2265:
 4100              	.LBE2267:
 4101              	.LBE2269:
 4102              	.LBE2271:
 4103              	.LBE2273:
 4104              	.LBE2277:
 4105              		.loc 1 210 1 view .LVU974
 4106 009c 83A1000C 		lwz 29,12(1)
 4107 00a0 83C10010 		lwz 30,16(1)
 4108              	.LVL292:
 4109              		.loc 1 210 1 view .LVU975
 4110 00a4 83E10014 		lwz 31,20(1)
 4111 00a8 38210018 		addi 1,1,24
 4112              		.cfi_restore 31
 4113              		.cfi_restore 30
 4114              		.cfi_restore 29
 4115              		.cfi_def_cfa_offset 0
 4116 00ac 4E800020 		blr
 4117              		.cfi_endproc
 4118              	.LFE1353:
 4119              		.size	_ZN10FreeTypeGX10unloadFontEv, .-_ZN10FreeTypeGX10unloadFontEv
 4120              		.section	.text._ZN10FreeTypeGX18adjustTextureWidthEth,"ax",@progbits
 4121              		.align 2
 4122              		.globl _ZN10FreeTypeGX18adjustTextureWidthEth
 4123              		.type	_ZN10FreeTypeGX18adjustTextureWidthEth, @function
 4124              	_ZN10FreeTypeGX18adjustTextureWidthEth:
 4125              	.LVL293:
 4126              	.LFB1355:
 4127              		.loc 1 222 1 is_stmt 1 view -0
 4128              		.cfi_startproc
 4129              		.loc 1 223 2 view .LVU977
 4130              		.loc 1 225 2 view .LVU978
 4131 0000 28040002 		cmplwi 0,4,2
 4132              		.loc 1 238 14 is_stmt 0 view .LVU979
 4133 0004 38E00004 		li 7,4
 4134              		.loc 1 225 2 view .LVU980
 4135 0008 41810008 		bgt- 0,.L250
 4136              		.loc 1 230 14 view .LVU981
 4137 000c 38E00008 		li 7,8
 4138              	.L250:
 4139              	.LVL294:
 4140              		.loc 1 241 2 is_stmt 1 view .LVU982
 4141              		.loc 1 241 22 is_stmt 0 view .LVU983
 4142 0010 54EA043E 		rlwinm 10,7,0,0xffff
 4143              		.loc 1 241 108 discriminator 2 view .LVU984
 4144 0014 7C681B78 		mr 8,3
 4145              		.loc 1 241 22 view .LVU985
 4146 0018 7D235396 		divwu 9,3,10
 4147 001c 7D2951D6 		mullw 9,9,10
 4148 0020 7D291850 		subf 9,9,3
 4149              		.loc 1 241 108 view .LVU986
 4150 0024 552A043E 		rlwinm 10,9,0,0xffff
 4151 0028 2C0A0000 		cmpwi 0,10,0
 4152 002c 4182000C 		beq- 0,.L251
 4153              		.loc 1 241 66 discriminator 1 view .LVU987
 4154 0030 7C633A14 		add 3,3,7
 4155              	.LVL295:
 4156              		.loc 1 241 108 discriminator 1 view .LVU988
 4157 0034 7D091850 		subf 8,9,3
 4158              	.LVL296:
 4159              	.L251:
 4160              		.loc 1 242 1 view .LVU989
 4161 0038 5503043E 		rlwinm 3,8,0,0xffff
 4162 003c 4E800020 		blr
 4163              		.cfi_endproc
 4164              	.LFE1355:
 4165              		.size	_ZN10FreeTypeGX18adjustTextureWidthEth, .-_ZN10FreeTypeGX18adjustTextureWidthEth
 4166              		.section	.text._ZN10FreeTypeGX19adjustTextureHeightEth,"ax",@progbits
 4167              		.align 2
 4168              		.globl _ZN10FreeTypeGX19adjustTextureHeightEth
 4169              		.type	_ZN10FreeTypeGX19adjustTextureHeightEth, @function
 4170              	_ZN10FreeTypeGX19adjustTextureHeightEth:
 4171              	.LVL297:
 4172              	.LFB1356:
 4173              		.loc 1 254 1 is_stmt 1 view -0
 4174              		.cfi_startproc
 4175              		.loc 1 255 2 view .LVU991
 4176              		.loc 1 257 2 view .LVU992
 4177 0000 2C040000 		cmpwi 0,4,0
 4178              		.loc 1 270 14 is_stmt 0 view .LVU993
 4179 0004 38E00004 		li 7,4
 4180              		.loc 1 257 2 view .LVU994
 4181 0008 40820008 		bne- 0,.L256
 4182              		.loc 1 260 14 view .LVU995
 4183 000c 38E00008 		li 7,8
 4184              	.L256:
 4185              	.LVL298:
 4186              		.loc 1 273 2 is_stmt 1 view .LVU996
 4187              		.loc 1 273 23 is_stmt 0 view .LVU997
 4188 0010 54EA043E 		rlwinm 10,7,0,0xffff
 4189              		.loc 1 273 112 discriminator 2 view .LVU998
 4190 0014 7C681B78 		mr 8,3
 4191              		.loc 1 273 23 view .LVU999
 4192 0018 7D235396 		divwu 9,3,10
 4193 001c 7D2951D6 		mullw 9,9,10
 4194 0020 7D291850 		subf 9,9,3
 4195              		.loc 1 273 112 view .LVU1000
 4196 0024 552A043E 		rlwinm 10,9,0,0xffff
 4197 0028 2C0A0000 		cmpwi 0,10,0
 4198 002c 4182000C 		beq- 0,.L257
 4199              		.loc 1 273 68 discriminator 1 view .LVU1001
 4200 0030 7C633A14 		add 3,3,7
 4201              	.LVL299:
 4202              		.loc 1 273 112 discriminator 1 view .LVU1002
 4203 0034 7D091850 		subf 8,9,3
 4204              	.LVL300:
 4205              	.L257:
 4206              		.loc 1 274 1 view .LVU1003
 4207 0038 5503043E 		rlwinm 3,8,0,0xffff
 4208 003c 4E800020 		blr
 4209              		.cfi_endproc
 4210              	.LFE1356:
 4211              		.size	_ZN10FreeTypeGX19adjustTextureHeightEth, .-_ZN10FreeTypeGX19adjustTextureHeightEth
 4212              		.section	.text._ZN10FreeTypeGX13loadGlyphDataEP10FT_Bitmap_P13ftgxCharData_,"ax",@progbits
 4213              		.align 2
 4214              		.globl _ZN10FreeTypeGX13loadGlyphDataEP10FT_Bitmap_P13ftgxCharData_
 4215              		.type	_ZN10FreeTypeGX13loadGlyphDataEP10FT_Bitmap_P13ftgxCharData_, @function
 4216              	_ZN10FreeTypeGX13loadGlyphDataEP10FT_Bitmap_P13ftgxCharData_:
 4217              	.LVL301:
 4218              	.LFB1359:
 4219              		.loc 1 349 1 is_stmt 1 view -0
 4220              		.cfi_startproc
 4221              		.loc 1 350 2 view .LVU1005
 4222              		.loc 1 350 84 is_stmt 0 view .LVU1006
 4223 0000 A1450008 		lhz 10,8(5)
 4224              		.loc 1 349 1 view .LVU1007
 4225 0004 7C0802A6 		mflr 0
 4226              		.loc 1 350 59 view .LVU1008
 4227 0008 A1250006 		lhz 9,6(5)
 4228              		.loc 1 349 1 view .LVU1009
 4229 000c 9421FFE8 		stwu 1,-24(1)
 4230              		.cfi_def_cfa_offset 24
 4231              		.cfi_register 65, 0
 4232              		.loc 1 350 72 view .LVU1010
 4233 0010 7D2951D6 		mullw 9,9,10
 4234              		.loc 1 349 1 view .LVU1011
 4235 0014 93810008 		stw 28,8(1)
 4236              		.cfi_offset 28, -16
 4237 0018 7CBC2B78 		mr 28,5
 4238 001c 93C10010 		stw 30,16(1)
 4239              		.cfi_offset 30, -8
 4240 0020 7C9E2378 		mr 30,4
 4241 0024 93E10014 		stw 31,20(1)
 4242              		.cfi_offset 31, -4
 4243 0028 7C7F1B78 		mr 31,3
 4244              		.loc 1 350 44 view .LVU1012
 4245 002c 5524103A 		slwi 4,9,2
 4246              	.LVL302:
 4247              		.loc 1 350 44 view .LVU1013
 4248 0030 38600020 		li 3,32
 4249              	.LVL303:
 4250              		.loc 1 349 1 view .LVU1014
 4251 0034 9001001C 		stw 0,28(1)
 4252 0038 93A1000C 		stw 29,12(1)
 4253              		.cfi_offset 65, 4
 4254              		.cfi_offset 29, -12
 4255              		.loc 1 350 44 view .LVU1015
 4256 003c 48000001 		bl memalign
 4257              	.LVL304:
 4258              		.loc 1 351 36 view .LVU1016
 4259 0040 A13C0006 		lhz 9,6(28)
 4260              		.loc 1 351 8 view .LVU1017
 4261 0044 38800000 		li 4,0
 4262              		.loc 1 351 61 view .LVU1018
 4263 0048 A15C0008 		lhz 10,8(28)
 4264              		.loc 1 350 44 view .LVU1019
 4265 004c 7C7D1B78 		mr 29,3
 4266              	.LVL305:
 4267              		.loc 1 351 2 is_stmt 1 view .LVU1020
 4268              		.loc 1 351 49 is_stmt 0 view .LVU1021
 4269 0050 7D2951D6 		mullw 9,9,10
 4270              		.loc 1 351 8 view .LVU1022
 4271 0054 5525103A 		slwi 5,9,2
 4272 0058 48000001 		bl memset
 4273              	.LVL306:
 4274              		.loc 1 353 2 is_stmt 1 view .LVU1023
 4275              	.LBB2278:
 4276              		.loc 1 353 41 discriminator 1 view .LVU1024
 4277 005c 813E0000 		lwz 9,0(30)
 4278 0060 2C090000 		cmpwi 0,9,0
 4279 0064 418201F4 		beq- 0,.L262
 4280              	.LBB2279:
 4281              		.loc 1 355 49 is_stmt 0 discriminator 1 view .LVU1025
 4282 0068 813E0004 		lwz 9,4(30)
 4283              	.LBE2279:
 4284              		.loc 1 353 16 view .LVU1026
 4285 006c 38600000 		li 3,0
 4286 0070 A09C0006 		lhz 4,6(28)
 4287              		.loc 1 353 31 discriminator 1 view .LVU1027
 4288 0074 38000000 		li 0,0
 4289              	.LVL307:
 4290              	.L263:
 4291              	.LBB2283:
 4292              		.loc 1 355 42 is_stmt 1 discriminator 1 view .LVU1028
 4293 0078 2C090000 		cmpwi 0,9,0
 4294 007c 4182006C 		beq- 0,.L265
 4295              	.LBB2280:
 4296              		.loc 1 358 14 is_stmt 0 view .LVU1029
 4297 0080 546B043E 		rlwinm 11,3,0,0xffff
 4298              		.loc 1 357 37 view .LVU1030
 4299 0084 819E000C 		lwz 12,12(30)
 4300              		.loc 1 358 24 view .LVU1031
 4301 0088 7D6B21D6 		mullw 11,11,4
 4302              	.LBE2280:
 4303              		.loc 1 355 17 view .LVU1032
 4304 008c 39400000 		li 10,0
 4305              		.loc 1 355 32 discriminator 1 view .LVU1033
 4306 0090 38E00000 		li 7,0
 4307              	.LVL308:
 4308              	.L264:
 4309              	.LBB2281:
 4310              		.loc 1 357 4 is_stmt 1 view .LVU1034
 4311              		.loc 1 358 4 view .LVU1035
 4312              		.loc 1 357 78 is_stmt 0 view .LVU1036
 4313 0094 7CCC3A14 		add 6,12,7
 4314              		.loc 1 358 51 view .LVU1037
 4315 0098 5548043E 		rlwinm 8,10,0,0xffff
 4316              		.loc 1 357 54 view .LVU1038
 4317 009c 7D2901D6 		mullw 9,9,0
 4318              	.LVL309:
 4319              		.loc 1 358 60 view .LVU1039
 4320 00a0 7D085A14 		add 8,8,11
 4321              		.loc 1 358 62 view .LVU1040
 4322 00a4 5508103A 		slwi 8,8,2
 4323              	.LBE2281:
 4324              		.loc 1 355 3 discriminator 3 view .LVU1041
 4325 00a8 394A0001 		addi 10,10,1
 4326              	.LVL310:
 4327              		.loc 1 355 32 discriminator 1 view .LVU1042
 4328 00ac 5547043E 		rlwinm 7,10,0,0xffff
 4329              	.LVL311:
 4330              	.LBB2282:
 4331              		.loc 1 357 13 view .LVU1043
 4332 00b0 7CC648AE 		lbzx 6,6,9
 4333              		.loc 1 358 122 view .LVU1044
 4334 00b4 54C9402E 		slwi 9,6,8
 4335              		.loc 1 358 122 view .LVU1045
 4336 00b8 7D293214 		add 9,9,6
 4337 00bc 5526801E 		slwi 6,9,16
 4338 00c0 7D293214 		add 9,9,6
 4339              		.loc 1 358 62 view .LVU1046
 4340 00c4 7D3D412E 		stwx 9,29,8
 4341              		.loc 1 358 62 view .LVU1047
 4342              	.LBE2282:
 4343              		.loc 1 355 3 is_stmt 1 discriminator 3 view .LVU1048
 4344              	.LVL312:
 4345              		.loc 1 355 42 discriminator 1 view .LVU1049
 4346              		.loc 1 355 49 is_stmt 0 discriminator 1 view .LVU1050
 4347 00c8 813E0004 		lwz 9,4(30)
 4348              		.loc 1 355 42 discriminator 1 view .LVU1051
 4349 00cc 7C074840 		cmplw 0,7,9
 4350 00d0 4180FFC4 		blt+ 0,.L264
 4351              	.LBE2283:
 4352              		.loc 1 353 2 is_stmt 1 discriminator 2 view .LVU1052
 4353              		.loc 1 353 41 is_stmt 0 discriminator 1 view .LVU1053
 4354 00d4 815E0000 		lwz 10,0(30)
 4355              	.LVL313:
 4356              		.loc 1 353 2 discriminator 2 view .LVU1054
 4357 00d8 38630001 		addi 3,3,1
 4358              	.LVL314:
 4359              		.loc 1 353 31 discriminator 1 view .LVU1055
 4360 00dc 5460043E 		rlwinm 0,3,0,0xffff
 4361              	.LVL315:
 4362              		.loc 1 353 41 is_stmt 1 discriminator 1 view .LVU1056
 4363 00e0 7C005040 		cmplw 0,0,10
 4364 00e4 4180FF94 		blt+ 0,.L263
 4365              	.LVL316:
 4366              	.L265:
 4367              		.loc 1 353 41 is_stmt 0 discriminator 1 view .LVU1057
 4368              	.LBE2278:
 4369              		.loc 1 362 2 is_stmt 1 view .LVU1058
 4370 00e8 895F0005 		lbz 10,5(31)
 4371              		.loc 1 365 63 is_stmt 0 view .LVU1059
 4372 00ec A0BC0008 		lhz 5,8(28)
 4373              		.loc 1 362 2 view .LVU1060
 4374 00f0 280A0005 		cmplwi 0,10,5
 4375 00f4 41810130 		bgt- 0,.L268
 4376 00f8 3D200000 		lis 9,.L270@ha
 4377 00fc 554A103A 		slwi 10,10,2
 4378 0100 39290000 		la 9,.L270@l(9)
 4379              		.loc 1 380 67 view .LVU1061
 4380 0104 54A5043E 		rlwinm 5,5,0,0xffff
 4381              		.loc 1 362 2 view .LVU1062
 4382 0108 7D49502E 		lwzx 10,9,10
 4383              		.loc 1 380 67 view .LVU1063
 4384 010c 7FA3EB78 		mr 3,29
 4385              		.loc 1 362 2 view .LVU1064
 4386 0110 7D2A4A14 		add 9,10,9
 4387 0114 7D2903A6 		mtctr 9
 4388 0118 4E800420 		bctr
 4389              		.section	.rodata._ZN10FreeTypeGX13loadGlyphDataEP10FT_Bitmap_P13ftgxCharData_,"a",@progbits
 4390              		.align 2
 4391              		.align 2
 4392              	.L270:
 4393 0000 00000000 		.long .L275-.L270
 4394 0004 00000000 		.long .L274-.L270
 4395 0008 00000000 		.long .L273-.L270
 4396 000c 00000000 		.long .L272-.L270
 4397 0010 00000000 		.long .L271-.L270
 4398 0014 00000000 		.long .L269-.L270
 4399              		.section	.text._ZN10FreeTypeGX13loadGlyphDataEP10FT_Bitmap_P13ftgxCharData_
 4400              	.LVL317:
 4401              	.L271:
 4402              		.loc 1 376 3 is_stmt 1 view .LVU1065
 4403              		.loc 1 377 4 view .LVU1066
 4404              		.loc 1 377 67 is_stmt 0 view .LVU1067
 4405 011c 48000001 		bl _ZN11Metaphrasis21convertBufferToRGB565EPjtt
 4406              	.LVL318:
 4407              		.loc 1 378 4 is_stmt 1 view .LVU1068
 4408              		.loc 1 388 1 is_stmt 0 view .LVU1069
 4409 0120 8001001C 		lwz 0,28(1)
 4410              		.loc 1 365 31 discriminator 1 view .LVU1070
 4411 0124 907C0010 		stw 3,16(28)
 4412              		.loc 1 387 2 is_stmt 1 view .LVU1071
 4413              		.loc 1 387 6 is_stmt 0 view .LVU1072
 4414 0128 7FA3EB78 		mr 3,29
 4415              		.loc 1 388 1 view .LVU1073
 4416 012c 83810008 		lwz 28,8(1)
 4417              	.LVL319:
 4418              		.loc 1 388 1 view .LVU1074
 4419 0130 7C0803A6 		mtlr 0
 4420              		.cfi_remember_state
 4421              		.cfi_restore 65
 4422 0134 83A1000C 		lwz 29,12(1)
 4423              	.LVL320:
 4424              		.loc 1 388 1 view .LVU1075
 4425 0138 83C10010 		lwz 30,16(1)
 4426              	.LVL321:
 4427              		.loc 1 388 1 view .LVU1076
 4428 013c 83E10014 		lwz 31,20(1)
 4429              	.LVL322:
 4430              		.loc 1 388 1 view .LVU1077
 4431 0140 38210018 		addi 1,1,24
 4432              		.cfi_restore 31
 4433              		.cfi_restore 30
 4434              		.cfi_restore 29
 4435              		.cfi_restore 28
 4436              		.cfi_def_cfa_offset 0
 4437              		.loc 1 387 6 view .LVU1078
 4438 0144 48000000 		b free
 4439              	.LVL323:
 4440              	.L269:
 4441              		.cfi_restore_state
 4442              		.loc 1 379 3 is_stmt 1 view .LVU1079
 4443              		.loc 1 380 4 view .LVU1080
 4444              		.loc 1 380 67 is_stmt 0 view .LVU1081
 4445 0148 48000001 		bl _ZN11Metaphrasis21convertBufferToRGB5A3EPjtt
 4446              	.LVL324:
 4447              		.loc 1 381 4 is_stmt 1 view .LVU1082
 4448              		.loc 1 388 1 is_stmt 0 view .LVU1083
 4449 014c 8001001C 		lwz 0,28(1)
 4450              		.loc 1 365 31 discriminator 1 view .LVU1084
 4451 0150 907C0010 		stw 3,16(28)
 4452              		.loc 1 387 2 is_stmt 1 view .LVU1085
 4453              		.loc 1 387 6 is_stmt 0 view .LVU1086
 4454 0154 7FA3EB78 		mr 3,29
 4455              		.loc 1 388 1 view .LVU1087
 4456 0158 83810008 		lwz 28,8(1)
 4457              	.LVL325:
 4458              		.loc 1 388 1 view .LVU1088
 4459 015c 7C0803A6 		mtlr 0
 4460              		.cfi_remember_state
 4461              		.cfi_restore 65
 4462 0160 83A1000C 		lwz 29,12(1)
 4463              	.LVL326:
 4464              		.loc 1 388 1 view .LVU1089
 4465 0164 83C10010 		lwz 30,16(1)
 4466              	.LVL327:
 4467              		.loc 1 388 1 view .LVU1090
 4468 0168 83E10014 		lwz 31,20(1)
 4469              	.LVL328:
 4470              		.loc 1 388 1 view .LVU1091
 4471 016c 38210018 		addi 1,1,24
 4472              		.cfi_restore 31
 4473              		.cfi_restore 30
 4474              		.cfi_restore 29
 4475              		.cfi_restore 28
 4476              		.cfi_def_cfa_offset 0
 4477              		.loc 1 387 6 view .LVU1092
 4478 0170 48000000 		b free
 4479              	.LVL329:
 4480              	.L275:
 4481              		.cfi_restore_state
 4482              		.loc 1 364 3 is_stmt 1 view .LVU1093
 4483              		.loc 1 365 4 view .LVU1094
 4484              		.loc 1 365 63 is_stmt 0 view .LVU1095
 4485 0174 48000001 		bl _ZN11Metaphrasis17convertBufferToI4EPjtt
 4486              	.LVL330:
 4487              		.loc 1 366 4 is_stmt 1 view .LVU1096
 4488              		.loc 1 388 1 is_stmt 0 view .LVU1097
 4489 0178 8001001C 		lwz 0,28(1)
 4490              		.loc 1 365 31 discriminator 1 view .LVU1098
 4491 017c 907C0010 		stw 3,16(28)
 4492              		.loc 1 387 2 is_stmt 1 view .LVU1099
 4493              		.loc 1 387 6 is_stmt 0 view .LVU1100
 4494 0180 7FA3EB78 		mr 3,29
 4495              		.loc 1 388 1 view .LVU1101
 4496 0184 83810008 		lwz 28,8(1)
 4497              	.LVL331:
 4498              		.loc 1 388 1 view .LVU1102
 4499 0188 7C0803A6 		mtlr 0
 4500              		.cfi_remember_state
 4501              		.cfi_restore 65
 4502 018c 83A1000C 		lwz 29,12(1)
 4503              	.LVL332:
 4504              		.loc 1 388 1 view .LVU1103
 4505 0190 83C10010 		lwz 30,16(1)
 4506              	.LVL333:
 4507              		.loc 1 388 1 view .LVU1104
 4508 0194 83E10014 		lwz 31,20(1)
 4509              	.LVL334:
 4510              		.loc 1 388 1 view .LVU1105
 4511 0198 38210018 		addi 1,1,24
 4512              		.cfi_restore 31
 4513              		.cfi_restore 30
 4514              		.cfi_restore 29
 4515              		.cfi_restore 28
 4516              		.cfi_def_cfa_offset 0
 4517              		.loc 1 387 6 view .LVU1106
 4518 019c 48000000 		b free
 4519              	.LVL335:
 4520              	.L274:
 4521              		.cfi_restore_state
 4522              		.loc 1 367 3 is_stmt 1 view .LVU1107
 4523              		.loc 1 368 4 view .LVU1108
 4524              		.loc 1 368 63 is_stmt 0 view .LVU1109
 4525 01a0 48000001 		bl _ZN11Metaphrasis17convertBufferToI8EPjtt
 4526              	.LVL336:
 4527              		.loc 1 369 4 is_stmt 1 view .LVU1110
 4528              		.loc 1 388 1 is_stmt 0 view .LVU1111
 4529 01a4 8001001C 		lwz 0,28(1)
 4530              		.loc 1 365 31 discriminator 1 view .LVU1112
 4531 01a8 907C0010 		stw 3,16(28)
 4532              		.loc 1 387 2 is_stmt 1 view .LVU1113
 4533              		.loc 1 387 6 is_stmt 0 view .LVU1114
 4534 01ac 7FA3EB78 		mr 3,29
 4535              		.loc 1 388 1 view .LVU1115
 4536 01b0 83810008 		lwz 28,8(1)
 4537              	.LVL337:
 4538              		.loc 1 388 1 view .LVU1116
 4539 01b4 7C0803A6 		mtlr 0
 4540              		.cfi_remember_state
 4541              		.cfi_restore 65
 4542 01b8 83A1000C 		lwz 29,12(1)
 4543              	.LVL338:
 4544              		.loc 1 388 1 view .LVU1117
 4545 01bc 83C10010 		lwz 30,16(1)
 4546              	.LVL339:
 4547              		.loc 1 388 1 view .LVU1118
 4548 01c0 83E10014 		lwz 31,20(1)
 4549              	.LVL340:
 4550              		.loc 1 388 1 view .LVU1119
 4551 01c4 38210018 		addi 1,1,24
 4552              		.cfi_restore 31
 4553              		.cfi_restore 30
 4554              		.cfi_restore 29
 4555              		.cfi_restore 28
 4556              		.cfi_def_cfa_offset 0
 4557              		.loc 1 387 6 view .LVU1120
 4558 01c8 48000000 		b free
 4559              	.LVL341:
 4560              	.L273:
 4561              		.cfi_restore_state
 4562              		.loc 1 370 3 is_stmt 1 view .LVU1121
 4563              		.loc 1 371 4 view .LVU1122
 4564              		.loc 1 371 64 is_stmt 0 view .LVU1123
 4565 01cc 48000001 		bl _ZN11Metaphrasis18convertBufferToIA4EPjtt
 4566              	.LVL342:
 4567              		.loc 1 372 4 is_stmt 1 view .LVU1124
 4568              		.loc 1 388 1 is_stmt 0 view .LVU1125
 4569 01d0 8001001C 		lwz 0,28(1)
 4570              		.loc 1 365 31 discriminator 1 view .LVU1126
 4571 01d4 907C0010 		stw 3,16(28)
 4572              		.loc 1 387 2 is_stmt 1 view .LVU1127
 4573              		.loc 1 387 6 is_stmt 0 view .LVU1128
 4574 01d8 7FA3EB78 		mr 3,29
 4575              		.loc 1 388 1 view .LVU1129
 4576 01dc 83810008 		lwz 28,8(1)
 4577              	.LVL343:
 4578              		.loc 1 388 1 view .LVU1130
 4579 01e0 7C0803A6 		mtlr 0
 4580              		.cfi_remember_state
 4581              		.cfi_restore 65
 4582 01e4 83A1000C 		lwz 29,12(1)
 4583              	.LVL344:
 4584              		.loc 1 388 1 view .LVU1131
 4585 01e8 83C10010 		lwz 30,16(1)
 4586              	.LVL345:
 4587              		.loc 1 388 1 view .LVU1132
 4588 01ec 83E10014 		lwz 31,20(1)
 4589              	.LVL346:
 4590              		.loc 1 388 1 view .LVU1133
 4591 01f0 38210018 		addi 1,1,24
 4592              		.cfi_restore 31
 4593              		.cfi_restore 30
 4594              		.cfi_restore 29
 4595              		.cfi_restore 28
 4596              		.cfi_def_cfa_offset 0
 4597              		.loc 1 387 6 view .LVU1134
 4598 01f4 48000000 		b free
 4599              	.LVL347:
 4600              	.L272:
 4601              		.cfi_restore_state
 4602              		.loc 1 373 3 is_stmt 1 view .LVU1135
 4603              		.loc 1 374 4 view .LVU1136
 4604              		.loc 1 374 64 is_stmt 0 view .LVU1137
 4605 01f8 48000001 		bl _ZN11Metaphrasis18convertBufferToIA8EPjtt
 4606              	.LVL348:
 4607              		.loc 1 375 4 is_stmt 1 view .LVU1138
 4608              		.loc 1 388 1 is_stmt 0 view .LVU1139
 4609 01fc 8001001C 		lwz 0,28(1)
 4610              		.loc 1 365 31 discriminator 1 view .LVU1140
 4611 0200 907C0010 		stw 3,16(28)
 4612              		.loc 1 387 2 is_stmt 1 view .LVU1141
 4613              		.loc 1 387 6 is_stmt 0 view .LVU1142
 4614 0204 7FA3EB78 		mr 3,29
 4615              		.loc 1 388 1 view .LVU1143
 4616 0208 83810008 		lwz 28,8(1)
 4617              	.LVL349:
 4618              		.loc 1 388 1 view .LVU1144
 4619 020c 7C0803A6 		mtlr 0
 4620              		.cfi_remember_state
 4621              		.cfi_restore 65
 4622 0210 83A1000C 		lwz 29,12(1)
 4623              	.LVL350:
 4624              		.loc 1 388 1 view .LVU1145
 4625 0214 83C10010 		lwz 30,16(1)
 4626              	.LVL351:
 4627              		.loc 1 388 1 view .LVU1146
 4628 0218 83E10014 		lwz 31,20(1)
 4629              	.LVL352:
 4630              		.loc 1 388 1 view .LVU1147
 4631 021c 38210018 		addi 1,1,24
 4632              		.cfi_restore 31
 4633              		.cfi_restore 30
 4634              		.cfi_restore 29
 4635              		.cfi_restore 28
 4636              		.cfi_def_cfa_offset 0
 4637              		.loc 1 387 6 view .LVU1148
 4638 0220 48000000 		b free
 4639              	.LVL353:
 4640              	.L268:
 4641              		.cfi_restore_state
 4642              		.loc 1 382 3 is_stmt 1 view .LVU1149
 4643              		.loc 1 383 3 view .LVU1150
 4644              		.loc 1 384 4 view .LVU1151
 4645              		.loc 1 384 66 is_stmt 0 view .LVU1152
 4646 0224 7FA3EB78 		mr 3,29
 4647 0228 54A5043E 		rlwinm 5,5,0,0xffff
 4648 022c 48000001 		bl _ZN11Metaphrasis20convertBufferToRGBA8EPjtt
 4649              	.LVL354:
 4650              		.loc 1 385 4 is_stmt 1 view .LVU1153
 4651              		.loc 1 388 1 is_stmt 0 view .LVU1154
 4652 0230 8001001C 		lwz 0,28(1)
 4653              		.loc 1 365 31 discriminator 1 view .LVU1155
 4654 0234 907C0010 		stw 3,16(28)
 4655              		.loc 1 387 2 is_stmt 1 view .LVU1156
 4656              		.loc 1 387 6 is_stmt 0 view .LVU1157
 4657 0238 7FA3EB78 		mr 3,29
 4658              		.loc 1 388 1 view .LVU1158
 4659 023c 83810008 		lwz 28,8(1)
 4660              	.LVL355:
 4661              		.loc 1 388 1 view .LVU1159
 4662 0240 7C0803A6 		mtlr 0
 4663              		.cfi_remember_state
 4664              		.cfi_restore 65
 4665 0244 83A1000C 		lwz 29,12(1)
 4666              	.LVL356:
 4667              		.loc 1 388 1 view .LVU1160
 4668 0248 83C10010 		lwz 30,16(1)
 4669              	.LVL357:
 4670              		.loc 1 388 1 view .LVU1161
 4671 024c 83E10014 		lwz 31,20(1)
 4672              	.LVL358:
 4673              		.loc 1 388 1 view .LVU1162
 4674 0250 38210018 		addi 1,1,24
 4675              		.cfi_restore 31
 4676              		.cfi_restore 30
 4677              		.cfi_restore 29
 4678              		.cfi_restore 28
 4679              		.cfi_def_cfa_offset 0
 4680              		.loc 1 387 6 view .LVU1163
 4681 0254 48000000 		b free
 4682              	.LVL359:
 4683              	.L262:
 4684              		.cfi_restore_state
 4685              		.loc 1 387 6 view .LVU1164
 4686 0258 A09C0006 		lhz 4,6(28)
 4687 025c 4BFFFE8C 		b .L265
 4688              		.cfi_endproc
 4689              	.LFE1359:
 4690              		.size	_ZN10FreeTypeGX13loadGlyphDataEP10FT_Bitmap_P13ftgxCharData_, .-_ZN10FreeTypeGX13loadGlyphDa
 4691              		.section	.text._ZN10FreeTypeGX14cacheGlyphDataEw,"ax",@progbits
 4692              		.align 2
 4693              		.globl _ZN10FreeTypeGX14cacheGlyphDataEw
 4694              		.type	_ZN10FreeTypeGX14cacheGlyphDataEw, @function
 4695              	_ZN10FreeTypeGX14cacheGlyphDataEw:
 4696              	.LVL360:
 4697              	.LFB1357:
 4698              		.loc 1 286 1 is_stmt 1 view -0
 4699              		.cfi_startproc
 4700              		.loc 1 287 2 view .LVU1166
 4701              		.loc 1 288 2 view .LVU1167
 4702              		.loc 1 290 2 view .LVU1168
 4703              		.loc 1 286 1 is_stmt 0 view .LVU1169
 4704 0000 9421FFC0 		stwu 1,-64(1)
 4705              		.cfi_def_cfa_offset 64
 4706 0004 7C0802A6 		mflr 0
 4707 0008 93A10034 		stw 29,52(1)
 4708              		.cfi_register 65, 0
 4709              		.cfi_offset 29, -12
 4710              		.loc 1 290 28 view .LVU1170
 4711 000c 3FA00000 		lis 29,_ZL6ftFace@ha
 4712              		.loc 1 286 1 view .LVU1171
 4713 0010 93E1003C 		stw 31,60(1)
 4714              		.cfi_offset 31, -4
 4715 0014 7C7F1B78 		mr 31,3
 4716              		.loc 1 290 28 view .LVU1172
 4717 0018 807D0000 		lwz 3,_ZL6ftFace@l(29)
 4718              	.LVL361:
 4719              		.loc 1 286 1 view .LVU1173
 4720 001c 90010044 		stw 0,68(1)
 4721 0020 93C10038 		stw 30,56(1)
 4722 0024 90810018 		stw 4,24(1)
 4723              		.cfi_offset 65, 4
 4724              		.cfi_offset 30, -8
 4725              		.loc 1 290 28 view .LVU1174
 4726 0028 48000001 		bl FT_Get_Char_Index
 4727              	.LVL362:
 4728              		.loc 1 290 28 view .LVU1175
 4729 002c 7C7E1B78 		mr 30,3
 4730              	.LVL363:
 4731              		.loc 1 291 2 is_stmt 1 view .LVU1176
 4732              	.LBB2388:
 4733              		.loc 1 291 20 is_stmt 0 view .LVU1177
 4734 0030 807D0000 		lwz 3,_ZL6ftFace@l(29)
 4735              	.LVL364:
 4736              		.loc 1 291 20 view .LVU1178
 4737 0034 7FC4F378 		mr 4,30
 4738 0038 38A00000 		li 5,0
 4739 003c 48000001 		bl FT_Load_Glyph
 4740              	.LVL365:
 4741              		.loc 1 291 2 discriminator 1 view .LVU1179
 4742 0040 2C030000 		cmpwi 0,3,0
 4743 0044 4082029C 		bne- 0,.L283
 4744              	.LBB2389:
 4745              		.loc 1 292 3 is_stmt 1 view .LVU1180
 4746 0048 9361002C 		stw 27,44(1)
 4747              		.cfi_offset 27, -20
 4748              		.loc 1 292 18 is_stmt 0 view .LVU1181
 4749 004c 3F600000 		lis 27,_ZL6ftSlot@ha
 4750 0050 807B0000 		lwz 3,_ZL6ftSlot@l(27)
 4751 0054 38800000 		li 4,0
 4752 0058 48000001 		bl FT_Render_Glyph
 4753              	.LVL366:
 4754              		.loc 1 294 3 is_stmt 1 view .LVU1182
 4755              	.LBB2390:
 4756              		.loc 1 294 14 is_stmt 0 view .LVU1183
 4757 005c 83BB0000 		lwz 29,_ZL6ftSlot@l(27)
 4758              		.loc 1 294 3 view .LVU1184
 4759 0060 3D206269 		lis 9,0x6269
 4760 0064 815D0048 		lwz 10,72(29)
 4761 0068 61297473 		ori 9,9,0x7473
 4762 006c 7C0A4800 		cmpw 0,10,9
 4763 0070 4082026C 		bne- 0,.L324
 4764              	.LBB2391:
 4765              		.loc 1 295 4 is_stmt 1 view .LVU1185
 4766 0074 93010020 		stw 24,32(1)
 4767              		.cfi_offset 24, -32
 4768 0078 93210024 		stw 25,36(1)
 4769              		.cfi_offset 25, -28
 4770 007c 93810030 		stw 28,48(1)
 4771              		.cfi_offset 28, -16
 4772              		.loc 1 295 15 is_stmt 0 view .LVU1186
 4773 0080 3B9D004C 		addi 28,29,76
 4774              	.LVL367:
 4775              		.loc 1 297 4 is_stmt 1 view .LVU1187
 4776 0084 93410028 		stw 26,40(1)
 4777              		.cfi_offset 26, -24
 4778              		.loc 1 297 37 is_stmt 0 view .LVU1188
 4779 0088 813D0050 		lwz 9,80(29)
 4780              	.LBB2392:
 4781              	.LBB2393:
 4782              		.loc 1 225 2 view .LVU1189
 4783 008c 895F0005 		lbz 10,5(31)
 4784              	.LBE2393:
 4785              	.LBE2392:
 4786              		.loc 1 298 39 view .LVU1190
 4787 0090 80BD004C 		lwz 5,76(29)
 4788              		.loc 1 297 37 view .LVU1191
 4789 0094 7D384B78 		mr 24,9
 4790              	.LVL368:
 4791              	.LBB2398:
 4792              	.LBI2392:
 4793              		.loc 1 221 10 is_stmt 1 view .LVU1192
 4794              	.LBB2394:
 4795              		.loc 1 223 2 view .LVU1193
 4796              		.loc 1 225 2 view .LVU1194
 4797 0098 280A0002 		cmplwi 0,10,2
 4798              	.LBE2394:
 4799              	.LBE2398:
 4800              		.loc 1 298 39 is_stmt 0 view .LVU1195
 4801 009c 7CB92B78 		mr 25,5
 4802              	.LBB2399:
 4803              	.LBB2395:
 4804              		.loc 1 225 2 view .LVU1196
 4805 00a0 41810260 		bgt- 0,.L325
 4806              	.LVL369:
 4807              		.loc 1 241 2 is_stmt 1 view .LVU1197
 4808              		.loc 1 241 108 is_stmt 0 view .LVU1198
 4809 00a4 71280007 		andi. 8,9,0x7
 4810              		.loc 1 241 22 view .LVU1199
 4811 00a8 5528077E 		rlwinm 8,9,0,29,31
 4812              		.loc 1 241 108 view .LVU1200
 4813 00ac 4182000C 		beq- 0,.L287
 4814              		.loc 1 241 66 discriminator 1 view .LVU1201
 4815 00b0 39290008 		addi 9,9,8
 4816              	.LVL370:
 4817              		.loc 1 241 108 discriminator 1 view .LVU1202
 4818 00b4 7F084850 		subf 24,8,9
 4819              	.LVL371:
 4820              	.L287:
 4821              		.loc 1 241 108 discriminator 1 view .LVU1203
 4822              	.LBE2395:
 4823              	.LBE2399:
 4824              		.loc 1 298 4 is_stmt 1 view .LVU1204
 4825              	.LBB2400:
 4826              	.LBI2400:
 4827              		.loc 1 253 10 view .LVU1205
 4828              	.LBB2401:
 4829              		.loc 1 255 2 view .LVU1206
 4830              		.loc 1 257 2 view .LVU1207
 4831 00b8 2C0A0000 		cmpwi 0,10,0
 4832              		.loc 1 260 14 is_stmt 0 view .LVU1208
 4833 00bc 39000008 		li 8,8
 4834              		.loc 1 257 2 view .LVU1209
 4835 00c0 40820258 		bne- 0,.L286
 4836              	.LVL372:
 4837              	.L285:
 4838              		.loc 1 273 2 is_stmt 1 view .LVU1210
 4839              		.loc 1 273 23 is_stmt 0 view .LVU1211
 4840 00c4 54AA043E 		rlwinm 10,5,0,0xffff
 4841 00c8 5507043E 		rlwinm 7,8,0,0xffff
 4842 00cc 7D2A3B96 		divwu 9,10,7
 4843 00d0 7D2939D6 		mullw 9,9,7
 4844 00d4 7D295050 		subf 9,9,10
 4845              		.loc 1 273 112 view .LVU1212
 4846 00d8 552A043E 		rlwinm 10,9,0,0xffff
 4847 00dc 2C0A0000 		cmpwi 0,10,0
 4848 00e0 4182000C 		beq- 0,.L288
 4849              		.loc 1 273 68 discriminator 1 view .LVU1213
 4850 00e4 7D054214 		add 8,5,8
 4851              	.LVL373:
 4852              		.loc 1 273 112 discriminator 1 view .LVU1214
 4853 00e8 7F294050 		subf 25,9,8
 4854              	.L288:
 4855              	.LVL374:
 4856              		.loc 1 273 112 discriminator 1 view .LVU1215
 4857              	.LBE2401:
 4858              	.LBE2400:
 4859              		.loc 1 300 4 is_stmt 1 view .LVU1216
 4860              	.LBB2404:
 4861              	.LBI2404:
 4862              		.loc 7 502 7 view .LVU1217
 4863              	.LBB2405:
 4864              	.LBB2406:
 4865              	.LBI2406:
 4866              		.loc 7 1306 7 view .LVU1218
 4867              	.LBB2407:
 4868              	.LBI2407:
 4869              		.loc 2 1270 7 view .LVU1219
 4870              	.LBB2408:
 4871              	.LBI2408:
 4872              		.loc 2 740 7 view .LVU1220
 4873              	.LBB2409:
 4874              	.LBI2409:
 4875              		.loc 2 736 7 view .LVU1221
 4876              	.LBB2410:
 4877              		.loc 2 737 73 is_stmt 0 view .LVU1222
 4878 00ec 813F0014 		lwz 9,20(31)
 4879              	.LVL375:
 4880              		.loc 2 737 73 view .LVU1223
 4881              	.LBE2410:
 4882              	.LBE2409:
 4883              	.LBE2408:
 4884              	.LBB2411:
 4885              	.LBI2411:
 4886              		.loc 2 751 7 is_stmt 1 view .LVU1224
 4887              	.LBB2412:
 4888              		.loc 2 752 31 is_stmt 0 view .LVU1225
 4889 00f0 3B5F0010 		addi 26,31,16
 4890              	.LVL376:
 4891              		.loc 2 752 31 view .LVU1226
 4892              	.LBE2412:
 4893              	.LBE2411:
 4894              	.LBB2413:
 4895              	.LBI2413:
 4896              		.loc 2 1947 5 is_stmt 1 view .LVU1227
 4897              	.LBB2414:
 4898              		.loc 2 1951 18 view .LVU1228
 4899 00f4 2F890000 		cmpwi 7,9,0
 4900 00f8 419E0228 		beq- 7,.L306
 4901              	.LBB2415:
 4902              	.LBB2416:
 4903              		.loc 6 408 20 is_stmt 0 view .LVU1229
 4904 00fc 80C10018 		lwz 6,24(1)
 4905 0100 7F48D378 		mr 8,26
 4906 0104 7D2A4B78 		mr 10,9
 4907 0108 48000014 		b .L292
 4908              	.LVL377:
 4909              	.L327:
 4910              		.loc 6 408 20 view .LVU1230
 4911              	.LBE2416:
 4912              	.LBE2415:
 4913              		.loc 2 1953 8 view .LVU1231
 4914 010c 7D485378 		mr 8,10
 4915              		.loc 2 1953 28 view .LVU1232
 4916 0110 814A0008 		lwz 10,8(10)
 4917              	.LVL378:
 4918              		.loc 2 1951 18 is_stmt 1 view .LVU1233
 4919 0114 2C0A0000 		cmpwi 0,10,0
 4920 0118 4182001C 		beq- 0,.L326
 4921              	.LVL379:
 4922              	.L292:
 4923              	.LBB2417:
 4924              	.LBI2415:
 4925              		.loc 6 407 7 view .LVU1234
 4926              		.loc 6 407 7 is_stmt 0 view .LVU1235
 4927              	.LBE2417:
 4928              	.LBB2418:
 4929              	.LBI2418:
 4930              		.loc 2 781 7 is_stmt 1 view .LVU1236
 4931              		.loc 2 781 7 is_stmt 0 view .LVU1237
 4932              	.LBE2418:
 4933              	.LBB2419:
 4934              	.LBI2419:
 4935              		.loc 2 789 7 is_stmt 1 view .LVU1238
 4936              	.LBE2419:
 4937              		.loc 2 1952 2 is_stmt 0 discriminator 2 view .LVU1239
 4938 011c 80EA0010 		lwz 7,16(10)
 4939 0120 7C073000 		cmpw 0,7,6
 4940 0124 40A0FFE8 		bge- 0,.L327
 4941              	.LBB2421:
 4942              	.LBB2420:
 4943              		.loc 2 790 53 view .LVU1240
 4944 0128 814A000C 		lwz 10,12(10)
 4945              	.LVL380:
 4946              		.loc 2 790 53 view .LVU1241
 4947              	.LBE2420:
 4948              	.LBE2421:
 4949              		.loc 2 1951 18 is_stmt 1 view .LVU1242
 4950 012c 2C0A0000 		cmpwi 0,10,0
 4951 0130 4082FFEC 		bne+ 0,.L292
 4952              	.L326:
 4953              	.LVL381:
 4954              	.LBB2422:
 4955              	.LBI2422:
 4956              		.loc 2 273 7 view .LVU1243
 4957              		.loc 2 273 7 is_stmt 0 view .LVU1244
 4958              	.LBE2422:
 4959              	.LBE2414:
 4960              	.LBE2413:
 4961              	.LBE2407:
 4962              	.LBE2406:
 4963              	.LBB2426:
 4964              	.LBI2426:
 4965              		.loc 7 384 7 is_stmt 1 view .LVU1245
 4966              	.LBB2427:
 4967              	.LBI2427:
 4968              		.loc 2 1005 7 view .LVU1246
 4969              	.LBB2428:
 4970              	.LBI2428:
 4971              		.loc 2 273 7 view .LVU1247
 4972              		.loc 2 273 7 is_stmt 0 view .LVU1248
 4973              	.LBE2428:
 4974              	.LBE2427:
 4975              	.LBE2426:
 4976              	.LBB2429:
 4977              	.LBI2429:
 4978              		.loc 2 315 7 is_stmt 1 view .LVU1249
 4979              		.loc 2 315 7 is_stmt 0 view .LVU1250
 4980              	.LBE2429:
 4981              		.loc 7 509 19 discriminator 2 view .LVU1251
 4982 0134 7C1A4040 		cmplw 0,26,8
 4983 0138 41820014 		beq- 0,.L289
 4984              	.LVL382:
 4985              	.LBB2430:
 4986              	.LBI2430:
 4987              		.loc 6 407 7 is_stmt 1 view .LVU1252
 4988              		.loc 6 407 7 is_stmt 0 view .LVU1253
 4989              	.LBE2430:
 4990              		.loc 7 509 19 discriminator 2 view .LVU1254
 4991 013c 80E80010 		lwz 7,16(8)
 4992 0140 7FAAEB78 		mr 10,29
 4993 0144 7C063800 		cmpw 0,6,7
 4994 0148 40800034 		bge- 0,.L293
 4995              	.LVL383:
 4996              	.L289:
 4997              	.LBB2431:
 4998              	.LBI2431:
 4999              		.loc 2 350 7 is_stmt 1 view .LVU1255
 5000              		.loc 2 350 7 is_stmt 0 view .LVU1256
 5001              	.LBE2431:
 5002              	.LBB2432:
 5003              	.LBI2432:
 5004              		.loc 5 874 2 is_stmt 1 view .LVU1257
 5005              	.LBB2433:
 5006              	.LBI2433:
 5007              		.loc 5 507 7 view .LVU1258
 5008              	.LBB2434:
 5009              	.LBI2434:
 5010              		.loc 5 193 17 view .LVU1259
 5011              	.LBB2435:
 5012              	.LBB2436:
 5013              		.loc 5 194 9 is_stmt 0 view .LVU1260
 5014 014c 39210018 		addi 9,1,24
 5015              	.LVL384:
 5016              		.loc 5 194 9 view .LVU1261
 5017              	.LBE2436:
 5018              	.LBE2435:
 5019              	.LBE2434:
 5020              	.LBE2433:
 5021              	.LBE2432:
 5022              		.loc 7 511 37 view .LVU1262
 5023 0150 38A10008 		addi 5,1,8
 5024              	.LVL385:
 5025              		.loc 7 511 37 view .LVU1263
 5026 0154 3881001C 		addi 4,1,28
 5027 0158 387F000C 		addi 3,31,12
 5028 015c 9101001C 		stw 8,28(1)
 5029              	.LBB2441:
 5030              	.LBB2440:
 5031              	.LBB2439:
 5032              	.LBB2438:
 5033              	.LBB2437:
 5034              		.loc 5 194 9 view .LVU1264
 5035 0160 91210008 		stw 9,8(1)
 5036              	.LVL386:
 5037              		.loc 5 194 9 view .LVU1265
 5038              	.LBE2437:
 5039              	.LBE2438:
 5040              	.LBE2439:
 5041              	.LBE2440:
 5042              	.LBE2441:
 5043              		.loc 7 511 37 view .LVU1266
 5044 0164 48000001 		bl _ZNSt8_Rb_treeIwSt4pairIKw13ftgxCharData_ESt10_Select1stIS3_ESt4lessIwESaIS3_EE22_M_emplace_hin
 5045              	.LVL387:
 5046              		.loc 7 511 37 view .LVU1267
 5047              	.LBE2405:
 5048              	.LBE2404:
 5049              	.LBB2445:
 5050              	.LBB2446:
 5051              	.LBB2447:
 5052              	.LBB2448:
 5053              	.LBB2449:
 5054              	.LBB2450:
 5055              	.LBB2451:
 5056              		.loc 2 737 73 view .LVU1268
 5057 0168 813F0014 		lwz 9,20(31)
 5058              	.LBE2451:
 5059              	.LBE2450:
 5060              	.LBE2449:
 5061              	.LBE2448:
 5062              	.LBE2447:
 5063              	.LBE2446:
 5064              	.LBE2445:
 5065              	.LBB2488:
 5066              	.LBB2443:
 5067              		.loc 7 511 37 view .LVU1269
 5068 016c 7C681B78 		mr 8,3
 5069              	.LVL388:
 5070              		.loc 7 511 37 view .LVU1270
 5071              	.LBE2443:
 5072              	.LBE2488:
 5073              		.loc 1 301 18 view .LVU1271
 5074 0170 815B0000 		lwz 10,_ZL6ftSlot@l(27)
 5075 0174 80BD004C 		lwz 5,76(29)
 5076 0178 2F890000 		cmpwi 7,9,0
 5077              	.LVL389:
 5078              	.L293:
 5079              		.loc 1 302 29 view .LVU1272
 5080 017c 80CA0040 		lwz 6,64(10)
 5081              		.loc 1 300 29 view .LVU1273
 5082 0180 38800000 		li 4,0
 5083              		.loc 1 306 18 view .LVU1274
 5084 0184 80EA0068 		lwz 7,104(10)
 5085              		.loc 1 300 29 view .LVU1275
 5086 0188 806A0064 		lwz 3,100(10)
 5087              		.loc 1 302 29 view .LVU1276
 5088 018c 7CC63670 		srawi 6,6,6
 5089              		.loc 1 308 29 view .LVU1277
 5090 0190 7CA72850 		subf 5,7,5
 5091              		.loc 1 300 29 view .LVU1278
 5092 0194 B0C80016 		sth 6,22(8)
 5093 0198 B0A80022 		sth 5,34(8)
 5094 019c B0680014 		sth 3,20(8)
 5095 01a0 B0E8001E 		sth 7,30(8)
 5096 01a4 B0E80020 		sth 7,32(8)
 5097 01a8 B3C80018 		sth 30,24(8)
 5098 01ac B308001A 		sth 24,26(8)
 5099 01b0 B328001C 		sth 25,28(8)
 5100 01b4 90880024 		stw 4,36(8)
 5101              		.loc 1 311 4 is_stmt 1 view .LVU1279
 5102              	.LVL390:
 5103              	.LBB2489:
 5104              	.LBI2445:
 5105              		.loc 7 502 7 view .LVU1280
 5106              	.LBB2486:
 5107              	.LBB2468:
 5108              	.LBI2447:
 5109              		.loc 7 1306 7 view .LVU1281
 5110              	.LBB2466:
 5111              	.LBI2448:
 5112              		.loc 2 1270 7 view .LVU1282
 5113              	.LBB2453:
 5114              	.LBI2449:
 5115              		.loc 2 740 7 view .LVU1283
 5116              	.LBB2452:
 5117              	.LBI2450:
 5118              		.loc 2 736 7 view .LVU1284
 5119              		.loc 2 736 7 is_stmt 0 view .LVU1285
 5120              	.LBE2452:
 5121              	.LBE2453:
 5122              	.LBB2454:
 5123              	.LBI2454:
 5124              		.loc 2 1947 5 is_stmt 1 view .LVU1286
 5125              	.LBB2455:
 5126              		.loc 2 1951 18 view .LVU1287
 5127 01b8 419E0178 		beq- 7,.L308
 5128              	.LBB2456:
 5129              	.LBB2457:
 5130              		.loc 6 408 20 is_stmt 0 view .LVU1288
 5131 01bc 80E10018 		lwz 7,24(1)
 5132 01c0 7F48D378 		mr 8,26
 5133 01c4 48000014 		b .L297
 5134              	.LVL391:
 5135              	.L329:
 5136              		.loc 6 408 20 view .LVU1289
 5137              	.LBE2457:
 5138              	.LBE2456:
 5139              		.loc 2 1953 8 view .LVU1290
 5140 01c8 7D284B78 		mr 8,9
 5141              		.loc 2 1953 28 view .LVU1291
 5142 01cc 81290008 		lwz 9,8(9)
 5143              	.LVL392:
 5144              		.loc 2 1951 18 is_stmt 1 view .LVU1292
 5145 01d0 2C090000 		cmpwi 0,9,0
 5146 01d4 4182001C 		beq- 0,.L328
 5147              	.LVL393:
 5148              	.L297:
 5149              	.LBB2458:
 5150              	.LBI2456:
 5151              		.loc 6 407 7 view .LVU1293
 5152              		.loc 6 407 7 is_stmt 0 view .LVU1294
 5153              	.LBE2458:
 5154              	.LBB2459:
 5155              	.LBI2459:
 5156              		.loc 2 781 7 is_stmt 1 view .LVU1295
 5157              		.loc 2 781 7 is_stmt 0 view .LVU1296
 5158              	.LBE2459:
 5159              	.LBB2460:
 5160              	.LBI2460:
 5161              		.loc 2 789 7 is_stmt 1 view .LVU1297
 5162              	.LBE2460:
 5163              		.loc 2 1952 2 is_stmt 0 discriminator 2 view .LVU1298
 5164 01d8 81490010 		lwz 10,16(9)
 5165 01dc 7C0A3800 		cmpw 0,10,7
 5166 01e0 40A0FFE8 		bge- 0,.L329
 5167              	.LBB2462:
 5168              	.LBB2461:
 5169              		.loc 2 790 53 view .LVU1299
 5170 01e4 8129000C 		lwz 9,12(9)
 5171              	.LVL394:
 5172              		.loc 2 790 53 view .LVU1300
 5173              	.LBE2461:
 5174              	.LBE2462:
 5175              		.loc 2 1951 18 is_stmt 1 view .LVU1301
 5176 01e8 2C090000 		cmpwi 0,9,0
 5177 01ec 4082FFEC 		bne+ 0,.L297
 5178              	.L328:
 5179              	.LVL395:
 5180              	.LBB2463:
 5181              	.LBI2463:
 5182              		.loc 2 273 7 view .LVU1302
 5183              		.loc 2 273 7 is_stmt 0 view .LVU1303
 5184              	.LBE2463:
 5185              	.LBE2455:
 5186              	.LBE2454:
 5187              	.LBE2466:
 5188              	.LBE2468:
 5189              	.LBB2469:
 5190              	.LBI2469:
 5191              		.loc 7 384 7 is_stmt 1 view .LVU1304
 5192              	.LBB2470:
 5193              	.LBI2470:
 5194              		.loc 2 1005 7 view .LVU1305
 5195              	.LBB2471:
 5196              	.LBI2471:
 5197              		.loc 2 273 7 view .LVU1306
 5198              		.loc 2 273 7 is_stmt 0 view .LVU1307
 5199              	.LBE2471:
 5200              	.LBE2470:
 5201              	.LBE2469:
 5202              	.LBB2472:
 5203              	.LBI2472:
 5204              		.loc 2 315 7 is_stmt 1 view .LVU1308
 5205              		.loc 2 315 7 is_stmt 0 view .LVU1309
 5206              	.LBE2472:
 5207              		.loc 7 509 19 discriminator 2 view .LVU1310
 5208 01f0 7C08D040 		cmplw 0,8,26
 5209 01f4 41820010 		beq- 0,.L294
 5210              	.LVL396:
 5211              	.LBB2473:
 5212              	.LBI2473:
 5213              		.loc 6 407 7 is_stmt 1 view .LVU1311
 5214              		.loc 6 407 7 is_stmt 0 view .LVU1312
 5215              	.LBE2473:
 5216              		.loc 7 509 19 discriminator 2 view .LVU1313
 5217 01f8 81280010 		lwz 9,16(8)
 5218 01fc 7C074800 		cmpw 0,7,9
 5219 0200 40800024 		bge- 0,.L298
 5220              	.LVL397:
 5221              	.L294:
 5222              	.LBB2474:
 5223              	.LBI2474:
 5224              		.loc 2 350 7 is_stmt 1 view .LVU1314
 5225              		.loc 2 350 7 is_stmt 0 view .LVU1315
 5226              	.LBE2474:
 5227              	.LBB2475:
 5228              	.LBI2475:
 5229              		.loc 5 874 2 is_stmt 1 view .LVU1316
 5230              	.LBB2476:
 5231              	.LBI2476:
 5232              		.loc 5 507 7 view .LVU1317
 5233              	.LBB2477:
 5234              	.LBI2477:
 5235              		.loc 5 193 17 view .LVU1318
 5236              	.LBB2478:
 5237              	.LBB2479:
 5238              		.loc 5 194 9 is_stmt 0 view .LVU1319
 5239 0204 39210018 		addi 9,1,24
 5240              	.LVL398:
 5241              		.loc 5 194 9 view .LVU1320
 5242              	.LBE2479:
 5243              	.LBE2478:
 5244              	.LBE2477:
 5245              	.LBE2476:
 5246              	.LBE2475:
 5247              		.loc 7 511 37 view .LVU1321
 5248 0208 38A10008 		addi 5,1,8
 5249              	.LVL399:
 5250              		.loc 7 511 37 view .LVU1322
 5251 020c 3881001C 		addi 4,1,28
 5252 0210 387F000C 		addi 3,31,12
 5253 0214 9101001C 		stw 8,28(1)
 5254              	.LBB2484:
 5255              	.LBB2483:
 5256              	.LBB2482:
 5257              	.LBB2481:
 5258              	.LBB2480:
 5259              		.loc 5 194 9 view .LVU1323
 5260 0218 91210008 		stw 9,8(1)
 5261              	.LVL400:
 5262              		.loc 5 194 9 view .LVU1324
 5263              	.LBE2480:
 5264              	.LBE2481:
 5265              	.LBE2482:
 5266              	.LBE2483:
 5267              	.LBE2484:
 5268              		.loc 7 511 37 view .LVU1325
 5269 021c 48000001 		bl _ZNSt8_Rb_treeIwSt4pairIKw13ftgxCharData_ESt10_Select1stIS3_ESt4lessIwESaIS3_EE22_M_emplace_hin
 5270              	.LVL401:
 5271              		.loc 7 511 37 view .LVU1326
 5272 0220 7C681B78 		mr 8,3
 5273              	.LVL402:
 5274              	.L298:
 5275              		.loc 7 511 37 view .LVU1327
 5276              	.LBE2486:
 5277              	.LBE2489:
 5278              		.loc 1 311 23 discriminator 1 view .LVU1328
 5279 0224 38A80014 		addi 5,8,20
 5280 0228 7F84E378 		mr 4,28
 5281 022c 7FE3FB78 		mr 3,31
 5282 0230 48000001 		bl _ZN10FreeTypeGX13loadGlyphDataEP10FT_Bitmap_P13ftgxCharData_
 5283              	.LVL403:
 5284              		.loc 1 313 4 is_stmt 1 view .LVU1329
 5285              	.LBB2490:
 5286              	.LBI2490:
 5287              		.loc 7 502 7 view .LVU1330
 5288              	.LBB2491:
 5289              	.LBB2492:
 5290              	.LBI2492:
 5291              		.loc 7 1306 7 view .LVU1331
 5292              	.LBB2493:
 5293              	.LBI2493:
 5294              		.loc 2 1270 7 view .LVU1332
 5295              	.LBB2494:
 5296              	.LBI2494:
 5297              		.loc 2 740 7 view .LVU1333
 5298              	.LBB2495:
 5299              	.LBI2495:
 5300              		.loc 2 736 7 view .LVU1334
 5301              	.LBB2496:
 5302              		.loc 2 737 73 is_stmt 0 view .LVU1335
 5303 0234 813F0014 		lwz 9,20(31)
 5304              	.LVL404:
 5305              		.loc 2 737 73 view .LVU1336
 5306              	.LBE2496:
 5307              	.LBE2495:
 5308              	.LBE2494:
 5309              	.LBB2497:
 5310              	.LBI2497:
 5311              		.loc 2 1947 5 is_stmt 1 view .LVU1337
 5312              	.LBB2498:
 5313              		.loc 2 1951 18 view .LVU1338
 5314 0238 2C090000 		cmpwi 0,9,0
 5315 023c 418200EC 		beq- 0,.L310
 5316              	.LBB2499:
 5317              	.LBB2500:
 5318              		.loc 6 408 20 is_stmt 0 view .LVU1339
 5319 0240 80E10018 		lwz 7,24(1)
 5320 0244 7F4AD378 		mr 10,26
 5321 0248 48000014 		b .L302
 5322              	.LVL405:
 5323              	.L331:
 5324              		.loc 6 408 20 view .LVU1340
 5325              	.LBE2500:
 5326              	.LBE2499:
 5327              		.loc 2 1953 8 view .LVU1341
 5328 024c 7D2A4B78 		mr 10,9
 5329              		.loc 2 1953 28 view .LVU1342
 5330 0250 81290008 		lwz 9,8(9)
 5331              	.LVL406:
 5332              		.loc 2 1951 18 is_stmt 1 view .LVU1343
 5333 0254 2C090000 		cmpwi 0,9,0
 5334 0258 4182001C 		beq- 0,.L330
 5335              	.LVL407:
 5336              	.L302:
 5337              	.LBB2501:
 5338              	.LBI2499:
 5339              		.loc 6 407 7 view .LVU1344
 5340              		.loc 6 407 7 is_stmt 0 view .LVU1345
 5341              	.LBE2501:
 5342              	.LBB2502:
 5343              	.LBI2502:
 5344              		.loc 2 781 7 is_stmt 1 view .LVU1346
 5345              		.loc 2 781 7 is_stmt 0 view .LVU1347
 5346              	.LBE2502:
 5347              	.LBB2503:
 5348              	.LBI2503:
 5349              		.loc 2 789 7 is_stmt 1 view .LVU1348
 5350              	.LBE2503:
 5351              		.loc 2 1952 2 is_stmt 0 discriminator 2 view .LVU1349
 5352 025c 81090010 		lwz 8,16(9)
 5353 0260 7C083800 		cmpw 0,8,7
 5354 0264 40A0FFE8 		bge- 0,.L331
 5355              	.LBB2505:
 5356              	.LBB2504:
 5357              		.loc 2 790 53 view .LVU1350
 5358 0268 8129000C 		lwz 9,12(9)
 5359              	.LVL408:
 5360              		.loc 2 790 53 view .LVU1351
 5361              	.LBE2504:
 5362              	.LBE2505:
 5363              		.loc 2 1951 18 is_stmt 1 view .LVU1352
 5364 026c 2C090000 		cmpwi 0,9,0
 5365 0270 4082FFEC 		bne+ 0,.L302
 5366              	.L330:
 5367              	.LVL409:
 5368              	.LBB2506:
 5369              	.LBI2506:
 5370              		.loc 2 273 7 view .LVU1353
 5371              		.loc 2 273 7 is_stmt 0 view .LVU1354
 5372              	.LBE2506:
 5373              	.LBE2498:
 5374              	.LBE2497:
 5375              	.LBE2493:
 5376              	.LBE2492:
 5377              	.LBB2510:
 5378              	.LBI2510:
 5379              		.loc 7 384 7 is_stmt 1 view .LVU1355
 5380              	.LBB2511:
 5381              	.LBI2511:
 5382              		.loc 2 1005 7 view .LVU1356
 5383              	.LBB2512:
 5384              	.LBI2512:
 5385              		.loc 2 273 7 view .LVU1357
 5386              		.loc 2 273 7 is_stmt 0 view .LVU1358
 5387              	.LBE2512:
 5388              	.LBE2511:
 5389              	.LBE2510:
 5390              	.LBB2513:
 5391              	.LBI2513:
 5392              		.loc 2 315 7 is_stmt 1 view .LVU1359
 5393              		.loc 2 315 7 is_stmt 0 view .LVU1360
 5394              	.LBE2513:
 5395              		.loc 7 509 19 discriminator 2 view .LVU1361
 5396 0274 7C0AD040 		cmplw 0,10,26
 5397 0278 41820010 		beq- 0,.L299
 5398              	.LVL410:
 5399              	.LBB2514:
 5400              	.LBI2514:
 5401              		.loc 6 407 7 is_stmt 1 view .LVU1362
 5402              		.loc 6 407 7 is_stmt 0 view .LVU1363
 5403              	.LBE2514:
 5404              		.loc 7 509 19 discriminator 2 view .LVU1364
 5405 027c 812A0010 		lwz 9,16(10)
 5406 0280 7C074800 		cmpw 0,7,9
 5407 0284 40800024 		bge- 0,.L303
 5408              	.LVL411:
 5409              	.L299:
 5410              	.LBB2515:
 5411              	.LBI2515:
 5412              		.loc 2 350 7 is_stmt 1 view .LVU1365
 5413              		.loc 2 350 7 is_stmt 0 view .LVU1366
 5414              	.LBE2515:
 5415              	.LBB2516:
 5416              	.LBI2516:
 5417              		.loc 5 874 2 is_stmt 1 view .LVU1367
 5418              	.LBB2517:
 5419              	.LBI2517:
 5420              		.loc 5 507 7 view .LVU1368
 5421              	.LBB2518:
 5422              	.LBI2518:
 5423              		.loc 5 193 17 view .LVU1369
 5424              	.LBB2519:
 5425              	.LBB2520:
 5426              		.loc 5 194 9 is_stmt 0 view .LVU1370
 5427 0288 39210018 		addi 9,1,24
 5428              	.LVL412:
 5429              		.loc 5 194 9 view .LVU1371
 5430              	.LBE2520:
 5431              	.LBE2519:
 5432              	.LBE2518:
 5433              	.LBE2517:
 5434              	.LBE2516:
 5435              		.loc 7 511 37 view .LVU1372
 5436 028c 387F000C 		addi 3,31,12
 5437 0290 38A10008 		addi 5,1,8
 5438              	.LVL413:
 5439              		.loc 7 511 37 view .LVU1373
 5440 0294 3881001C 		addi 4,1,28
 5441 0298 9141001C 		stw 10,28(1)
 5442              	.LBB2525:
 5443              	.LBB2524:
 5444              	.LBB2523:
 5445              	.LBB2522:
 5446              	.LBB2521:
 5447              		.loc 5 194 9 view .LVU1374
 5448 029c 91210008 		stw 9,8(1)
 5449              	.LVL414:
 5450              		.loc 5 194 9 view .LVU1375
 5451              	.LBE2521:
 5452              	.LBE2522:
 5453              	.LBE2523:
 5454              	.LBE2524:
 5455              	.LBE2525:
 5456              		.loc 7 511 37 view .LVU1376
 5457 02a0 48000001 		bl _ZNSt8_Rb_treeIwSt4pairIKw13ftgxCharData_ESt10_Select1stIS3_ESt4lessIwESaIS3_EE22_M_emplace_hin
 5458              	.LVL415:
 5459              		.loc 7 511 37 view .LVU1377
 5460 02a4 7C6A1B78 		mr 10,3
 5461              	.LVL416:
 5462              	.L303:
 5463              		.loc 7 511 37 view .LVU1378
 5464              	.LBE2491:
 5465              	.LBE2490:
 5466              	.LBE2391:
 5467              	.LBE2390:
 5468              	.LBE2389:
 5469              	.LBE2388:
 5470              		.loc 1 317 1 view .LVU1379
 5471 02a8 80010044 		lwz 0,68(1)
 5472              	.LBB2548:
 5473              	.LBB2545:
 5474              	.LBB2542:
 5475              	.LBB2539:
 5476              	.LBB2530:
 5477              	.LBB2527:
 5478              		.loc 7 517 16 discriminator 1 view .LVU1380
 5479 02ac 386A0014 		addi 3,10,20
 5480              	.LVL417:
 5481              		.loc 7 517 16 discriminator 1 view .LVU1381
 5482 02b0 83010020 		lwz 24,32(1)
 5483              		.cfi_restore 24
 5484 02b4 83210024 		lwz 25,36(1)
 5485              		.cfi_restore 25
 5486              	.LVL418:
 5487              		.loc 7 517 16 discriminator 1 view .LVU1382
 5488              	.LBE2527:
 5489              	.LBE2530:
 5490              	.LBE2539:
 5491              	.LBE2542:
 5492              	.LBE2545:
 5493              	.LBE2548:
 5494              		.loc 1 317 1 view .LVU1383
 5495 02b8 7C0803A6 		mtlr 0
 5496              		.cfi_restore 65
 5497              	.LBB2549:
 5498              	.LBB2546:
 5499              	.LBB2543:
 5500              	.LBB2540:
 5501              	.LBB2531:
 5502              	.LBB2528:
 5503              		.loc 7 517 16 discriminator 1 view .LVU1384
 5504 02bc 83410028 		lwz 26,40(1)
 5505              		.cfi_restore 26
 5506 02c0 8361002C 		lwz 27,44(1)
 5507              		.cfi_restore 27
 5508 02c4 83810030 		lwz 28,48(1)
 5509              		.cfi_restore 28
 5510              	.LVL419:
 5511              		.loc 7 517 16 discriminator 1 view .LVU1385
 5512              	.LBE2528:
 5513              	.LBE2531:
 5514              	.LBE2540:
 5515              	.LBE2543:
 5516              	.LBE2546:
 5517              	.LBE2549:
 5518              		.loc 1 317 1 view .LVU1386
 5519 02c8 83A10034 		lwz 29,52(1)
 5520              	.LVL420:
 5521              		.loc 1 317 1 view .LVU1387
 5522 02cc 83C10038 		lwz 30,56(1)
 5523              	.LVL421:
 5524              		.loc 1 317 1 view .LVU1388
 5525 02d0 83E1003C 		lwz 31,60(1)
 5526              	.LVL422:
 5527              		.loc 1 317 1 view .LVU1389
 5528 02d4 38210040 		addi 1,1,64
 5529              		.cfi_restore 31
 5530              		.cfi_restore 30
 5531              		.cfi_restore 29
 5532              		.cfi_def_cfa_offset 0
 5533 02d8 4E800020 		blr
 5534              	.LVL423:
 5535              	.L324:
 5536              		.cfi_def_cfa_offset 64
 5537              		.cfi_offset 27, -20
 5538              		.cfi_offset 29, -12
 5539              		.cfi_offset 30, -8
 5540              		.cfi_offset 31, -4
 5541              		.cfi_offset 65, 4
 5542              		.loc 1 317 1 view .LVU1390
 5543 02dc 8361002C 		lwz 27,44(1)
 5544              		.cfi_restore 27
 5545              	.L283:
 5546 02e0 80010044 		lwz 0,68(1)
 5547              		.loc 1 316 9 view .LVU1391
 5548 02e4 38600000 		li 3,0
 5549              		.loc 1 317 1 view .LVU1392
 5550 02e8 83A10034 		lwz 29,52(1)
 5551 02ec 83C10038 		lwz 30,56(1)
 5552              	.LVL424:
 5553              		.loc 1 317 1 view .LVU1393
 5554 02f0 7C0803A6 		mtlr 0
 5555              		.cfi_restore 65
 5556 02f4 83E1003C 		lwz 31,60(1)
 5557              	.LVL425:
 5558              		.loc 1 317 1 view .LVU1394
 5559 02f8 38210040 		addi 1,1,64
 5560              		.cfi_restore 31
 5561              		.cfi_restore 30
 5562              		.cfi_restore 29
 5563              		.cfi_def_cfa_offset 0
 5564 02fc 4E800020 		blr
 5565              	.LVL426:
 5566              	.L325:
 5567              		.cfi_def_cfa_offset 64
 5568              		.cfi_offset 24, -32
 5569              		.cfi_offset 25, -28
 5570              		.cfi_offset 26, -24
 5571              		.cfi_offset 27, -20
 5572              		.cfi_offset 28, -16
 5573              		.cfi_offset 29, -12
 5574              		.cfi_offset 30, -8
 5575              		.cfi_offset 31, -4
 5576              		.cfi_offset 65, 4
 5577              	.LBB2550:
 5578              	.LBB2547:
 5579              	.LBB2544:
 5580              	.LBB2541:
 5581              	.LBB2532:
 5582              	.LBB2396:
 5583              		.loc 1 233 3 is_stmt 1 view .LVU1395
 5584              		.loc 1 234 3 view .LVU1396
 5585              		.loc 1 235 3 view .LVU1397
 5586              		.loc 1 236 3 view .LVU1398
 5587              		.loc 1 237 3 view .LVU1399
 5588              		.loc 1 238 4 view .LVU1400
 5589              		.loc 1 239 4 view .LVU1401
 5590              		.loc 1 241 2 view .LVU1402
 5591              		.loc 1 241 108 is_stmt 0 view .LVU1403
 5592 0300 712A0003 		andi. 10,9,0x3
 5593              	.LBE2396:
 5594              	.LBE2532:
 5595              	.LBB2533:
 5596              	.LBB2402:
 5597              		.loc 1 270 14 view .LVU1404
 5598 0304 39000004 		li 8,4
 5599              	.LBE2402:
 5600              	.LBE2533:
 5601              	.LBB2534:
 5602              	.LBB2397:
 5603              		.loc 1 241 22 view .LVU1405
 5604 0308 552A07BE 		rlwinm 10,9,0,30,31
 5605              		.loc 1 241 108 view .LVU1406
 5606 030c 41A2FDB8 		beq- 0,.L285
 5607              		.loc 1 241 66 discriminator 1 view .LVU1407
 5608 0310 39290004 		addi 9,9,4
 5609              	.LVL427:
 5610              		.loc 1 241 108 discriminator 1 view .LVU1408
 5611 0314 7F0A4850 		subf 24,10,9
 5612              	.LVL428:
 5613              		.loc 1 241 108 discriminator 1 view .LVU1409
 5614              	.LBE2397:
 5615              	.LBE2534:
 5616              		.loc 1 298 4 is_stmt 1 view .LVU1410
 5617              	.LBB2535:
 5618              		.loc 1 253 10 view .LVU1411
 5619              	.LBB2403:
 5620              		.loc 1 255 2 view .LVU1412
 5621              		.loc 1 257 2 view .LVU1413
 5622              	.L286:
 5623              		.loc 1 270 14 is_stmt 0 view .LVU1414
 5624 0318 39000004 		li 8,4
 5625 031c 4BFFFDA8 		b .L285
 5626              	.LVL429:
 5627              	.L306:
 5628              		.loc 1 270 14 view .LVU1415
 5629              	.LBE2403:
 5630              	.LBE2535:
 5631              	.LBB2536:
 5632              	.LBB2444:
 5633              	.LBB2442:
 5634              	.LBB2425:
 5635              	.LBB2424:
 5636              	.LBB2423:
 5637              		.loc 2 1951 18 view .LVU1416
 5638 0320 7F48D378 		mr 8,26
 5639 0324 4BFFFE28 		b .L289
 5640              	.LVL430:
 5641              	.L310:
 5642              		.loc 2 1951 18 view .LVU1417
 5643              	.LBE2423:
 5644              	.LBE2424:
 5645              	.LBE2425:
 5646              	.LBE2442:
 5647              	.LBE2444:
 5648              	.LBE2536:
 5649              	.LBB2537:
 5650              	.LBB2529:
 5651              	.LBB2526:
 5652              	.LBB2509:
 5653              	.LBB2508:
 5654              	.LBB2507:
 5655 0328 7F4AD378 		mr 10,26
 5656 032c 4BFFFF5C 		b .L299
 5657              	.LVL431:
 5658              	.L308:
 5659              		.loc 2 1951 18 view .LVU1418
 5660              	.LBE2507:
 5661              	.LBE2508:
 5662              	.LBE2509:
 5663              	.LBE2526:
 5664              	.LBE2529:
 5665              	.LBE2537:
 5666              	.LBB2538:
 5667              	.LBB2487:
 5668              	.LBB2485:
 5669              	.LBB2467:
 5670              	.LBB2465:
 5671              	.LBB2464:
 5672 0330 7F48D378 		mr 8,26
 5673 0334 4BFFFED0 		b .L294
 5674              	.LBE2464:
 5675              	.LBE2465:
 5676              	.LBE2467:
 5677              	.LBE2485:
 5678              	.LBE2487:
 5679              	.LBE2538:
 5680              	.LBE2541:
 5681              	.LBE2544:
 5682              	.LBE2547:
 5683              	.LBE2550:
 5684              		.cfi_endproc
 5685              	.LFE1357:
 5686              		.size	_ZN10FreeTypeGX14cacheGlyphDataEw, .-_ZN10FreeTypeGX14cacheGlyphDataEw
 5687              		.section	.text._ZN10FreeTypeGX22cacheGlyphDataCompleteEv,"ax",@progbits
 5688              		.align 2
 5689              		.globl _ZN10FreeTypeGX22cacheGlyphDataCompleteEv
 5690              		.type	_ZN10FreeTypeGX22cacheGlyphDataCompleteEv, @function
 5691              	_ZN10FreeTypeGX22cacheGlyphDataCompleteEv:
 5692              	.LVL432:
 5693              	.LFB1358:
 5694              		.loc 1 326 1 is_stmt 1 view -0
 5695              		.cfi_startproc
 5696              		.loc 1 327 2 view .LVU1420
 5697              		.loc 1 328 2 view .LVU1421
 5698              		.loc 1 329 2 view .LVU1422
 5699              		.loc 1 326 1 is_stmt 0 view .LVU1423
 5700 0000 9421FFD8 		stwu 1,-40(1)
 5701              		.cfi_def_cfa_offset 40
 5702 0004 7C0802A6 		mflr 0
 5703 0008 93A1001C 		stw 29,28(1)
 5704              		.cfi_register 65, 0
 5705              		.cfi_offset 29, -12
 5706              		.loc 1 329 39 view .LVU1424
 5707 000c 3FA00000 		lis 29,_ZL6ftFace@ha
 5708              		.loc 1 326 1 view .LVU1425
 5709 0010 93810018 		stw 28,24(1)
 5710              		.cfi_offset 28, -16
 5711 0014 7C7C1B78 		mr 28,3
 5712              		.loc 1 329 39 view .LVU1426
 5713 0018 807D0000 		lwz 3,_ZL6ftFace@l(29)
 5714              	.LVL433:
 5715              		.loc 1 329 39 view .LVU1427
 5716 001c 38810008 		addi 4,1,8
 5717              		.loc 1 326 1 view .LVU1428
 5718 0020 9001002C 		stw 0,44(1)
 5719 0024 93C10020 		stw 30,32(1)
 5720              		.cfi_offset 65, 4
 5721              		.cfi_offset 30, -8
 5722              		.loc 1 329 39 view .LVU1429
 5723 0028 48000001 		bl FT_Get_First_Char
 5724              	.LVL434:
 5725              		.loc 1 330 17 view .LVU1430
 5726 002c 81210008 		lwz 9,8(1)
 5727              	.LVL435:
 5728              		.loc 1 330 17 is_stmt 1 view .LVU1431
 5729 0030 2C090000 		cmpwi 0,9,0
 5730 0034 41820078 		beq- 0,.L336
 5731 0038 93E10024 		stw 31,36(1)
 5732              		.cfi_offset 31, -4
 5733 003c 3BBD0000 		la 29,_ZL6ftFace@l(29)
 5734 0040 7C7F1B78 		mr 31,3
 5735              		.loc 1 327 11 is_stmt 0 view .LVU1432
 5736 0044 3BC00000 		li 30,0
 5737              	.LVL436:
 5738              	.L335:
 5739              		.loc 1 332 3 is_stmt 1 view .LVU1433
 5740              		.loc 1 332 26 is_stmt 0 view .LVU1434
 5741 0048 7FE4FB78 		mr 4,31
 5742 004c 7F83E378 		mr 3,28
 5743 0050 48000001 		bl _ZN10FreeTypeGX14cacheGlyphDataEw
 5744              	.LVL437:
 5745              		.loc 1 333 4 is_stmt 1 view .LVU1435
 5746              		.loc 1 334 30 is_stmt 0 view .LVU1436
 5747 0054 38A10008 		addi 5,1,8
 5748              		.loc 1 332 26 view .LVU1437
 5749 0058 7C691B78 		mr 9,3
 5750              		.loc 1 334 30 view .LVU1438
 5751 005c 7FE4FB78 		mr 4,31
 5752              		.loc 1 332 3 discriminator 1 view .LVU1439
 5753 0060 2C090000 		cmpwi 0,9,0
 5754              		.loc 1 334 30 view .LVU1440
 5755 0064 807D0000 		lwz 3,0(29)
 5756              		.loc 1 333 5 view .LVU1441
 5757 0068 393E0001 		addi 9,30,1
 5758              		.loc 1 332 3 discriminator 1 view .LVU1442
 5759 006c 41820008 		beq- 0,.L334
 5760              		.loc 1 333 5 view .LVU1443
 5761 0070 7D3E4B78 		mr 30,9
 5762              	.LVL438:
 5763              	.L334:
 5764              		.loc 1 334 3 is_stmt 1 view .LVU1444
 5765              		.loc 1 334 30 is_stmt 0 view .LVU1445
 5766 0074 48000001 		bl FT_Get_Next_Char
 5767              	.LVL439:
 5768              		.loc 1 330 17 view .LVU1446
 5769 0078 81210008 		lwz 9,8(1)
 5770              		.loc 1 334 30 view .LVU1447
 5771 007c 7C7F1B78 		mr 31,3
 5772              	.LVL440:
 5773              		.loc 1 330 17 is_stmt 1 view .LVU1448
 5774 0080 2C090000 		cmpwi 0,9,0
 5775 0084 4082FFC4 		bne+ 0,.L335
 5776              		.loc 1 336 2 view .LVU1449
 5777              		.loc 1 337 1 is_stmt 0 view .LVU1450
 5778 0088 8001002C 		lwz 0,44(1)
 5779 008c 57C3043E 		rlwinm 3,30,0,0xffff
 5780              	.LVL441:
 5781              		.loc 1 337 1 view .LVU1451
 5782 0090 83E10024 		lwz 31,36(1)
 5783              		.cfi_restore 31
 5784              	.LVL442:
 5785              		.loc 1 337 1 view .LVU1452
 5786 0094 83810018 		lwz 28,24(1)
 5787              	.LVL443:
 5788              		.loc 1 337 1 view .LVU1453
 5789 0098 7C0803A6 		mtlr 0
 5790              		.cfi_restore 65
 5791 009c 83A1001C 		lwz 29,28(1)
 5792 00a0 83C10020 		lwz 30,32(1)
 5793              	.LVL444:
 5794              		.loc 1 337 1 view .LVU1454
 5795 00a4 38210028 		addi 1,1,40
 5796              		.cfi_restore 30
 5797              		.cfi_restore 29
 5798              		.cfi_restore 28
 5799              		.cfi_def_cfa_offset 0
 5800 00a8 4E800020 		blr
 5801              	.LVL445:
 5802              	.L336:
 5803              		.cfi_def_cfa_offset 40
 5804              		.cfi_offset 28, -16
 5805              		.cfi_offset 29, -12
 5806              		.cfi_offset 30, -8
 5807              		.cfi_offset 65, 4
 5808              		.loc 1 337 1 view .LVU1455
 5809 00ac 8001002C 		lwz 0,44(1)
 5810              		.loc 1 327 11 view .LVU1456
 5811 00b0 3BC00000 		li 30,0
 5812              		.loc 1 336 2 is_stmt 1 view .LVU1457
 5813              		.loc 1 337 1 is_stmt 0 view .LVU1458
 5814 00b4 57C3043E 		rlwinm 3,30,0,0xffff
 5815              	.LVL446:
 5816              		.loc 1 337 1 view .LVU1459
 5817 00b8 83810018 		lwz 28,24(1)
 5818              	.LVL447:
 5819              		.loc 1 337 1 view .LVU1460
 5820 00bc 83A1001C 		lwz 29,28(1)
 5821 00c0 7C0803A6 		mtlr 0
 5822              		.cfi_restore 65
 5823 00c4 83C10020 		lwz 30,32(1)
 5824 00c8 38210028 		addi 1,1,40
 5825              		.cfi_restore 30
 5826              		.cfi_restore 29
 5827              		.cfi_restore 28
 5828              		.cfi_def_cfa_offset 0
 5829 00cc 4E800020 		blr
 5830              		.cfi_endproc
 5831              	.LFE1358:
 5832              		.size	_ZN10FreeTypeGX22cacheGlyphDataCompleteEv, .-_ZN10FreeTypeGX22cacheGlyphDataCompleteEv
 5833              		.section	.text._ZN10FreeTypeGX19getStyleOffsetWidthEtt,"ax",@progbits
 5834              		.align 2
 5835              		.globl _ZN10FreeTypeGX19getStyleOffsetWidthEtt
 5836              		.type	_ZN10FreeTypeGX19getStyleOffsetWidthEtt, @function
 5837              	_ZN10FreeTypeGX19getStyleOffsetWidthEtt:
 5838              	.LVL448:
 5839              	.LFB1360:
 5840              		.loc 1 399 1 is_stmt 1 view -0
 5841              		.cfi_startproc
 5842              		.loc 1 400 2 view .LVU1462
 5843 0000 70890001 		andi. 9,4,0x1
 5844 0004 40820034 		bne- 0,.L345
 5845              	.LVL449:
 5846              	.LBB2553:
 5847              	.LBI2553:
 5848              		.loc 1 398 9 view .LVU1463
 5849              	.LBB2554:
 5850              		.loc 1 402 7 view .LVU1464
 5851 0008 70890002 		andi. 9,4,0x2
 5852 000c 4082001C 		bne- 0,.L348
 5853              		.loc 1 404 7 view .LVU1465
 5854 0010 70840004 		andi. 4,4,0x4
 5855              	.LVL450:
 5856              		.loc 1 404 7 is_stmt 0 view .LVU1466
 5857              	.LBE2554:
 5858              	.LBE2553:
 5859              		.loc 1 401 10 view .LVU1467
 5860 0014 39200000 		li 9,0
 5861              	.LBB2557:
 5862              	.LBB2555:
 5863              		.loc 1 404 7 view .LVU1468
 5864 0018 41A20018 		beq+ 0,.L343
 5865              		.loc 1 405 3 is_stmt 1 view .LVU1469
 5866              		.loc 1 405 11 is_stmt 0 view .LVU1470
 5867 001c 7D2300D0 		neg 9,3
 5868              	.LVL451:
 5869              		.loc 1 405 11 view .LVU1471
 5870              	.LBE2555:
 5871              	.LBE2557:
 5872              		.loc 1 407 1 view .LVU1472
 5873 0020 7D230734 		extsh 3,9
 5874              	.LVL452:
 5875              		.loc 1 407 1 view .LVU1473
 5876 0024 4E800020 		blr
 5877              	.LVL453:
 5878              	.L348:
 5879              	.LBB2558:
 5880              	.LBB2556:
 5881              		.loc 1 403 3 is_stmt 1 view .LVU1474
 5882              		.loc 1 403 18 is_stmt 0 view .LVU1475
 5883 0028 5463F87E 		srwi 3,3,1
 5884              	.LVL454:
 5885              		.loc 1 403 22 view .LVU1476
 5886 002c 7D2300D0 		neg 9,3
 5887              	.LVL455:
 5888              	.L343:
 5889              		.loc 1 403 22 view .LVU1477
 5890              	.LBE2556:
 5891              	.LBE2558:
 5892              		.loc 1 407 1 view .LVU1478
 5893 0030 7D230734 		extsh 3,9
 5894 0034 4E800020 		blr
 5895              	.LVL456:
 5896              	.L345:
 5897              		.loc 1 401 10 view .LVU1479
 5898 0038 39200000 		li 9,0
 5899              		.loc 1 407 1 view .LVU1480
 5900 003c 7D230734 		extsh 3,9
 5901              	.LVL457:
 5902              		.loc 1 407 1 view .LVU1481
 5903 0040 4E800020 		blr
 5904              		.cfi_endproc
 5905              	.LFE1360:
 5906              		.size	_ZN10FreeTypeGX19getStyleOffsetWidthEtt, .-_ZN10FreeTypeGX19getStyleOffsetWidthEtt
 5907              		.section	.text._ZN10FreeTypeGX20getStyleOffsetHeightEP15ftgxDataOffset_t,"ax",@progbits
 5908              		.align 2
 5909              		.globl _ZN10FreeTypeGX20getStyleOffsetHeightEP15ftgxDataOffset_t
 5910              		.type	_ZN10FreeTypeGX20getStyleOffsetHeightEP15ftgxDataOffset_t, @function
 5911              	_ZN10FreeTypeGX20getStyleOffsetHeightEP15ftgxDataOffset_t:
 5912              	.LVL458:
 5913              	.LFB1361:
 5914              		.loc 1 418 1 is_stmt 1 view -0
 5915              		.cfi_startproc
 5916              		.loc 1 419 2 is_stmt 0 view .LVU1483
 5917 0000 54840536 		rlwinm 4,4,0,20,27
 5918              	.LVL459:
 5919              		.loc 1 419 2 is_stmt 1 view .LVU1484
 5920 0004 2C040100 		cmpwi 0,4,256
 5921 0008 41820094 		beq- 0,.L350
 5922 000c 28040100 		cmplwi 0,4,256
 5923 0010 4181002C 		bgt- 0,.L351
 5924 0014 2C040040 		cmpwi 0,4,64
 5925 0018 41820078 		beq- 0,.L352
 5926 001c 2C040080 		cmpwi 0,4,128
 5927 0020 39200000 		li 9,0
 5928 0024 41820010 		beq- 0,.L353
 5929 0028 2C040010 		cmpwi 0,4,16
 5930 002c 4082002C 		bne- 0,.L355
 5931              		.loc 1 421 3 view .LVU1485
 5932              		.loc 1 422 4 view .LVU1486
 5933              		.loc 1 422 19 is_stmt 0 view .LVU1487
 5934 0030 A1230000 		lhz 9,0(3)
 5935              	.L353:
 5936              		.loc 1 444 1 view .LVU1488
 5937 0034 7D230734 		extsh 3,9
 5938              	.LVL460:
 5939              		.loc 1 444 1 view .LVU1489
 5940 0038 4E800020 		blr
 5941              	.LVL461:
 5942              	.L351:
 5943              		.loc 1 419 2 view .LVU1490
 5944 003c 2C040200 		cmpwi 0,4,512
 5945 0040 41820034 		beq- 0,.L356
 5946 0044 2C040400 		cmpwi 0,4,1024
 5947 0048 40820010 		bne- 0,.L355
 5948              		.loc 1 440 3 is_stmt 1 view .LVU1491
 5949              		.loc 1 441 4 view .LVU1492
 5950              		.loc 1 441 19 is_stmt 0 view .LVU1493
 5951 004c A1230006 		lhz 9,6(3)
 5952              		.loc 1 444 1 view .LVU1494
 5953 0050 7D230734 		extsh 3,9
 5954              	.LVL462:
 5955              		.loc 1 444 1 view .LVU1495
 5956 0054 4E800020 		blr
 5957              	.LVL463:
 5958              	.L355:
 5959              	.LBB2561:
 5960              	.LBI2561:
 5961              		.loc 1 417 9 is_stmt 1 view .LVU1496
 5962              	.LBB2562:
 5963              		.loc 1 424 3 view .LVU1497
 5964              		.loc 1 425 3 view .LVU1498
 5965              		.loc 1 426 4 view .LVU1499
 5966              		.loc 1 426 21 is_stmt 0 view .LVU1500
 5967 0058 A9230000 		lha 9,0(3)
 5968              		.loc 1 426 40 view .LVU1501
 5969 005c A9430002 		lha 10,2(3)
 5970              		.loc 1 426 30 view .LVU1502
 5971 0060 7D295214 		add 9,9,10
 5972              		.loc 1 426 50 view .LVU1503
 5973 0064 39290001 		addi 9,9,1
 5974              		.loc 1 426 58 view .LVU1504
 5975 0068 5529FC3E 		rlwinm 9,9,31,16,31
 5976              	.LVL464:
 5977              		.loc 1 426 58 view .LVU1505
 5978              	.LBE2562:
 5979              	.LBE2561:
 5980              		.loc 1 444 1 view .LVU1506
 5981 006c 7D230734 		extsh 3,9
 5982              	.LVL465:
 5983              		.loc 1 444 1 view .LVU1507
 5984 0070 4E800020 		blr
 5985              	.LVL466:
 5986              	.L356:
 5987              		.loc 1 437 3 is_stmt 1 view .LVU1508
 5988              		.loc 1 438 4 view .LVU1509
 5989              		.loc 1 438 20 is_stmt 0 view .LVU1510
 5990 0074 A9230004 		lha 9,4(3)
 5991              		.loc 1 438 34 view .LVU1511
 5992 0078 A9430006 		lha 10,6(3)
 5993              		.loc 1 438 24 view .LVU1512
 5994 007c 7D295214 		add 9,9,10
 5995              		.loc 1 438 38 view .LVU1513
 5996 0080 39290001 		addi 9,9,1
 5997              		.loc 1 438 46 view .LVU1514
 5998 0084 5529FC3E 		rlwinm 9,9,31,16,31
 5999              		.loc 1 444 1 view .LVU1515
 6000 0088 7D230734 		extsh 3,9
 6001              	.LVL467:
 6002              		.loc 1 444 1 view .LVU1516
 6003 008c 4E800020 		blr
 6004              	.LVL468:
 6005              	.L352:
 6006              		.loc 1 428 3 is_stmt 1 view .LVU1517
 6007              		.loc 1 429 4 view .LVU1518
 6008              		.loc 1 429 19 is_stmt 0 view .LVU1519
 6009 0090 A1230002 		lhz 9,2(3)
 6010              		.loc 1 444 1 view .LVU1520
 6011 0094 7D230734 		extsh 3,9
 6012              	.LVL469:
 6013              		.loc 1 444 1 view .LVU1521
 6014 0098 4E800020 		blr
 6015              	.LVL470:
 6016              	.L350:
 6017              		.loc 1 434 3 is_stmt 1 view .LVU1522
 6018              		.loc 1 435 4 view .LVU1523
 6019              		.loc 1 435 19 is_stmt 0 view .LVU1524
 6020 009c A1230004 		lhz 9,4(3)
 6021              		.loc 1 444 1 view .LVU1525
 6022 00a0 7D230734 		extsh 3,9
 6023              	.LVL471:
 6024              		.loc 1 444 1 view .LVU1526
 6025 00a4 4E800020 		blr
 6026              		.cfi_endproc
 6027              	.LFE1361:
 6028              		.size	_ZN10FreeTypeGX20getStyleOffsetHeightEP15ftgxDataOffset_t, .-_ZN10FreeTypeGX20getStyleOffset
 6029              		.section	.text._ZN10FreeTypeGX8getWidthEPw,"ax",@progbits
 6030              		.align 2
 6031              		.globl _ZN10FreeTypeGX8getWidthEPw
 6032              		.type	_ZN10FreeTypeGX8getWidthEPw, @function
 6033              	_ZN10FreeTypeGX8getWidthEPw:
 6034              	.LVL472:
 6035              	.LFB1365:
 6036              		.loc 1 544 1 is_stmt 1 view -0
 6037              		.cfi_startproc
 6038              		.loc 1 545 2 view .LVU1528
 6039              		.loc 1 544 1 is_stmt 0 view .LVU1529
 6040 0000 9421FFB0 		stwu 1,-80(1)
 6041              		.cfi_def_cfa_offset 80
 6042 0004 7C0802A6 		mflr 0
 6043 0008 93810040 		stw 28,64(1)
 6044              		.cfi_register 65, 0
 6045              		.cfi_offset 28, -16
 6046 000c 7C7C1B78 		mr 28,3
 6047              		.loc 1 545 29 view .LVU1530
 6048 0010 7C832378 		mr 3,4
 6049              	.LVL473:
 6050              		.loc 1 544 1 view .LVU1531
 6051 0014 93C10048 		stw 30,72(1)
 6052 0018 90010054 		stw 0,84(1)
 6053              		.cfi_offset 30, -8
 6054              		.cfi_offset 65, 4
 6055 001c 7C9E2378 		mr 30,4
 6056 0020 93210034 		stw 25,52(1)
 6057 0024 9361003C 		stw 27,60(1)
 6058              		.cfi_offset 25, -28
 6059              		.cfi_offset 27, -20
 6060              		.loc 1 545 29 view .LVU1532
 6061 0028 48000001 		bl wcslen
 6062              	.LVL474:
 6063              	.LBB2655:
 6064              		.loc 1 549 25 discriminator 1 view .LVU1533
 6065 002c 5469043E 		rlwinm 9,3,0,0xffff
 6066              	.LVL475:
 6067              		.loc 1 549 25 discriminator 1 view .LVU1534
 6068              	.LBE2655:
 6069              		.loc 1 546 2 is_stmt 1 view .LVU1535
 6070              		.loc 1 547 2 view .LVU1536
 6071              		.loc 1 549 2 view .LVU1537
 6072              	.LBB2756:
 6073              		.loc 1 549 25 discriminator 1 view .LVU1538
 6074 0030 2C090000 		cmpwi 0,9,0
 6075 0034 41820228 		beq- 0,.L380
 6076 0038 92A10024 		stw 21,36(1)
 6077              		.cfi_offset 21, -44
 6078 003c 3BDEFFFC 		addi 30,30,-4
 6079              	.LVL476:
 6080              		.loc 1 549 25 is_stmt 0 discriminator 1 view .LVU1539
 6081 0040 92C10028 		stw 22,40(1)
 6082              		.cfi_offset 22, -40
 6083 0044 7D394B78 		mr 25,9
 6084 0048 93410038 		stw 26,56(1)
 6085              		.cfi_offset 26, -24
 6086              	.LBE2756:
 6087              		.loc 1 546 11 view .LVU1540
 6088 004c 3B600000 		li 27,0
 6089 0050 92E1002C 		stw 23,44(1)
 6090              		.cfi_offset 23, -36
 6091              	.LBB2757:
 6092              	.LBB2656:
 6093              		.loc 1 566 19 view .LVU1541
 6094 0054 3EE00000 		lis 23,_ZL6ftFace@ha
 6095 0058 93010030 		stw 24,48(1)
 6096              		.cfi_offset 24, -32
 6097              	.LBB2657:
 6098              	.LBB2658:
 6099              		.loc 7 511 37 view .LVU1542
 6100 005c 3B1C000C 		addi 24,28,12
 6101 0060 93A10044 		stw 29,68(1)
 6102              		.cfi_offset 29, -12
 6103 0064 3BBC0010 		addi 29,28,16
 6104 0068 93E1004C 		stw 31,76(1)
 6105              		.cfi_offset 31, -4
 6106              	.LBE2658:
 6107              	.LBE2657:
 6108              	.LBE2656:
 6109              		.loc 1 549 16 view .LVU1543
 6110 006c 3BE00000 		li 31,0
 6111              	.LVL477:
 6112              	.L379:
 6113              	.LBB2754:
 6114              		.loc 1 552 3 is_stmt 1 view .LVU1544
 6115              		.loc 1 553 3 view .LVU1545
 6116              	.LBB2684:
 6117              	.LBB2685:
 6118              	.LBB2686:
 6119              	.LBB2687:
 6120              	.LBB2688:
 6121              	.LBB2689:
 6122              		.loc 2 737 73 is_stmt 0 view .LVU1546
 6123 0070 815C0014 		lwz 10,20(28)
 6124 0074 7FDAF378 		mr 26,30
 6125              	.LBE2689:
 6126              	.LBE2688:
 6127              	.LBE2687:
 6128              	.LBE2686:
 6129              	.LBE2685:
 6130              	.LBE2684:
 6131              		.loc 1 559 36 view .LVU1547
 6132 0078 809E0004 		lwz 4,4(30)
 6133 007c 3BDE0004 		addi 30,30,4
 6134              	.LVL478:
 6135              	.LBB2706:
 6136              	.LBI2684:
 6137              		.loc 7 1217 7 is_stmt 1 view .LVU1548
 6138              	.LBB2705:
 6139              	.LBI2685:
 6140              		.loc 2 2529 5 view .LVU1549
 6141              	.LBB2704:
 6142              	.LBB2691:
 6143              	.LBI2687:
 6144              		.loc 2 740 7 view .LVU1550
 6145              	.LBB2690:
 6146              	.LBI2688:
 6147              		.loc 2 736 7 view .LVU1551
 6148              		.loc 2 736 7 is_stmt 0 view .LVU1552
 6149              	.LBE2690:
 6150              	.LBE2691:
 6151              	.LBB2692:
 6152              	.LBI2692:
 6153              		.loc 2 751 7 is_stmt 1 view .LVU1553
 6154              		.loc 2 751 7 is_stmt 0 view .LVU1554
 6155              	.LBE2692:
 6156              	.LBB2693:
 6157              	.LBI2693:
 6158              		.loc 2 1947 5 is_stmt 1 view .LVU1555
 6159              	.LBB2694:
 6160              		.loc 2 1951 18 view .LVU1556
 6161 0080 2C0A0000 		cmpwi 0,10,0
 6162 0084 41820120 		beq- 0,.L362
 6163 0088 7FA7EB78 		mr 7,29
 6164 008c 7D495378 		mr 9,10
 6165 0090 48000014 		b .L365
 6166              	.LVL479:
 6167              	.L398:
 6168              		.loc 2 1953 8 is_stmt 0 view .LVU1557
 6169 0094 7D274B78 		mr 7,9
 6170              		.loc 2 1953 28 view .LVU1558
 6171 0098 81290008 		lwz 9,8(9)
 6172              	.LVL480:
 6173              		.loc 2 1951 18 is_stmt 1 view .LVU1559
 6174 009c 2C090000 		cmpwi 0,9,0
 6175 00a0 4182001C 		beq- 0,.L397
 6176              	.LVL481:
 6177              	.L365:
 6178              	.LBB2695:
 6179              	.LBI2695:
 6180              		.loc 6 407 7 view .LVU1560
 6181              		.loc 6 407 7 is_stmt 0 view .LVU1561
 6182              	.LBE2695:
 6183              	.LBB2696:
 6184              	.LBI2696:
 6185              		.loc 2 781 7 is_stmt 1 view .LVU1562
 6186              		.loc 2 781 7 is_stmt 0 view .LVU1563
 6187              	.LBE2696:
 6188              	.LBB2697:
 6189              	.LBI2697:
 6190              		.loc 2 789 7 is_stmt 1 view .LVU1564
 6191              	.LBE2697:
 6192              		.loc 2 1952 2 is_stmt 0 discriminator 2 view .LVU1565
 6193 00a4 81090010 		lwz 8,16(9)
 6194 00a8 7C082000 		cmpw 0,8,4
 6195 00ac 40A0FFE8 		bge- 0,.L398
 6196              	.LBB2699:
 6197              	.LBB2698:
 6198              		.loc 2 790 53 view .LVU1566
 6199 00b0 8129000C 		lwz 9,12(9)
 6200              	.LVL482:
 6201              		.loc 2 790 53 view .LVU1567
 6202              	.LBE2698:
 6203              	.LBE2699:
 6204              		.loc 2 1951 18 is_stmt 1 view .LVU1568
 6205 00b4 2C090000 		cmpwi 0,9,0
 6206 00b8 4082FFEC 		bne+ 0,.L365
 6207              	.L397:
 6208              	.LVL483:
 6209              	.LBB2700:
 6210              	.LBI2700:
 6211              		.loc 2 273 7 view .LVU1569
 6212              		.loc 2 273 7 is_stmt 0 view .LVU1570
 6213              	.LBE2700:
 6214              	.LBE2694:
 6215              	.LBE2693:
 6216              	.LBB2701:
 6217              	.LBI2701:
 6218              		.loc 2 1005 7 is_stmt 1 view .LVU1571
 6219              	.LBB2702:
 6220              	.LBI2702:
 6221              		.loc 2 273 7 view .LVU1572
 6222              		.loc 2 273 7 is_stmt 0 view .LVU1573
 6223              	.LBE2702:
 6224              	.LBE2701:
 6225              		.loc 2 2535 28 view .LVU1574
 6226 00bc 7C1D3840 		cmplw 0,29,7
 6227 00c0 418200E4 		beq- 0,.L362
 6228              	.LVL484:
 6229              	.LBB2703:
 6230              	.LBI2703:
 6231              		.loc 6 407 7 is_stmt 1 view .LVU1575
 6232              		.loc 6 407 7 is_stmt 0 view .LVU1576
 6233              	.LBE2703:
 6234              		.loc 2 2534 8 discriminator 1 view .LVU1577
 6235 00c4 81270010 		lwz 9,16(7)
 6236 00c8 7C092000 		cmpw 0,9,4
 6237 00cc 418100D8 		bgt- 0,.L362
 6238 00d0 7FB6EB78 		mr 22,29
 6239 00d4 48000014 		b .L366
 6240              	.LVL485:
 6241              	.L400:
 6242              		.loc 2 2534 8 discriminator 1 view .LVU1578
 6243              	.LBE2704:
 6244              	.LBE2705:
 6245              	.LBE2706:
 6246              	.LBB2707:
 6247              	.LBB2683:
 6248              	.LBB2659:
 6249              	.LBB2660:
 6250              	.LBB2661:
 6251              	.LBB2662:
 6252              		.loc 2 1953 8 view .LVU1579
 6253 00d8 7D565378 		mr 22,10
 6254              		.loc 2 1953 28 view .LVU1580
 6255 00dc 814A0008 		lwz 10,8(10)
 6256              	.LVL486:
 6257              		.loc 2 1951 18 is_stmt 1 view .LVU1581
 6258 00e0 2C0A0000 		cmpwi 0,10,0
 6259 00e4 4182001C 		beq- 0,.L399
 6260              	.LVL487:
 6261              	.L366:
 6262              	.LBB2663:
 6263              	.LBI2663:
 6264              		.loc 6 407 7 view .LVU1582
 6265              		.loc 6 407 7 is_stmt 0 view .LVU1583
 6266              	.LBE2663:
 6267              	.LBB2664:
 6268              	.LBI2664:
 6269              		.loc 2 781 7 is_stmt 1 view .LVU1584
 6270              		.loc 2 781 7 is_stmt 0 view .LVU1585
 6271              	.LBE2664:
 6272              	.LBB2665:
 6273              	.LBI2665:
 6274              		.loc 2 789 7 is_stmt 1 view .LVU1586
 6275              	.LBE2665:
 6276              		.loc 2 1952 2 is_stmt 0 discriminator 2 view .LVU1587
 6277 00e8 812A0010 		lwz 9,16(10)
 6278 00ec 7C092000 		cmpw 0,9,4
 6279 00f0 40A0FFE8 		bge- 0,.L400
 6280              	.LBB2667:
 6281              	.LBB2666:
 6282              		.loc 2 790 53 view .LVU1588
 6283 00f4 814A000C 		lwz 10,12(10)
 6284              	.LVL488:
 6285              		.loc 2 790 53 view .LVU1589
 6286              	.LBE2666:
 6287              	.LBE2667:
 6288              		.loc 2 1951 18 is_stmt 1 view .LVU1590
 6289 00f8 2C0A0000 		cmpwi 0,10,0
 6290 00fc 4082FFEC 		bne+ 0,.L366
 6291              	.L399:
 6292              	.LVL489:
 6293              	.LBB2668:
 6294              	.LBI2668:
 6295              		.loc 2 273 7 view .LVU1591
 6296              		.loc 2 273 7 is_stmt 0 view .LVU1592
 6297              	.LBE2668:
 6298              	.LBE2662:
 6299              	.LBE2661:
 6300              	.LBE2660:
 6301              	.LBE2659:
 6302              	.LBB2669:
 6303              	.LBI2669:
 6304              		.loc 7 384 7 is_stmt 1 view .LVU1593
 6305              	.LBB2670:
 6306              	.LBI2670:
 6307              		.loc 2 1005 7 view .LVU1594
 6308              	.LBB2671:
 6309              	.LBI2671:
 6310              		.loc 2 273 7 view .LVU1595
 6311              		.loc 2 273 7 is_stmt 0 view .LVU1596
 6312              	.LBE2671:
 6313              	.LBE2670:
 6314              	.LBE2669:
 6315              	.LBB2672:
 6316              	.LBI2672:
 6317              		.loc 2 315 7 is_stmt 1 view .LVU1597
 6318              		.loc 2 315 7 is_stmt 0 view .LVU1598
 6319              	.LBE2672:
 6320              		.loc 7 509 19 discriminator 2 view .LVU1599
 6321 0100 7C1DB040 		cmplw 0,29,22
 6322 0104 41820010 		beq- 0,.L371
 6323              	.LVL490:
 6324              	.LBB2673:
 6325              	.LBI2673:
 6326              		.loc 6 407 7 is_stmt 1 view .LVU1600
 6327              		.loc 6 407 7 is_stmt 0 view .LVU1601
 6328              	.LBE2673:
 6329              		.loc 7 509 19 discriminator 2 view .LVU1602
 6330 0108 81360010 		lwz 9,16(22)
 6331 010c 7C092000 		cmpw 0,9,4
 6332 0110 40810020 		ble- 0,.L372
 6333              	.L371:
 6334              	.LVL491:
 6335              	.LBB2674:
 6336              	.LBI2674:
 6337              		.loc 2 350 7 is_stmt 1 view .LVU1603
 6338              		.loc 2 350 7 is_stmt 0 view .LVU1604
 6339              	.LBE2674:
 6340              	.LBB2675:
 6341              	.LBI2675:
 6342              		.loc 5 874 2 is_stmt 1 view .LVU1605
 6343              	.LBB2676:
 6344              	.LBI2676:
 6345              		.loc 5 507 7 view .LVU1606
 6346              	.LBB2677:
 6347              	.LBI2677:
 6348              		.loc 5 193 17 view .LVU1607
 6349              	.LBE2677:
 6350              	.LBE2676:
 6351              	.LBE2675:
 6352              		.loc 7 511 37 is_stmt 0 view .LVU1608
 6353 0114 38A10010 		addi 5,1,16
 6354              	.LVL492:
 6355              		.loc 7 511 37 view .LVU1609
 6356 0118 38810018 		addi 4,1,24
 6357 011c 7F03C378 		mr 3,24
 6358 0120 92C10018 		stw 22,24(1)
 6359              	.LBB2682:
 6360              	.LBB2681:
 6361              	.LBB2680:
 6362              	.LBB2678:
 6363              	.LBB2679:
 6364              		.loc 5 194 9 view .LVU1610
 6365 0124 93C10010 		stw 30,16(1)
 6366              	.LVL493:
 6367              		.loc 5 194 9 view .LVU1611
 6368              	.LBE2679:
 6369              	.LBE2678:
 6370              	.LBE2680:
 6371              	.LBE2681:
 6372              	.LBE2682:
 6373              		.loc 7 511 37 view .LVU1612
 6374 0128 48000001 		bl _ZNSt8_Rb_treeIwSt4pairIKw13ftgxCharData_ESt10_Select1stIS3_ESt4lessIwESaIS3_EE22_M_emplace_hin
 6375              	.LVL494:
 6376 012c 7C761B78 		mr 22,3
 6377              	.LVL495:
 6378              	.L372:
 6379              		.loc 7 517 16 discriminator 1 view .LVU1613
 6380 0130 3AD60014 		addi 22,22,20
 6381              	.LVL496:
 6382              		.loc 7 517 16 discriminator 1 view .LVU1614
 6383              	.LBE2683:
 6384              	.LBE2707:
 6385              		.loc 1 562 3 is_stmt 1 view .LVU1615
 6386              	.L367:
 6387              		.loc 1 564 4 view .LVU1616
 6388 0134 893C0004 		lbz 9,4(28)
 6389 0138 2C090000 		cmpwi 0,9,0
 6390 013c 41820010 		beq- 0,.L373
 6391              		.loc 1 564 30 is_stmt 0 discriminator 1 view .LVU1617
 6392 0140 57E9043E 		rlwinm 9,31,0,0xffff
 6393 0144 2C090000 		cmpwi 0,9,0
 6394 0148 40820070 		bne- 0,.L401
 6395              	.LVL497:
 6396              	.L373:
 6397              		.loc 1 569 4 is_stmt 1 view .LVU1618
 6398              		.loc 1 569 13 is_stmt 0 view .LVU1619
 6399 014c A1360002 		lhz 9,2(22)
 6400 0150 7F69DA14 		add 27,9,27
 6401              	.LVL498:
 6402              	.L368:
 6403              		.loc 1 569 13 view .LVU1620
 6404              	.LBE2754:
 6405              		.loc 1 549 2 is_stmt 1 discriminator 2 view .LVU1621
 6406 0154 3BFF0001 		addi 31,31,1
 6407              	.LVL499:
 6408              		.loc 1 549 25 is_stmt 0 discriminator 1 view .LVU1622
 6409 0158 57E9043E 		rlwinm 9,31,0,0xffff
 6410              	.LVL500:
 6411              		.loc 1 549 25 is_stmt 1 discriminator 1 view .LVU1623
 6412 015c 7C194800 		cmpw 0,25,9
 6413 0160 4082FF10 		bne+ 0,.L379
 6414              	.LBE2757:
 6415              		.loc 1 572 2 view .LVU1624
 6416              		.loc 1 573 1 is_stmt 0 view .LVU1625
 6417 0164 80010054 		lwz 0,84(1)
 6418 0168 5763043E 		rlwinm 3,27,0,0xffff
 6419 016c 82A10024 		lwz 21,36(1)
 6420              		.cfi_remember_state
 6421              		.cfi_restore 21
 6422 0170 82C10028 		lwz 22,40(1)
 6423              		.cfi_restore 22
 6424              	.LVL501:
 6425              		.loc 1 573 1 view .LVU1626
 6426 0174 7C0803A6 		mtlr 0
 6427              		.cfi_restore 65
 6428 0178 82E1002C 		lwz 23,44(1)
 6429              		.cfi_restore 23
 6430 017c 83010030 		lwz 24,48(1)
 6431              		.cfi_restore 24
 6432 0180 83410038 		lwz 26,56(1)
 6433              		.cfi_restore 26
 6434 0184 83A10044 		lwz 29,68(1)
 6435              		.cfi_restore 29
 6436 0188 83E1004C 		lwz 31,76(1)
 6437              		.cfi_restore 31
 6438              	.LVL502:
 6439              		.loc 1 573 1 view .LVU1627
 6440 018c 83210034 		lwz 25,52(1)
 6441              	.LVL503:
 6442              		.loc 1 573 1 view .LVU1628
 6443 0190 8361003C 		lwz 27,60(1)
 6444              	.LVL504:
 6445              		.loc 1 573 1 view .LVU1629
 6446 0194 83810040 		lwz 28,64(1)
 6447              	.LVL505:
 6448              		.loc 1 573 1 view .LVU1630
 6449 0198 83C10048 		lwz 30,72(1)
 6450 019c 38210050 		addi 1,1,80
 6451              		.cfi_restore 30
 6452              		.cfi_restore 28
 6453              		.cfi_restore 27
 6454              		.cfi_restore 25
 6455              		.cfi_def_cfa_offset 0
 6456 01a0 4E800020 		blr
 6457              	.LVL506:
 6458              	.L362:
 6459              		.cfi_restore_state
 6460              	.LBB2758:
 6461              	.LBB2755:
 6462              	.LBB2708:
 6463              	.LBI2708:
 6464              		.loc 7 384 7 is_stmt 1 view .LVU1631
 6465              	.LBB2709:
 6466              	.LBI2709:
 6467              		.loc 2 1005 7 view .LVU1632
 6468              	.LBB2710:
 6469              	.LBI2710:
 6470              		.loc 2 273 7 view .LVU1633
 6471              		.loc 2 273 7 is_stmt 0 view .LVU1634
 6472              	.LBE2710:
 6473              	.LBE2709:
 6474              	.LBE2708:
 6475              		.loc 1 559 4 is_stmt 1 view .LVU1635
 6476              		.loc 1 559 36 is_stmt 0 view .LVU1636
 6477 01a4 7F83E378 		mr 3,28
 6478 01a8 48000001 		bl _ZN10FreeTypeGX14cacheGlyphDataEw
 6479              	.LVL507:
 6480              		.loc 1 562 3 is_stmt 1 view .LVU1637
 6481 01ac 7C761B79 		mr. 22,3
 6482 01b0 4182FFA4 		beq+ 0,.L368
 6483 01b4 4BFFFF80 		b .L367
 6484              	.LVL508:
 6485              	.L401:
 6486              		.loc 1 566 5 view .LVU1638
 6487              	.LBB2711:
 6488              	.LBB2712:
 6489              	.LBB2713:
 6490              	.LBB2714:
 6491              	.LBB2715:
 6492              	.LBB2716:
 6493              	.LBB2717:
 6494              		.loc 2 737 73 is_stmt 0 view .LVU1639
 6495 01b8 813C0014 		lwz 9,20(28)
 6496              	.LBE2717:
 6497              	.LBE2716:
 6498              	.LBE2715:
 6499              	.LBE2714:
 6500              	.LBE2713:
 6501              	.LBE2712:
 6502              	.LBE2711:
 6503              		.loc 1 566 19 view .LVU1640
 6504 01bc 82B70000 		lwz 21,_ZL6ftFace@l(23)
 6505              	.LVL509:
 6506              	.LBB2752:
 6507              	.LBI2711:
 6508              		.loc 7 502 7 is_stmt 1 view .LVU1641
 6509              	.LBB2750:
 6510              	.LBB2734:
 6511              	.LBI2713:
 6512              		.loc 7 1306 7 view .LVU1642
 6513              	.LBB2732:
 6514              	.LBI2714:
 6515              		.loc 2 1270 7 view .LVU1643
 6516              	.LBB2719:
 6517              	.LBI2715:
 6518              		.loc 2 740 7 view .LVU1644
 6519              	.LBB2718:
 6520              	.LBI2716:
 6521              		.loc 2 736 7 view .LVU1645
 6522              		.loc 2 736 7 is_stmt 0 view .LVU1646
 6523              	.LBE2718:
 6524              	.LBE2719:
 6525              	.LBB2720:
 6526              	.LBI2720:
 6527              		.loc 2 1947 5 is_stmt 1 view .LVU1647
 6528              	.LBB2721:
 6529              		.loc 2 1951 18 view .LVU1648
 6530 01c0 2C090000 		cmpwi 0,9,0
 6531 01c4 41820090 		beq- 0,.L382
 6532              	.LBB2722:
 6533              	.LBB2723:
 6534              		.loc 6 408 20 is_stmt 0 view .LVU1649
 6535 01c8 80FA0000 		lwz 7,0(26)
 6536 01cc 7FA8EB78 		mr 8,29
 6537 01d0 48000014 		b .L377
 6538              	.LVL510:
 6539              	.L403:
 6540              		.loc 6 408 20 view .LVU1650
 6541              	.LBE2723:
 6542              	.LBE2722:
 6543              		.loc 2 1953 8 view .LVU1651
 6544 01d4 7D284B78 		mr 8,9
 6545              		.loc 2 1953 28 view .LVU1652
 6546 01d8 81290008 		lwz 9,8(9)
 6547              	.LVL511:
 6548              		.loc 2 1951 18 is_stmt 1 view .LVU1653
 6549 01dc 2C090000 		cmpwi 0,9,0
 6550 01e0 4182001C 		beq- 0,.L402
 6551              	.LVL512:
 6552              	.L377:
 6553              	.LBB2724:
 6554              	.LBI2722:
 6555              		.loc 6 407 7 view .LVU1654
 6556              		.loc 6 407 7 is_stmt 0 view .LVU1655
 6557              	.LBE2724:
 6558              	.LBB2725:
