   1              		.file	"fwrite.cpp"
   2              		.machine ppc
   3              		.section	".text"
   4              	.Ltext0:
   5              		.file 1 "F:/GameModding/MarioKartWii/Mods/Distro/RetroRewind6/dev/Launcher/RRLauncher/launcher/sou
   6              		.section	.text._Z24Fwrite_FindPatchLocationPcj,"ax",@progbits
   7              		.align 2
   8              		.globl _Z24Fwrite_FindPatchLocationPcj
   9              		.type	_Z24Fwrite_FindPatchLocationPcj, @function
  10              	_Z24Fwrite_FindPatchLocationPcj:
  11              	.LVL0:
  12              	.LFB1339:
  13              		.loc 1 106 1 view -0
  14              		.cfi_startproc
  15              		.loc 1 107 2 view .LVU1
  16              		.loc 1 106 1 is_stmt 0 view .LVU2
  17 0000 9421FFE8 		stwu 1,-24(1)
  18              		.cfi_def_cfa_offset 24
  19 0004 7C0802A6 		mflr 0
  20 0008 93C10010 		stw 30,16(1)
  21              		.cfi_register 65, 0
  22              		.cfi_offset 30, -8
  23 000c 7C9E2378 		mr 30,4
  24 0010 93E10014 		stw 31,20(1)
  25              		.cfi_offset 31, -4
  26 0014 7C7F1B78 		mr 31,3
  27 0018 9001001C 		stw 0,28(1)
  28              		.cfi_offset 65, 4
  29              		.loc 1 107 19 view .LVU3
  30 001c 48000001 		bl File_GetLogFS
  31              	.LVL1:
  32              		.loc 1 107 2 discriminator 1 view .LVU4
  33 0020 2C030000 		cmpwi 0,3,0
  34 0024 41800224 		blt- 0,.L22
  35              		.loc 1 110 2 is_stmt 1 view .LVU5
  36              		.loc 1 110 6 is_stmt 0 view .LVU6
  37 0028 3C600000 		lis 3,_ZL17iosioctl_location@ha
  38 002c 81230000 		lwz 9,_ZL17iosioctl_location@l(3)
  39              		.loc 1 110 2 view .LVU7
  40 0030 2C090000 		cmpwi 0,9,0
  41 0034 418201A4 		beq- 0,.L43
  42              	.L3:
  43              		.loc 1 112 2 is_stmt 1 view .LVU8
  44              		.loc 1 112 6 is_stmt 0 view .LVU9
  45 0038 3C600000 		lis 3,_ZL15fwrite_location@ha
  46 003c 80830000 		lwz 4,_ZL15fwrite_location@l(3)
  47              		.loc 1 112 2 view .LVU10
  48 0040 2C040000 		cmpwi 0,4,0
  49 0044 41820020 		beq- 0,.L9
  50              	.LVL2:
  51              	.L20:
  52              		.loc 1 116 9 view .LVU11
  53 0048 38600000 		li 3,0
  54              	.L1:
  55              		.loc 1 117 1 view .LVU12
  56 004c 8001001C 		lwz 0,28(1)
  57 0050 83C10010 		lwz 30,16(1)
  58 0054 83E10014 		lwz 31,20(1)
  59 0058 7C0803A6 		mtlr 0
  60              		.cfi_remember_state
  61              		.cfi_restore 65
  62 005c 38210018 		addi 1,1,24
  63              		.cfi_restore 31
  64              		.cfi_restore 30
  65              		.cfi_def_cfa_offset 0
  66 0060 4E800020 		blr
  67              	.LVL3:
  68              	.L9:
  69              		.cfi_restore_state
  70              	.LBB38:
  71              	.LBB39:
  72              	.LBB40:
  73              	.LBB41:
  74              		.loc 1 22 51 is_stmt 1 discriminator 1 view .LVU13
  75              		.loc 1 22 74 is_stmt 0 discriminator 1 view .LVU14
  76 0064 38BEFCF8 		addi 5,30,-776
  77 0068 3D600000 		lis 11,_ZZL10FindFwritePcjE6findme-4@ha
  78 006c 7CBF2A14 		add 5,31,5
  79 0070 396B0000 		la 11,_ZZL10FindFwritePcjE6findme-4@l(11)
  80              		.loc 1 22 51 discriminator 1 view .LVU15
  81 0074 7C1F2840 		cmplw 0,31,5
  82              		.loc 1 22 12 view .LVU16
  83 0078 7FE6FB78 		mr 6,31
  84              		.loc 1 22 51 discriminator 1 view .LVU17
  85 007c 40800044 		bge- 0,.L11
  86              	.LVL4:
  87              	.L10:
  88              	.LBB42:
  89              	.LBB43:
  90              		.loc 1 25 37 is_stmt 1 discriminator 1 view .LVU18
  91              	.LBE43:
  92              		.loc 1 24 7 is_stmt 0 view .LVU19
  93 0080 394000C2 		li 10,194
  94 0084 7D685B78 		mr 8,11
  95 0088 39200000 		li 9,0
  96 008c 7D4903A6 		mtctr 10
  97              	.LVL5:
  98              	.L14:
  99              	.LBB44:
 100              		.loc 1 26 4 is_stmt 1 view .LVU20
 101              		.loc 1 25 72 discriminator 2 view .LVU21
 102              		.loc 1 26 17 is_stmt 0 view .LVU22
 103 0090 85480004 		lwzu 10,4(8)
 104              		.loc 1 26 31 discriminator 1 view .LVU23
 105 0094 5527103A 		slwi 7,9,2
 106              		.loc 1 25 72 discriminator 2 view .LVU24
 107 0098 39290001 		addi 9,9,1
 108              	.LVL6:
 109              		.loc 1 25 37 is_stmt 1 discriminator 1 view .LVU25
 110              		.loc 1 26 4 is_stmt 0 view .LVU26
 111 009c 280A0010 		cmplwi 0,10,16
 112 00a0 40810010 		ble- 0,.L12
 113              		.loc 1 26 27 discriminator 1 view .LVU27
 114 00a4 7CE6382E 		lwzx 7,6,7
 115 00a8 7C0A3800 		cmpw 0,10,7
 116 00ac 40820100 		bne- 0,.L13
 117              	.L12:
 118              		.loc 1 25 37 discriminator 1 view .LVU28
 119 00b0 4200FFE0 		bdnz .L14
 120              	.LBE44:
 121              		.loc 1 29 3 is_stmt 1 view .LVU29
 122              	.LVL7:
 123              		.loc 1 29 3 is_stmt 0 view .LVU30
 124              	.LBE42:
 125              	.LBE41:
 126              	.LBE40:
 127              	.LBE39:
 128              	.LBE38:
 129              		.loc 1 114 2 view .LVU31
 130 00b4 2C060000 		cmpwi 0,6,0
 131              		.loc 1 113 19 discriminator 1 view .LVU32
 132 00b8 90C30000 		stw 6,_ZL15fwrite_location@l(3)
 133              		.loc 1 114 2 is_stmt 1 view .LVU33
 134 00bc 40A2FF8C 		bne- 0,.L20
 135              	.L11:
 136              	.LVL8:
 137              	.LBB49:
 138              	.LBB50:
 139              	.LBB51:
 140              	.LBB52:
 141              		.loc 1 22 51 discriminator 1 view .LVU34
 142              		.loc 1 22 74 is_stmt 0 discriminator 1 view .LVU35
 143 00c0 395EFFD0 		addi 10,30,-48
 144 00c4 7D5F5214 		add 10,31,10
 145              		.loc 1 22 51 discriminator 1 view .LVU36
 146 00c8 7C1F5040 		cmplw 0,31,10
 147 00cc 408000D8 		bge- 0,.L17
 148              	.LBB53:
 149              	.LBB54:
 150              		.loc 1 26 27 discriminator 1 view .LVU37
 151 00d0 3D007FDB 		lis 8,0x7fdb
 152 00d4 3CE04182 		lis 7,0x4182
 153 00d8 3CC0881C 		lis 6,0x881c
 154 00dc 3CA04082 		lis 5,0x4082
 155 00e0 3D60801C 		lis 11,0x801c
 156 00e4 3C004082 		lis 0,0x4082
 157 00e8 3FC02800 		lis 30,0x2800
 158              	.LVL9:
 159              		.loc 1 26 27 discriminator 1 view .LVU38
 160 00ec 3D804082 		lis 12,0x4082
 161 00f0 93810008 		stw 28,8(1)
 162              		.cfi_offset 28, -16
 163 00f4 6108C9D7 		ori 8,8,0xc9d7
 164 00f8 93A1000C 		stw 29,12(1)
 165              		.cfi_offset 29, -12
 166              		.loc 1 26 27 discriminator 1 view .LVU39
 167 00fc 60E7001C 		ori 7,7,0x1c
 168 0100 60C6000A 		ori 6,6,0xa
 169 0104 60A50010 		ori 5,5,0x10
 170 0108 616B0004 		ori 11,11,0x4
 171 010c 6000000C 		ori 0,0,0xc
 172 0110 63DE0002 		ori 30,30,0x2
 173 0114 618C0008 		ori 12,12,0x8
 174 0118 3FA02C00 		lis 29,0x2c00
 175 011c 3F803860 		lis 28,0x3860
 176              	.LVL10:
 177              	.L16:
 178              		.loc 1 25 37 is_stmt 1 discriminator 1 view .LVU40
 179              		.loc 1 26 4 view .LVU41
 180              		.loc 1 26 27 is_stmt 0 discriminator 1 view .LVU42
 181 0120 813F0000 		lwz 9,0(31)
 182 0124 7C094000 		cmpw 0,9,8
 183 0128 40820094 		bne- 0,.L18
 184              		.loc 1 25 72 is_stmt 1 discriminator 2 view .LVU43
 185              	.LVL11:
 186              		.loc 1 25 37 discriminator 1 view .LVU44
 187              		.loc 1 26 4 view .LVU45
 188              		.loc 1 26 27 is_stmt 0 discriminator 1 view .LVU46
 189 012c 813F0004 		lwz 9,4(31)
 190 0130 7C093800 		cmpw 0,9,7
 191 0134 40820088 		bne- 0,.L18
 192              		.loc 1 25 72 is_stmt 1 discriminator 2 view .LVU47
 193              	.LVL12:
 194              		.loc 1 25 37 discriminator 1 view .LVU48
 195              		.loc 1 26 4 view .LVU49
 196              		.loc 1 26 27 is_stmt 0 discriminator 1 view .LVU50
 197 0138 813F0008 		lwz 9,8(31)
 198 013c 7C093000 		cmpw 0,9,6
 199 0140 4082007C 		bne- 0,.L18
 200              		.loc 1 25 72 is_stmt 1 discriminator 2 view .LVU51
 201              	.LVL13:
 202              		.loc 1 25 37 discriminator 1 view .LVU52
 203              		.loc 1 26 4 view .LVU53
 204              		.loc 1 26 27 is_stmt 0 discriminator 1 view .LVU54
 205 0144 813F000C 		lwz 9,12(31)
 206 0148 7C09E800 		cmpw 0,9,29
 207 014c 40820070 		bne- 0,.L18
 208              		.loc 1 25 72 is_stmt 1 discriminator 2 view .LVU55
 209              	.LVL14:
 210              		.loc 1 25 37 discriminator 1 view .LVU56
 211              		.loc 1 26 4 view .LVU57
 212              		.loc 1 26 27 is_stmt 0 discriminator 1 view .LVU58
 213 0150 813F0010 		lwz 9,16(31)
 214 0154 7C092800 		cmpw 0,9,5
 215 0158 40820064 		bne- 0,.L18
 216              		.loc 1 25 72 is_stmt 1 discriminator 2 view .LVU59
 217              	.LVL15:
 218              		.loc 1 25 37 discriminator 1 view .LVU60
 219              		.loc 1 26 4 view .LVU61
 220              		.loc 1 26 27 is_stmt 0 discriminator 1 view .LVU62
 221 015c 813F0014 		lwz 9,20(31)
 222 0160 7C095800 		cmpw 0,9,11
 223 0164 40820058 		bne- 0,.L18
 224              		.loc 1 25 72 is_stmt 1 discriminator 2 view .LVU63
 225              	.LVL16:
 226              		.loc 1 25 37 discriminator 1 view .LVU64
 227              		.loc 1 26 4 view .LVU65
 228              		.loc 1 25 72 discriminator 2 view .LVU66
 229              		.loc 1 25 37 discriminator 1 view .LVU67
 230              		.loc 1 26 4 view .LVU68
 231              		.loc 1 26 27 is_stmt 0 discriminator 1 view .LVU69
 232 0168 813F001C 		lwz 9,28(31)
 233 016c 7C090000 		cmpw 0,9,0
 234 0170 4082004C 		bne- 0,.L18
 235              		.loc 1 25 72 is_stmt 1 discriminator 2 view .LVU70
 236              	.LVL17:
 237              		.loc 1 25 37 discriminator 1 view .LVU71
 238              		.loc 1 26 4 view .LVU72
 239              		.loc 1 26 27 is_stmt 0 discriminator 1 view .LVU73
 240 0174 813F0020 		lwz 9,32(31)
 241 0178 7C09E000 		cmpw 0,9,28
 242 017c 40820040 		bne- 0,.L18
 243              		.loc 1 25 72 is_stmt 1 discriminator 2 view .LVU74
 244              	.LVL18:
 245              		.loc 1 25 37 discriminator 1 view .LVU75
 246              		.loc 1 26 4 view .LVU76
 247              		.loc 1 25 72 discriminator 2 view .LVU77
 248              		.loc 1 25 37 discriminator 1 view .LVU78
 249              		.loc 1 26 4 view .LVU79
 250              		.loc 1 26 27 is_stmt 0 discriminator 1 view .LVU80
 251 0180 813F0028 		lwz 9,40(31)
 252 0184 7C09F000 		cmpw 0,9,30
 253 0188 40820034 		bne- 0,.L18
 254              		.loc 1 25 72 is_stmt 1 discriminator 2 view .LVU81
 255              	.LVL19:
 256              		.loc 1 25 37 discriminator 1 view .LVU82
 257              		.loc 1 26 4 view .LVU83
 258              		.loc 1 26 27 is_stmt 0 discriminator 1 view .LVU84
 259 018c 813F002C 		lwz 9,44(31)
 260 0190 7C096000 		cmpw 0,9,12
 261 0194 40820028 		bne- 0,.L18
 262              	.LVL20:
 263              		.loc 1 26 27 discriminator 1 view .LVU85
 264              	.LBE54:
 265              	.LBE53:
 266              	.LBE52:
 267              	.LBE51:
 268              		.loc 1 99 2 is_stmt 1 view .LVU86
 269              		.loc 1 100 3 view .LVU87
 270 0198 83810008 		lwz 28,8(1)
 271              		.cfi_restore 28
 272              		.loc 1 100 31 is_stmt 0 view .LVU88
 273 019c 389FFFC0 		addi 4,31,-64
 274              	.LVL21:
 275              		.loc 1 100 31 view .LVU89
 276 01a0 83A1000C 		lwz 29,12(1)
 277              		.cfi_restore 29
 278              	.LVL22:
 279              	.L17:
 280              		.loc 1 101 2 is_stmt 1 view .LVU90
 281              		.loc 1 101 2 is_stmt 0 view .LVU91
 282              	.LBE50:
 283              	.LBE49:
 284              		.loc 1 115 19 discriminator 1 view .LVU92
 285 01a4 90830000 		stw 4,_ZL15fwrite_location@l(3)
 286 01a8 4BFFFEA0 		b .L20
 287              	.LVL23:
 288              	.L13:
 289              	.LBB58:
 290              	.LBB48:
 291              	.LBB47:
 292              	.LBB46:
 293              	.LBB45:
 294              		.loc 1 29 3 is_stmt 1 view .LVU93
 295              	.LBE45:
 296              		.loc 1 22 2 discriminator 2 view .LVU94
 297 01ac 38C60004 		addi 6,6,4
 298              	.LVL24:
 299              		.loc 1 22 51 discriminator 1 view .LVU95
 300 01b0 7C062840 		cmplw 0,6,5
 301 01b4 4180FECC 		blt+ 0,.L10
 302 01b8 4BFFFF08 		b .L11
 303              	.LVL25:
 304              	.L18:
 305              		.cfi_offset 28, -16
 306              		.cfi_offset 29, -12
 307              		.loc 1 22 51 is_stmt 0 discriminator 1 view .LVU96
 308              	.LBE46:
 309              	.LBE47:
 310              	.LBE48:
 311              	.LBE58:
 312              	.LBB59:
 313              	.LBB57:
 314              	.LBB56:
 315              	.LBB55:
 316              		.loc 1 22 2 is_stmt 1 discriminator 2 view .LVU97
 317 01bc 3BFF0004 		addi 31,31,4
 318              	.LVL26:
 319              		.loc 1 22 51 discriminator 1 view .LVU98
 320 01c0 7C1F5040 		cmplw 0,31,10
 321 01c4 4180FF5C 		blt+ 0,.L16
 322 01c8 83810008 		lwz 28,8(1)
 323              		.cfi_restore 28
 324 01cc 83A1000C 		lwz 29,12(1)
 325              		.cfi_restore 29
 326              	.LVL27:
 327              		.loc 1 22 51 is_stmt 0 discriminator 1 view .LVU99
 328              	.LBE55:
 329              	.LBE56:
 330              		.loc 1 101 2 is_stmt 1 view .LVU100
 331              		.loc 1 101 2 is_stmt 0 view .LVU101
 332              	.LBE57:
 333              	.LBE59:
 334              		.loc 1 115 19 discriminator 1 view .LVU102
 335 01d0 90830000 		stw 4,_ZL15fwrite_location@l(3)
 336 01d4 4BFFFE74 		b .L20
 337              	.LVL28:
 338              	.L43:
 339              	.LBB60:
 340              	.LBB61:
 341              	.LBB62:
 342              	.LBB63:
 343              	.LBB64:
 344              		.loc 1 22 51 is_stmt 1 discriminator 1 view .LVU103
 345              		.loc 1 22 74 is_stmt 0 discriminator 1 view .LVU104
 346 01d8 38BEFED0 		addi 5,30,-304
 347 01dc 3C800000 		lis 4,_ZZL12FindIosIoctlPcjE6findme-4@ha
 348 01e0 7CBF2A14 		add 5,31,5
 349 01e4 38840000 		la 4,_ZZL12FindIosIoctlPcjE6findme-4@l(4)
 350              		.loc 1 22 51 discriminator 1 view .LVU105
 351 01e8 7C1F2840 		cmplw 0,31,5
 352              		.loc 1 22 12 view .LVU106
 353 01ec 7FE6FB78 		mr 6,31
 354              		.loc 1 22 51 discriminator 1 view .LVU107
 355 01f0 4080004C 		bge- 0,.L41
 356              	.LVL29:
 357              	.L4:
 358              	.LBB65:
 359              	.LBB66:
 360              		.loc 1 25 37 is_stmt 1 discriminator 1 view .LVU108
 361              	.LBE66:
 362              		.loc 1 24 7 is_stmt 0 view .LVU109
 363 01f4 3940004C 		li 10,76
 364 01f8 7C882378 		mr 8,4
 365 01fc 39200000 		li 9,0
 366 0200 7D4903A6 		mtctr 10
 367              	.LVL30:
 368              	.L8:
 369              	.LBB67:
 370              		.loc 1 26 4 is_stmt 1 view .LVU110
 371              		.loc 1 25 72 discriminator 2 view .LVU111
 372              		.loc 1 26 17 is_stmt 0 view .LVU112
 373 0204 85480004 		lwzu 10,4(8)
 374              		.loc 1 26 31 discriminator 1 view .LVU113
 375 0208 5527103A 		slwi 7,9,2
 376              		.loc 1 25 72 discriminator 2 view .LVU114
 377 020c 39290001 		addi 9,9,1
 378              	.LVL31:
 379              		.loc 1 25 37 is_stmt 1 discriminator 1 view .LVU115
 380              		.loc 1 26 4 is_stmt 0 view .LVU116
 381 0210 280A0010 		cmplwi 0,10,16
 382 0214 40810010 		ble- 0,.L6
 383              		.loc 1 26 27 discriminator 1 view .LVU117
 384 0218 7CE6382E 		lwzx 7,6,7
 385 021c 7C0A3800 		cmpw 0,10,7
 386 0220 40820010 		bne- 0,.L7
 387              	.L6:
 388              		.loc 1 25 37 discriminator 1 view .LVU118
 389 0224 4200FFE0 		bdnz .L8
 390              	.LVL32:
 391              		.loc 1 25 37 discriminator 1 view .LVU119
 392              	.LBE67:
 393              	.LBE65:
 394              	.LBE64:
 395              	.LBE63:
 396              	.LBE62:
 397              	.LBE61:
 398              	.LBE60:
 399              		.loc 1 111 21 discriminator 1 view .LVU120
 400 0228 90C30000 		stw 6,_ZL17iosioctl_location@l(3)
 401 022c 4BFFFE0C 		b .L3
 402              	.LVL33:
 403              	.L7:
 404              	.LBB73:
 405              	.LBB72:
 406              	.LBB71:
 407              	.LBB70:
 408              	.LBB69:
 409              	.LBB68:
 410              		.loc 1 29 3 is_stmt 1 view .LVU121
 411              	.LBE68:
 412              		.loc 1 22 2 discriminator 2 view .LVU122
 413 0230 38C60004 		addi 6,6,4
 414              	.LVL34:
 415              		.loc 1 22 51 discriminator 1 view .LVU123
 416 0234 7C062840 		cmplw 0,6,5
 417 0238 4180FFBC 		blt+ 0,.L4
 418              	.LVL35:
 419              	.L41:
 420              		.loc 1 22 51 is_stmt 0 discriminator 1 view .LVU124
 421              	.LBE69:
 422              		.loc 1 32 9 view .LVU125
 423 023c 38C00000 		li 6,0
 424              	.LVL36:
 425              		.loc 1 32 9 view .LVU126
 426              	.LBE70:
 427              	.LBE71:
 428              	.LBE72:
 429              	.LBE73:
 430              		.loc 1 111 21 discriminator 1 view .LVU127
 431 0240 90C30000 		stw 6,_ZL17iosioctl_location@l(3)
 432 0244 4BFFFDF4 		b .L3
 433              	.L22:
 434              		.loc 1 108 11 view .LVU128
 435 0248 3860FFFF 		li 3,-1
 436 024c 4BFFFE00 		b .L1
 437              		.cfi_endproc
 438              	.LFE1339:
 439              		.size	_Z24Fwrite_FindPatchLocationPcj, .-_Z24Fwrite_FindPatchLocationPcj
 440              		.section	.text._Z12Fwrite_Patchv,"ax",@progbits
 441              		.align 2
 442              		.globl _Z12Fwrite_Patchv
 443              		.type	_Z12Fwrite_Patchv, @function
 444              	_Z12Fwrite_Patchv:
 445              	.LFB1340:
 446              		.loc 1 121 1 is_stmt 1 view -0
 447              		.cfi_startproc
 448              		.loc 1 122 2 view .LVU130
 449              		.loc 1 121 1 is_stmt 0 view .LVU131
 450 0000 9421FFD0 		stwu 1,-48(1)
 451              		.cfi_def_cfa_offset 48
 452 0004 7C0802A6 		mflr 0
 453 0008 90010034 		stw 0,52(1)
 454              		.cfi_offset 65, 4
 455              		.loc 1 122 19 view .LVU132
 456 000c 48000001 		bl File_GetLogFS
 457              	.LVL37:
 458              		.loc 1 122 48 discriminator 1 view .LVU133
 459 0010 2C030000 		cmpwi 0,3,0
 460 0014 418000E8 		blt- 0,.L46
 461 0018 93E1002C 		stw 31,44(1)
 462              		.cfi_offset 31, -4
 463              		.loc 1 122 29 discriminator 3 view .LVU134
 464 001c 3FE00000 		lis 31,_ZL17iosioctl_location@ha
 465              		.loc 1 122 26 discriminator 3 view .LVU135
 466 0020 813F0000 		lwz 9,_ZL17iosioctl_location@l(31)
 467 0024 2C090000 		cmpwi 0,9,0
 468 0028 418200DC 		beq- 0,.L47
 469 002c 93C10028 		stw 30,40(1)
 470              		.cfi_offset 30, -8
 471              		.loc 1 122 51 discriminator 5 view .LVU136
 472 0030 3FC00000 		lis 30,_ZL15fwrite_location@ha
 473              		.loc 1 122 48 discriminator 5 view .LVU137
 474 0034 813E0000 		lwz 9,_ZL15fwrite_location@l(30)
 475 0038 2C090000 		cmpwi 0,9,0
 476 003c 418200B0 		beq- 0,.L48
 477              		.loc 1 125 2 is_stmt 1 view .LVU138
 478              		.loc 1 125 6 is_stmt 0 view .LVU139
 479 0040 3D400000 		lis 10,.LANCHOR0@ha
 480 0044 392A0000 		la 9,.LANCHOR0@l(10)
 481 0048 808A0000 		lwz 4,.LANCHOR0@l(10)
 482 004c 80A90004 		lwz 5,4(9)
 483 0050 80C90008 		lwz 6,8(9)
 484 0054 80E9000C 		lwz 7,12(9)
 485 0058 81090010 		lwz 8,16(9)
 486 005c 81490014 		lwz 10,20(9)
 487 0060 81290018 		lwz 9,24(9)
 488 0064 90810008 		stw 4,8(1)
 489 0068 90A1000C 		stw 5,12(1)
 490 006c 90C10010 		stw 6,16(1)
 491 0070 90E10014 		stw 7,20(1)
 492 0074 91010018 		stw 8,24(1)
 493 0078 9141001C 		stw 10,28(1)
 494 007c 91210020 		stw 9,32(1)
 495              		.loc 1 136 2 is_stmt 1 view .LVU140
 496              		.loc 1 136 35 is_stmt 0 view .LVU141
 497 0080 48000001 		bl File_Init
 498              	.LVL38:
 499              		.loc 1 138 56 view .LVU142
 500 0084 813E0000 		lwz 9,_ZL15fwrite_location@l(30)
 501              		.loc 1 136 24 discriminator 1 view .LVU143
 502 0088 64683860 		oris 8,3,0x3860
 503              		.loc 1 138 2 is_stmt 1 view .LVU144
 504              		.loc 1 138 53 is_stmt 0 view .LVU145
 505 008c 80FF0000 		lwz 7,_ZL17iosioctl_location@l(31)
 506              		.loc 1 142 9 view .LVU146
 507 0090 38600000 		li 3,0
 508              		.loc 1 138 77 view .LVU147
 509 0094 39490018 		addi 10,9,24
 510              		.loc 1 140 8 view .LVU148
 511 0098 81610008 		lwz 11,8(1)
 512              		.loc 1 138 53 view .LVU149
 513 009c 7D4A3850 		subf 10,10,7
 514              		.loc 1 140 8 view .LVU150
 515 00a0 8081000C 		lwz 4,12(1)
 516 00a4 80A10010 		lwz 5,16(1)
 517              		.loc 1 138 86 view .LVU151
 518 00a8 554A01BE 		rlwinm 10,10,0,6,31
 519              		.loc 1 140 8 view .LVU152
 520 00ac 80C10014 		lwz 6,20(1)
 521              		.loc 1 138 26 view .LVU153
 522 00b0 654A4800 		oris 10,10,0x4800
 523              		.loc 1 140 2 is_stmt 1 view .LVU154
 524              		.loc 1 140 8 is_stmt 0 view .LVU155
 525 00b4 80E10018 		lwz 7,24(1)
 526 00b8 91090014 		stw 8,20(9)
 527 00bc 91490018 		stw 10,24(9)
 528              		.loc 1 142 2 is_stmt 1 view .LVU156
 529              		.loc 1 140 8 is_stmt 0 view .LVU157
 530 00c0 91690000 		stw 11,0(9)
 531 00c4 90890004 		stw 4,4(9)
 532 00c8 90A90008 		stw 5,8(9)
 533 00cc 90C9000C 		stw 6,12(9)
 534 00d0 90E90010 		stw 7,16(9)
 535              		.loc 1 142 9 view .LVU158
 536 00d4 83C10028 		lwz 30,40(1)
 537              		.cfi_restore 30
 538 00d8 83E1002C 		lwz 31,44(1)
 539              		.cfi_restore 31
 540              	.L44:
 541              		.loc 1 143 1 view .LVU159
 542 00dc 80010034 		lwz 0,52(1)
 543 00e0 38210030 		addi 1,1,48
 544              		.cfi_def_cfa_offset 0
 545 00e4 7C0803A6 		mtlr 0
 546              		.cfi_restore 65
 547 00e8 4E800020 		blr
 548              	.L48:
 549              		.cfi_def_cfa_offset 48
 550              		.cfi_offset 30, -8
 551              		.cfi_offset 31, -4
 552              		.cfi_offset 65, 4
 553              		.loc 1 123 11 view .LVU160
 554 00ec 83C10028 		lwz 30,40(1)
 555              		.cfi_restore 30
 556 00f0 3860FFFF 		li 3,-1
 557 00f4 83E1002C 		lwz 31,44(1)
 558              		.cfi_restore 31
 559 00f8 4BFFFFE4 		b .L44
 560              	.L46:
 561 00fc 3860FFFF 		li 3,-1
 562 0100 4BFFFFDC 		b .L44
 563              	.L47:
 564              		.cfi_offset 31, -4
 565 0104 83E1002C 		lwz 31,44(1)
 566              		.cfi_restore 31
 567 0108 3860FFFF 		li 3,-1
 568 010c 4BFFFFD0 		b .L44
 569              		.cfi_endproc
 570              	.LFE1340:
 571              		.size	_Z12Fwrite_Patchv, .-_Z12Fwrite_Patchv
 572              		.section	.rodata._Z21Fwrite_GetMemoryPatchv.str1.4,"aMS",@progbits,1
 573              		.align 2
 574              	.LC1:
 575 0000 3C6D656D 		.string	"<memory offset=\"0x%08X\" value=\"388000617CA62B787C651B7838E0000039000000%08X%08X\" />\n
 575      6F727920 
 575      6F666673 
 575      65743D22 
 575      30782530 
 576              		.section	.text._Z21Fwrite_GetMemoryPatchv,"ax",@progbits
 577              		.align 2
 578              		.globl _Z21Fwrite_GetMemoryPatchv
 579              		.type	_Z21Fwrite_GetMemoryPatchv, @function
 580              	_Z21Fwrite_GetMemoryPatchv:
 581              	.LFB1341:
 582              		.loc 1 148 1 is_stmt 1 view -0
 583              		.cfi_startproc
 584              		.loc 1 149 2 view .LVU162
 585              	.LVL39:
 586              		.loc 1 158 2 view .LVU163
 587              		.loc 1 148 1 is_stmt 0 view .LVU164
 588 0000 9421FF70 		stwu 1,-144(1)
 589              		.cfi_def_cfa_offset 144
 590 0004 7C0802A6 		mflr 0
 591 0008 90010094 		stw 0,148(1)
 592              		.cfi_offset 65, 4
 593              		.loc 1 158 19 view .LVU165
 594 000c 48000001 		bl File_GetLogFS
 595              	.LVL40:
 596              		.loc 1 158 46 discriminator 1 view .LVU166
 597 0010 2C030000 		cmpwi 0,3,0
 598 0014 4180009C 		blt- 0,.L52
 599 0018 93E1008C 		stw 31,140(1)
 600              		.cfi_offset 31, -4
 601              		.loc 1 158 29 discriminator 3 view .LVU167
 602 001c 3FE00000 		lis 31,_ZL15fwrite_location@ha
 603              		.loc 1 158 26 discriminator 3 view .LVU168
 604 0020 813F0000 		lwz 9,_ZL15fwrite_location@l(31)
 605 0024 2C090000 		cmpwi 0,9,0
 606 0028 41820090 		beq- 0,.L53
 607 002c 93C10088 		stw 30,136(1)
 608              		.cfi_offset 30, -8
 609              		.loc 1 158 49 discriminator 5 view .LVU169
 610 0030 3FC00000 		lis 30,_ZL17iosioctl_location@ha
 611              		.loc 1 158 46 discriminator 5 view .LVU170
 612 0034 813E0000 		lwz 9,_ZL17iosioctl_location@l(30)
 613 0038 2C090000 		cmpwi 0,9,0
 614 003c 41820064 		beq- 0,.L54
 615              		.loc 1 162 2 is_stmt 1 view .LVU171
 616              		.loc 1 162 35 is_stmt 0 view .LVU172
 617 0040 48000001 		bl File_Init
 618              	.LVL41:
 619              		.loc 1 164 2 is_stmt 1 view .LVU173
 620              		.loc 1 164 56 is_stmt 0 view .LVU174
 621 0044 80BF0000 		lwz 5,_ZL15fwrite_location@l(31)
 622              	.LVL42:
 623              		.loc 1 166 2 is_stmt 1 view .LVU175
 624              		.loc 1 167 2 view .LVU176
 625              		.loc 1 164 53 is_stmt 0 view .LVU177
 626 0048 813E0000 		lwz 9,_ZL17iosioctl_location@l(30)
 627              		.loc 1 167 9 view .LVU178
 628 004c 3C800000 		lis 4,.LC1@ha
 629              		.loc 1 164 77 view .LVU179
 630 0050 38E50018 		addi 7,5,24
 631              		.loc 1 167 9 view .LVU180
 632 0054 64663860 		oris 6,3,0x3860
 633              	.LVL43:
 634              		.loc 1 164 53 view .LVU181
 635 0058 7CE74850 		subf 7,7,9
 636              		.loc 1 167 9 view .LVU182
 637 005c 38840000 		la 4,.LC1@l(4)
 638              		.loc 1 164 86 view .LVU183
 639 0060 54E701BE 		rlwinm 7,7,0,6,31
 640              		.loc 1 167 9 view .LVU184
 641 0064 38610008 		addi 3,1,8
 642 0068 64E74800 		oris 7,7,0x4800
 643 006c 4CC63182 		crxor 6,6,6
 644 0070 48000001 		bl sprintf
 645              	.LVL44:
 646              		.loc 1 168 2 is_stmt 1 view .LVU185
 647              		.loc 1 168 35 is_stmt 0 view .LVU186
 648 0074 38610008 		addi 3,1,8
 649 0078 48000001 		bl strlen
 650              	.LVL45:
 651 007c 7C641B78 		mr 4,3
 652              		.loc 1 168 17 discriminator 1 view .LVU187
 653 0080 38610008 		addi 3,1,8
 654 0084 48000001 		bl File_Log
 655              	.LVL46:
 656 0088 83C10088 		lwz 30,136(1)
 657              		.cfi_restore 30
 658 008c 83E1008C 		lwz 31,140(1)
 659              		.cfi_restore 31
 660              	.LVL47:
 661              	.L50:
 662              		.loc 1 170 1 view .LVU188
 663 0090 80010094 		lwz 0,148(1)
 664 0094 38210090 		addi 1,1,144
 665              		.cfi_def_cfa_offset 0
 666 0098 7C0803A6 		mtlr 0
 667              		.cfi_restore 65
 668 009c 4E800020 		blr
 669              	.LVL48:
 670              	.L54:
 671              		.cfi_def_cfa_offset 144
 672              		.cfi_offset 30, -8
 673              		.cfi_offset 31, -4
 674              		.cfi_offset 65, 4
 675              		.loc 1 159 11 view .LVU189
 676 00a0 83C10088 		lwz 30,136(1)
 677              		.cfi_restore 30
 678 00a4 3860FFFF 		li 3,-1
 679              	.LVL49:
 680              		.loc 1 159 11 view .LVU190
 681 00a8 83E1008C 		lwz 31,140(1)
 682              		.cfi_restore 31
 683 00ac 4BFFFFE4 		b .L50
 684              	.LVL50:
 685              	.L52:
 686              		.loc 1 159 11 view .LVU191
 687 00b0 3860FFFF 		li 3,-1
 688 00b4 4BFFFFDC 		b .L50
 689              	.L53:
 690              		.cfi_offset 31, -4
 691 00b8 83E1008C 		lwz 31,140(1)
 692              		.cfi_restore 31
 693 00bc 3860FFFF 		li 3,-1
 694 00c0 4BFFFFD0 		b .L50
 695              		.cfi_endproc
 696              	.LFE1341:
 697              		.size	_Z21Fwrite_GetMemoryPatchv, .-_Z21Fwrite_GetMemoryPatchv
 698              		.section	.rodata._ZZL10FindFwritePcjE6findme,"a"
 699              		.align 2
 700              		.type	_ZZL10FindFwritePcjE6findme, @object
 701              		.size	_ZZL10FindFwritePcjE6findme, 776
 702              	_ZZL10FindFwritePcjE6findme:
 703 0000 9421FFD0 		.long	-1809711152
 704 0004 7C0802A6 		.long	2080899750
 705 0008 90010034 		.long	-1878982604
 706 000c BF210014 		.long	-1088356332
 707 0010 7C9B2378 		.long	2090541944
 708 0014 7CDC3378 		.long	2094805880
 709 0018 7C7A1B78 		.long	2088377208
 710 001c 7CB92B78 		.long	2092510072
 711 0020 38800000 		.long	947912704
 712 0024 7F83E378 		.long	2139349880
 713 0028 00000000 		.long	0
 714 002c 2C030000 		.long	738394112
 715 0030 40820010 		.long	1082261520
 716 0034 7F83E378 		.long	2139349880
 717 0038 00000000 		.long	0
 718 003c 00000000 		.long	0
 719 0040 00000000 		.long	0
 720 0044 4182001C 		.long	1099038748
 721 0048 881C000A 		.long	-2011430902
 722 004c 2C000000 		.long	738197504
 723 0050 40820010 		.long	1082261520
 724 0054 801C0004 		.long	-2145648636
 725 0058 00000000 		.long	0
 726 005c 4082000C 		.long	1082261516
 727 0060 38600000 		.long	945815552
 728 0064 48000290 		.long	1207960208
 729 0068 28000002 		.long	671088642
 730 006c 40820008 		.long	1082261512
 731 0070 00000000 		.long	0
 732 0074 807C0004 		.long	-2139357180
 733 0078 00000000 		.long	0
 734 007c 38800000 		.long	947912704
 735 0080 00000000 		.long	0
 736 0084 41820010 		.long	1099038736
 737 0088 54603FBE 		.long	1415593918
 738 008c 28000002 		.long	671088642
 739 0090 40820008 		.long	1082261512
 740 0094 00000000 		.long	0
 741 0098 2C040000 		.long	738459648
 742 009c 40820018 		.long	1082261528
 743 00a0 801C0004 		.long	-2145648636
 744 00a4 54003FBE 		.long	1409302462
 745 00a8 00000000 		.long	0
 746 00ac 41820008 		.long	1099038728
 747 00b0 3BE00000 		.long	1004535808
 748 00b4 801C0008 		.long	-2145648632
 749 00b8 00000000 		.long	0
 750 00bc 40820054 		.long	1082261588
 751 00c0 807C0004 		.long	-2139357180
 752 00c4 00000000 		.long	0
 753 00c8 54602F7E 		.long	1415589758
 754 00cc 41820044 		.long	1099038788
 755 00d0 00000000 		.long	0
 756 00d4 41820024 		.long	1099038756
 757 00d8 7F83E378 		.long	2139349880
 758 00dc 38800000 		.long	947912704
 759 00e0 38A00002 		.long	950009858
 760 00e4 00000000 		.long	0
 761 00e8 2C030000 		.long	738394112
 762 00ec 4182000C 		.long	1099038732
 763 00f0 38600000 		.long	945815552
 764 00f4 48000200 		.long	1207960064
 765 00f8 801C0008 		.long	-2145648632
 766 00fc 00000000 		.long	0
 767 0100 5060E804 		.long	1348528132
 768 0104 901C0008 		.long	-1877213176
 769 0108 7F83E378 		.long	2139349880
 770 010c 00000000 		.long	0
 771 0110 801C0008 		.long	-2145648632
 772 0114 54001F7E 		.long	1409294206
 773 0118 00000000 		.long	0
 774 011c 4182001C 		.long	1099038748
 775 0120 00000000 		.long	0
 776 0124 38000000 		.long	939524096
 777 0128 987C000A 		.long	-1736703990
 778 012c 38600000 		.long	945815552
 779 0130 901C0028 		.long	-1877213144
 780 0134 480001C0 		.long	1207960000
 781 0138 2C1E0000 		.long	740163584
 782 013c 3BA00000 		.long	1000341504
 783 0140 41820128 		.long	1099039016
 784 0144 807C001C 		.long	-2139357156
 785 0148 809C0024 		.long	-2137259996
 786 014c 7C041840 		.long	2080643136
 787 0150 4082000C 		.long	1082261516
 788 0154 2C1F0000 		.long	740229120
 789 0158 41820110 		.long	1099038992
 790 015c 801C0020 		.long	-2145648608
 791 0160 7C632050 		.long	2086871120
 792 0164 7C030050 		.long	2080571472
 793 0168 901C0028 		.long	-1877213144
 794 016c 80BC0028 		.long	-2135162840
 795 0170 3B200000 		.long	991952896
 796 0174 00000009 		.long	9
 797 0178 00000009 		.long	9
 798 017c 4081000C 		.long	1082195980
 799 0180 7FC5F378 		.long	2143679352
 800 0184 93C10008 		.long	-1816068088
 801 0188 801C0004 		.long	-2145648636
 802 018c 54003FBE 		.long	1409302462
 803 0190 00000000 		.long	0
 804 0194 40820030 		.long	1082261552
 805 0198 2C050000 		.long	738525184
 806 019c 41820028 		.long	1099038760
 807 01a0 7F43D378 		.long	2135151480
 808 01a4 3880000A 		.long	947912714
 809 01a8 00000000 		.long	0
 810 01ac 2C030000 		.long	738394112
 811 01b0 7C791B78 		.long	2088311672
 812 01b4 41820010 		.long	1099038736
 813 01b8 00000000 		.long	0
 814 01bc 7CBA0050 		.long	2092564560
 815 01c0 90A10008 		.long	-1868496888
 816 01c4 80A10008 		.long	-2136932344
 817 01c8 2C050000 		.long	738525184
 818 01cc 41820038 		.long	1099038776
 819 01d0 807C0024 		.long	-2139357148
 820 01d4 7F44D378 		.long	2135217016
 821 01d8 00000000 		.long	0
 822 01dc 80810008 		.long	-2139029496
 823 01e0 807C0024 		.long	-2139357148
 824 01e4 801C0028 		.long	-2145648600
 825 01e8 7F5A2214 		.long	2136613396
 826 01ec 7C632214 		.long	2086871572
 827 01f0 00000009 		.long	9
 828 01f4 00000009 		.long	9
 829 01f8 80610008 		.long	-2141126648
 830 01fc 7C030050 		.long	2080571472
 831 0200 901C0028 		.long	-1877213144
 832 0204 801C0028 		.long	-2145648600
 833 0208 2C000000 		.long	738197504
 834 020c 41820018 		.long	1099038744
 835 0210 2C190000 		.long	739835904
 836 0214 40820010 		.long	1082261520
 837 0218 801C0004 		.long	-2145648636
 838 021c 00000000 		.long	0
 839 0220 40820030 		.long	1082261552
 840 0224 7F83E378 		.long	2139349880
 841 0228 38800000 		.long	947912704
 842 022c 00000000 		.long	0
 843 0230 2C030000 		.long	738394112
 844 0234 4182001C 		.long	1099038748
 845 0238 00000000 		.long	0
 846 023c 38000000 		.long	939524096
 847 0240 987C000A 		.long	-1736703990
 848 0244 3BC00000 		.long	1002438656
 849 0248 901C0028 		.long	-1877213144
 850 024c 4800001C 		.long	1207959580
 851 0250 80010008 		.long	-2147418104
 852 0254 2C1E0000 		.long	740163584
 853 0258 7FBD0214 		.long	2143093268
 854 025c 4182000C 		.long	1099038732
 855 0260 2C1F0000 		.long	740229120
 856 0264 4082FF08 		.long	1082326792
 857 0268 2C1E0000 		.long	740163584
 858 026c 4182006C 		.long	1099038828
 859 0270 2C1F0000 		.long	740229120
 860 0274 40820064 		.long	1082261604
 861 0278 833C001C 		.long	-2093219812
 862 027c 7C1AF214 		.long	2082140692
 863 0280 83FC0020 		.long	-2080636896
 864 0284 7F83E378 		.long	2139349880
 865 0288 935C001C 		.long	-1822687204
 866 028c 38810008 		.long	947978248
 867 0290 93DC0020 		.long	-1814298592
 868 0294 901C0024 		.long	-1877213148
 869 0298 00000000 		.long	0
 870 029c 2C030000 		.long	738394112
 871 02a0 41820018 		.long	1099038744
 872 02a4 00000000 		.long	0
 873 02a8 38000000 		.long	939524096
 874 02ac 987C000A 		.long	-1736703990
 875 02b0 901C0028 		.long	-1877213144
 876 02b4 4800000C 		.long	1207959564
 877 02b8 80010008 		.long	-2147418104
 878 02bc 7FBD0214 		.long	2143093268
 879 02c0 933C001C 		.long	-1824784356
 880 02c4 7F83E378 		.long	2139349880
 881 02c8 93FC0020 		.long	-1812201440
 882 02cc 00000000 		.long	0
 883 02d0 38000000 		.long	939524096
 884 02d4 901C0028 		.long	-1877213144
 885 02d8 801C0004 		.long	-2145648636
 886 02dc 54003FBE 		.long	1409302462
 887 02e0 28000002 		.long	671088642
 888 02e4 4182000C 		.long	1099038732
 889 02e8 38000000 		.long	939524096
 890 02ec 901C0028 		.long	-1877213144
 891 02f0 7C7DDB96 		.long	2088622998
 892 02f4 BB210014 		.long	-1155465196
 893 02f8 80010034 		.long	-2147418060
 894 02fc 7C0803A6 		.long	2080900006
 895 0300 38210030 		.long	941686832
 896 0304 4E800020 		.long	1317011488
 897              		.section	.rodata._ZZL12FindIosIoctlPcjE6findme,"a"
 898              		.align 2
 899              		.type	_ZZL12FindIosIoctlPcjE6findme, @object
 900              		.size	_ZZL12FindIosIoctlPcjE6findme, 304
 901              	_ZZL12FindIosIoctlPcjE6findme:
 902 0000 9421FFD0 		.long	-1809711152
 903 0004 7C0802A6 		.long	2080899750
 904 0008 90010034 		.long	-1878982604
 905 000c 39610030 		.long	962658352
 906 0010 00000000 		.long	0
 907 0014 34010008 		.long	872480776
 908 0018 7C791B78 		.long	2088311672
 909 001c 7C9A2378 		.long	2090476408
 910 0020 7CBB2B78 		.long	2092641144
 911 0024 7CDC3378 		.long	2094805880
 912 0028 7CFD3B78 		.long	2096970616
 913 002c 7D1E4378 		.long	2099135352
 914 0030 3BE00000 		.long	1004535808
 915 0034 4082000C 		.long	1082261516
 916 0038 3BE0FFFC 		.long	1004601340
 917 003c 4800004C 		.long	1207959628
 918 0040 00000001 		.long	1
 919 0044 38800040 		.long	947912768
 920 0048 38A00020 		.long	950009888
 921 004c 00000000 		.long	0
 922 0050 2C030000 		.long	738394112
 923 0054 90610008 		.long	-1872691192
 924 0058 4082000C 		.long	1082261516
 925 005c 3BE0FFEA 		.long	1004601322
 926 0060 48000028 		.long	1207959592
 927 0064 38A00000 		.long	950009856
 928 0068 00000009 		.long	9
 929 006c 00000009 		.long	9
 930 0070 80810008 		.long	-2139029496
 931 0074 90A40024 		.long	-1868300252
 932 0078 80810008 		.long	-2139029496
 933 007c 90A40028 		.long	-1868300248
 934 0080 90030000 		.long	-1878851584
 935 0084 93230008 		.long	-1826422776
 936 0088 2C1F0000 		.long	740229120
 937 008c 40820088 		.long	1082261640
 938 0090 80A10008 		.long	-2136932344
 939 0094 3BE00000 		.long	1004535808
 940 0098 2C050000 		.long	738525184
 941 009c 4082000C 		.long	1082261516
 942 00a0 3BE0FFFC 		.long	1004601340
 943 00a4 48000058 		.long	1207959640
 944 00a8 2C1D0000 		.long	740098048
 945 00ac 9345000C 		.long	-1824194548
 946 00b0 4182000C 		.long	1099038732
 947 00b4 3C1D8000 		.long	1008566272
 948 00b8 48000008 		.long	1207959560
 949 00bc 38000000 		.long	939524096
 950 00c0 90050018 		.long	-1878720488
 951 00c4 2C1B0000 		.long	739966976
 952 00c8 93C5001C 		.long	-1815805924
 953 00cc 4182000C 		.long	1099038732
 954 00d0 3C1B8000 		.long	1008435200
 955 00d4 48000008 		.long	1207959560
 956 00d8 38000000 		.long	939524096
 957 00dc 90050010 		.long	-1878720496
 958 00e0 7F63DB78 		.long	2137250680
 959 00e4 7F84E378 		.long	2139415416
 960 00e8 93850014 		.long	-1820000236
 961 00ec 00000000 		.long	0
 962 00f0 7FA3EB78 		.long	2141449080
 963 00f4 7FC4F378 		.long	2143613816
 964 00f8 00000000 		.long	0
 965 00fc 2C1F0000 		.long	740229120
 966 0100 40820014 		.long	1082261524
 967 0104 80610008 		.long	-2141126648
 968 0108 38800000 		.long	947912704
 969 010c 00000000 		.long	0
 970 0110 7C7F1B78 		.long	2088704888
 971 0114 39610030 		.long	962658352
 972 0118 7FE3FB78 		.long	2145647480
 973 011c 00000000 		.long	0
 974 0120 80010034 		.long	-2147418060
 975 0124 7C0803A6 		.long	2080900006
 976 0128 38210030 		.long	941686832
 977 012c 4E800020 		.long	1317011488
 978              		.section	.bss._ZL15fwrite_location,"aw",@nobits
 979              		.align 2
 980              		.type	_ZL15fwrite_location, @object
 981              		.size	_ZL15fwrite_location, 4
 982              	_ZL15fwrite_location:
 983 0000 00000000 		.zero	4
 984              		.section	.bss._ZL17iosioctl_location,"aw",@nobits
 985              		.align 2
 986              		.type	_ZL17iosioctl_location, @object
 987              		.size	_ZL17iosioctl_location, 4
 988              	_ZL17iosioctl_location:
 989 0000 00000000 		.zero	4
 990              		.section	.rodata
 991              		.align 2
 992              		.set	.LANCHOR0,. + 0
 993              	.LC0:
 994 0000 38800061 		.long	947912801
 995 0004 7CA62B78 		.long	2091264888
 996 0008 7C651B78 		.long	2087000952
 997 000c 38E00000 		.long	954204160
 998 0010 39000000 		.long	956301312
 999 0014 38600004 		.long	945815556
 1000 0018 4BF4702C 		.long	1274310700
 1001              		.section	".text"
 1002              	.Letext0:
 1003              		.file 2 "C:/devkitPro/devkitPPC/powerpc-eabi/include/machine/_default_types.h"
 1004              		.file 3 "C:/devkitPro/devkitPPC/powerpc-eabi/include/sys/_stdint.h"
 1005              		.file 4 "C:/devkitPro/libogc/include/gctypes.h"
 1006              		.file 5 "C:/devkitPro/devkitPPC/lib/gcc/powerpc-eabi/13.1.0/include/stddef.h"
 1007              		.file 6 "C:/devkitPro/devkitPPC/powerpc-eabi/include/c++/13.1.0/type_traits"
 1008              		.file 7 "C:/devkitPro/devkitPPC/powerpc-eabi/include/c++/13.1.0/debug/debug.h"
 1009              		.file 8 "C:/devkitPro/devkitPPC/powerpc-eabi/include/c++/13.1.0/bits/predefined_ops.h"
 1010              		.file 9 "C:/devkitPro/devkitPPC/powerpc-eabi/include/c++/13.1.0/powerpc-eabi/bits/c++config.h"
 1011              		.file 10 "F:/GameModding/MarioKartWii/Mods/Distro/RetroRewind6/dev/Launcher/RRLauncher/launcher/in
 1012              		.file 11 "F:/GameModding/MarioKartWii/Mods/Distro/RetroRewind6/dev/Launcher/RRLauncher/filemodule/
 1013              		.file 12 "C:/devkitPro/devkitPPC/powerpc-eabi/include/string.h"
 1014              		.file 13 "C:/devkitPro/devkitPPC/powerpc-eabi/include/stdio.h"
 1015              		.file 14 "C:/devkitPro/devkitPPC/powerpc-eabi/include/c++/13.1.0/cstddef"
 1016              		.file 15 "C:/devkitPro/devkitPPC/powerpc-eabi/include/c++/13.1.0/bits/memory_resource.h"