   1              		.file	"gui_element.cpp"
   2              		.machine ppc
   3              		.section	".text"
   4              	.Ltext0:
   5              		.file 1 "F:/GameModding/MarioKartWii/Mods/Distro/RetroRewind6/dev/Launcher/RRLauncher/launcher/lib
   6              		.section	.text._ZN10GuiElementD2Ev,"ax",@progbits
   7              		.align 2
   8              		.globl _ZN10GuiElementD2Ev
   9              		.type	_ZN10GuiElementD2Ev, @function
  10              	_ZN10GuiElementD2Ev:
  11              	.LVL0:
  12              	.LFB2336:
  13              		.loc 1 59 1 view -0
  14              		.cfi_startproc
  15              		.loc 1 61 1 is_stmt 0 view .LVU1
  16 0000 4E800020 		blr
  17              		.cfi_endproc
  18              	.LFE2336:
  19              		.size	_ZN10GuiElementD2Ev, .-_ZN10GuiElementD2Ev
  20              		.globl _ZN10GuiElementD1Ev
  21              		.set	_ZN10GuiElementD1Ev,_ZN10GuiElementD2Ev
  22              		.section	.text._ZN10GuiElement10SetVisibleEb,"ax",@progbits
  23              		.align 2
  24              		.globl _ZN10GuiElement10SetVisibleEb
  25              		.type	_ZN10GuiElement10SetVisibleEb, @function
  26              	_ZN10GuiElement10SetVisibleEb:
  27              	.LVL1:
  28              	.LFB2355:
  29              		.loc 1 233 1 is_stmt 1 view -0
  30              		.cfi_startproc
  31              		.loc 1 234 2 view .LVU3
  32              		.loc 1 234 10 is_stmt 0 view .LVU4
  33 0000 98830004 		stb 4,4(3)
  34              		.loc 1 235 1 view .LVU5
  35 0004 4E800020 		blr
  36              		.cfi_endproc
  37              	.LFE2355:
  38              		.size	_ZN10GuiElement10SetVisibleEb, .-_ZN10GuiElement10SetVisibleEb
  39              		.section	.text._ZN10GuiElement8SetStateEii,"ax",@progbits
  40              		.align 2
  41              		.globl _ZN10GuiElement8SetStateEii
  42              		.type	_ZN10GuiElement8SetStateEii, @function
  43              	_ZN10GuiElement8SetStateEii:
  44              	.LVL2:
  45              	.LFB2362:
  46              		.loc 1 283 1 is_stmt 1 view -0
  47              		.cfi_startproc
  48              		.loc 1 284 2 view .LVU7
  49              		.loc 1 284 8 is_stmt 0 view .LVU8
  50 0000 90830068 		stw 4,104(3)
  51              		.loc 1 285 2 is_stmt 1 view .LVU9
  52              		.loc 1 285 12 is_stmt 0 view .LVU10
  53 0004 90A3006C 		stw 5,108(3)
  54              		.loc 1 286 1 view .LVU11
  55 0008 4E800020 		blr
  56              		.cfi_endproc
  57              	.LFE2362:
  58              		.size	_ZN10GuiElement8SetStateEii, .-_ZN10GuiElement8SetStateEii
  59              		.section	.text._ZN10GuiElement10ResetStateEv,"ax",@progbits
  60              		.align 2
  61              		.globl _ZN10GuiElement10ResetStateEv
  62              		.type	_ZN10GuiElement10ResetStateEv, @function
  63              	_ZN10GuiElement10ResetStateEv:
  64              	.LVL3:
  65              	.LFB2363:
  66              		.loc 1 289 1 is_stmt 1 view -0
  67              		.cfi_startproc
  68              		.loc 1 290 2 view .LVU13
  69 0000 81230068 		lwz 9,104(3)
  70 0004 2C090004 		cmpwi 0,9,4
  71 0008 4D820020 		beqlr- 0
  72              		.loc 1 292 3 view .LVU14
  73              		.loc 1 292 9 is_stmt 0 view .LVU15
  74 000c 39400000 		li 10,0
  75              		.loc 1 293 13 view .LVU16
  76 0010 3920FFFF 		li 9,-1
  77              		.loc 1 292 9 view .LVU17
  78 0014 91430068 		stw 10,104(3)
  79              		.loc 1 293 3 is_stmt 1 view .LVU18
  80              		.loc 1 293 13 is_stmt 0 view .LVU19
  81 0018 9123006C 		stw 9,108(3)
  82              		.loc 1 295 1 view .LVU20
  83 001c 4E800020 		blr
  84              		.cfi_endproc
  85              	.LFE2363:
  86              		.size	_ZN10GuiElement10ResetStateEv, .-_ZN10GuiElement10ResetStateEv
  87              		.section	.text._ZN10GuiElement8SetFocusEi,"ax",@progbits
  88              		.align 2
  89              		.globl _ZN10GuiElement8SetFocusEi
  90              		.type	_ZN10GuiElement8SetFocusEi, @function
  91              	_ZN10GuiElement8SetFocusEi:
  92              	.LVL4:
  93              	.LFB2370:
  94              		.loc 1 339 1 is_stmt 1 view -0
  95              		.cfi_startproc
  96              		.loc 1 340 2 view .LVU22
  97              		.loc 1 340 8 is_stmt 0 view .LVU23
  98 0000 90830008 		stw 4,8(3)
  99              		.loc 1 341 1 view .LVU24
 100 0004 4E800020 		blr
 101              		.cfi_endproc
 102              	.LFE2370:
 103              		.size	_ZN10GuiElement8SetFocusEi, .-_ZN10GuiElement8SetFocusEi
 104              		.section	.text._ZN10GuiElement6UpdateEP10GuiTrigger,"ax",@progbits
 105              		.align 2
 106              		.globl _ZN10GuiElement6UpdateEP10GuiTrigger
 107              		.type	_ZN10GuiElement6UpdateEP10GuiTrigger, @function
 108              	_ZN10GuiElement6UpdateEP10GuiTrigger:
 109              	.LVL5:
 110              	.LFB2381:
 111              		.loc 1 530 1 is_stmt 1 view -0
 112              		.cfi_startproc
 113              		.loc 1 531 2 view .LVU26
 114              		.loc 1 531 5 is_stmt 0 view .LVU27
 115 0000 81230080 		lwz 9,128(3)
 116              		.loc 1 531 2 view .LVU28
 117 0004 2C090000 		cmpwi 0,9,0
 118 0008 4D820020 		beqlr- 0
 119              		.loc 1 532 3 is_stmt 1 view .LVU29
 120              		.loc 1 532 11 is_stmt 0 view .LVU30
 121 000c 7D2903A6 		mtctr 9
 122 0010 4E800420 		bctr
 123              	.LVL6:
 124              		.loc 1 532 11 view .LVU31
 125              		.cfi_endproc
 126              	.LFE2381:
 127              		.size	_ZN10GuiElement6UpdateEP10GuiTrigger, .-_ZN10GuiElement6UpdateEP10GuiTrigger
 128              		.section	.text._ZN10GuiElement12SetAlignmentEii,"ax",@progbits
 129              		.align 2
 130              		.globl _ZN10GuiElement12SetAlignmentEii
 131              		.type	_ZN10GuiElement12SetAlignmentEii, @function
 132              	_ZN10GuiElement12SetAlignmentEii:
 133              	.LVL7:
 134              	.LFB2384:
 135              		.loc 1 547 1 is_stmt 1 view -0
 136              		.cfi_startproc
 137              		.loc 1 548 2 view .LVU33
 138              		.loc 1 548 15 is_stmt 0 view .LVU34
 139 0000 90830060 		stw 4,96(3)
 140              		.loc 1 549 2 is_stmt 1 view .LVU35
 141              		.loc 1 549 16 is_stmt 0 view .LVU36
 142 0004 90A30064 		stw 5,100(3)
 143              		.loc 1 550 1 view .LVU37
 144 0008 4E800020 		blr
 145              		.cfi_endproc
 146              	.LFE2384:
 147              		.size	_ZN10GuiElement12SetAlignmentEii, .-_ZN10GuiElement12SetAlignmentEii
 148              		.section	.text._ZN10GuiElement11GetSelectedEv,"ax",@progbits
 149              		.align 2
 150              		.globl _ZN10GuiElement11GetSelectedEv
 151              		.type	_ZN10GuiElement11GetSelectedEv, @function
 152              	_ZN10GuiElement11GetSelectedEv:
 153              	.LVL8:
 154              	.LFB2385:
 155              		.loc 1 553 1 is_stmt 1 view -0
 156              		.cfi_startproc
 157              		.loc 1 554 2 view .LVU39
 158              		.loc 1 555 1 is_stmt 0 view .LVU40
 159 0000 3860FFFF 		li 3,-1
 160              	.LVL9:
 161              		.loc 1 555 1 view .LVU41
 162 0004 4E800020 		blr
 163              		.cfi_endproc
 164              	.LFE2385:
 165              		.size	_ZN10GuiElement11GetSelectedEv, .-_ZN10GuiElement11GetSelectedEv
 166              		.section	.text._ZN10GuiElement4DrawEv,"ax",@progbits
 167              		.align 2
 168              		.globl _ZN10GuiElement4DrawEv
 169              		.type	_ZN10GuiElement4DrawEv, @function
 170              	_ZN10GuiElement4DrawEv:
 171              	.LVL10:
 172              	.LFB2386:
 173              		.loc 1 561 1 is_stmt 1 view -0
 174              		.cfi_startproc
 175              		.loc 1 562 1 is_stmt 0 view .LVU43
 176 0000 4E800020 		blr
 177              		.cfi_endproc
 178              	.LFE2386:
 179              		.size	_ZN10GuiElement4DrawEv, .-_ZN10GuiElement4DrawEv
 180              		.section	.text._ZN10GuiElementD0Ev,"ax",@progbits
 181              		.align 2
 182              		.globl _ZN10GuiElementD0Ev
 183              		.type	_ZN10GuiElementD0Ev, @function
 184              	_ZN10GuiElementD0Ev:
 185              	.LVL11:
 186              	.LFB2338:
 187              		.loc 1 59 1 is_stmt 1 view -0
 188              		.cfi_startproc
 189              	.LBB11:
 190              	.LBI11:
 191              		.loc 1 59 1 view .LVU45
 192              		.loc 1 59 1 is_stmt 0 view .LVU46
 193              	.LBE11:
 194              		.loc 1 61 1 discriminator 1 view .LVU47
 195 0000 38800084 		li 4,132
 196 0004 48000000 		b _ZdlPvj
 197              	.LVL12:
 198              		.loc 1 61 1 discriminator 1 view .LVU48
 199              		.cfi_endproc
 200              	.LFE2338:
 201              		.size	_ZN10GuiElementD0Ev, .-_ZN10GuiElementD0Ev
 202              		.section	.text._ZN10GuiElementC2Ev,"ax",@progbits
 203              		.align 2
 204              		.globl _ZN10GuiElementC2Ev
 205              		.type	_ZN10GuiElementC2Ev, @function
 206              	_ZN10GuiElementC2Ev:
 207              	.LVL13:
 208              	.LFB2333:
 209              		.loc 1 16 1 is_stmt 1 view -0
 210              		.cfi_startproc
 211              	.LBB12:
 212              		.loc 1 27 8 is_stmt 0 view .LVU50
 213 0000 3D400000 		lis 10,.LC0@ha
 214              		.loc 1 16 24 view .LVU51
 215 0004 3D000000 		lis 8,_ZTV10GuiElement+8@ha
 216              		.loc 1 27 8 view .LVU52
 217 0008 C00A0000 		lfs 0,.LC0@l(10)
 218              		.loc 1 18 10 view .LVU53
 219 000c 39200000 		li 9,0
 220              		.loc 1 38 8 view .LVU54
 221 0010 3940FFFF 		li 10,-1
 222              		.loc 1 33 9 view .LVU55
 223 0014 38E00001 		li 7,1
 224              		.loc 1 16 24 view .LVU56
 225 0018 39080000 		la 8,_ZTV10GuiElement+8@l(8)
 226              		.loc 1 26 8 view .LVU57
 227 001c 388000FF 		li 4,255
 228              		.loc 1 52 16 view .LVU58
 229 0020 38A00003 		li 5,3
 230              		.loc 1 34 13 view .LVU59
 231 0024 38C00000 		li 6,0
 232              		.loc 1 16 24 view .LVU60
 233 0028 91030000 		stw 8,0(3)
 234              		.loc 1 18 2 is_stmt 1 view .LVU61
 235              		.loc 1 26 8 is_stmt 0 view .LVU62
 236 002c 90830034 		stw 4,52(3)
 237              		.loc 1 52 16 view .LVU63
 238 0030 90A30064 		stw 5,100(3)
 239              		.loc 1 18 10 view .LVU64
 240 0034 91230014 		stw 9,20(3)
 241              		.loc 1 19 2 is_stmt 1 view .LVU65
 242              		.loc 1 19 10 is_stmt 0 view .LVU66
 243 0038 91230018 		stw 9,24(3)
 244              		.loc 1 20 2 is_stmt 1 view .LVU67
 245              		.loc 1 20 7 is_stmt 0 view .LVU68
 246 003c 91230024 		stw 9,36(3)
 247              		.loc 1 21 2 is_stmt 1 view .LVU69
 248              		.loc 1 21 7 is_stmt 0 view .LVU70
 249 0040 91230028 		stw 9,40(3)
 250              		.loc 1 22 2 is_stmt 1 view .LVU71
 251              		.loc 1 22 7 is_stmt 0 view .LVU72
 252 0044 9123001C 		stw 9,28(3)
 253              		.loc 1 23 2 is_stmt 1 view .LVU73
 254              		.loc 1 23 7 is_stmt 0 view .LVU74
 255 0048 91230020 		stw 9,32(3)
 256              		.loc 1 24 2 is_stmt 1 view .LVU75
 257              		.loc 1 24 8 is_stmt 0 view .LVU76
 258 004c 9123000C 		stw 9,12(3)
 259              		.loc 1 25 2 is_stmt 1 view .LVU77
 260              		.loc 1 25 9 is_stmt 0 view .LVU78
 261 0050 91230010 		stw 9,16(3)
 262              		.loc 1 26 2 is_stmt 1 view .LVU79
 263              		.loc 1 27 2 view .LVU80
 264              		.loc 1 30 13 is_stmt 0 view .LVU81
 265 0054 91230074 		stw 9,116(3)
 266              		.loc 1 31 13 view .LVU82
 267 0058 91230078 		stw 9,120(3)
 268              		.loc 1 32 16 view .LVU83
 269 005c 9123007C 		stw 9,124(3)
 270              		.loc 1 39 11 view .LVU84
 271 0060 91230080 		stw 9,128(3)
 272              		.loc 1 40 13 view .LVU85
 273 0064 91230030 		stw 9,48(3)
 274              		.loc 1 41 13 view .LVU86
 275 0068 9123002C 		stw 9,44(3)
 276              		.loc 1 44 10 view .LVU87
 277 006c 91230048 		stw 9,72(3)
 278              		.loc 1 45 15 view .LVU88
 279 0070 9123004C 		stw 9,76(3)
 280              		.loc 1 46 15 view .LVU89
 281 0074 91230050 		stw 9,80(3)
 282              		.loc 1 47 14 view .LVU90
 283 0078 91230054 		stw 9,84(3)
 284              		.loc 1 48 19 view .LVU91
 285 007c 91230058 		stw 9,88(3)
 286              		.loc 1 49 19 view .LVU92
 287 0080 9123005C 		stw 9,92(3)
 288              		.loc 1 53 15 view .LVU93
 289 0084 91230060 		stw 9,96(3)
 290              		.loc 1 28 8 view .LVU94
 291 0088 91230068 		stw 9,104(3)
 292              		.loc 1 27 8 view .LVU95
 293 008c D0030038 		stfs 0,56(3)
 294              		.loc 1 28 2 is_stmt 1 view .LVU96
 295              		.loc 1 29 2 view .LVU97
 296              		.loc 1 30 2 view .LVU98
 297              		.loc 1 31 2 view .LVU99
 298              		.loc 1 32 2 view .LVU100
 299              		.loc 1 33 2 view .LVU101
 300              		.loc 1 43 11 is_stmt 0 view .LVU102
 301 0090 D0030040 		stfs 0,64(3)
 302              		.loc 1 33 9 view .LVU103
 303 0094 98E30044 		stb 7,68(3)
 304              		.loc 1 34 2 is_stmt 1 view .LVU104
 305              		.loc 1 35 2 view .LVU105
 306              		.loc 1 36 2 view .LVU106
 307              		.loc 1 37 2 view .LVU107
 308              		.loc 1 37 10 is_stmt 0 view .LVU108
 309 0098 98E30004 		stb 7,4(3)
 310              		.loc 1 38 2 is_stmt 1 view .LVU109
 311              		.loc 1 38 8 is_stmt 0 view .LVU110
 312 009c 91430008 		stw 10,8(3)
 313              		.loc 1 39 2 is_stmt 1 view .LVU111
 314              		.loc 1 40 2 view .LVU112
 315              		.loc 1 41 2 view .LVU113
 316              		.loc 1 42 2 view .LVU114
 317              		.loc 1 42 11 is_stmt 0 view .LVU115
 318 00a0 9143003C 		stw 10,60(3)
 319              		.loc 1 43 2 is_stmt 1 view .LVU116
 320              		.loc 1 44 2 view .LVU117
 321              		.loc 1 45 2 view .LVU118
 322              		.loc 1 46 2 view .LVU119
 323              		.loc 1 47 2 view .LVU120
 324              		.loc 1 48 2 view .LVU121
 325              		.loc 1 49 2 view .LVU122
 326              		.loc 1 52 2 view .LVU123
 327              		.loc 1 53 2 view .LVU124
 328              		.loc 1 29 12 is_stmt 0 view .LVU125
 329 00a4 9143006C 		stw 10,108(3)
 330              		.loc 1 34 13 view .LVU126
 331 00a8 B1230070 		sth 9,112(3)
 332              		.loc 1 36 11 view .LVU127
 333 00ac 98C30072 		stb 6,114(3)
 334              	.LBE12:
 335              		.loc 1 54 1 view .LVU128
 336 00b0 4E800020 		blr
 337              		.cfi_endproc
 338              	.LFE2333:
 339              		.size	_ZN10GuiElementC2Ev, .-_ZN10GuiElementC2Ev
 340              		.globl _ZN10GuiElementC1Ev
 341              		.set	_ZN10GuiElementC1Ev,_ZN10GuiElementC2Ev
 342              		.section	.text._ZN10GuiElement9SetParentEPS_,"ax",@progbits
 343              		.align 2
 344              		.globl _ZN10GuiElement9SetParentEPS_
 345              		.type	_ZN10GuiElement9SetParentEPS_, @function
 346              	_ZN10GuiElement9SetParentEPS_:
 347              	.LVL14:
 348              	.LFB2339:
 349              		.loc 1 64 1 is_stmt 1 view -0
 350              		.cfi_startproc
 351              		.loc 1 65 2 view .LVU130
 352              		.loc 1 65 16 is_stmt 0 view .LVU131
 353 0000 9083007C 		stw 4,124(3)
 354              		.loc 1 66 1 view .LVU132
 355 0004 4E800020 		blr
 356              		.cfi_endproc
 357              	.LFE2339:
 358              		.size	_ZN10GuiElement9SetParentEPS_, .-_ZN10GuiElement9SetParentEPS_
 359              		.section	.text._ZN10GuiElement9GetParentEv,"ax",@progbits
 360              		.align 2
 361              		.globl _ZN10GuiElement9GetParentEv
 362              		.type	_ZN10GuiElement9GetParentEv, @function
 363              	_ZN10GuiElement9GetParentEv:
 364              	.LVL15:
 365              	.LFB2340:
 366              		.loc 1 69 1 is_stmt 1 view -0
 367              		.cfi_startproc
 368              		.loc 1 70 2 view .LVU134
 369              		.loc 1 71 1 is_stmt 0 view .LVU135
 370 0000 8063007C 		lwz 3,124(3)
 371              	.LVL16:
 372              		.loc 1 71 1 view .LVU136
 373 0004 4E800020 		blr
 374              		.cfi_endproc
 375              	.LFE2340:
 376              		.size	_ZN10GuiElement9GetParentEv, .-_ZN10GuiElement9GetParentEv
 377              		.section	.text._ZN10GuiElement7GetLeftEv,"ax",@progbits
 378              		.align 2
 379              		.globl _ZN10GuiElement7GetLeftEv
 380              		.type	_ZN10GuiElement7GetLeftEv, @function
 381              	_ZN10GuiElement7GetLeftEv:
 382              	.LVL17:
 383              	.LFB2341:
 384              		.loc 1 79 1 is_stmt 1 view -0
 385              		.cfi_startproc
 386              		.loc 1 80 2 view .LVU138
 387              		.loc 1 81 2 view .LVU139
 388              		.loc 1 82 2 view .LVU140
 389              		.loc 1 84 2 view .LVU141
 390              		.loc 1 79 1 is_stmt 0 view .LVU142
 391 0000 9421FFD8 		stwu 1,-40(1)
 392              		.cfi_def_cfa_offset 40
 393 0004 93C10020 		stw 30,32(1)
 394              		.cfi_offset 30, -8
 395              		.loc 1 84 5 view .LVU143
 396 0008 83C3007C 		lwz 30,124(3)
 397              		.loc 1 79 1 view .LVU144
 398 000c 93E10024 		stw 31,36(1)
 399              		.cfi_offset 31, -4
 400 0010 7C7F1B78 		mr 31,3
 401              		.loc 1 84 2 view .LVU145
 402 0014 2C1E0000 		cmpwi 0,30,0
 403              		.loc 1 79 1 view .LVU146
 404 0018 93A1001C 		stw 29,28(1)
 405              		.cfi_offset 29, -12
 406              		.loc 1 84 2 view .LVU147
 407 001c 41820188 		beq- 0,.L41
 408 0020 93810018 		stw 28,24(1)
 409              		.cfi_offset 28, -16
 410              		.loc 1 86 3 is_stmt 1 view .LVU148
 411              	.LVL18:
 412              	.LBB29:
 413              	.LBI29:
 414              		.loc 1 188 5 view .LVU149
 415              	.LBB30:
 416              		.loc 1 190 2 view .LVU150
 417              	.LBE30:
 418              	.LBE29:
 419              	.LBB32:
 420              	.LBB33:
 421              		.loc 1 84 5 is_stmt 0 view .LVU151
 422 0024 839E007C 		lwz 28,124(30)
 423 0028 93610014 		stw 27,20(1)
 424              		.cfi_offset 27, -20
 425              		.loc 1 84 2 view .LVU152
 426 002c 2C1C0000 		cmpwi 0,28,0
 427              	.LBE33:
 428              	.LBE32:
 429              	.LBB69:
 430              	.LBB31:
 431              		.loc 1 190 9 view .LVU153
 432 0030 83BE000C 		lwz 29,12(30)
 433              	.LVL19:
 434              		.loc 1 190 9 view .LVU154
 435              	.LBE31:
 436              	.LBE69:
 437              		.loc 1 87 3 is_stmt 1 view .LVU155
 438              	.LBB70:
 439              	.LBI32:
 440              		.loc 1 78 5 view .LVU156
 441              	.LBB66:
 442              		.loc 1 80 2 view .LVU157
 443              		.loc 1 81 2 view .LVU158
 444              		.loc 1 82 2 view .LVU159
 445              		.loc 1 84 2 view .LVU160
 446 0034 418200D4 		beq- 0,.L42
 447 0038 93410010 		stw 26,16(1)
 448              		.cfi_offset 26, -24
 449              		.loc 1 86 3 view .LVU161
 450              	.LVL20:
 451              	.LBB34:
 452              	.LBI34:
 453              		.loc 1 188 5 view .LVU162
 454              	.LBB35:
 455              		.loc 1 190 2 view .LVU163
 456              	.LBE35:
 457              	.LBE34:
 458              	.LBB37:
 459              	.LBB38:
 460              		.loc 1 84 5 is_stmt 0 view .LVU164
 461 003c 835C007C 		lwz 26,124(28)
 462 0040 9321000C 		stw 25,12(1)
 463              		.cfi_offset 25, -28
 464              		.loc 1 84 2 view .LVU165
 465 0044 2C1A0000 		cmpwi 0,26,0
 466              	.LBE38:
 467              	.LBE37:
 468              	.LBB61:
 469              	.LBB36:
 470              		.loc 1 190 9 view .LVU166
 471 0048 837C000C 		lwz 27,12(28)
 472              	.LVL21:
 473              		.loc 1 190 9 view .LVU167
 474              	.LBE36:
 475              	.LBE61:
 476              		.loc 1 87 3 is_stmt 1 view .LVU168
 477              	.LBB62:
 478              	.LBI37:
 479              		.loc 1 78 5 view .LVU169
 480              	.LBB57:
 481              		.loc 1 80 2 view .LVU170
 482              		.loc 1 81 2 view .LVU171
 483              		.loc 1 82 2 view .LVU172
 484              		.loc 1 84 2 view .LVU173
 485 004c 418201C4 		beq- 0,.L43
 486              	.LBB39:
 487              	.LBB40:
 488              		.loc 1 84 5 is_stmt 0 view .LVU174
 489 0050 807A007C 		lwz 3,124(26)
 490              	.LVL22:
 491              		.loc 1 84 5 view .LVU175
 492 0054 93010008 		stw 24,8(1)
 493              		.cfi_offset 24, -32
 494              	.LBE40:
 495              	.LBE39:
 496              		.loc 1 86 3 is_stmt 1 view .LVU176
 497              	.LVL23:
 498              	.LBB49:
 499              	.LBI49:
 500              		.loc 1 188 5 view .LVU177
 501              	.LBB50:
 502              		.loc 1 190 2 view .LVU178
 503              	.LBE50:
 504              	.LBE49:
 505              	.LBB52:
 506              	.LBB45:
 507              		.loc 1 84 2 is_stmt 0 view .LVU179
 508 0058 2C030000 		cmpwi 0,3,0
 509              	.LBE45:
 510              	.LBE52:
 511              	.LBB53:
 512              	.LBB51:
 513              		.loc 1 190 9 view .LVU180
 514 005c 833A000C 		lwz 25,12(26)
 515              	.LVL24:
 516              		.loc 1 190 9 view .LVU181
 517              	.LBE51:
 518              	.LBE53:
 519              		.loc 1 87 3 is_stmt 1 view .LVU182
 520              	.LBB54:
 521              	.LBI39:
 522              		.loc 1 78 5 view .LVU183
 523              	.LBB46:
 524              		.loc 1 80 2 view .LVU184
 525              		.loc 1 81 2 view .LVU185
 526              		.loc 1 82 2 view .LVU186
 527              		.loc 1 84 2 view .LVU187
 528 0060 4182020C 		beq- 0,.L44
 529 0064 7C0802A6 		mflr 0
 530              		.cfi_register 65, 0
 531              	.LBB41:
 532              	.LBB42:
 533              		.loc 1 190 9 is_stmt 0 view .LVU188
 534 0068 8303000C 		lwz 24,12(3)
 535 006c 9001002C 		stw 0,44(1)
 536              		.cfi_offset 65, 4
 537              	.LBE42:
 538              	.LBE41:
 539              		.loc 1 86 3 is_stmt 1 view .LVU189
 540              	.LVL25:
 541              	.LBB44:
 542              	.LBI41:
 543              		.loc 1 188 5 view .LVU190
 544              	.LBB43:
 545              		.loc 1 190 2 view .LVU191
 546              		.loc 1 190 2 is_stmt 0 view .LVU192
 547              	.LBE43:
 548              	.LBE44:
 549              		.loc 1 87 3 is_stmt 1 view .LVU193
 550              		.loc 1 87 33 is_stmt 0 view .LVU194
 551 0070 48000001 		bl _ZN10GuiElement7GetLeftEv
 552              	.LVL26:
 553 0074 8001002C 		lwz 0,44(1)
 554 0078 7C691B78 		mr 9,3
 555              	.LVL27:
 556              		.loc 1 87 33 view .LVU195
 557 007c 7C0803A6 		mtlr 0
 558              		.cfi_restore 65
 559              	.LVL28:
 560              	.L24:
 561              		.loc 1 90 2 is_stmt 1 view .LVU196
 562              		.loc 1 90 13 is_stmt 0 view .LVU197
 563 0080 815A0048 		lwz 10,72(26)
 564              		.loc 1 90 2 view .LVU198
 565 0084 714A0030 		andi. 10,10,0x30
 566 0088 4182000C 		beq- 0,.L25
 567              		.loc 1 91 3 is_stmt 1 view .LVU199
 568              		.loc 1 91 9 is_stmt 0 view .LVU200
 569 008c 815A002C 		lwz 10,44(26)
 570              	.LVL29:
 571              		.loc 1 91 9 view .LVU201
 572 0090 7D295214 		add 9,9,10
 573              	.LVL30:
 574              	.L25:
 575              		.loc 1 93 2 is_stmt 1 view .LVU202
 576              		.loc 1 93 9 is_stmt 0 view .LVU203
 577 0094 815A0060 		lwz 10,96(26)
 578              		.loc 1 93 2 view .LVU204
 579 0098 2C0A0001 		cmpwi 0,10,1
 580 009c 418201DC 		beq- 0,.L26
 581 00a0 2C0A0002 		cmpwi 0,10,2
 582 00a4 418201E0 		beq- 0,.L27
 583              		.loc 1 80 6 view .LVU205
 584 00a8 314AFFFF 		addic 10,10,-1
 585 00ac 7D4A5110 		subfe 10,10,10
 586 00b0 7D295038 		and 9,9,10
 587              	.LVL31:
 588              	.L28:
 589              		.loc 1 105 2 is_stmt 1 view .LVU206
 590              		.loc 1 105 13 is_stmt 0 view .LVU207
 591 00b4 815A0014 		lwz 10,20(26)
 592              	.LBE46:
 593              	.LBE54:
 594 00b8 83010008 		lwz 24,8(1)
 595              		.cfi_restore 24
 596              	.LBB55:
 597              	.LBB47:
 598 00bc 7D295214 		add 9,9,10
 599              	.LVL32:
 600              	.L23:
 601              		.loc 1 105 13 view .LVU208
 602              	.LBE47:
 603              	.LBE55:
 604              		.loc 1 90 2 is_stmt 1 view .LVU209
 605              		.loc 1 90 13 is_stmt 0 view .LVU210
 606 00c0 815C0048 		lwz 10,72(28)
 607              		.loc 1 90 2 view .LVU211
 608 00c4 714A0030 		andi. 10,10,0x30
 609 00c8 4182000C 		beq- 0,.L29
 610              		.loc 1 91 3 is_stmt 1 view .LVU212
 611              		.loc 1 91 9 is_stmt 0 view .LVU213
 612 00cc 815C002C 		lwz 10,44(28)
 613              	.LVL33:
 614              		.loc 1 91 9 view .LVU214
 615 00d0 7D295214 		add 9,9,10
 616              	.LVL34:
 617              	.L29:
 618              		.loc 1 93 2 is_stmt 1 view .LVU215
 619              		.loc 1 93 9 is_stmt 0 view .LVU216
 620 00d4 815C0060 		lwz 10,96(28)
 621              		.loc 1 93 2 view .LVU217
 622 00d8 2C0A0001 		cmpwi 0,10,1
 623 00dc 41820184 		beq- 0,.L30
 624 00e0 2C0A0002 		cmpwi 0,10,2
 625 00e4 41820160 		beq- 0,.L31
 626              		.loc 1 80 6 view .LVU218
 627 00e8 314AFFFF 		addic 10,10,-1
 628 00ec 7D4A5110 		subfe 10,10,10
 629 00f0 7D295038 		and 9,9,10
 630              	.LVL35:
 631              	.L32:
 632              		.loc 1 105 2 is_stmt 1 view .LVU219
 633              		.loc 1 105 13 is_stmt 0 view .LVU220
 634 00f4 815C0014 		lwz 10,20(28)
 635              	.LBE57:
 636              	.LBE62:
 637 00f8 8321000C 		lwz 25,12(1)
 638              		.cfi_restore 25
 639 00fc 83410010 		lwz 26,16(1)
 640              		.cfi_restore 26
 641              	.LBB63:
 642              	.LBB58:
 643 0100 7D295214 		add 9,9,10
 644              	.LVL36:
 645              		.loc 1 105 13 view .LVU221
 646              	.LBE58:
 647              	.LBE63:
 648 0104 4800000C 		b .L22
 649              	.LVL37:
 650              	.L42:
 651              		.loc 1 82 6 view .LVU222
 652 0108 39200000 		li 9,0
 653              		.loc 1 81 6 view .LVU223
 654 010c 3B600000 		li 27,0
 655              	.LVL38:
 656              	.L22:
 657              		.loc 1 90 2 is_stmt 1 view .LVU224
 658              		.loc 1 90 13 is_stmt 0 view .LVU225
 659 0110 815E0048 		lwz 10,72(30)
 660              		.loc 1 90 2 view .LVU226
 661 0114 714A0030 		andi. 10,10,0x30
 662 0118 4182000C 		beq- 0,.L33
 663              		.loc 1 91 3 is_stmt 1 view .LVU227
 664              		.loc 1 91 9 is_stmt 0 view .LVU228
 665 011c 815E002C 		lwz 10,44(30)
 666              	.LVL39:
 667              		.loc 1 91 9 view .LVU229
 668 0120 7D295214 		add 9,9,10
 669              	.LVL40:
 670              	.L33:
 671              		.loc 1 93 2 is_stmt 1 view .LVU230
 672              		.loc 1 93 9 is_stmt 0 view .LVU231
 673 0124 815E0060 		lwz 10,96(30)
 674              		.loc 1 93 2 view .LVU232
 675 0128 2C0A0001 		cmpwi 0,10,1
 676 012c 418200F0 		beq- 0,.L34
 677 0130 2C0A0002 		cmpwi 0,10,2
 678 0134 418200F4 		beq- 0,.L35
 679              		.loc 1 80 6 view .LVU233
 680 0138 314AFFFF 		addic 10,10,-1
 681 013c 7D4A5110 		subfe 10,10,10
 682 0140 7D295038 		and 9,9,10
 683              	.LVL41:
 684              	.L36:
 685              		.loc 1 105 2 is_stmt 1 view .LVU234
 686              		.loc 1 105 13 is_stmt 0 view .LVU235
 687 0144 815E0014 		lwz 10,20(30)
 688              	.LBE66:
 689              	.LBE70:
 690 0148 83610014 		lwz 27,20(1)
 691              		.cfi_restore 27
 692 014c 83810018 		lwz 28,24(1)
 693              		.cfi_restore 28
 694              	.LBB71:
 695              	.LBB67:
 696 0150 7D295214 		add 9,9,10
 697              	.LVL42:
 698              	.L21:
 699              		.loc 1 105 13 view .LVU236
 700              	.LBE67:
 701              	.LBE71:
 702              		.loc 1 90 2 is_stmt 1 view .LVU237
 703              		.loc 1 90 13 is_stmt 0 view .LVU238
 704 0154 815F0048 		lwz 10,72(31)
 705              		.loc 1 90 2 view .LVU239
 706 0158 714A0030 		andi. 10,10,0x30
 707 015c 4182000C 		beq- 0,.L37
 708              		.loc 1 91 3 is_stmt 1 view .LVU240
 709              		.loc 1 91 9 is_stmt 0 view .LVU241
 710 0160 815F002C 		lwz 10,44(31)
 711              	.LVL43:
 712              		.loc 1 91 9 view .LVU242
 713 0164 7D295214 		add 9,9,10
 714              	.LVL44:
 715              	.L37:
 716              		.loc 1 93 2 is_stmt 1 view .LVU243
 717              		.loc 1 93 9 is_stmt 0 view .LVU244
 718 0168 815F0060 		lwz 10,96(31)
 719              		.loc 1 93 2 view .LVU245
 720 016c 2C0A0001 		cmpwi 0,10,1
 721 0170 41820078 		beq- 0,.L38
 722 0174 2C0A0002 		cmpwi 0,10,2
 723 0178 41820038 		beq- 0,.L39
 724              	.LVL45:
 725              		.loc 1 105 2 is_stmt 1 view .LVU246
 726              		.loc 1 80 6 is_stmt 0 view .LVU247
 727 017c 314AFFFF 		addic 10,10,-1
 728              		.loc 1 105 13 view .LVU248
 729 0180 807F0014 		lwz 3,20(31)
 730              		.loc 1 80 6 view .LVU249
 731 0184 7D4A5110 		subfe 10,10,10
 732              		.loc 1 106 1 view .LVU250
 733 0188 83A1001C 		lwz 29,28(1)
 734              	.LVL46:
 735              		.loc 1 80 6 view .LVU251
 736 018c 7D2A5038 		and 10,9,10
 737              		.loc 1 106 1 view .LVU252
 738 0190 83C10020 		lwz 30,32(1)
 739 0194 83E10024 		lwz 31,36(1)
 740              	.LVL47:
 741              		.loc 1 106 1 view .LVU253
 742 0198 7C6A1A14 		add 3,10,3
 743 019c 38210028 		addi 1,1,40
 744              		.cfi_remember_state
 745              		.cfi_restore 31
 746              		.cfi_restore 30
 747              		.cfi_restore 29
 748              		.cfi_def_cfa_offset 0
 749 01a0 4E800020 		blr
 750              	.LVL48:
 751              	.L41:
 752              		.cfi_restore_state
 753              		.loc 1 82 6 view .LVU254
 754 01a4 39200000 		li 9,0
 755              		.loc 1 81 6 view .LVU255
 756 01a8 3BA00000 		li 29,0
 757 01ac 4BFFFFA8 		b .L21
 758              	.LVL49:
 759              	.L39:
 760              		.loc 1 98 3 is_stmt 1 view .LVU256
 761              		.loc 1 99 4 view .LVU257
 762              		.loc 1 99 35 is_stmt 0 view .LVU258
 763 01b0 815F000C 		lwz 10,12(31)
 764              		.loc 1 99 23 view .LVU259
 765 01b4 7FBD0E70 		srawi 29,29,1
 766 01b8 7FBD0194 		addze 29,29
 767              	.LVL50:
 768              		.loc 1 105 13 view .LVU260
 769 01bc 807F0014 		lwz 3,20(31)
 770              		.loc 1 99 14 view .LVU261
 771 01c0 7FBD4A14 		add 29,29,9
 772              		.loc 1 99 35 view .LVU262
 773 01c4 7D4A0E70 		srawi 10,10,1
 774 01c8 7D4A0194 		addze 10,10
 775              		.loc 1 106 1 view .LVU263
 776 01cc 83C10020 		lwz 30,32(1)
 777              		.loc 1 99 6 view .LVU264
 778 01d0 7D4AE850 		subf 10,10,29
 779              	.LVL51:
 780              		.loc 1 100 4 is_stmt 1 view .LVU265
 781              		.loc 1 105 2 view .LVU266
 782              		.loc 1 106 1 is_stmt 0 view .LVU267
 783 01d4 83E10024 		lwz 31,36(1)
 784              	.LVL52:
 785              		.loc 1 106 1 view .LVU268
 786 01d8 83A1001C 		lwz 29,28(1)
 787 01dc 7C6A1A14 		add 3,10,3
 788 01e0 38210028 		addi 1,1,40
 789              		.cfi_remember_state
 790              		.cfi_restore 31
 791              		.cfi_restore 30
 792              		.cfi_restore 29
 793              		.cfi_def_cfa_offset 0
 794 01e4 4E800020 		blr
 795              	.LVL53:
 796              	.L38:
 797              		.cfi_restore_state
 798              		.loc 1 101 3 is_stmt 1 view .LVU269
 799              		.loc 1 102 4 view .LVU270
 800              		.loc 1 102 6 is_stmt 0 view .LVU271
 801 01e8 815F000C 		lwz 10,12(31)
 802              		.loc 1 102 14 view .LVU272
 803 01ec 7FBD4A14 		add 29,29,9
 804              	.LVL54:
 805              		.loc 1 105 13 view .LVU273
 806 01f0 807F0014 		lwz 3,20(31)
 807              		.loc 1 102 6 view .LVU274
 808 01f4 7D4AE850 		subf 10,10,29
 809              	.LVL55:
 810              		.loc 1 103 4 is_stmt 1 view .LVU275
 811              		.loc 1 105 2 view .LVU276
 812              		.loc 1 106 1 is_stmt 0 view .LVU277
 813 01f8 83C10020 		lwz 30,32(1)
 814 01fc 83A1001C 		lwz 29,28(1)
 815 0200 7C6A1A14 		add 3,10,3
 816 0204 83E10024 		lwz 31,36(1)
 817              	.LVL56:
 818              		.loc 1 106 1 view .LVU278
 819 0208 38210028 		addi 1,1,40
 820              		.cfi_restore 31
 821              		.cfi_restore 30
 822              		.cfi_restore 29
 823              		.cfi_def_cfa_offset 0
 824 020c 4E800020 		blr
 825              	.LVL57:
 826              	.L43:
 827              		.cfi_def_cfa_offset 40
 828              		.cfi_offset 25, -28
 829              		.cfi_offset 26, -24
 830              		.cfi_offset 27, -20
 831              		.cfi_offset 28, -16
 832              		.cfi_offset 29, -12
 833              		.cfi_offset 30, -8
 834              		.cfi_offset 31, -4
 835              	.LBB72:
 836              	.LBB68:
 837              	.LBB64:
 838              	.LBB59:
 839              		.loc 1 82 6 view .LVU279
 840 0210 39200000 		li 9,0
 841              		.loc 1 81 6 view .LVU280
 842 0214 3B200000 		li 25,0
 843 0218 4BFFFEA8 		b .L23
 844              	.LVL58:
 845              	.L34:
 846              		.cfi_restore 25
 847              		.cfi_restore 26
 848              		.loc 1 81 6 view .LVU281
 849              	.LBE59:
 850              	.LBE64:
 851              		.loc 1 101 3 is_stmt 1 view .LVU282
 852              		.loc 1 102 4 view .LVU283
 853              		.loc 1 102 14 is_stmt 0 view .LVU284
 854 021c 7D3B4A14 		add 9,27,9
 855              		.loc 1 102 6 view .LVU285
 856 0220 7D3D4850 		subf 9,29,9
 857              	.LVL59:
 858              		.loc 1 103 4 is_stmt 1 view .LVU286
 859 0224 4BFFFF20 		b .L36
 860              	.LVL60:
 861              	.L35:
 862              		.loc 1 98 3 view .LVU287
 863              		.loc 1 99 4 view .LVU288
 864              		.loc 1 99 23 is_stmt 0 view .LVU289
 865 0228 7F7B0E70 		srawi 27,27,1
 866 022c 7F7B0194 		addze 27,27
 867              	.LVL61:
 868              		.loc 1 99 35 view .LVU290
 869 0230 7FAA0E70 		srawi 10,29,1
 870 0234 7D4A0194 		addze 10,10
 871              		.loc 1 99 14 view .LVU291
 872 0238 7D3B4A14 		add 9,27,9
 873              		.loc 1 99 6 view .LVU292
 874 023c 7D2A4850 		subf 9,10,9
 875              	.LVL62:
 876              		.loc 1 100 4 is_stmt 1 view .LVU293
 877 0240 4BFFFF04 		b .L36
 878              	.LVL63:
 879              	.L31:
 880              		.cfi_offset 25, -28
 881              		.cfi_offset 26, -24
 882              	.LBB65:
 883              	.LBB60:
 884              		.loc 1 98 3 view .LVU294
 885              		.loc 1 99 4 view .LVU295
 886              		.loc 1 99 23 is_stmt 0 view .LVU296
 887 0244 7F390E70 		srawi 25,25,1
 888 0248 7F390194 		addze 25,25
 889              	.LVL64:
 890              		.loc 1 99 35 view .LVU297
 891 024c 7F6A0E70 		srawi 10,27,1
 892 0250 7D4A0194 		addze 10,10
 893              		.loc 1 99 14 view .LVU298
 894 0254 7D394A14 		add 9,25,9
 895              		.loc 1 99 6 view .LVU299
 896 0258 7D2A4850 		subf 9,10,9
 897              	.LVL65:
 898              		.loc 1 100 4 is_stmt 1 view .LVU300
 899 025c 4BFFFE98 		b .L32
 900              	.LVL66:
 901              	.L30:
 902              		.loc 1 101 3 view .LVU301
 903              		.loc 1 102 4 view .LVU302
 904              		.loc 1 102 14 is_stmt 0 view .LVU303
 905 0260 7D394A14 		add 9,25,9
 906              		.loc 1 102 6 view .LVU304
 907 0264 7D3B4850 		subf 9,27,9
 908              	.LVL67:
 909              		.loc 1 103 4 is_stmt 1 view .LVU305
 910 0268 4BFFFE8C 		b .L32
 911              	.LVL68:
 912              	.L44:
 913              		.cfi_offset 24, -32
 914              	.LBB56:
 915              	.LBB48:
 916              		.loc 1 82 6 is_stmt 0 view .LVU306
 917 026c 39200000 		li 9,0
 918              		.loc 1 81 6 view .LVU307
 919 0270 3B000000 		li 24,0
 920 0274 4BFFFE0C 		b .L24
 921              	.LVL69:
 922              	.L26:
 923              		.loc 1 101 3 is_stmt 1 view .LVU308
 924              		.loc 1 102 4 view .LVU309
 925              		.loc 1 102 14 is_stmt 0 view .LVU310
 926 0278 7D384A14 		add 9,24,9
 927              		.loc 1 102 6 view .LVU311
 928 027c 7D394850 		subf 9,25,9
 929              	.LVL70:
 930              		.loc 1 103 4 is_stmt 1 view .LVU312
 931 0280 4BFFFE34 		b .L28
 932              	.LVL71:
 933              	.L27:
 934              		.loc 1 98 3 view .LVU313
 935              		.loc 1 99 4 view .LVU314
 936              		.loc 1 99 23 is_stmt 0 view .LVU315
 937 0284 7F180E70 		srawi 24,24,1
 938 0288 7F180194 		addze 24,24
 939              	.LVL72:
 940              		.loc 1 99 35 view .LVU316
 941 028c 7F2A0E70 		srawi 10,25,1
 942 0290 7D4A0194 		addze 10,10
 943              		.loc 1 99 14 view .LVU317
 944 0294 7D384A14 		add 9,24,9
 945              		.loc 1 99 6 view .LVU318
 946 0298 7D2A4850 		subf 9,10,9
 947              	.LVL73:
 948              		.loc 1 100 4 is_stmt 1 view .LVU319
 949 029c 4BFFFE18 		b .L28
 950              	.LBE48:
 951              	.LBE56:
 952              	.LBE60:
 953              	.LBE65:
 954              	.LBE68:
 955              	.LBE72:
 956              		.cfi_endproc
 957              	.LFE2341:
 958              		.size	_ZN10GuiElement7GetLeftEv, .-_ZN10GuiElement7GetLeftEv
 959              		.section	.text._ZN10GuiElement6GetTopEv,"ax",@progbits
 960              		.align 2
 961              		.globl _ZN10GuiElement6GetTopEv
 962              		.type	_ZN10GuiElement6GetTopEv, @function
 963              	_ZN10GuiElement6GetTopEv:
 964              	.LVL74:
 965              	.LFB2342:
 966              		.loc 1 114 1 view -0
 967              		.cfi_startproc
 968              		.loc 1 115 2 view .LVU321
 969              		.loc 1 116 2 view .LVU322
 970              		.loc 1 117 2 view .LVU323
 971              		.loc 1 119 2 view .LVU324
 972              		.loc 1 114 1 is_stmt 0 view .LVU325
 973 0000 9421FFD8 		stwu 1,-40(1)
 974              		.cfi_def_cfa_offset 40
 975 0004 93C10020 		stw 30,32(1)
 976              		.cfi_offset 30, -8
 977              		.loc 1 119 5 view .LVU326
 978 0008 83C3007C 		lwz 30,124(3)
 979              		.loc 1 114 1 view .LVU327
 980 000c 93E10024 		stw 31,36(1)
 981              		.cfi_offset 31, -4
 982 0010 7C7F1B78 		mr 31,3
 983              		.loc 1 119 2 view .LVU328
 984 0014 2C1E0000 		cmpwi 0,30,0
 985              		.loc 1 114 1 view .LVU329
 986 0018 93A1001C 		stw 29,28(1)
 987              		.cfi_offset 29, -12
 988              		.loc 1 119 2 view .LVU330
 989 001c 41820198 		beq- 0,.L87
 990 0020 93810018 		stw 28,24(1)
 991              		.cfi_offset 28, -16
 992              		.loc 1 121 3 is_stmt 1 view .LVU331
 993              	.LVL75:
 994              	.LBB89:
 995              	.LBI89:
 996              		.loc 1 198 5 view .LVU332
 997              	.LBB90:
 998              		.loc 1 200 2 view .LVU333
 999              	.LBE90:
 1000              	.LBE89:
 1001              	.LBB92:
 1002              	.LBB93:
 1003              		.loc 1 119 5 is_stmt 0 view .LVU334
 1004 0024 839E007C 		lwz 28,124(30)
 1005 0028 93610014 		stw 27,20(1)
 1006              		.cfi_offset 27, -20
 1007              		.loc 1 119 2 view .LVU335
 1008 002c 2C1C0000 		cmpwi 0,28,0
 1009              	.LBE93:
 1010              	.LBE92:
 1011              	.LBB129:
 1012              	.LBB91:
 1013              		.loc 1 200 9 view .LVU336
 1014 0030 83BE0010 		lwz 29,16(30)
 1015              	.LVL76:
 1016              		.loc 1 200 9 view .LVU337
 1017              	.LBE91:
 1018              	.LBE129:
 1019              		.loc 1 122 3 is_stmt 1 view .LVU338
 1020              	.LBB130:
 1021              	.LBI92:
 1022              		.loc 1 113 5 view .LVU339
 1023              	.LBB126:
 1024              		.loc 1 115 2 view .LVU340
 1025              		.loc 1 116 2 view .LVU341
 1026              		.loc 1 117 2 view .LVU342
 1027              		.loc 1 119 2 view .LVU343
 1028 0034 418200DC 		beq- 0,.L88
 1029 0038 93410010 		stw 26,16(1)
 1030              		.cfi_offset 26, -24
 1031              		.loc 1 121 3 view .LVU344
 1032              	.LVL77:
 1033              	.LBB94:
 1034              	.LBI94:
 1035              		.loc 1 198 5 view .LVU345
 1036              	.LBB95:
 1037              		.loc 1 200 2 view .LVU346
 1038              	.LBE95:
 1039              	.LBE94:
 1040              	.LBB97:
 1041              	.LBB98:
 1042              		.loc 1 119 5 is_stmt 0 view .LVU347
 1043 003c 835C007C 		lwz 26,124(28)
 1044 0040 9321000C 		stw 25,12(1)
 1045              		.cfi_offset 25, -28
 1046              		.loc 1 119 2 view .LVU348
 1047 0044 2C1A0000 		cmpwi 0,26,0
 1048              	.LBE98:
 1049              	.LBE97:
 1050              	.LBB121:
 1051              	.LBB96:
 1052              		.loc 1 200 9 view .LVU349
 1053 0048 837C0010 		lwz 27,16(28)
 1054              	.LVL78:
 1055              		.loc 1 200 9 view .LVU350
 1056              	.LBE96:
 1057              	.LBE121:
 1058              		.loc 1 122 3 is_stmt 1 view .LVU351
 1059              	.LBB122:
 1060              	.LBI97:
 1061              		.loc 1 113 5 view .LVU352
 1062              	.LBB117:
 1063              		.loc 1 115 2 view .LVU353
 1064              		.loc 1 116 2 view .LVU354
 1065              		.loc 1 117 2 view .LVU355
 1066              		.loc 1 119 2 view .LVU356
 1067 004c 418201D4 		beq- 0,.L89
 1068              	.LBB99:
 1069              	.LBB100:
 1070              		.loc 1 119 5 is_stmt 0 view .LVU357
 1071 0050 807A007C 		lwz 3,124(26)
 1072              	.LVL79:
 1073              		.loc 1 119 5 view .LVU358
 1074 0054 93010008 		stw 24,8(1)
 1075              		.cfi_offset 24, -32
 1076              	.LBE100:
 1077              	.LBE99:
 1078              		.loc 1 121 3 is_stmt 1 view .LVU359
 1079              	.LVL80:
 1080              	.LBB109:
 1081              	.LBI109:
 1082              		.loc 1 198 5 view .LVU360
 1083              	.LBB110:
 1084              		.loc 1 200 2 view .LVU361
 1085              	.LBE110:
 1086              	.LBE109:
 1087              	.LBB112:
 1088              	.LBB105:
 1089              		.loc 1 119 2 is_stmt 0 view .LVU362
 1090 0058 2C030000 		cmpwi 0,3,0
 1091              	.LBE105:
 1092              	.LBE112:
 1093              	.LBB113:
 1094              	.LBB111:
 1095              		.loc 1 200 9 view .LVU363
 1096 005c 833A0010 		lwz 25,16(26)
 1097              	.LVL81:
 1098              		.loc 1 200 9 view .LVU364
 1099              	.LBE111:
 1100              	.LBE113:
 1101              		.loc 1 122 3 is_stmt 1 view .LVU365
 1102              	.LBB114:
 1103              	.LBI99:
 1104              		.loc 1 113 5 view .LVU366
 1105              	.LBB106:
 1106              		.loc 1 115 2 view .LVU367
 1107              		.loc 1 116 2 view .LVU368
 1108              		.loc 1 117 2 view .LVU369
 1109              		.loc 1 119 2 view .LVU370
 1110 0060 4182021C 		beq- 0,.L90
 1111 0064 7C0802A6 		mflr 0
 1112              		.cfi_register 65, 0
 1113              	.LBB101:
 1114              	.LBB102:
 1115              		.loc 1 200 9 is_stmt 0 view .LVU371
 1116 0068 83030010 		lwz 24,16(3)
 1117 006c 9001002C 		stw 0,44(1)
 1118              		.cfi_offset 65, 4
 1119              	.LBE102:
 1120              	.LBE101:
 1121              		.loc 1 121 3 is_stmt 1 view .LVU372
 1122              	.LVL82:
 1123              	.LBB104:
 1124              	.LBI101:
 1125              		.loc 1 198 5 view .LVU373
 1126              	.LBB103:
 1127              		.loc 1 200 2 view .LVU374
 1128              		.loc 1 200 2 is_stmt 0 view .LVU375
 1129              	.LBE103:
 1130              	.LBE104:
 1131              		.loc 1 122 3 is_stmt 1 view .LVU376
 1132              		.loc 1 122 31 is_stmt 0 view .LVU377
 1133 0070 48000001 		bl _ZN10GuiElement6GetTopEv
 1134              	.LVL83:
 1135 0074 8001002C 		lwz 0,44(1)
 1136 0078 7C691B78 		mr 9,3
 1137              	.LVL84:
 1138              		.loc 1 122 31 view .LVU378
 1139 007c 7C0803A6 		mtlr 0
 1140              		.cfi_restore 65
 1141              	.LVL85:
 1142              	.L70:
 1143              		.loc 1 125 2 is_stmt 1 view .LVU379
 1144              		.loc 1 125 13 is_stmt 0 view .LVU380
 1145 0080 815A0048 		lwz 10,72(26)
 1146              		.loc 1 125 2 view .LVU381
 1147 0084 714A0030 		andi. 10,10,0x30
 1148 0088 4182000C 		beq- 0,.L71
 1149              		.loc 1 126 3 is_stmt 1 view .LVU382
 1150              		.loc 1 126 8 is_stmt 0 view .LVU383
 1151 008c 815A0030 		lwz 10,48(26)
 1152              	.LVL86:
 1153              		.loc 1 126 8 view .LVU384
 1154 0090 7D295214 		add 9,9,10
 1155              	.LVL87:
 1156              	.L71:
 1157              		.loc 1 128 2 is_stmt 1 view .LVU385
 1158              		.loc 1 128 9 is_stmt 0 view .LVU386
 1159 0094 815A0064 		lwz 10,100(26)
 1160              		.loc 1 128 2 view .LVU387
 1161 0098 2C0A0004 		cmpwi 0,10,4
 1162 009c 418201EC 		beq- 0,.L72
 1163 00a0 2C0A0005 		cmpwi 0,10,5
 1164 00a4 418201F0 		beq- 0,.L73
 1165              		.loc 1 115 6 view .LVU388
 1166 00a8 694A0003 		xori 10,10,0x3
 1167 00ac 314AFFFF 		addic 10,10,-1
 1168 00b0 7D4A5110 		subfe 10,10,10
 1169 00b4 7D295038 		and 9,9,10
 1170              	.LVL88:
 1171              	.L74:
 1172              		.loc 1 140 2 is_stmt 1 view .LVU389
 1173              		.loc 1 140 13 is_stmt 0 view .LVU390
 1174 00b8 815A0018 		lwz 10,24(26)
 1175              	.LBE106:
 1176              	.LBE114:
 1177 00bc 83010008 		lwz 24,8(1)
 1178              		.cfi_restore 24
 1179              	.LBB115:
 1180              	.LBB107:
 1181 00c0 7D295214 		add 9,9,10
 1182              	.LVL89:
 1183              	.L69:
 1184              		.loc 1 140 13 view .LVU391
 1185              	.LBE107:
 1186              	.LBE115:
 1187              		.loc 1 125 2 is_stmt 1 view .LVU392
 1188              		.loc 1 125 13 is_stmt 0 view .LVU393
 1189 00c4 815C0048 		lwz 10,72(28)
 1190              		.loc 1 125 2 view .LVU394
 1191 00c8 714A0030 		andi. 10,10,0x30
 1192 00cc 4182000C 		beq- 0,.L75
 1193              		.loc 1 126 3 is_stmt 1 view .LVU395
 1194              		.loc 1 126 8 is_stmt 0 view .LVU396
 1195 00d0 815C0030 		lwz 10,48(28)
 1196              	.LVL90:
 1197              		.loc 1 126 8 view .LVU397
 1198 00d4 7D295214 		add 9,9,10
 1199              	.LVL91:
 1200              	.L75:
 1201              		.loc 1 128 2 is_stmt 1 view .LVU398
 1202              		.loc 1 128 9 is_stmt 0 view .LVU399
 1203 00d8 815C0064 		lwz 10,100(28)
 1204              		.loc 1 128 2 view .LVU400
 1205 00dc 2C0A0004 		cmpwi 0,10,4
 1206 00e0 41820190 		beq- 0,.L76
 1207 00e4 2C0A0005 		cmpwi 0,10,5
 1208 00e8 4182016C 		beq- 0,.L77
 1209              		.loc 1 115 6 view .LVU401
 1210 00ec 694A0003 		xori 10,10,0x3
 1211 00f0 314AFFFF 		addic 10,10,-1
 1212 00f4 7D4A5110 		subfe 10,10,10
 1213 00f8 7D295038 		and 9,9,10
 1214              	.LVL92:
 1215              	.L78:
 1216              		.loc 1 140 2 is_stmt 1 view .LVU402
 1217              		.loc 1 140 13 is_stmt 0 view .LVU403
 1218 00fc 815C0018 		lwz 10,24(28)
 1219              	.LBE117:
 1220              	.LBE122:
 1221 0100 8321000C 		lwz 25,12(1)
 1222              		.cfi_restore 25
 1223 0104 83410010 		lwz 26,16(1)
 1224              		.cfi_restore 26
 1225              	.LBB123:
 1226              	.LBB118:
 1227 0108 7D295214 		add 9,9,10
 1228              	.LVL93:
 1229              		.loc 1 140 13 view .LVU404
 1230              	.LBE118:
 1231              	.LBE123:
 1232 010c 4800000C 		b .L68
 1233              	.LVL94:
 1234              	.L88:
 1235              		.loc 1 117 6 view .LVU405
 1236 0110 39200000 		li 9,0
 1237              		.loc 1 116 6 view .LVU406
 1238 0114 3B600000 		li 27,0
 1239              	.LVL95:
 1240              	.L68:
 1241              		.loc 1 125 2 is_stmt 1 view .LVU407
 1242              		.loc 1 125 13 is_stmt 0 view .LVU408
 1243 0118 815E0048 		lwz 10,72(30)
 1244              		.loc 1 125 2 view .LVU409
 1245 011c 714A0030 		andi. 10,10,0x30
 1246 0120 4182000C 		beq- 0,.L79
 1247              		.loc 1 126 3 is_stmt 1 view .LVU410
 1248              		.loc 1 126 8 is_stmt 0 view .LVU411
 1249 0124 815E0030 		lwz 10,48(30)
 1250              	.LVL96:
 1251              		.loc 1 126 8 view .LVU412
 1252 0128 7D295214 		add 9,9,10
 1253              	.LVL97:
 1254              	.L79:
 1255              		.loc 1 128 2 is_stmt 1 view .LVU413
 1256              		.loc 1 128 9 is_stmt 0 view .LVU414
 1257 012c 815E0064 		lwz 10,100(30)
 1258              		.loc 1 128 2 view .LVU415
 1259 0130 2C0A0004 		cmpwi 0,10,4
 1260 0134 418200F8 		beq- 0,.L80
 1261 0138 2C0A0005 		cmpwi 0,10,5
 1262 013c 418200FC 		beq- 0,.L81
 1263              		.loc 1 115 6 view .LVU416
 1264 0140 694A0003 		xori 10,10,0x3
 1265 0144 314AFFFF 		addic 10,10,-1
 1266 0148 7D4A5110 		subfe 10,10,10
 1267 014c 7D295038 		and 9,9,10
 1268              	.LVL98:
 1269              	.L82:
 1270              		.loc 1 140 2 is_stmt 1 view .LVU417
 1271              		.loc 1 140 13 is_stmt 0 view .LVU418
 1272 0150 815E0018 		lwz 10,24(30)
 1273              	.LBE126:
 1274              	.LBE130:
 1275 0154 83610014 		lwz 27,20(1)
 1276              		.cfi_restore 27
 1277 0158 83810018 		lwz 28,24(1)
 1278              		.cfi_restore 28
 1279              	.LBB131:
 1280              	.LBB127:
 1281 015c 7D295214 		add 9,9,10
 1282              	.LVL99:
 1283              	.L67:
 1284              		.loc 1 140 13 view .LVU419
 1285              	.LBE127:
 1286              	.LBE131:
 1287              		.loc 1 125 2 is_stmt 1 view .LVU420
 1288              		.loc 1 125 13 is_stmt 0 view .LVU421
 1289 0160 815F0048 		lwz 10,72(31)
 1290              		.loc 1 125 2 view .LVU422
 1291 0164 714A0030 		andi. 10,10,0x30
 1292 0168 4182000C 		beq- 0,.L83
 1293              		.loc 1 126 3 is_stmt 1 view .LVU423
 1294              		.loc 1 126 8 is_stmt 0 view .LVU424
 1295 016c 815F0030 		lwz 10,48(31)
 1296              	.LVL100:
 1297              		.loc 1 126 8 view .LVU425
 1298 0170 7D295214 		add 9,9,10
 1299              	.LVL101:
 1300              	.L83:
 1301              		.loc 1 128 2 is_stmt 1 view .LVU426
 1302              		.loc 1 128 9 is_stmt 0 view .LVU427
 1303 0174 815F0064 		lwz 10,100(31)
 1304              		.loc 1 128 2 view .LVU428
 1305 0178 2C0A0004 		cmpwi 0,10,4
 1306 017c 4182007C 		beq- 0,.L84
 1307 0180 2C0A0005 		cmpwi 0,10,5
 1308 0184 4182003C 		beq- 0,.L85
 1309              	.LVL102:
 1310              		.loc 1 140 2 is_stmt 1 view .LVU429
 1311              		.loc 1 115 6 is_stmt 0 view .LVU430
 1312 0188 694A0003 		xori 10,10,0x3
 1313              		.loc 1 140 13 view .LVU431
 1314 018c 807F0018 		lwz 3,24(31)
 1315              		.loc 1 115 6 view .LVU432
 1316 0190 314AFFFF 		addic 10,10,-1
 1317              		.loc 1 141 1 view .LVU433
 1318 0194 83A1001C 		lwz 29,28(1)
 1319              	.LVL103:
 1320              		.loc 1 115 6 view .LVU434
 1321 0198 7D4A5110 		subfe 10,10,10
 1322              		.loc 1 141 1 view .LVU435
 1323 019c 83C10020 		lwz 30,32(1)
 1324              		.loc 1 115 6 view .LVU436
 1325 01a0 7D2A5038 		and 10,9,10
 1326              		.loc 1 141 1 view .LVU437
 1327 01a4 83E10024 		lwz 31,36(1)
 1328              	.LVL104:
 1329              		.loc 1 141 1 view .LVU438
 1330 01a8 7C6A1A14 		add 3,10,3
 1331 01ac 38210028 		addi 1,1,40
 1332              		.cfi_remember_state
 1333              		.cfi_restore 31
 1334              		.cfi_restore 30
 1335              		.cfi_restore 29
 1336              		.cfi_def_cfa_offset 0
 1337 01b0 4E800020 		blr
 1338              	.LVL105:
 1339              	.L87:
 1340              		.cfi_restore_state
 1341              		.loc 1 117 6 view .LVU439
 1342 01b4 39200000 		li 9,0
 1343              		.loc 1 116 6 view .LVU440
 1344 01b8 3BA00000 		li 29,0
 1345 01bc 4BFFFFA4 		b .L67
 1346              	.LVL106:
 1347              	.L85:
 1348              		.loc 1 133 3 is_stmt 1 view .LVU441
 1349              		.loc 1 134 4 view .LVU442
 1350              		.loc 1 134 36 is_stmt 0 view .LVU443
 1351 01c0 815F0010 		lwz 10,16(31)
 1352              		.loc 1 134 23 view .LVU444
 1353 01c4 7FBD0E70 		srawi 29,29,1
 1354 01c8 7FBD0194 		addze 29,29
 1355              	.LVL107:
 1356              		.loc 1 140 13 view .LVU445
 1357 01cc 807F0018 		lwz 3,24(31)
 1358              		.loc 1 134 13 view .LVU446
 1359 01d0 7FBD4A14 		add 29,29,9
 1360              		.loc 1 134 36 view .LVU447
 1361 01d4 7D4A0E70 		srawi 10,10,1
 1362 01d8 7D4A0194 		addze 10,10
 1363              		.loc 1 141 1 view .LVU448
 1364 01dc 83C10020 		lwz 30,32(1)
 1365              		.loc 1 134 6 view .LVU449
 1366 01e0 7D4AE850 		subf 10,10,29
 1367              	.LVL108:
 1368              		.loc 1 135 4 is_stmt 1 view .LVU450
 1369              		.loc 1 140 2 view .LVU451
 1370              		.loc 1 141 1 is_stmt 0 view .LVU452
 1371 01e4 83E10024 		lwz 31,36(1)
 1372              	.LVL109:
 1373              		.loc 1 141 1 view .LVU453
 1374 01e8 83A1001C 		lwz 29,28(1)
 1375 01ec 7C6A1A14 		add 3,10,3
 1376 01f0 38210028 		addi 1,1,40
 1377              		.cfi_remember_state
 1378              		.cfi_restore 31
 1379              		.cfi_restore 30
 1380              		.cfi_restore 29
 1381              		.cfi_def_cfa_offset 0
 1382 01f4 4E800020 		blr
 1383              	.LVL110:
 1384              	.L84:
 1385              		.cfi_restore_state
 1386              		.loc 1 136 3 is_stmt 1 view .LVU454
 1387              		.loc 1 137 4 view .LVU455
 1388              		.loc 1 137 6 is_stmt 0 view .LVU456
 1389 01f8 815F0010 		lwz 10,16(31)
 1390              		.loc 1 137 13 view .LVU457
 1391 01fc 7FBD4A14 		add 29,29,9
 1392              	.LVL111:
 1393              		.loc 1 140 13 view .LVU458
 1394 0200 807F0018 		lwz 3,24(31)
 1395              		.loc 1 137 6 view .LVU459
 1396 0204 7D4AE850 		subf 10,10,29
 1397              	.LVL112:
 1398              		.loc 1 138 4 is_stmt 1 view .LVU460
 1399              		.loc 1 140 2 view .LVU461
 1400              		.loc 1 141 1 is_stmt 0 view .LVU462
 1401 0208 83C10020 		lwz 30,32(1)
 1402 020c 83A1001C 		lwz 29,28(1)
 1403 0210 7C6A1A14 		add 3,10,3
 1404 0214 83E10024 		lwz 31,36(1)
 1405              	.LVL113:
 1406              		.loc 1 141 1 view .LVU463
 1407 0218 38210028 		addi 1,1,40
 1408              		.cfi_restore 31
 1409              		.cfi_restore 30
 1410              		.cfi_restore 29
 1411              		.cfi_def_cfa_offset 0
 1412 021c 4E800020 		blr
 1413              	.LVL114:
 1414              	.L89:
 1415              		.cfi_def_cfa_offset 40
 1416              		.cfi_offset 25, -28
 1417              		.cfi_offset 26, -24
 1418              		.cfi_offset 27, -20
 1419              		.cfi_offset 28, -16
 1420              		.cfi_offset 29, -12
 1421              		.cfi_offset 30, -8
 1422              		.cfi_offset 31, -4
 1423              	.LBB132:
 1424              	.LBB128:
 1425              	.LBB124:
 1426              	.LBB119:
 1427              		.loc 1 117 6 view .LVU464
 1428 0220 39200000 		li 9,0
 1429              		.loc 1 116 6 view .LVU465
 1430 0224 3B200000 		li 25,0
 1431 0228 4BFFFE9C 		b .L69
 1432              	.LVL115:
 1433              	.L80:
 1434              		.cfi_restore 25
 1435              		.cfi_restore 26
 1436              		.loc 1 116 6 view .LVU466
 1437              	.LBE119:
 1438              	.LBE124:
 1439              		.loc 1 136 3 is_stmt 1 view .LVU467
 1440              		.loc 1 137 4 view .LVU468
 1441              		.loc 1 137 13 is_stmt 0 view .LVU469
 1442 022c 7D3B4A14 		add 9,27,9
 1443              		.loc 1 137 6 view .LVU470
 1444 0230 7D3D4850 		subf 9,29,9
 1445              	.LVL116:
 1446              		.loc 1 138 4 is_stmt 1 view .LVU471
 1447 0234 4BFFFF1C 		b .L82
 1448              	.LVL117:
 1449              	.L81:
 1450              		.loc 1 133 3 view .LVU472
 1451              		.loc 1 134 4 view .LVU473
 1452              		.loc 1 134 23 is_stmt 0 view .LVU474
 1453 0238 7F7B0E70 		srawi 27,27,1
 1454 023c 7F7B0194 		addze 27,27
 1455              	.LVL118:
 1456              		.loc 1 134 36 view .LVU475
 1457 0240 7FAA0E70 		srawi 10,29,1
 1458 0244 7D4A0194 		addze 10,10
 1459              		.loc 1 134 13 view .LVU476
 1460 0248 7D3B4A14 		add 9,27,9
 1461              		.loc 1 134 6 view .LVU477
 1462 024c 7D2A4850 		subf 9,10,9
 1463              	.LVL119:
 1464              		.loc 1 135 4 is_stmt 1 view .LVU478
 1465 0250 4BFFFF00 		b .L82
 1466              	.LVL120:
 1467              	.L77:
 1468              		.cfi_offset 25, -28
 1469              		.cfi_offset 26, -24
 1470              	.LBB125:
 1471              	.LBB120:
 1472              		.loc 1 133 3 view .LVU479
 1473              		.loc 1 134 4 view .LVU480
 1474              		.loc 1 134 23 is_stmt 0 view .LVU481
 1475 0254 7F390E70 		srawi 25,25,1
 1476 0258 7F390194 		addze 25,25
 1477              	.LVL121:
 1478              		.loc 1 134 36 view .LVU482
 1479 025c 7F6A0E70 		srawi 10,27,1
 1480 0260 7D4A0194 		addze 10,10
 1481              		.loc 1 134 13 view .LVU483
 1482 0264 7D394A14 		add 9,25,9
 1483              		.loc 1 134 6 view .LVU484
 1484 0268 7D2A4850 		subf 9,10,9
 1485              	.LVL122:
 1486              		.loc 1 135 4 is_stmt 1 view .LVU485
 1487 026c 4BFFFE90 		b .L78
 1488              	.LVL123:
 1489              	.L76:
 1490              		.loc 1 136 3 view .LVU486
 1491              		.loc 1 137 4 view .LVU487
 1492              		.loc 1 137 13 is_stmt 0 view .LVU488
 1493 0270 7D394A14 		add 9,25,9
 1494              		.loc 1 137 6 view .LVU489
 1495 0274 7D3B4850 		subf 9,27,9
 1496              	.LVL124:
 1497              		.loc 1 138 4 is_stmt 1 view .LVU490
 1498 0278 4BFFFE84 		b .L78
 1499              	.LVL125:
 1500              	.L90:
 1501              		.cfi_offset 24, -32
 1502              	.LBB116:
 1503              	.LBB108:
 1504              		.loc 1 117 6 is_stmt 0 view .LVU491
 1505 027c 39200000 		li 9,0
 1506              		.loc 1 116 6 view .LVU492
 1507 0280 3B000000 		li 24,0
 1508 0284 4BFFFDFC 		b .L70
 1509              	.LVL126:
 1510              	.L72:
 1511              		.loc 1 136 3 is_stmt 1 view .LVU493
 1512              		.loc 1 137 4 view .LVU494
 1513              		.loc 1 137 13 is_stmt 0 view .LVU495
 1514 0288 7D384A14 		add 9,24,9
 1515              		.loc 1 137 6 view .LVU496
 1516 028c 7D394850 		subf 9,25,9
 1517              	.LVL127:
 1518              		.loc 1 138 4 is_stmt 1 view .LVU497
 1519 0290 4BFFFE28 		b .L74
 1520              	.LVL128:
 1521              	.L73:
 1522              		.loc 1 133 3 view .LVU498
 1523              		.loc 1 134 4 view .LVU499
 1524              		.loc 1 134 23 is_stmt 0 view .LVU500
 1525 0294 7F180E70 		srawi 24,24,1
 1526 0298 7F180194 		addze 24,24
 1527              	.LVL129:
 1528              		.loc 1 134 36 view .LVU501
 1529 029c 7F2A0E70 		srawi 10,25,1
 1530 02a0 7D4A0194 		addze 10,10
 1531              		.loc 1 134 13 view .LVU502
 1532 02a4 7D384A14 		add 9,24,9
 1533              		.loc 1 134 6 view .LVU503
 1534 02a8 7D2A4850 		subf 9,10,9
 1535              	.LVL130:
 1536              		.loc 1 135 4 is_stmt 1 view .LVU504
 1537 02ac 4BFFFE0C 		b .L74
 1538              	.LBE108:
 1539              	.LBE116:
 1540              	.LBE120:
 1541              	.LBE125:
 1542              	.LBE128:
 1543              	.LBE132:
 1544              		.cfi_endproc
 1545              	.LFE2342:
 1546              		.size	_ZN10GuiElement6GetTopEv, .-_ZN10GuiElement6GetTopEv
 1547              		.section	.text._ZN10GuiElement7SetMinXEi,"ax",@progbits
 1548              		.align 2
 1549              		.globl _ZN10GuiElement7SetMinXEi
 1550              		.type	_ZN10GuiElement7SetMinXEi, @function
 1551              	_ZN10GuiElement7SetMinXEi:
 1552              	.LVL131:
 1553              	.LFB2343:
 1554              		.loc 1 144 1 view -0
 1555              		.cfi_startproc
 1556              		.loc 1 145 2 view .LVU506
 1557              		.loc 1 145 7 is_stmt 0 view .LVU507
 1558 0000 90830024 		stw 4,36(3)
 1559              		.loc 1 146 1 view .LVU508
 1560 0004 4E800020 		blr
 1561              		.cfi_endproc
 1562              	.LFE2343:
 1563              		.size	_ZN10GuiElement7SetMinXEi, .-_ZN10GuiElement7SetMinXEi
 1564              		.section	.text._ZN10GuiElement7GetMinXEv,"ax",@progbits
 1565              		.align 2
 1566              		.globl _ZN10GuiElement7GetMinXEv
 1567              		.type	_ZN10GuiElement7GetMinXEv, @function
 1568              	_ZN10GuiElement7GetMinXEv:
 1569              	.LVL132:
 1570              	.LFB2344:
 1571              		.loc 1 149 1 is_stmt 1 view -0
 1572              		.cfi_startproc
 1573              		.loc 1 150 2 view .LVU510
 1574              		.loc 1 151 1 is_stmt 0 view .LVU511
 1575 0000 80630024 		lwz 3,36(3)
 1576              	.LVL133:
 1577              		.loc 1 151 1 view .LVU512
 1578 0004 4E800020 		blr
 1579              		.cfi_endproc
 1580              	.LFE2344:
 1581              		.size	_ZN10GuiElement7GetMinXEv, .-_ZN10GuiElement7GetMinXEv
 1582              		.section	.text._ZN10GuiElement7SetMaxXEi,"ax",@progbits
 1583              		.align 2
 1584              		.globl _ZN10GuiElement7SetMaxXEi
 1585              		.type	_ZN10GuiElement7SetMaxXEi, @function
 1586              	_ZN10GuiElement7SetMaxXEi:
 1587              	.LVL134:
 1588              	.LFB2345:
 1589              		.loc 1 154 1 is_stmt 1 view -0
 1590              		.cfi_startproc
 1591              		.loc 1 155 2 view .LVU514
 1592              		.loc 1 155 7 is_stmt 0 view .LVU515
 1593 0000 90830028 		stw 4,40(3)
 1594              		.loc 1 156 1 view .LVU516
 1595 0004 4E800020 		blr
 1596              		.cfi_endproc
 1597              	.LFE2345:
 1598              		.size	_ZN10GuiElement7SetMaxXEi, .-_ZN10GuiElement7SetMaxXEi
 1599              		.section	.text._ZN10GuiElement7GetMaxXEv,"ax",@progbits
 1600              		.align 2
 1601              		.globl _ZN10GuiElement7GetMaxXEv
 1602              		.type	_ZN10GuiElement7GetMaxXEv, @function
 1603              	_ZN10GuiElement7GetMaxXEv:
 1604              	.LVL135:
 1605              	.LFB2346:
 1606              		.loc 1 159 1 is_stmt 1 view -0
 1607              		.cfi_startproc
 1608              		.loc 1 160 2 view .LVU518
 1609              		.loc 1 161 1 is_stmt 0 view .LVU519
 1610 0000 80630028 		lwz 3,40(3)
 1611              	.LVL136:
 1612              		.loc 1 161 1 view .LVU520
 1613 0004 4E800020 		blr
 1614              		.cfi_endproc
 1615              	.LFE2346:
 1616              		.size	_ZN10GuiElement7GetMaxXEv, .-_ZN10GuiElement7GetMaxXEv
 1617              		.section	.text._ZN10GuiElement7SetMinYEi,"ax",@progbits
 1618              		.align 2
 1619              		.globl _ZN10GuiElement7SetMinYEi
 1620              		.type	_ZN10GuiElement7SetMinYEi, @function
 1621              	_ZN10GuiElement7SetMinYEi:
 1622              	.LVL137:
 1623              	.LFB2347:
 1624              		.loc 1 164 1 is_stmt 1 view -0
 1625              		.cfi_startproc
 1626              		.loc 1 165 2 view .LVU522
 1627              		.loc 1 165 7 is_stmt 0 view .LVU523
 1628 0000 9083001C 		stw 4,28(3)
 1629              		.loc 1 166 1 view .LVU524
 1630 0004 4E800020 		blr
 1631              		.cfi_endproc
 1632              	.LFE2347:
 1633              		.size	_ZN10GuiElement7SetMinYEi, .-_ZN10GuiElement7SetMinYEi
 1634              		.section	.text._ZN10GuiElement7GetMinYEv,"ax",@progbits
 1635              		.align 2
 1636              		.globl _ZN10GuiElement7GetMinYEv
 1637              		.type	_ZN10GuiElement7GetMinYEv, @function
 1638              	_ZN10GuiElement7GetMinYEv:
 1639              	.LVL138:
 1640              	.LFB2348:
 1641              		.loc 1 169 1 is_stmt 1 view -0
 1642              		.cfi_startproc
 1643              		.loc 1 170 2 view .LVU526
 1644              		.loc 1 171 1 is_stmt 0 view .LVU527
 1645 0000 8063001C 		lwz 3,28(3)
 1646              	.LVL139:
 1647              		.loc 1 171 1 view .LVU528
 1648 0004 4E800020 		blr
 1649              		.cfi_endproc
 1650              	.LFE2348:
 1651              		.size	_ZN10GuiElement7GetMinYEv, .-_ZN10GuiElement7GetMinYEv
 1652              		.section	.text._ZN10GuiElement7SetMaxYEi,"ax",@progbits
 1653              		.align 2
 1654              		.globl _ZN10GuiElement7SetMaxYEi
 1655              		.type	_ZN10GuiElement7SetMaxYEi, @function
 1656              	_ZN10GuiElement7SetMaxYEi:
 1657              	.LVL140:
 1658              	.LFB2349:
 1659              		.loc 1 174 1 is_stmt 1 view -0
 1660              		.cfi_startproc
 1661              		.loc 1 175 2 view .LVU530
 1662              		.loc 1 175 7 is_stmt 0 view .LVU531
 1663 0000 90830020 		stw 4,32(3)
 1664              		.loc 1 176 1 view .LVU532
 1665 0004 4E800020 		blr
 1666              		.cfi_endproc
 1667              	.LFE2349:
 1668              		.size	_ZN10GuiElement7SetMaxYEi, .-_ZN10GuiElement7SetMaxYEi
 1669              		.section	.text._ZN10GuiElement7GetMaxYEv,"ax",@progbits
 1670              		.align 2
 1671              		.globl _ZN10GuiElement7GetMaxYEv
 1672              		.type	_ZN10GuiElement7GetMaxYEv, @function
 1673              	_ZN10GuiElement7GetMaxYEv:
 1674              	.LVL141:
 1675              	.LFB2350:
 1676              		.loc 1 179 1 is_stmt 1 view -0
 1677              		.cfi_startproc
 1678              		.loc 1 180 2 view .LVU534
 1679              		.loc 1 181 1 is_stmt 0 view .LVU535
 1680 0000 80630020 		lwz 3,32(3)
 1681              	.LVL142:
 1682              		.loc 1 181 1 view .LVU536
 1683 0004 4E800020 		blr
 1684              		.cfi_endproc
 1685              	.LFE2350:
 1686              		.size	_ZN10GuiElement7GetMaxYEv, .-_ZN10GuiElement7GetMaxYEv
 1687              		.section	.text._ZN10GuiElement8GetWidthEv,"ax",@progbits
 1688              		.align 2
 1689              		.globl _ZN10GuiElement8GetWidthEv
 1690              		.type	_ZN10GuiElement8GetWidthEv, @function
 1691              	_ZN10GuiElement8GetWidthEv:
 1692              	.LVL143:
 1693              	.LFB2351:
 1694              		.loc 1 189 1 is_stmt 1 view -0
 1695              		.cfi_startproc
 1696              		.loc 1 190 2 view .LVU538
 1697              		.loc 1 191 1 is_stmt 0 view .LVU539
 1698 0000 8063000C 		lwz 3,12(3)
 1699              	.LVL144:
 1700              		.loc 1 191 1 view .LVU540
 1701 0004 4E800020 		blr
 1702              		.cfi_endproc
 1703              	.LFE2351:
 1704              		.size	_ZN10GuiElement8GetWidthEv, .-_ZN10GuiElement8GetWidthEv
 1705              		.section	.text._ZN10GuiElement9GetHeightEv,"ax",@progbits
 1706              		.align 2
 1707              		.globl _ZN10GuiElement9GetHeightEv
 1708              		.type	_ZN10GuiElement9GetHeightEv, @function
 1709              	_ZN10GuiElement9GetHeightEv:
 1710              	.LVL145:
 1711              	.LFB2352:
 1712              		.loc 1 199 1 is_stmt 1 view -0
 1713              		.cfi_startproc
 1714              		.loc 1 200 2 view .LVU542
 1715              		.loc 1 201 1 is_stmt 0 view .LVU543
 1716 0000 80630010 		lwz 3,16(3)
 1717              	.LVL146:
 1718              		.loc 1 201 1 view .LVU544
 1719 0004 4E800020 		blr
 1720              		.cfi_endproc
 1721              	.LFE2352:
 1722              		.size	_ZN10GuiElement9GetHeightEv, .-_ZN10GuiElement9GetHeightEv
 1723              		.section	.text._ZN10GuiElement7SetSizeEii,"ax",@progbits
 1724              		.align 2
 1725              		.globl _ZN10GuiElement7SetSizeEii
 1726              		.type	_ZN10GuiElement7SetSizeEii, @function
 1727              	_ZN10GuiElement7SetSizeEii:
 1728              	.LVL147:
 1729              	.LFB2353:
 1730              		.loc 1 211 1 is_stmt 1 view -0
 1731              		.cfi_startproc
 1732              		.loc 1 213 2 view .LVU546
 1733              		.loc 1 213 8 is_stmt 0 view .LVU547
 1734 0000 9083000C 		stw 4,12(3)
 1735              		.loc 1 214 2 is_stmt 1 view .LVU548
 1736              		.loc 1 214 9 is_stmt 0 view .LVU549
 1737 0004 90A30010 		stw 5,16(3)
 1738              		.loc 1 215 1 view .LVU550
 1739 0008 4E800020 		blr
 1740              		.cfi_endproc
 1741              	.LFE2353:
 1742              		.size	_ZN10GuiElement7SetSizeEii, .-_ZN10GuiElement7SetSizeEii
 1743              		.section	.text._ZN10GuiElement9IsVisibleEv,"ax",@progbits
 1744              		.align 2
 1745              		.globl _ZN10GuiElement9IsVisibleEv
 1746              		.type	_ZN10GuiElement9IsVisibleEv, @function
 1747              	_ZN10GuiElement9IsVisibleEv:
 1748              	.LVL148:
 1749              	.LFB2354:
 1750              		.loc 1 223 1 is_stmt 1 view -0
 1751              		.cfi_startproc
 1752              		.loc 1 224 2 view .LVU552
 1753              		.loc 1 225 1 is_stmt 0 view .LVU553
 1754 0000 88630004 		lbz 3,4(3)
 1755              	.LVL149:
 1756              		.loc 1 225 1 view .LVU554
 1757 0004 4E800020 		blr
 1758              		.cfi_endproc
 1759              	.LFE2354:
 1760              		.size	_ZN10GuiElement9IsVisibleEv, .-_ZN10GuiElement9IsVisibleEv
 1761              		.section	.text._ZN10GuiElement8SetAlphaEi,"ax",@progbits
 1762              		.align 2
 1763              		.globl _ZN10GuiElement8SetAlphaEi
 1764              		.type	_ZN10GuiElement8SetAlphaEi, @function
 1765              	_ZN10GuiElement8SetAlphaEi:
 1766              	.LVL150:
 1767              	.LFB2356:
 1768              		.loc 1 238 1 is_stmt 1 view -0
 1769              		.cfi_startproc
 1770              		.loc 1 239 2 view .LVU556
 1771              		.loc 1 239 8 is_stmt 0 view .LVU557
 1772 0000 90830034 		stw 4,52(3)
 1773              		.loc 1 240 1 view .LVU558
 1774 0004 4E800020 		blr
 1775              		.cfi_endproc
 1776              	.LFE2356:
 1777              		.size	_ZN10GuiElement8SetAlphaEi, .-_ZN10GuiElement8SetAlphaEi
 1778              		.section	.text._ZN10GuiElement8GetAlphaEv,"ax",@progbits
 1779              		.align 2
 1780              		.globl _ZN10GuiElement8GetAlphaEv
 1781              		.type	_ZN10GuiElement8GetAlphaEv, @function
 1782              	_ZN10GuiElement8GetAlphaEv:
 1783              	.LVL151:
 1784              	.LFB2357:
 1785              		.loc 1 243 1 is_stmt 1 view -0
 1786              		.cfi_startproc
 1787              		.loc 1 244 2 view .LVU560
 1788              		.loc 1 246 2 view .LVU561
 1789              		.loc 1 243 1 is_stmt 0 view .LVU562
 1790 0000 9421FF98 		stwu 1,-104(1)
 1791              		.cfi_def_cfa_offset 104
 1792 0004 93E10064 		stw 31,100(1)
 1793              		.cfi_offset 31, -4
 1794              		.loc 1 246 5 view .LVU563
 1795 0008 83E3003C 		lwz 31,60(3)
 1796              		.loc 1 246 2 view .LVU564
 1797 000c 2C1F0000 		cmpwi 0,31,0
 1798 0010 40A00008 		bge+ 0,.L126
 1799              		.loc 1 249 3 is_stmt 1 view .LVU565
 1800              		.loc 1 249 5 is_stmt 0 view .LVU566
 1801 0014 83E30034 		lwz 31,52(3)
 1802              	.LVL152:
 1803              	.L126:
 1804              		.loc 1 251 2 is_stmt 1 view .LVU567
 1805              		.loc 1 251 5 is_stmt 0 view .LVU568
 1806 0018 8123007C 		lwz 9,124(3)
 1807              		.loc 1 251 2 view .LVU569
 1808 001c 2C090000 		cmpwi 0,9,0
 1809 0020 418201C0 		beq- 0,.L125
 1810 0024 93C10060 		stw 30,96(1)
 1811              		.cfi_offset 30, -8
 1812              		.loc 1 252 3 is_stmt 1 view .LVU570
 1813              	.LVL153:
 1814              	.LBB139:
 1815              	.LBI139:
 1816              		.loc 1 242 5 view .LVU571
 1817              	.LBB140:
 1818              		.loc 1 244 2 view .LVU572
 1819              		.loc 1 246 2 view .LVU573
 1820              		.loc 1 246 5 is_stmt 0 view .LVU574
 1821 0028 83C9003C 		lwz 30,60(9)
 1822              		.loc 1 246 2 view .LVU575
 1823 002c 2C1E0000 		cmpwi 0,30,0
 1824 0030 418001C0 		blt- 0,.L147
 1825              	.LVL154:
 1826              		.loc 1 251 2 is_stmt 1 view .LVU576
 1827              		.loc 1 251 5 is_stmt 0 view .LVU577
 1828 0034 8129007C 		lwz 9,124(9)
 1829              	.LVL155:
 1830              		.loc 1 251 2 view .LVU578
 1831 0038 2C090000 		cmpwi 0,9,0
 1832 003c 4182014C 		beq- 0,.L148
 1833              	.L143:
 1834              		.loc 1 251 2 view .LVU579
 1835 0040 93A1005C 		stw 29,92(1)
 1836              		.cfi_offset 29, -12
 1837              		.loc 1 252 3 is_stmt 1 view .LVU580
 1838              	.LVL156:
 1839              	.LBB141:
 1840              	.LBI141:
 1841              		.loc 1 242 5 view .LVU581
 1842              	.LBB142:
 1843              		.loc 1 244 2 view .LVU582
 1844              		.loc 1 246 2 view .LVU583
 1845              		.loc 1 246 5 is_stmt 0 view .LVU584
 1846 0044 83A9003C 		lwz 29,60(9)
 1847              		.loc 1 246 2 view .LVU585
 1848 0048 2C1D0000 		cmpwi 0,29,0
 1849 004c 418001C4 		blt- 0,.L149
 1850              	.LVL157:
 1851              		.loc 1 251 2 is_stmt 1 view .LVU586
 1852              		.loc 1 251 5 is_stmt 0 view .LVU587
 1853 0050 8129007C 		lwz 9,124(9)
 1854              	.LVL158:
 1855              		.loc 1 251 2 view .LVU588
 1856 0054 2C090000 		cmpwi 0,9,0
 1857 0058 418201AC 		beq- 0,.L150
 1858              	.L144:
 1859              		.loc 1 251 2 view .LVU589
 1860 005c 93810058 		stw 28,88(1)
 1861              		.cfi_offset 28, -16
 1862              		.loc 1 252 3 is_stmt 1 view .LVU590
 1863              	.LVL159:
 1864              	.LBB143:
 1865              	.LBI143:
 1866              		.loc 1 242 5 view .LVU591
 1867              	.LBB144:
 1868              		.loc 1 244 2 view .LVU592
 1869              		.loc 1 246 2 view .LVU593
 1870              		.loc 1 246 5 is_stmt 0 view .LVU594
 1871 0060 8389003C 		lwz 28,60(9)
 1872              		.loc 1 246 2 view .LVU595
 1873 0064 2C1C0000 		cmpwi 0,28,0
 1874 0068 40A00008 		bge+ 0,.L132
 1875              		.loc 1 249 3 is_stmt 1 view .LVU596
 1876              		.loc 1 249 5 is_stmt 0 view .LVU597
 1877 006c 83890034 		lwz 28,52(9)
 1878              	.LVL160:
 1879              	.L132:
 1880              		.loc 1 251 2 is_stmt 1 view .LVU598
 1881              		.loc 1 251 5 is_stmt 0 view .LVU599
 1882 0070 8069007C 		lwz 3,124(9)
 1883              	.LVL161:
 1884              		.loc 1 251 2 view .LVU600
 1885 0074 2C030000 		cmpwi 0,3,0
 1886 0078 418201AC 		beq- 0,.L151
 1887              		.loc 1 252 3 is_stmt 1 view .LVU601
 1888 007c 7C0802A6 		mflr 0
 1889              		.cfi_register 65, 0
 1890              		.loc 1 252 5 is_stmt 0 discriminator 1 view .LVU602
 1891 0080 6F9C8000 		xoris 28,28,0x8000
 1892              	.LVL162:
 1893              		.loc 1 252 5 discriminator 1 view .LVU603
 1894 0084 9001006C 		stw 0,108(1)
 1895              		.cfi_offset 65, 4
 1896              		.loc 1 252 31 view .LVU604
 1897 0088 48000001 		bl _ZN10GuiElement8GetAlphaEv
 1898              	.LVL163:
 1899              		.loc 1 252 33 discriminator 1 view .LVU605
 1900 008c 6C638000 		xoris 3,3,0x8000
 1901 0090 3D204330 		lis 9,0x4330
 1902 0094 91210008 		stw 9,8(1)
 1903 0098 3D000000 		lis 8,.LC4@ha
 1904 009c 9061000C 		stw 3,12(1)
 1905 00a0 3D400000 		lis 10,.LC6@ha
 1906 00a4 C1880000 		lfs 12,.LC4@l(8)
 1907 00a8 C8010008 		lfd 0,8(1)
 1908 00ac C16A0000 		lfs 11,.LC6@l(10)
 1909 00b0 FC006028 		fsub 0,0,12
 1910              		.loc 1 252 5 discriminator 1 view .LVU606
 1911 00b4 93810014 		stw 28,20(1)
 1912 00b8 91210010 		stw 9,16(1)
 1913 00bc 39210054 		addi 9,1,84
 1914              		.loc 1 252 33 discriminator 1 view .LVU607
 1915 00c0 FC005824 		fdiv 0,0,11
 1916              		.loc 1 252 5 discriminator 1 view .LVU608
 1917 00c4 C9610010 		lfd 11,16(1)
 1918 00c8 FD8B6028 		fsub 12,11,12
 1919 00cc FC000332 		fmul 0,0,12
 1920 00d0 FC00001E 		fctiwz 0,0
 1921 00d4 7C004FAE 		stfiwx 0,0,9
 1922 00d8 8001006C 		lwz 0,108(1)
 1923 00dc 83810054 		lwz 28,84(1)
 1924              	.LVL164:
 1925              		.loc 1 252 5 discriminator 1 view .LVU609
 1926 00e0 7C0803A6 		mtlr 0
 1927              		.cfi_restore 65
 1928              	.L133:
 1929              		.loc 1 254 2 is_stmt 1 view .LVU610
 1930              	.LVL165:
 1931              		.loc 1 254 2 is_stmt 0 view .LVU611
 1932              	.LBE144:
 1933              	.LBE143:
 1934              		.loc 1 252 33 discriminator 1 view .LVU612
 1935 00e4 3D204330 		lis 9,0x4330
 1936 00e8 6F9C8000 		xoris 28,28,0x8000
 1937 00ec 9381001C 		stw 28,28(1)
 1938              		.loc 1 252 5 discriminator 1 view .LVU613
 1939 00f0 6FBD8000 		xoris 29,29,0x8000
 1940              	.LVL166:
 1941              		.loc 1 252 33 discriminator 1 view .LVU614
 1942 00f4 91210018 		stw 9,24(1)
 1943 00f8 C1880000 		lfs 12,.LC4@l(8)
 1944 00fc C8010018 		lfd 0,24(1)
 1945 0100 C16A0000 		lfs 11,.LC6@l(10)
 1946 0104 FC006028 		fsub 0,0,12
 1947              		.loc 1 252 5 discriminator 1 view .LVU615
 1948 0108 93A10024 		stw 29,36(1)
 1949 010c 91210020 		stw 9,32(1)
 1950 0110 39210050 		addi 9,1,80
 1951              		.loc 1 252 33 discriminator 1 view .LVU616
 1952 0114 FC005824 		fdiv 0,0,11
 1953              		.loc 1 252 5 discriminator 1 view .LVU617
 1954 0118 C9610020 		lfd 11,32(1)
 1955 011c FD8B6028 		fsub 12,11,12
 1956 0120 FC000332 		fmul 0,0,12
 1957 0124 FC00001E 		fctiwz 0,0
 1958 0128 7C004FAE 		stfiwx 0,0,9
 1959 012c 83A10050 		lwz 29,80(1)
 1960              	.LVL167:
 1961              		.loc 1 252 5 discriminator 1 view .LVU618
 1962 0130 83810058 		lwz 28,88(1)
 1963              		.cfi_restore 28
 1964              	.L131:
 1965              		.loc 1 254 2 is_stmt 1 view .LVU619
 1966              	.LVL168:
 1967              		.loc 1 254 2 is_stmt 0 view .LVU620
 1968              	.LBE142:
 1969              	.LBE141:
 1970              		.loc 1 252 33 discriminator 1 view .LVU621
 1971 0134 3D204330 		lis 9,0x4330
 1972 0138 6FBD8000 		xoris 29,29,0x8000
 1973 013c 93A1002C 		stw 29,44(1)
 1974              		.loc 1 252 5 discriminator 1 view .LVU622
 1975 0140 6FDE8000 		xoris 30,30,0x8000
 1976              	.LVL169:
 1977              		.loc 1 252 33 discriminator 1 view .LVU623
 1978 0144 91210028 		stw 9,40(1)
 1979 0148 C1880000 		lfs 12,.LC4@l(8)
 1980 014c C8010028 		lfd 0,40(1)
 1981 0150 C16A0000 		lfs 11,.LC6@l(10)
 1982 0154 FC006028 		fsub 0,0,12
 1983              		.loc 1 252 5 discriminator 1 view .LVU624
 1984 0158 93C10034 		stw 30,52(1)
 1985 015c 91210030 		stw 9,48(1)
 1986 0160 3921004C 		addi 9,1,76
 1987              		.loc 1 252 33 discriminator 1 view .LVU625
 1988 0164 FC005824 		fdiv 0,0,11
 1989              		.loc 1 252 5 discriminator 1 view .LVU626
 1990 0168 C9610030 		lfd 11,48(1)
 1991 016c FD8B6028 		fsub 12,11,12
 1992 0170 FC000332 		fmul 0,0,12
 1993 0174 FC00001E 		fctiwz 0,0
 1994 0178 7C004FAE 		stfiwx 0,0,9
 1995 017c 83C1004C 		lwz 30,76(1)
 1996              	.LVL170:
 1997              		.loc 1 252 5 discriminator 1 view .LVU627
 1998 0180 83A1005C 		lwz 29,92(1)
 1999              		.cfi_restore 29
 2000 0184 4800000C 		b .L129
 2001              	.LVL171:
 2002              	.L148:
 2003              		.loc 1 252 5 discriminator 1 view .LVU628
 2004 0188 3D000000 		lis 8,.LC4@ha
 2005 018c 3D400000 		lis 10,.LC6@ha
 2006              	.LVL172:
 2007              	.L129:
 2008              		.loc 1 254 2 is_stmt 1 view .LVU629
 2009              		.loc 1 254 2 is_stmt 0 view .LVU630
 2010              	.LBE140:
 2011              	.LBE139:
 2012              		.loc 1 252 33 discriminator 1 view .LVU631
 2013 0190 3D204330 		lis 9,0x4330
 2014 0194 6FDE8000 		xoris 30,30,0x8000
 2015 0198 93C1003C 		stw 30,60(1)
 2016              		.loc 1 252 5 discriminator 1 view .LVU632
 2017 019c 6FFF8000 		xoris 31,31,0x8000
 2018              	.LVL173:
 2019              		.loc 1 252 33 discriminator 1 view .LVU633
 2020 01a0 91210038 		stw 9,56(1)
 2021 01a4 C1880000 		lfs 12,.LC4@l(8)
 2022 01a8 C8010038 		lfd 0,56(1)
 2023 01ac C16A0000 		lfs 11,.LC6@l(10)
 2024 01b0 FC006028 		fsub 0,0,12
 2025              		.loc 1 252 5 discriminator 1 view .LVU634
 2026 01b4 93E10044 		stw 31,68(1)
 2027 01b8 91210040 		stw 9,64(1)
 2028 01bc 39210048 		addi 9,1,72
 2029              		.loc 1 252 33 discriminator 1 view .LVU635
 2030 01c0 FC005824 		fdiv 0,0,11
 2031              		.loc 1 252 5 discriminator 1 view .LVU636
 2032 01c4 C9610040 		lfd 11,64(1)
 2033 01c8 FD8B6028 		fsub 12,11,12
 2034 01cc FC000332 		fmul 0,0,12
 2035 01d0 FC00001E 		fctiwz 0,0
 2036 01d4 7C004FAE 		stfiwx 0,0,9
 2037 01d8 83E10048 		lwz 31,72(1)
 2038              	.LVL174:
 2039              		.loc 1 254 2 is_stmt 1 view .LVU637
 2040              		.loc 1 252 5 is_stmt 0 discriminator 1 view .LVU638
 2041 01dc 83C10060 		lwz 30,96(1)
 2042              		.cfi_restore 30
 2043              	.L125:
 2044              		.loc 1 255 1 view .LVU639
 2045 01e0 7FE3FB78 		mr 3,31
 2046 01e4 83E10064 		lwz 31,100(1)
 2047              	.LVL175:
 2048              		.loc 1 255 1 view .LVU640
 2049 01e8 38210068 		addi 1,1,104
 2050              		.cfi_restore 31
 2051              		.cfi_def_cfa_offset 0
 2052 01ec 4E800020 		blr
 2053              	.LVL176:
 2054              	.L147:
 2055              		.cfi_def_cfa_offset 104
 2056              		.cfi_offset 30, -8
 2057              		.cfi_offset 31, -4
 2058              	.LBB148:
 2059              	.LBB147:
 2060              		.loc 1 249 3 is_stmt 1 view .LVU641
 2061              		.loc 1 249 5 is_stmt 0 view .LVU642
 2062 01f0 83C90034 		lwz 30,52(9)
 2063              	.LVL177:
 2064              		.loc 1 251 2 is_stmt 1 view .LVU643
 2065              		.loc 1 251 5 is_stmt 0 view .LVU644
 2066 01f4 8129007C 		lwz 9,124(9)
 2067              	.LVL178:
 2068              		.loc 1 251 2 view .LVU645
 2069 01f8 2C090000 		cmpwi 0,9,0
 2070 01fc 40A2FE44 		bne- 0,.L143
 2071 0200 4BFFFF88 		b .L148
 2072              	.LVL179:
 2073              	.L150:
 2074              		.cfi_offset 29, -12
 2075              		.loc 1 251 2 view .LVU646
 2076 0204 3D000000 		lis 8,.LC4@ha
 2077 0208 3D400000 		lis 10,.LC6@ha
 2078 020c 4BFFFF28 		b .L131
 2079              	.LVL180:
 2080              	.L149:
 2081              	.LBB146:
 2082              	.LBB145:
 2083              		.loc 1 249 3 is_stmt 1 view .LVU647
 2084              		.loc 1 249 5 is_stmt 0 view .LVU648
 2085 0210 83A90034 		lwz 29,52(9)
 2086              	.LVL181:
 2087              		.loc 1 251 2 is_stmt 1 view .LVU649
 2088              		.loc 1 251 5 is_stmt 0 view .LVU650
 2089 0214 8129007C 		lwz 9,124(9)
 2090              	.LVL182:
 2091              		.loc 1 251 2 view .LVU651
 2092 0218 2C090000 		cmpwi 0,9,0
 2093 021c 40A2FE40 		bne- 0,.L144
 2094 0220 4BFFFFE4 		b .L150
 2095              	.LVL183:
 2096              	.L151:
 2097              		.cfi_offset 28, -16
 2098              		.loc 1 251 2 view .LVU652
 2099 0224 3D000000 		lis 8,.LC4@ha
 2100 0228 3D400000 		lis 10,.LC6@ha
 2101 022c 4BFFFEB8 		b .L133
 2102              	.LBE145:
 2103              	.LBE146:
 2104              	.LBE147:
 2105              	.LBE148:
 2106              		.cfi_endproc
 2107              	.LFE2357:
 2108              		.size	_ZN10GuiElement8GetAlphaEv, .-_ZN10GuiElement8GetAlphaEv
 2109              		.section	.text._ZN10GuiElement8SetScaleEf,"ax",@progbits
 2110              		.align 2
 2111              		.globl _ZN10GuiElement8SetScaleEf
 2112              		.type	_ZN10GuiElement8SetScaleEf, @function
 2113              	_ZN10GuiElement8SetScaleEf:
 2114              	.LVL184:
 2115              	.LFB2358:
 2116              		.loc 1 258 1 is_stmt 1 view -0
 2117              		.cfi_startproc
 2118              		.loc 1 259 2 view .LVU654
 2119              		.loc 1 259 8 is_stmt 0 view .LVU655
 2120 0000 D0230038 		stfs 1,56(3)
 2121              		.loc 1 260 1 view .LVU656
 2122 0004 4E800020 		blr
 2123              		.cfi_endproc
 2124              	.LFE2358:
 2125              		.size	_ZN10GuiElement8SetScaleEf, .-_ZN10GuiElement8SetScaleEf
 2126              		.section	.text._ZN10GuiElement8GetScaleEv,"ax",@progbits
 2127              		.align 2
 2128              		.globl _ZN10GuiElement8GetScaleEv
 2129              		.type	_ZN10GuiElement8GetScaleEv, @function
 2130              	_ZN10GuiElement8GetScaleEv:
 2131              	.LVL185:
 2132              	.LFB2359:
 2133              		.loc 1 263 1 is_stmt 1 view -0
 2134              		.cfi_startproc
 2135              		.loc 1 264 2 view .LVU658
 2136              		.loc 1 266 5 is_stmt 0 view .LVU659
 2137 0000 8123007C 		lwz 9,124(3)
 2138              		.loc 1 263 1 view .LVU660
 2139 0004 9421FFD8 		stwu 1,-40(1)
 2140              		.cfi_def_cfa_offset 40
 2141              		.loc 1 266 2 view .LVU661
 2142 0008 2C090000 		cmpwi 0,9,0
 2143              		.loc 1 264 8 view .LVU662
 2144 000c C0030040 		lfs 0,64(3)
 2145              		.loc 1 263 1 view .LVU663
 2146 0010 DBE10020 		stfd 31,32(1)
 2147              		.cfi_offset 63, -8
 2148              		.loc 1 264 8 view .LVU664
 2149 0014 C3E30038 		lfs 31,56(3)
 2150 0018 EFFF0032 		fmuls 31,31,0
 2151              	.LVL186:
 2152              		.loc 1 266 2 is_stmt 1 view .LVU665
 2153 001c 41820088 		beq- 0,.L153
 2154              	.LBB155:
 2155              	.LBB156:
 2156              		.loc 1 266 5 is_stmt 0 view .LVU666
 2157 0020 8149007C 		lwz 10,124(9)
 2158 0024 DBC10018 		stfd 30,24(1)
 2159              		.cfi_offset 62, -16
 2160              	.LBE156:
 2161              	.LBE155:
 2162              		.loc 1 267 3 is_stmt 1 view .LVU667
 2163              	.LVL187:
 2164              	.LBB166:
 2165              	.LBI155:
 2166              		.loc 1 262 7 view .LVU668
 2167              	.LBB165:
 2168              		.loc 1 264 2 view .LVU669
 2169              		.loc 1 266 2 is_stmt 0 view .LVU670
 2170 0028 2C0A0000 		cmpwi 0,10,0
 2171              		.loc 1 264 8 view .LVU671
 2172 002c C3C90038 		lfs 30,56(9)
 2173 0030 C0090040 		lfs 0,64(9)
 2174 0034 EFDE0032 		fmuls 30,30,0
 2175              	.LVL188:
 2176              		.loc 1 266 2 is_stmt 1 view .LVU672
 2177 0038 41820064 		beq- 0,.L155
 2178              	.LBB157:
 2179              	.LBB158:
 2180              		.loc 1 266 5 is_stmt 0 view .LVU673
 2181 003c 812A007C 		lwz 9,124(10)
 2182              	.LVL189:
 2183              		.loc 1 266 5 view .LVU674
 2184 0040 DBA10010 		stfd 29,16(1)
 2185              		.cfi_offset 61, -24
 2186              	.LBE158:
 2187              	.LBE157:
 2188              		.loc 1 267 3 is_stmt 1 view .LVU675
 2189              	.LVL190:
 2190              	.LBB164:
 2191              	.LBI157:
 2192              		.loc 1 262 7 view .LVU676
 2193              	.LBB163:
 2194              		.loc 1 264 2 view .LVU677
 2195              		.loc 1 266 2 is_stmt 0 view .LVU678
 2196 0044 2C090000 		cmpwi 0,9,0
 2197              		.loc 1 264 8 view .LVU679
 2198 0048 C3AA0038 		lfs 29,56(10)
 2199 004c C00A0040 		lfs 0,64(10)
 2200 0050 EFBD0032 		fmuls 29,29,0
 2201              	.LVL191:
 2202              		.loc 1 266 2 is_stmt 1 view .LVU680
 2203 0054 41820040 		beq- 0,.L156
 2204              	.LBB159:
 2205              	.LBB160:
 2206              		.loc 1 266 5 is_stmt 0 view .LVU681
 2207 0058 8069007C 		lwz 3,124(9)
 2208              	.LVL192:
 2209              		.loc 1 266 5 view .LVU682
 2210 005c DB810008 		stfd 28,8(1)
 2211              		.cfi_offset 60, -32
 2212              	.LBE160:
 2213              	.LBE159:
 2214              		.loc 1 267 3 is_stmt 1 view .LVU683
 2215              	.LVL193:
 2216              	.LBB162:
 2217              	.LBI159:
 2218              		.loc 1 262 7 view .LVU684
 2219              	.LBB161:
 2220              		.loc 1 264 2 view .LVU685
 2221              		.loc 1 266 2 is_stmt 0 view .LVU686
 2222 0060 2C030000 		cmpwi 0,3,0
 2223              		.loc 1 264 8 view .LVU687
 2224 0064 C3890038 		lfs 28,56(9)
 2225 0068 C0090040 		lfs 0,64(9)
 2226 006c EF9C0032 		fmuls 28,28,0
 2227              	.LVL194:
 2228              		.loc 1 266 2 is_stmt 1 view .LVU688
 2229 0070 4182001C 		beq- 0,.L157
 2230              		.loc 1 267 3 view .LVU689
 2231 0074 7C0802A6 		mflr 0
 2232              		.cfi_register 65, 0
 2233 0078 9001002C 		stw 0,44(1)
 2234              		.cfi_offset 65, 4
 2235              		.loc 1 267 31 is_stmt 0 view .LVU690
 2236 007c 48000001 		bl _ZN10GuiElement8GetScaleEv
 2237              	.LVL195:
 2238              		.loc 1 267 5 discriminator 1 view .LVU691
 2239 0080 EF9C0072 		fmuls 28,28,1
 2240              	.LVL196:
 2241              		.loc 1 267 5 discriminator 1 view .LVU692
 2242 0084 8001002C 		lwz 0,44(1)
 2243 0088 7C0803A6 		mtlr 0
 2244              		.cfi_restore 65
 2245              	.L157:
 2246              		.loc 1 269 2 is_stmt 1 view .LVU693
 2247              	.LVL197:
 2248              		.loc 1 269 2 is_stmt 0 view .LVU694
 2249              	.LBE161:
 2250              	.LBE162:
 2251              		.loc 1 267 5 discriminator 1 view .LVU695
 2252 008c EFBD0732 		fmuls 29,29,28
 2253              	.LVL198:
 2254              		.loc 1 267 5 discriminator 1 view .LVU696
 2255 0090 CB810008 		lfd 28,8(1)
 2256              		.cfi_restore 60
 2257              	.L156:
 2258              		.loc 1 269 2 is_stmt 1 view .LVU697
 2259              	.LVL199:
 2260              		.loc 1 269 2 is_stmt 0 view .LVU698
 2261              	.LBE163:
 2262              	.LBE164:
 2263              		.loc 1 267 5 discriminator 1 view .LVU699
 2264 0094 EFDE0772 		fmuls 30,30,29
 2265              	.LVL200:
 2266              		.loc 1 267 5 discriminator 1 view .LVU700
 2267 0098 CBA10010 		lfd 29,16(1)
 2268              		.cfi_restore 61
 2269              	.L155:
 2270              		.loc 1 269 2 is_stmt 1 view .LVU701
 2271              	.LVL201:
 2272              		.loc 1 269 2 is_stmt 0 view .LVU702
 2273              	.LBE165:
 2274              	.LBE166:
 2275              		.loc 1 267 5 discriminator 1 view .LVU703
 2276 009c EFFF07B2 		fmuls 31,31,30
 2277              	.LVL202:
 2278              		.loc 1 269 2 is_stmt 1 view .LVU704
 2279              		.loc 1 267 5 is_stmt 0 discriminator 1 view .LVU705
 2280 00a0 CBC10018 		lfd 30,24(1)
 2281              		.cfi_restore 62
 2282              	.L153:
 2283              		.loc 1 270 1 view .LVU706
 2284 00a4 FC20F890 		fmr 1,31
 2285 00a8 CBE10020 		lfd 31,32(1)
 2286              	.LVL203:
 2287              		.loc 1 270 1 view .LVU707
 2288 00ac 38210028 		addi 1,1,40
 2289              		.cfi_restore 63
 2290              		.cfi_def_cfa_offset 0
 2291 00b0 4E800020 		blr
 2292              		.cfi_endproc
 2293              	.LFE2359:
 2294              		.size	_ZN10GuiElement8GetScaleEv, .-_ZN10GuiElement8GetScaleEv
 2295              		.section	.text._ZN10GuiElement8GetStateEv,"ax",@progbits
 2296              		.align 2
 2297              		.globl _ZN10GuiElement8GetStateEv
 2298              		.type	_ZN10GuiElement8GetStateEv, @function
 2299              	_ZN10GuiElement8GetStateEv:
 2300              	.LVL204:
 2301              	.LFB2360:
 2302              		.loc 1 273 1 is_stmt 1 view -0
 2303              		.cfi_startproc
 2304              		.loc 1 274 2 view .LVU709
 2305              		.loc 1 275 1 is_stmt 0 view .LVU710
 2306 0000 80630068 		lwz 3,104(3)
 2307              	.LVL205:
 2308              		.loc 1 275 1 view .LVU711
 2309 0004 4E800020 		blr
 2310              		.cfi_endproc
 2311              	.LFE2360:
 2312              		.size	_ZN10GuiElement8GetStateEv, .-_ZN10GuiElement8GetStateEv
 2313              		.section	.text._ZN10GuiElement12GetStateChanEv,"ax",@progbits
 2314              		.align 2
 2315              		.globl _ZN10GuiElement12GetStateChanEv
 2316              		.type	_ZN10GuiElement12GetStateChanEv, @function
 2317              	_ZN10GuiElement12GetStateChanEv:
 2318              	.LVL206:
 2319              	.LFB2361:
 2320              		.loc 1 278 1 is_stmt 1 view -0
 2321              		.cfi_startproc
 2322              		.loc 1 279 2 view .LVU713
 2323              		.loc 1 280 1 is_stmt 0 view .LVU714
 2324 0000 8063006C 		lwz 3,108(3)
 2325              	.LVL207:
 2326              		.loc 1 280 1 view .LVU715
 2327 0004 4E800020 		blr
 2328              		.cfi_endproc
 2329              	.LFE2361:
 2330              		.size	_ZN10GuiElement12GetStateChanEv, .-_ZN10GuiElement12GetStateChanEv
 2331              		.section	.text._ZN10GuiElement12SetClickableEb,"ax",@progbits
 2332              		.align 2
 2333              		.globl _ZN10GuiElement12SetClickableEb
 2334              		.type	_ZN10GuiElement12SetClickableEb, @function
 2335              	_ZN10GuiElement12SetClickableEb:
 2336              	.LVL208:
 2337              	.LFB2364:
 2338              		.loc 1 298 1 is_stmt 1 view -0
 2339              		.cfi_startproc
 2340              		.loc 1 299 2 view .LVU717
 2341              		.loc 1 299 12 is_stmt 0 view .LVU718
 2342 0000 98830071 		stb 4,113(3)
 2343              		.loc 1 300 1 view .LVU719
 2344 0004 4E800020 		blr
 2345              		.cfi_endproc
 2346              	.LFE2364:
 2347              		.size	_ZN10GuiElement12SetClickableEb, .-_ZN10GuiElement12SetClickableEb
 2348              		.section	.text._ZN10GuiElement13SetSelectableEb,"ax",@progbits
 2349              		.align 2
 2350              		.globl _ZN10GuiElement13SetSelectableEb
 2351              		.type	_ZN10GuiElement13SetSelectableEb, @function
 2352              	_ZN10GuiElement13SetSelectableEb:
 2353              	.LVL209:
 2354              	.LFB2365:
 2355              		.loc 1 303 1 is_stmt 1 view -0
 2356              		.cfi_startproc
 2357              		.loc 1 304 2 view .LVU721
 2358              		.loc 1 304 13 is_stmt 0 view .LVU722
 2359 0000 98830070 		stb 4,112(3)
 2360              		.loc 1 305 1 view .LVU723
 2361 0004 4E800020 		blr
 2362              		.cfi_endproc
 2363              	.LFE2365:
 2364              		.size	_ZN10GuiElement13SetSelectableEb, .-_ZN10GuiElement13SetSelectableEb
 2365              		.section	.text._ZN10GuiElement11SetHoldableEb,"ax",@progbits
 2366              		.align 2
 2367              		.globl _ZN10GuiElement11SetHoldableEb
 2368              		.type	_ZN10GuiElement11SetHoldableEb, @function
 2369              	_ZN10GuiElement11SetHoldableEb:
 2370              	.LVL210:
 2371              	.LFB2366:
 2372              		.loc 1 308 1 is_stmt 1 view -0
 2373              		.cfi_startproc
 2374              		.loc 1 309 2 view .LVU725
 2375              		.loc 1 309 11 is_stmt 0 view .LVU726
 2376 0000 98830072 		stb 4,114(3)
 2377              		.loc 1 310 1 view .LVU727
 2378 0004 4E800020 		blr
 2379              		.cfi_endproc
 2380              	.LFE2366:
 2381              		.size	_ZN10GuiElement11SetHoldableEb, .-_ZN10GuiElement11SetHoldableEb
 2382              		.section	.text._ZN10GuiElement12IsSelectableEv,"ax",@progbits
 2383              		.align 2
 2384              		.globl _ZN10GuiElement12IsSelectableEv
 2385              		.type	_ZN10GuiElement12IsSelectableEv, @function
 2386              	_ZN10GuiElement12IsSelectableEv:
 2387              	.LVL211:
 2388              	.LFB2367:
 2389              		.loc 1 313 1 is_stmt 1 view -0
 2390              		.cfi_startproc
 2391              		.loc 1 314 2 view .LVU729
 2392 0000 81230068 		lwz 9,104(3)
 2393 0004 3929FFFE 		addi 9,9,-2
 2394 0008 552907FB 		rlwinm. 9,9,0,31,29
 2395 000c 41820010 		beq- 0,.L178
 2396              		.loc 1 317 3 view .LVU730
 2397              		.loc 1 317 10 is_stmt 0 view .LVU731
 2398 0010 88630070 		lbz 3,112(3)
 2399              	.LVL212:
 2400              		.loc 1 318 1 view .LVU732
 2401 0014 5463063E 		rlwinm 3,3,0,0xff
 2402 0018 4E800020 		blr
 2403              	.LVL213:
 2404              	.L178:
 2405              		.loc 1 315 10 view .LVU733
 2406 001c 38600000 		li 3,0
 2407              	.LVL214:
 2408              		.loc 1 318 1 view .LVU734
 2409 0020 5463063E 		rlwinm 3,3,0,0xff
 2410 0024 4E800020 		blr
 2411              		.cfi_endproc
 2412              	.LFE2367:
 2413              		.size	_ZN10GuiElement12IsSelectableEv, .-_ZN10GuiElement12IsSelectableEv
 2414              		.section	.text._ZN10GuiElement11IsClickableEv,"ax",@progbits
 2415              		.align 2
 2416              		.globl _ZN10GuiElement11IsClickableEv
 2417              		.type	_ZN10GuiElement11IsClickableEv, @function
 2418              	_ZN10GuiElement11IsClickableEv:
 2419              	.LVL215:
 2420              	.LFB2368:
 2421              		.loc 1 321 1 is_stmt 1 view -0
 2422              		.cfi_startproc
 2423              		.loc 1 322 2 view .LVU736
 2424 0000 81230068 		lwz 9,104(3)
 2425 0004 3929FFFE 		addi 9,9,-2
 2426 0008 28090002 		cmplwi 0,9,2
 2427 000c 40810010 		ble- 0,.L181
 2428              		.loc 1 327 3 view .LVU737
 2429              		.loc 1 327 10 is_stmt 0 view .LVU738
 2430 0010 88630071 		lbz 3,113(3)
 2431              	.LVL216:
 2432              		.loc 1 328 1 view .LVU739
 2433 0014 5463063E 		rlwinm 3,3,0,0xff
 2434 0018 4E800020 		blr
 2435              	.LVL217:
 2436              	.L181:
 2437              		.loc 1 325 10 view .LVU740
 2438 001c 38600000 		li 3,0
 2439              	.LVL218:
 2440              		.loc 1 328 1 view .LVU741
 2441 0020 5463063E 		rlwinm 3,3,0,0xff
 2442 0024 4E800020 		blr
 2443              		.cfi_endproc
 2444              	.LFE2368:
 2445              		.size	_ZN10GuiElement11IsClickableEv, .-_ZN10GuiElement11IsClickableEv
 2446              		.section	.text._ZN10GuiElement10IsHoldableEv,"ax",@progbits
 2447              		.align 2
 2448              		.globl _ZN10GuiElement10IsHoldableEv
 2449              		.type	_ZN10GuiElement10IsHoldableEv, @function
 2450              	_ZN10GuiElement10IsHoldableEv:
 2451              	.LVL219:
 2452              	.LFB2369:
 2453              		.loc 1 331 1 is_stmt 1 view -0
 2454              		.cfi_startproc
 2455              		.loc 1 332 2 view .LVU743
 2456 0000 81230068 		lwz 9,104(3)
 2457 0004 2C090004 		cmpwi 0,9,4
 2458 0008 41820010 		beq- 0,.L184
 2459              		.loc 1 335 3 view .LVU744
 2460              		.loc 1 335 10 is_stmt 0 view .LVU745
 2461 000c 88630072 		lbz 3,114(3)
 2462              	.LVL220:
 2463              		.loc 1 336 1 view .LVU746
 2464 0010 5463063E 		rlwinm 3,3,0,0xff
 2465 0014 4E800020 		blr
 2466              	.LVL221:
 2467              	.L184:
 2468              		.loc 1 333 10 view .LVU747
 2469 0018 38600000 		li 3,0
 2470              	.LVL222:
 2471              		.loc 1 336 1 view .LVU748
 2472 001c 5463063E 		rlwinm 3,3,0,0xff
 2473 0020 4E800020 		blr
 2474              		.cfi_endproc
 2475              	.LFE2369:
 2476              		.size	_ZN10GuiElement10IsHoldableEv, .-_ZN10GuiElement10IsHoldableEv
 2477              		.section	.text._ZN10GuiElement9IsFocusedEv,"ax",@progbits
 2478              		.align 2
 2479              		.globl _ZN10GuiElement9IsFocusedEv
 2480              		.type	_ZN10GuiElement9IsFocusedEv, @function
 2481              	_ZN10GuiElement9IsFocusedEv:
 2482              	.LVL223:
 2483              	.LFB2371:
 2484              		.loc 1 344 1 is_stmt 1 view -0
 2485              		.cfi_startproc
 2486              		.loc 1 345 2 view .LVU750
 2487              		.loc 1 346 1 is_stmt 0 view .LVU751
 2488 0000 80630008 		lwz 3,8(3)
 2489              	.LVL224:
 2490              		.loc 1 346 1 view .LVU752
 2491 0004 4E800020 		blr
 2492              		.cfi_endproc
 2493              	.LFE2371:
 2494              		.size	_ZN10GuiElement9IsFocusedEv, .-_ZN10GuiElement9IsFocusedEv
 2495              		.section	.text._ZN10GuiElement10SetTriggerEP10GuiTrigger,"ax",@progbits
 2496              		.align 2
 2497              		.globl _ZN10GuiElement10SetTriggerEP10GuiTrigger
 2498              		.type	_ZN10GuiElement10SetTriggerEP10GuiTrigger, @function
 2499              	_ZN10GuiElement10SetTriggerEP10GuiTrigger:
 2500              	.LVL225:
 2501              	.LFB2372:
 2502              		.loc 1 349 1 is_stmt 1 view -0
 2503              		.cfi_startproc
 2504              		.loc 1 350 2 view .LVU754
 2505 0000 81230074 		lwz 9,116(3)
 2506 0004 2C090000 		cmpwi 0,9,0
 2507 0008 41820010 		beq- 0,.L189
 2508              		.loc 1 352 7 view .LVU755
 2509 000c 81230078 		lwz 9,120(3)
 2510 0010 2C090000 		cmpwi 0,9,0
 2511 0014 4182000C 		beq- 0,.L190
 2512              	.L189:
 2513              		.loc 1 351 3 view .LVU756
 2514              		.loc 1 351 14 is_stmt 0 view .LVU757
 2515 0018 90830074 		stw 4,116(3)
 2516 001c 4E800020 		blr
 2517              	.L190:
 2518              		.loc 1 353 3 is_stmt 1 view .LVU758
 2519              		.loc 1 353 14 is_stmt 0 view .LVU759
 2520 0020 90830078 		stw 4,120(3)
 2521              		.loc 1 356 1 view .LVU760
 2522 0024 4E800020 		blr
 2523              		.cfi_endproc
 2524              	.LFE2372:
 2525              		.size	_ZN10GuiElement10SetTriggerEP10GuiTrigger, .-_ZN10GuiElement10SetTriggerEP10GuiTrigger
 2526              		.section	.text._ZN10GuiElement10SetTriggerEhP10GuiTrigger,"ax",@progbits
 2527              		.align 2
 2528              		.globl _ZN10GuiElement10SetTriggerEhP10GuiTrigger
 2529              		.type	_ZN10GuiElement10SetTriggerEhP10GuiTrigger, @function
 2530              	_ZN10GuiElement10SetTriggerEhP10GuiTrigger:
 2531              	.LVL226:
 2532              	.LFB2373:
 2533              		.loc 1 359 1 is_stmt 1 view -0
 2534              		.cfi_startproc
 2535              		.loc 1 360 2 view .LVU762
 2536              		.loc 1 360 13 is_stmt 0 view .LVU763
 2537 0000 3884001C 		addi 4,4,28
 2538              	.LVL227:
 2539              		.loc 1 360 13 view .LVU764
 2540 0004 5484103A 		slwi 4,4,2
 2541              	.LVL228:
 2542              		.loc 1 360 13 view .LVU765
 2543 0008 7C632214 		add 3,3,4
 2544              	.LVL229:
 2545              		.loc 1 360 13 view .LVU766
 2546 000c 90A30004 		stw 5,4(3)
 2547              		.loc 1 361 1 view .LVU767
 2548 0010 4E800020 		blr
 2549              		.cfi_endproc
 2550              	.LFE2373:
 2551              		.size	_ZN10GuiElement10SetTriggerEhP10GuiTrigger, .-_ZN10GuiElement10SetTriggerEhP10GuiTrigger
 2552              		.section	.text._ZN10GuiElement6RumbleEv,"ax",@progbits
 2553              		.align 2
 2554              		.globl _ZN10GuiElement6RumbleEv
 2555              		.type	_ZN10GuiElement6RumbleEv, @function
 2556              	_ZN10GuiElement6RumbleEv:
 2557              	.LVL230:
 2558              	.LFB2374:
 2559              		.loc 1 364 1 is_stmt 1 view -0
 2560              		.cfi_startproc
 2561              		.loc 1 365 2 view .LVU769
 2562              		.loc 1 366 1 is_stmt 0 view .LVU770
 2563 0000 88630044 		lbz 3,68(3)
 2564              	.LVL231:
 2565              		.loc 1 366 1 view .LVU771
 2566 0004 4E800020 		blr
 2567              		.cfi_endproc
 2568              	.LFE2374:
 2569              		.size	_ZN10GuiElement6RumbleEv, .-_ZN10GuiElement6RumbleEv
 2570              		.section	.text._ZN10GuiElement9SetRumbleEb,"ax",@progbits
 2571              		.align 2
 2572              		.globl _ZN10GuiElement9SetRumbleEb
 2573              		.type	_ZN10GuiElement9SetRumbleEb, @function
 2574              	_ZN10GuiElement9SetRumbleEb:
 2575              	.LVL232:
 2576              	.LFB2375:
 2577              		.loc 1 369 1 is_stmt 1 view -0
 2578              		.cfi_startproc
 2579              		.loc 1 370 2 view .LVU773
 2580              		.loc 1 370 9 is_stmt 0 view .LVU774
 2581 0000 98830044 		stb 4,68(3)
 2582              		.loc 1 371 1 view .LVU775
 2583 0004 4E800020 		blr
 2584              		.cfi_endproc
 2585              	.LFE2375:
 2586              		.size	_ZN10GuiElement9SetRumbleEb, .-_ZN10GuiElement9SetRumbleEb
 2587              		.section	.text._ZN10GuiElement9GetEffectEv,"ax",@progbits
 2588              		.align 2
 2589              		.globl _ZN10GuiElement9GetEffectEv
 2590              		.type	_ZN10GuiElement9GetEffectEv, @function
 2591              	_ZN10GuiElement9GetEffectEv:
 2592              	.LVL233:
 2593              	.LFB2376:
 2594              		.loc 1 374 1 is_stmt 1 view -0
 2595              		.cfi_startproc
 2596              		.loc 1 375 2 view .LVU777
 2597              		.loc 1 376 1 is_stmt 0 view .LVU778
 2598 0000 80630048 		lwz 3,72(3)
 2599              	.LVL234:
 2600              		.loc 1 376 1 view .LVU779
 2601 0004 4E800020 		blr
 2602              		.cfi_endproc
 2603              	.LFE2376:
 2604              		.size	_ZN10GuiElement9GetEffectEv, .-_ZN10GuiElement9GetEffectEv
 2605              		.section	.text._ZN10GuiElement9SetEffectEiii,"ax",@progbits
 2606              		.align 2
 2607              		.globl _ZN10GuiElement9SetEffectEiii
 2608              		.type	_ZN10GuiElement9SetEffectEiii, @function
 2609              	_ZN10GuiElement9SetEffectEiii:
 2610              	.LVL235:
 2611              	.LFB2377:
 2612              		.loc 1 379 1 is_stmt 1 view -0
 2613              		.cfi_startproc
 2614              		.loc 1 380 2 view .LVU781
 2615 0000 70890010 		andi. 9,4,0x10
 2616 0004 4182001C 		beq- 0,.L196
 2617              		.loc 1 383 3 view .LVU782
 2618 0008 70890001 		andi. 9,4,0x1
 2619 000c 41820074 		beq- 0,.L197
 2620              		.loc 1 384 4 view .LVU783
 2621              		.loc 1 384 17 is_stmt 0 view .LVU784
 2622 0010 3D200000 		lis 9,screenheight@ha
 2623 0014 81290000 		lwz 9,screenheight@l(9)
 2624 0018 7D2900D0 		neg 9,9
 2625              		.loc 1 384 15 view .LVU785
 2626 001c 91230030 		stw 9,48(3)
 2627              	.L196:
 2628              		.loc 1 392 2 is_stmt 1 view .LVU786
 2629 0020 70890040 		andi. 9,4,0x40
 2630 0024 41820030 		beq- 0,.L200
 2631              		.loc 1 392 23 is_stmt 0 discriminator 1 view .LVU787
 2632 0028 2C050000 		cmpwi 0,5,0
 2633 002c 40810024 		ble- 0,.L201
 2634              		.loc 1 394 3 is_stmt 1 view .LVU788
 2635              		.loc 1 394 12 is_stmt 0 view .LVU789
 2636 0030 39200000 		li 9,0
 2637 0034 9123003C 		stw 9,60(3)
 2638              	.L202:
 2639              		.loc 1 405 2 is_stmt 1 view .LVU790
 2640              		.loc 1 405 10 is_stmt 0 view .LVU791
 2641 0038 81230048 		lwz 9,72(3)
 2642              		.loc 1 406 15 view .LVU792
 2643 003c 90A3004C 		stw 5,76(3)
 2644              		.loc 1 405 10 view .LVU793
 2645 0040 7D292378 		or 9,9,4
 2646              		.loc 1 407 15 view .LVU794
 2647 0044 90C30050 		stw 6,80(3)
 2648              		.loc 1 405 10 view .LVU795
 2649 0048 91230048 		stw 9,72(3)
 2650              		.loc 1 406 2 is_stmt 1 view .LVU796
 2651              		.loc 1 407 2 view .LVU797
 2652              		.loc 1 408 1 is_stmt 0 view .LVU798
 2653 004c 4E800020 		blr
 2654              	.L201:
 2655              		.loc 1 396 7 is_stmt 1 view .LVU799
 2656              		.loc 1 396 28 is_stmt 0 discriminator 1 view .LVU800
 2657 0050 40820064 		bne- 0,.L215
 2658              	.L200:
 2659              		.loc 1 400 7 is_stmt 1 view .LVU801
 2660 0054 70890080 		andi. 9,4,0x80
 2661 0058 41A2FFE0 		beq- 0,.L202
 2662              		.loc 1 402 3 view .LVU802
 2663              		.loc 1 402 12 is_stmt 0 view .LVU803
 2664 005c 3D200000 		lis 9,.LC9@ha
 2665              		.loc 1 406 15 view .LVU804
 2666 0060 90A3004C 		stw 5,76(3)
 2667              		.loc 1 402 12 view .LVU805
 2668 0064 C0090000 		lfs 0,.LC9@l(9)
 2669              		.loc 1 405 10 view .LVU806
 2670 0068 81230048 		lwz 9,72(3)
 2671              		.loc 1 402 12 view .LVU807
 2672 006c D0030040 		stfs 0,64(3)
 2673              		.loc 1 405 2 is_stmt 1 view .LVU808
 2674              		.loc 1 405 10 is_stmt 0 view .LVU809
 2675 0070 7D292378 		or 9,9,4
 2676              		.loc 1 407 15 view .LVU810
 2677 0074 90C30050 		stw 6,80(3)
 2678              		.loc 1 405 10 view .LVU811
 2679 0078 91230048 		stw 9,72(3)
 2680              		.loc 1 406 2 is_stmt 1 view .LVU812
 2681              		.loc 1 407 2 view .LVU813
 2682              		.loc 1 408 1 is_stmt 0 view .LVU814
 2683 007c 4E800020 		blr
 2684              	.L197:
 2685              		.loc 1 385 8 is_stmt 1 view .LVU815
 2686 0080 70890008 		andi. 9,4,0x8
 2687 0084 4082001C 		bne- 0,.L216
 2688              		.loc 1 387 8 view .LVU816
 2689 0088 70890002 		andi. 9,4,0x2
 2690 008c 41820048 		beq- 0,.L199
 2691              		.loc 1 388 4 view .LVU817
 2692              		.loc 1 388 15 is_stmt 0 view .LVU818
 2693 0090 3D200000 		lis 9,screenheight@ha
 2694 0094 81290000 		lwz 9,screenheight@l(9)
 2695 0098 91230030 		stw 9,48(3)
 2696 009c 4BFFFF84 		b .L196
 2697              	.L216:
 2698              		.loc 1 386 4 is_stmt 1 view .LVU819
 2699              		.loc 1 386 17 is_stmt 0 view .LVU820
 2700 00a0 3D200000 		lis 9,screenwidth@ha
 2701 00a4 81290000 		lwz 9,screenwidth@l(9)
 2702 00a8 7D2900D0 		neg 9,9
 2703              		.loc 1 386 15 view .LVU821
 2704 00ac 9123002C 		stw 9,44(3)
 2705 00b0 4BFFFF70 		b .L196
 2706              	.L215:
 2707              		.loc 1 398 3 is_stmt 1 view .LVU822
 2708              		.loc 1 398 12 is_stmt 0 view .LVU823
 2709 00b4 81230034 		lwz 9,52(3)
 2710              		.loc 1 406 15 view .LVU824
 2711 00b8 90A3004C 		stw 5,76(3)
 2712              		.loc 1 398 12 view .LVU825
 2713 00bc 9123003C 		stw 9,60(3)
 2714              		.loc 1 405 2 is_stmt 1 view .LVU826
 2715              		.loc 1 405 10 is_stmt 0 view .LVU827
 2716 00c0 81230048 		lwz 9,72(3)
 2717              		.loc 1 407 15 view .LVU828
 2718 00c4 90C30050 		stw 6,80(3)
 2719              		.loc 1 405 10 view .LVU829
 2720 00c8 7D292378 		or 9,9,4
 2721 00cc 91230048 		stw 9,72(3)
 2722              		.loc 1 406 2 is_stmt 1 view .LVU830
 2723              		.loc 1 407 2 view .LVU831
 2724              		.loc 1 408 1 is_stmt 0 view .LVU832
 2725 00d0 4E800020 		blr
 2726              	.L199:
 2727              		.loc 1 389 8 is_stmt 1 view .LVU833
 2728 00d4 70890004 		andi. 9,4,0x4
 2729 00d8 41A2FF48 		beq- 0,.L196
 2730              		.loc 1 390 4 view .LVU834
 2731              		.loc 1 390 15 is_stmt 0 view .LVU835
 2732 00dc 3D200000 		lis 9,screenwidth@ha
 2733 00e0 81290000 		lwz 9,screenwidth@l(9)
 2734 00e4 9123002C 		stw 9,44(3)
 2735 00e8 4BFFFF38 		b .L196
 2736              		.cfi_endproc
 2737              	.LFE2377:
 2738              		.size	_ZN10GuiElement9SetEffectEiii, .-_ZN10GuiElement9SetEffectEiii
 2739              		.section	.text._ZN10GuiElement15SetEffectOnOverEiii,"ax",@progbits
 2740              		.align 2
 2741              		.globl _ZN10GuiElement15SetEffectOnOverEiii
 2742              		.type	_ZN10GuiElement15SetEffectOnOverEiii, @function
 2743              	_ZN10GuiElement15SetEffectOnOverEiii:
 2744              	.LVL236:
 2745              	.LFB2378:
 2746              		.loc 1 411 1 is_stmt 1 view -0
 2747              		.cfi_startproc
 2748              		.loc 1 412 2 view .LVU837
 2749              		.loc 1 412 14 is_stmt 0 view .LVU838
 2750 0000 81230054 		lwz 9,84(3)
 2751              		.loc 1 413 19 view .LVU839
 2752 0004 90A30058 		stw 5,88(3)
 2753              		.loc 1 412 14 view .LVU840
 2754 0008 7D292378 		or 9,9,4
 2755              		.loc 1 414 19 view .LVU841
 2756 000c 90C3005C 		stw 6,92(3)
 2757              		.loc 1 412 14 view .LVU842
 2758 0010 91230054 		stw 9,84(3)
 2759              		.loc 1 413 2 is_stmt 1 view .LVU843
 2760              		.loc 1 414 2 view .LVU844
 2761              		.loc 1 415 1 is_stmt 0 view .LVU845
 2762 0014 4E800020 		blr
 2763              		.cfi_endproc
 2764              	.LFE2378:
 2765              		.size	_ZN10GuiElement15SetEffectOnOverEiii, .-_ZN10GuiElement15SetEffectOnOverEiii
 2766              		.section	.text._ZN10GuiElement13SetEffectGrowEv,"ax",@progbits
 2767              		.align 2
 2768              		.globl _ZN10GuiElement13SetEffectGrowEv
 2769              		.type	_ZN10GuiElement13SetEffectGrowEv, @function
 2770              	_ZN10GuiElement13SetEffectGrowEv:
 2771              	.LVL237:
 2772              	.LFB2379:
 2773              		.loc 1 418 1 is_stmt 1 view -0
 2774              		.cfi_startproc
 2775              		.loc 1 419 2 view .LVU847
 2776              	.LBB167:
 2777              	.LBB168:
 2778              		.loc 1 412 14 is_stmt 0 view .LVU848
 2779 0000 81230054 		lwz 9,84(3)
 2780              		.loc 1 413 19 view .LVU849
 2781 0004 39000004 		li 8,4
 2782              	.LVL238:
 2783              		.loc 1 413 19 view .LVU850
 2784              	.LBE168:
 2785              	.LBI167:
 2786              		.loc 1 410 6 is_stmt 1 view .LVU851
 2787              	.LBB169:
 2788              		.loc 1 412 2 view .LVU852
 2789              		.loc 1 414 19 is_stmt 0 view .LVU853
 2790 0008 3940006E 		li 10,110
 2791              		.loc 1 413 19 view .LVU854
 2792 000c 91030058 		stw 8,88(3)
 2793              		.loc 1 412 14 view .LVU855
 2794 0010 61290080 		ori 9,9,0x80
 2795              		.loc 1 414 19 view .LVU856
 2796 0014 9143005C 		stw 10,92(3)
 2797              		.loc 1 412 14 view .LVU857
 2798 0018 91230054 		stw 9,84(3)
 2799              		.loc 1 413 2 is_stmt 1 view .LVU858
 2800              		.loc 1 414 2 view .LVU859
 2801              	.LVL239:
 2802              		.loc 1 414 2 is_stmt 0 view .LVU860
 2803              	.LBE169:
 2804              	.LBE167:
 2805              		.loc 1 420 1 view .LVU861
 2806 001c 4E800020 		blr
 2807              		.cfi_endproc
 2808              	.LFE2379:
 2809              		.size	_ZN10GuiElement13SetEffectGrowEv, .-_ZN10GuiElement13SetEffectGrowEv
 2810              		.section	.text._ZN10GuiElement13UpdateEffectsEv,"ax",@progbits
 2811              		.align 2
 2812              		.globl _ZN10GuiElement13UpdateEffectsEv
 2813              		.type	_ZN10GuiElement13UpdateEffectsEv, @function
 2814              	_ZN10GuiElement13UpdateEffectsEv:
 2815              	.LVL240:
 2816              	.LFB2380:
 2817              		.loc 1 423 1 is_stmt 1 view -0
 2818              		.cfi_startproc
 2819              		.loc 1 424 2 view .LVU863
 2820              		.loc 1 424 5 is_stmt 0 view .LVU864
 2821 0000 81030048 		lwz 8,72(3)
 2822              		.loc 1 424 2 view .LVU865
 2823 0004 71090030 		andi. 9,8,0x30
 2824 0008 41820070 		beq- 0,.L220
 2825              		.loc 1 426 3 is_stmt 1 view .LVU866
 2826 000c 71090010 		andi. 9,8,0x10
 2827              		.loc 1 428 15 is_stmt 0 view .LVU867
 2828 0010 55090738 		rlwinm 9,8,0,28,28
 2829              		.loc 1 426 3 view .LVU868
 2830 0014 41820038 		beq- 0,.L221
 2831              		.loc 1 428 4 is_stmt 1 view .LVU869
 2832 0018 2C090000 		cmpwi 0,9,0
 2833 001c 4182027C 		beq- 0,.L222
 2834              		.loc 1 430 5 view .LVU870
 2835              		.loc 1 430 16 is_stmt 0 view .LVU871
 2836 0020 8123002C 		lwz 9,44(3)
 2837 0024 8143004C 		lwz 10,76(3)
 2838 0028 7D295214 		add 9,9,10
 2839              		.loc 1 432 5 view .LVU872
 2840 002c 2C090000 		cmpwi 0,9,0
 2841              		.loc 1 430 16 view .LVU873
 2842 0030 9123002C 		stw 9,44(3)
 2843              		.loc 1 432 5 is_stmt 1 view .LVU874
 2844 0034 41800044 		blt- 0,.L220
 2845              	.L225:
 2846              		.loc 1 434 6 view .LVU875
 2847              		.loc 1 434 17 is_stmt 0 view .LVU876
 2848 0038 39200000 		li 9,0
 2849 003c 9123002C 		stw 9,44(3)
 2850              		.loc 1 435 6 is_stmt 1 view .LVU877
 2851              	.L223:
 2852              		.loc 1 476 14 is_stmt 0 view .LVU878
 2853 0040 39200000 		li 9,0
 2854 0044 91230048 		stw 9,72(3)
 2855              		.loc 1 501 2 is_stmt 1 view .LVU879
 2856              		.loc 1 516 2 view .LVU880
 2857 0048 4E800020 		blr
 2858              	.L221:
 2859              		.loc 1 471 4 view .LVU881
 2860 004c 2C090000 		cmpwi 0,9,0
 2861 0050 4182026C 		beq- 0,.L228
 2862              		.loc 1 473 5 view .LVU882
 2863              		.loc 1 475 22 is_stmt 0 view .LVU883
 2864 0054 3D200000 		lis 9,screenwidth@ha
 2865              		.loc 1 473 16 view .LVU884
 2866 0058 80E3002C 		lwz 7,44(3)
 2867              		.loc 1 475 22 view .LVU885
 2868 005c 81490000 		lwz 10,screenwidth@l(9)
 2869              		.loc 1 473 16 view .LVU886
 2870 0060 8123004C 		lwz 9,76(3)
 2871              		.loc 1 475 22 view .LVU887
 2872 0064 7D4A00D0 		neg 10,10
 2873              		.loc 1 473 16 view .LVU888
 2874 0068 7D293850 		subf 9,9,7
 2875              		.loc 1 475 5 view .LVU889
 2876 006c 7C095000 		cmpw 0,9,10
 2877              		.loc 1 473 16 view .LVU890
 2878 0070 9123002C 		stw 9,44(3)
 2879              		.loc 1 475 5 is_stmt 1 view .LVU891
 2880 0074 40A1FFCC 		ble- 0,.L223
 2881              	.L220:
 2882              		.loc 1 501 2 view .LVU892
 2883 0078 71090040 		andi. 9,8,0x40
 2884              		.loc 1 423 1 is_stmt 0 view .LVU893
 2885 007c 9421FFD0 		stwu 1,-48(1)
 2886              		.cfi_def_cfa_offset 48
 2887              		.loc 1 501 2 view .LVU894
 2888 0080 4182017C 		beq- 0,.L232
 2889              		.loc 1 503 3 is_stmt 1 view .LVU895
 2890              		.loc 1 503 15 is_stmt 0 view .LVU896
 2891 0084 8143004C 		lwz 10,76(3)
 2892              		.loc 1 503 12 view .LVU897
 2893 0088 8123003C 		lwz 9,60(3)
 2894              		.loc 1 505 3 view .LVU898
 2895 008c 2C0A0000 		cmpwi 0,10,0
 2896              		.loc 1 503 12 view .LVU899
 2897 0090 7D2A4A14 		add 9,10,9
 2898 0094 9123003C 		stw 9,60(3)
 2899              		.loc 1 505 3 is_stmt 1 view .LVU900
 2900 0098 418000C0 		blt- 0,.L261
 2901              		.loc 1 510 8 view .LVU901
 2902 009c 41820160 		beq- 0,.L232
 2903              		.loc 1 510 43 is_stmt 0 discriminator 1 view .LVU902
 2904 00a0 80E30034 		lwz 7,52(3)
 2905              		.loc 1 510 28 discriminator 1 view .LVU903
 2906 00a4 7C093800 		cmpw 0,9,7
 2907 00a8 41800010 		blt- 0,.L237
 2908              		.loc 1 512 4 is_stmt 1 view .LVU904
 2909              		.loc 1 513 12 is_stmt 0 view .LVU905
 2910 00ac 550806B0 		rlwinm 8,8,0,26,24
 2911              		.loc 1 512 13 view .LVU906
 2912 00b0 90E3003C 		stw 7,60(3)
 2913              		.loc 1 513 4 is_stmt 1 view .LVU907
 2914              		.loc 1 513 12 is_stmt 0 view .LVU908
 2915 00b4 91030048 		stw 8,72(3)
 2916              	.L237:
 2917              		.loc 1 516 2 is_stmt 1 view .LVU909
 2918 00b8 71090080 		andi. 9,8,0x80
 2919 00bc 41820094 		beq- 0,.L219
 2920              		.loc 1 518 3 view .LVU910
 2921              		.loc 1 518 15 is_stmt 0 view .LVU911
 2922 00c0 6D4A8000 		xoris 10,10,0x8000
 2923 00c4 3D204330 		lis 9,0x4330
 2924 00c8 9141002C 		stw 10,44(1)
 2925 00cc 3D400000 		lis 10,.LC4@ha
 2926 00d0 91210028 		stw 9,40(1)
 2927              		.loc 1 518 32 view .LVU912
 2928 00d4 3D200000 		lis 9,.LC14@ha
 2929              		.loc 1 518 15 view .LVU913
 2930 00d8 C00A0000 		lfs 0,.LC4@l(10)
 2931              		.loc 1 521 40 discriminator 1 view .LVU914
 2932 00dc 3CC04330 		lis 6,0x4330
 2933              		.loc 1 518 15 view .LVU915
 2934 00e0 C9810028 		lfd 12,40(1)
 2935              		.loc 1 518 32 view .LVU916
 2936 00e4 C1690000 		lfs 11,.LC14@l(9)
 2937              		.loc 1 518 15 view .LVU917
 2938 00e8 FC0C0028 		fsub 0,12,0
 2939              		.loc 1 521 40 discriminator 1 view .LVU918
 2940 00ec 80E30050 		lwz 7,80(3)
 2941              		.loc 1 518 3 view .LVU919
 2942 00f0 C1830040 		lfs 12,64(3)
 2943              		.loc 1 521 40 discriminator 1 view .LVU920
 2944 00f4 6CE78000 		xoris 7,7,0x8000
 2945 00f8 90C10018 		stw 6,24(1)
 2946              		.loc 1 518 15 view .LVU921
 2947 00fc FC000018 		frsp 0,0
 2948              		.loc 1 521 40 discriminator 1 view .LVU922
 2949 0100 90E1001C 		stw 7,28(1)
 2950              		.loc 1 521 57 discriminator 1 view .LVU923
 2951 0104 C1490000 		lfs 10,.LC14@l(9)
 2952              		.loc 1 518 32 view .LVU924
 2953 0108 FC005824 		fdiv 0,0,11
 2954              		.loc 1 521 40 discriminator 1 view .LVU925
 2955 010c C9610018 		lfd 11,24(1)
 2956              		.loc 1 518 12 view .LVU926
 2957 0110 FC00602A 		fadd 0,0,12
 2958              		.loc 1 521 40 discriminator 1 view .LVU927
 2959 0114 C18A0000 		lfs 12,.LC4@l(10)
 2960 0118 FD8B6028 		fsub 12,11,12
 2961              		.loc 1 518 12 view .LVU928
 2962 011c FC000018 		frsp 0,0
 2963              		.loc 1 521 40 discriminator 1 view .LVU929
 2964 0120 FD806018 		frsp 12,12
 2965              		.loc 1 518 12 view .LVU930
 2966 0124 D0030040 		stfs 0,64(3)
 2967              		.loc 1 520 3 is_stmt 1 view .LVU931
 2968              		.loc 1 521 40 is_stmt 0 discriminator 1 view .LVU932
 2969 0128 FD606090 		fmr 11,12
 2970              		.loc 1 521 57 discriminator 1 view .LVU933
 2971 012c FD6B5024 		fdiv 11,11,10
 2972              		.loc 1 521 25 discriminator 1 view .LVU934
 2973 0130 FC005800 		fcmpu 0,0,11
 2974 0134 4C401B82 		cror 2,0,3
 2975 0138 41820018 		beq- 0,.L219
 2976              	.L241:
 2977              		.loc 1 523 4 is_stmt 1 view .LVU935
 2978              		.loc 1 523 32 is_stmt 0 view .LVU936
 2979 013c C0090000 		lfs 0,.LC14@l(9)
 2980              		.loc 1 524 12 view .LVU937
 2981 0140 5508066E 		rlwinm 8,8,0,25,23
 2982 0144 91030048 		stw 8,72(3)
 2983              		.loc 1 523 32 view .LVU938
 2984 0148 ED8C0024 		fdivs 12,12,0
 2985              		.loc 1 523 13 view .LVU939
 2986 014c D1830040 		stfs 12,64(3)
 2987              		.loc 1 524 4 is_stmt 1 view .LVU940
 2988              	.L219:
 2989              		.loc 1 527 1 is_stmt 0 view .LVU941
 2990 0150 38210030 		addi 1,1,48
 2991              		.cfi_remember_state
 2992              		.cfi_def_cfa_offset 0
 2993 0154 4E800020 		blr
 2994              	.L261:
 2995              		.cfi_restore_state
 2996              		.loc 1 505 23 discriminator 1 view .LVU942
 2997 0158 2C090000 		cmpwi 0,9,0
 2998 015c 4081018C 		ble- 0,.L262
 2999              	.L234:
 3000              		.loc 1 516 2 is_stmt 1 view .LVU943
 3001 0160 71090080 		andi. 9,8,0x80
 3002 0164 41A2FFEC 		beq- 0,.L219
 3003              		.loc 1 518 3 view .LVU944
 3004              		.loc 1 518 15 is_stmt 0 view .LVU945
 3005 0168 6D4A8000 		xoris 10,10,0x8000
 3006 016c 3D204330 		lis 9,0x4330
 3007 0170 91410024 		stw 10,36(1)
 3008 0174 3D400000 		lis 10,.LC4@ha
 3009 0178 91210020 		stw 9,32(1)
 3010              		.loc 1 518 32 view .LVU946
 3011 017c 3D200000 		lis 9,.LC14@ha
 3012              		.loc 1 518 15 view .LVU947
 3013 0180 C00A0000 		lfs 0,.LC4@l(10)
 3014 0184 C9810020 		lfd 12,32(1)
 3015              		.loc 1 518 32 view .LVU948
 3016 0188 C1690000 		lfs 11,.LC14@l(9)
 3017              		.loc 1 518 15 view .LVU949
 3018 018c FC0C0028 		fsub 0,12,0
 3019              		.loc 1 518 3 view .LVU950
 3020 0190 C1830040 		lfs 12,64(3)
 3021              		.loc 1 518 15 view .LVU951
 3022 0194 FC000018 		frsp 0,0
 3023              		.loc 1 518 32 view .LVU952
 3024 0198 FC005824 		fdiv 0,0,11
 3025              		.loc 1 518 12 view .LVU953
 3026 019c FC00602A 		fadd 0,0,12
 3027 01a0 FC000018 		frsp 0,0
 3028 01a4 D0030040 		stfs 0,64(3)
 3029              		.loc 1 520 3 is_stmt 1 view .LVU954
 3030              	.L244:
 3031              		.loc 1 520 39 is_stmt 0 discriminator 1 view .LVU955
 3032 01a8 80E30050 		lwz 7,80(3)
 3033 01ac 3CC04330 		lis 6,0x4330
 3034 01b0 90C10010 		stw 6,16(1)
 3035 01b4 6CE78000 		xoris 7,7,0x8000
 3036 01b8 C18A0000 		lfs 12,.LC4@l(10)
 3037 01bc 90E10014 		stw 7,20(1)
 3038              		.loc 1 520 56 discriminator 1 view .LVU956
 3039 01c0 C1490000 		lfs 10,.LC14@l(9)
 3040              		.loc 1 520 39 discriminator 1 view .LVU957
 3041 01c4 C9610010 		lfd 11,16(1)
 3042 01c8 FD8B6028 		fsub 12,11,12
 3043 01cc FD806018 		frsp 12,12
 3044 01d0 FD606090 		fmr 11,12
 3045              		.loc 1 520 56 discriminator 1 view .LVU958
 3046 01d4 FD6B5024 		fdiv 11,11,10
 3047              		.loc 1 520 24 discriminator 1 view .LVU959
 3048 01d8 FC005800 		fcmpu 0,0,11
 3049 01dc 4C401382 		cror 2,0,2
 3050 01e0 40A2FF70 		bne- 0,.L219
 3051              		.loc 1 523 4 is_stmt 1 view .LVU960
 3052              		.loc 1 523 32 is_stmt 0 view .LVU961
 3053 01e4 C0090000 		lfs 0,.LC14@l(9)
 3054              		.loc 1 524 12 view .LVU962
 3055 01e8 5508066E 		rlwinm 8,8,0,25,23
 3056 01ec 91030048 		stw 8,72(3)
 3057              		.loc 1 523 32 view .LVU963
 3058 01f0 ED8C0024 		fdivs 12,12,0
 3059              		.loc 1 523 13 view .LVU964
 3060 01f4 D1830040 		stfs 12,64(3)
 3061              		.loc 1 524 4 is_stmt 1 view .LVU965
 3062 01f8 4BFFFF58 		b .L219
 3063              	.L232:
 3064              		.loc 1 516 13 is_stmt 0 view .LVU966
 3065 01fc 55090630 		rlwinm 9,8,0,24,24
 3066              		.loc 1 516 2 is_stmt 1 view .LVU967
 3067 0200 2C090000 		cmpwi 0,9,0
 3068 0204 41A2FF4C 		beq- 0,.L219
 3069              		.loc 1 518 3 view .LVU968
 3070              		.loc 1 518 20 is_stmt 0 view .LVU969
 3071 0208 80E3004C 		lwz 7,76(3)
 3072              		.loc 1 518 15 view .LVU970
 3073 020c 3D204330 		lis 9,0x4330
 3074 0210 91210008 		stw 9,8(1)
 3075 0214 3D400000 		lis 10,.LC4@ha
 3076 0218 6CE98000 		xoris 9,7,0x8000
 3077 021c C00A0000 		lfs 0,.LC4@l(10)
 3078 0220 9121000C 		stw 9,12(1)
 3079              		.loc 1 518 32 view .LVU971
 3080 0224 3D200000 		lis 9,.LC14@ha
 3081 0228 C1690000 		lfs 11,.LC14@l(9)
 3082              		.loc 1 520 3 view .LVU972
 3083 022c 2C070000 		cmpwi 0,7,0
 3084              		.loc 1 518 15 view .LVU973
 3085 0230 C9410008 		lfd 10,8(1)
 3086              		.loc 1 518 3 view .LVU974
 3087 0234 C1830040 		lfs 12,64(3)
 3088              		.loc 1 518 15 view .LVU975
 3089 0238 FC0A0028 		fsub 0,10,0
 3090 023c FC000018 		frsp 0,0
 3091              		.loc 1 518 32 view .LVU976
 3092 0240 FC005824 		fdiv 0,0,11
 3093              		.loc 1 518 12 view .LVU977
 3094 0244 FC00602A 		fadd 0,0,12
 3095 0248 FC000018 		frsp 0,0
 3096 024c D0030040 		stfs 0,64(3)
 3097              		.loc 1 520 3 is_stmt 1 view .LVU978
 3098 0250 41A0FF58 		blt- 0,.L244
 3099              		.loc 1 521 4 is_stmt 0 view .LVU979
 3100 0254 41A2FEFC 		beq- 0,.L219
 3101              		.loc 1 521 40 discriminator 1 view .LVU980
 3102 0258 80E30050 		lwz 7,80(3)
 3103 025c 3CC04330 		lis 6,0x4330
 3104 0260 90C10018 		stw 6,24(1)
 3105 0264 6CE78000 		xoris 7,7,0x8000
 3106 0268 C18A0000 		lfs 12,.LC4@l(10)
 3107 026c 90E1001C 		stw 7,28(1)
 3108              		.loc 1 521 57 discriminator 1 view .LVU981
 3109 0270 C1490000 		lfs 10,.LC14@l(9)
 3110              		.loc 1 521 40 discriminator 1 view .LVU982
 3111 0274 C9610018 		lfd 11,24(1)
 3112 0278 FD8B6028 		fsub 12,11,12
 3113 027c FD806018 		frsp 12,12
 3114 0280 FD606090 		fmr 11,12
 3115              		.loc 1 521 57 discriminator 1 view .LVU983
 3116 0284 FD6B5024 		fdiv 11,11,10
 3117              		.loc 1 521 25 discriminator 1 view .LVU984
 3118 0288 FC005800 		fcmpu 0,0,11
 3119 028c 4C401B82 		cror 2,0,3
 3120 0290 41A2FEC0 		beq- 0,.L219
 3121 0294 4BFFFEA8 		b .L241
 3122              	.L222:
 3123              		.cfi_def_cfa_offset 0
 3124              		.loc 1 438 9 is_stmt 1 view .LVU985
 3125 0298 71090004 		andi. 9,8,0x4
 3126 029c 41820094 		beq- 0,.L224
 3127              		.loc 1 440 5 view .LVU986
 3128              		.loc 1 440 16 is_stmt 0 view .LVU987
 3129 02a0 8143002C 		lwz 10,44(3)
 3130 02a4 8123004C 		lwz 9,76(3)
 3131 02a8 7D295050 		subf 9,9,10
 3132              		.loc 1 442 5 view .LVU988
 3133 02ac 2C090000 		cmpwi 0,9,0
 3134              		.loc 1 440 16 view .LVU989
 3135 02b0 9123002C 		stw 9,44(3)
 3136              		.loc 1 442 5 is_stmt 1 view .LVU990
 3137 02b4 4181FDC4 		bgt+ 0,.L220
 3138 02b8 4BFFFD80 		b .L225
 3139              	.L228:
 3140              		.loc 1 478 9 view .LVU991
 3141 02bc 71090004 		andi. 9,8,0x4
 3142 02c0 4182003C 		beq- 0,.L229
 3143              		.loc 1 480 5 view .LVU992
 3144              		.loc 1 480 16 is_stmt 0 view .LVU993
 3145 02c4 8123002C 		lwz 9,44(3)
 3146              		.loc 1 482 19 view .LVU994
 3147 02c8 3D400000 		lis 10,screenwidth@ha
 3148              		.loc 1 480 16 view .LVU995
 3149 02cc 80E3004C 		lwz 7,76(3)
 3150              		.loc 1 482 5 view .LVU996
 3151 02d0 814A0000 		lwz 10,screenwidth@l(10)
 3152              		.loc 1 480 16 view .LVU997
 3153 02d4 7D293A14 		add 9,9,7
 3154              		.loc 1 482 5 view .LVU998
 3155 02d8 7C095000 		cmpw 0,9,10
 3156              		.loc 1 480 16 view .LVU999
 3157 02dc 9123002C 		stw 9,44(3)
 3158              		.loc 1 482 5 is_stmt 1 view .LVU1000
 3159 02e0 40A0FD60 		bge- 0,.L223
 3160 02e4 4BFFFD94 		b .L220
 3161              	.L262:
 3162              		.cfi_def_cfa_offset 48
 3163              		.loc 1 507 4 view .LVU1001
 3164              		.loc 1 508 12 is_stmt 0 view .LVU1002
 3165 02e8 550806B0 		rlwinm 8,8,0,26,24
 3166              		.loc 1 507 13 view .LVU1003
 3167 02ec 39200000 		li 9,0
 3168              		.loc 1 508 12 view .LVU1004
 3169 02f0 91030048 		stw 8,72(3)
 3170              		.loc 1 507 13 view .LVU1005
 3171 02f4 9123003C 		stw 9,60(3)
 3172              		.loc 1 508 4 is_stmt 1 view .LVU1006
 3173              		.loc 1 508 12 is_stmt 0 view .LVU1007
 3174 02f8 4BFFFE68 		b .L234
 3175              	.L229:
 3176              		.cfi_def_cfa_offset 0
 3177              		.loc 1 485 9 is_stmt 1 view .LVU1008
 3178 02fc 71090001 		andi. 9,8,0x1
 3179 0300 40820080 		bne- 0,.L263
 3180              		.loc 1 492 9 view .LVU1009
 3181 0304 71090002 		andi. 9,8,0x2
 3182 0308 41A2FD70 		beq- 0,.L220
 3183              		.loc 1 494 5 view .LVU1010
 3184              		.loc 1 494 16 is_stmt 0 view .LVU1011
 3185 030c 81230030 		lwz 9,48(3)
 3186              		.loc 1 496 19 view .LVU1012
 3187 0310 3D400000 		lis 10,screenheight@ha
 3188              		.loc 1 494 16 view .LVU1013
 3189 0314 80E3004C 		lwz 7,76(3)
 3190              		.loc 1 496 5 view .LVU1014
 3191 0318 814A0000 		lwz 10,screenheight@l(10)
 3192              		.loc 1 494 16 view .LVU1015
 3193 031c 7D293A14 		add 9,9,7
 3194              		.loc 1 496 5 view .LVU1016
 3195 0320 7C095000 		cmpw 0,9,10
 3196              		.loc 1 494 16 view .LVU1017
 3197 0324 91230030 		stw 9,48(3)
 3198              		.loc 1 496 5 is_stmt 1 view .LVU1018
 3199 0328 40A0FD18 		bge- 0,.L223
 3200 032c 4BFFFD4C 		b .L220
 3201              	.L224:
 3202              		.loc 1 448 9 view .LVU1019
 3203 0330 71090001 		andi. 9,8,0x1
 3204 0334 40820030 		bne- 0,.L264
 3205              		.loc 1 458 9 view .LVU1020
 3206 0338 71090002 		andi. 9,8,0x2
 3207 033c 41A2FD3C 		beq- 0,.L220
 3208              		.loc 1 460 5 view .LVU1021
 3209              		.loc 1 460 16 is_stmt 0 view .LVU1022
 3210 0340 81430030 		lwz 10,48(3)
 3211 0344 8123004C 		lwz 9,76(3)
 3212 0348 7D295050 		subf 9,9,10
 3213              		.loc 1 462 5 view .LVU1023
 3214 034c 2C090000 		cmpwi 0,9,0
 3215              		.loc 1 460 16 view .LVU1024
 3216 0350 91230030 		stw 9,48(3)
 3217              		.loc 1 462 5 is_stmt 1 view .LVU1025
 3218 0354 4181FD24 		bgt+ 0,.L220
 3219              	.L227:
 3220              		.loc 1 454 6 view .LVU1026
 3221              		.loc 1 454 17 is_stmt 0 view .LVU1027
 3222 0358 39200000 		li 9,0
 3223 035c 91230030 		stw 9,48(3)
 3224              		.loc 1 455 6 is_stmt 1 view .LVU1028
 3225 0360 4BFFFCE0 		b .L223
 3226              	.L264:
 3227              		.loc 1 450 5 view .LVU1029
 3228              		.loc 1 450 16 is_stmt 0 view .LVU1030
 3229 0364 81230030 		lwz 9,48(3)
 3230 0368 8143004C 		lwz 10,76(3)
 3231 036c 7D295214 		add 9,9,10
 3232              		.loc 1 452 5 view .LVU1031
 3233 0370 2C090000 		cmpwi 0,9,0
 3234              		.loc 1 450 16 view .LVU1032
 3235 0374 91230030 		stw 9,48(3)
 3236              		.loc 1 452 5 is_stmt 1 view .LVU1033
 3237 0378 4080FFE0 		bge+ 0,.L227
 3238 037c 4BFFFCFC 		b .L220
 3239              	.L263:
 3240              		.loc 1 487 5 view .LVU1034
 3241              		.loc 1 489 22 is_stmt 0 view .LVU1035
 3242 0380 3D200000 		lis 9,screenheight@ha
 3243              		.loc 1 487 16 view .LVU1036
 3244 0384 80E30030 		lwz 7,48(3)
 3245              		.loc 1 489 22 view .LVU1037
 3246 0388 81490000 		lwz 10,screenheight@l(9)
 3247              		.loc 1 487 16 view .LVU1038
 3248 038c 8123004C 		lwz 9,76(3)
 3249              		.loc 1 489 22 view .LVU1039
 3250 0390 7D4A00D0 		neg 10,10
 3251              		.loc 1 487 16 view .LVU1040
 3252 0394 7D293850 		subf 9,9,7
 3253              		.loc 1 489 5 view .LVU1041
 3254 0398 7C095000 		cmpw 0,9,10
 3255              		.loc 1 487 16 view .LVU1042
 3256 039c 91230030 		stw 9,48(3)
 3257              		.loc 1 489 5 is_stmt 1 view .LVU1043
 3258 03a0 40A1FCA0 		ble- 0,.L223
 3259 03a4 4BFFFCD4 		b .L220
 3260              		.cfi_endproc
 3261              	.LFE2380:
 3262              		.size	_ZN10GuiElement13UpdateEffectsEv, .-_ZN10GuiElement13UpdateEffectsEv
 3263              		.section	.text._ZN10GuiElement17SetUpdateCallbackEPFvPvE,"ax",@progbits
 3264              		.align 2
 3265              		.globl _ZN10GuiElement17SetUpdateCallbackEPFvPvE
 3266              		.type	_ZN10GuiElement17SetUpdateCallbackEPFvPvE, @function
 3267              	_ZN10GuiElement17SetUpdateCallbackEPFvPvE:
 3268              	.LVL241:
 3269              	.LFB2382:
 3270              		.loc 1 536 1 view -0
 3271              		.cfi_startproc
 3272              		.loc 1 537 2 view .LVU1045
 3273              		.loc 1 537 11 is_stmt 0 view .LVU1046
 3274 0000 90830080 		stw 4,128(3)
 3275              		.loc 1 538 1 view .LVU1047
 3276 0004 4E800020 		blr
 3277              		.cfi_endproc
 3278              	.LFE2382:
 3279              		.size	_ZN10GuiElement17SetUpdateCallbackEPFvPvE, .-_ZN10GuiElement17SetUpdateCallbackEPFvPvE
 3280              		.section	.text._ZN10GuiElement11SetPositionEii,"ax",@progbits
 3281              		.align 2
 3282              		.globl _ZN10GuiElement11SetPositionEii
 3283              		.type	_ZN10GuiElement11SetPositionEii, @function
 3284              	_ZN10GuiElement11SetPositionEii:
 3285              	.LVL242:
 3286              	.LFB2383:
 3287              		.loc 1 541 1 is_stmt 1 view -0
 3288              		.cfi_startproc
 3289              		.loc 1 542 2 view .LVU1049
 3290              		.loc 1 542 10 is_stmt 0 view .LVU1050
 3291 0000 90830014 		stw 4,20(3)
 3292              		.loc 1 543 2 is_stmt 1 view .LVU1051
 3293              		.loc 1 543 10 is_stmt 0 view .LVU1052
 3294 0004 90A30018 		stw 5,24(3)
 3295              		.loc 1 544 1 view .LVU1053
 3296 0008 4E800020 		blr
 3297              		.cfi_endproc
 3298              	.LFE2383:
 3299              		.size	_ZN10GuiElement11SetPositionEii, .-_ZN10GuiElement11SetPositionEii
 3300              		.section	.text._ZN10GuiElement8IsInsideEii,"ax",@progbits
 3301              		.align 2
 3302              		.globl _ZN10GuiElement8IsInsideEii
 3303              		.type	_ZN10GuiElement8IsInsideEii, @function
 3304              	_ZN10GuiElement8IsInsideEii:
 3305              	.LVL243:
 3306              	.LFB2387:
 3307              		.loc 1 570 1 is_stmt 1 view -0
 3308              		.cfi_startproc
 3309              		.loc 1 571 2 view .LVU1055
 3310              		.loc 1 570 1 is_stmt 0 view .LVU1056
 3311 0000 9421FFC0 		stwu 1,-64(1)
 3312              		.cfi_def_cfa_offset 64
 3313 0004 7D800026 		mfcr 12
 3314 0008 93C10038 		stw 30,56(1)
 3315              		.cfi_offset 30, -8
 3316              	.LBB190:
 3317              	.LBB191:
 3318              		.loc 1 84 5 view .LVU1057
 3319 000c 83C3007C 		lwz 30,124(3)
 3320              	.LBE191:
 3321              	.LBE190:
 3322              		.loc 1 570 1 view .LVU1058
 3323 0010 91810014 		stw 12,20(1)
 3324              	.LBB251:
 3325              	.LBB244:
 3326              		.loc 1 84 2 view .LVU1059
 3327 0014 2E1E0000 		cmpwi 4,30,0
 3328              	.LBE244:
 3329              	.LBE251:
 3330              		.loc 1 570 1 view .LVU1060
 3331 0018 93810030 		stw 28,48(1)
 3332 001c 93E1003C 		stw 31,60(1)
 3333              		.cfi_offset 70, -44
 3334              		.cfi_offset 28, -16
 3335              		.cfi_offset 31, -4
 3336 0020 7CBC2B78 		mr 28,5
 3337 0024 9361002C 		stw 27,44(1)
 3338 0028 7C7F1B78 		mr 31,3
 3339              	.LVL244:
 3340              	.LBB252:
 3341              	.LBI190:
 3342              		.loc 1 78 5 is_stmt 1 view .LVU1061
 3343              	.LBB245:
 3344              		.loc 1 80 2 view .LVU1062
 3345              		.loc 1 81 2 view .LVU1063
 3346              		.loc 1 82 2 view .LVU1064
 3347              		.loc 1 84 2 view .LVU1065
 3348              		.cfi_offset 27, -20
 3349 002c 419201BC 		beq- 4,.L294
 3350 0030 93410028 		stw 26,40(1)
 3351              		.cfi_offset 26, -24
 3352              		.loc 1 86 3 view .LVU1066
 3353              	.LVL245:
 3354              	.LBB192:
 3355              	.LBI192:
 3356              		.loc 1 188 5 view .LVU1067
 3357              	.LBB193:
 3358              		.loc 1 190 2 view .LVU1068
 3359              	.LBE193:
 3360              	.LBE192:
 3361              	.LBB195:
 3362              	.LBB196:
 3363              		.loc 1 84 5 is_stmt 0 view .LVU1069
 3364 0034 835E007C 		lwz 26,124(30)
 3365 0038 93210024 		stw 25,36(1)
 3366              		.cfi_offset 25, -28
 3367              		.loc 1 84 2 view .LVU1070
 3368 003c 2C1A0000 		cmpwi 0,26,0
 3369              	.LBE196:
 3370              	.LBE195:
 3371              	.LBB237:
 3372              	.LBB194:
 3373              		.loc 1 190 9 view .LVU1071
 3374 0040 837E000C 		lwz 27,12(30)
 3375              	.LVL246:
 3376              		.loc 1 190 9 view .LVU1072
 3377              	.LBE194:
 3378              	.LBE237:
 3379              		.loc 1 87 3 is_stmt 1 view .LVU1073
 3380              	.LBB238:
 3381              	.LBI195:
 3382              		.loc 1 78 5 view .LVU1074
 3383              	.LBB231:
 3384              		.loc 1 80 2 view .LVU1075
 3385              		.loc 1 81 2 view .LVU1076
 3386              		.loc 1 82 2 view .LVU1077
 3387              		.loc 1 84 2 view .LVU1078
 3388 0044 418200DC 		beq- 0,.L295
 3389 0048 93010020 		stw 24,32(1)
 3390              		.cfi_offset 24, -32
 3391              		.loc 1 86 3 view .LVU1079
 3392              	.LVL247:
 3393              	.LBB197:
 3394              	.LBI197:
 3395              		.loc 1 188 5 view .LVU1080
 3396              	.LBB198:
 3397              		.loc 1 190 2 view .LVU1081
 3398              	.LBE198:
 3399              	.LBE197:
 3400              	.LBB200:
 3401              	.LBB201:
 3402              		.loc 1 84 5 is_stmt 0 view .LVU1082
 3403 004c 831A007C 		lwz 24,124(26)
 3404 0050 92E1001C 		stw 23,28(1)
 3405              		.cfi_offset 23, -36
 3406              		.loc 1 84 2 view .LVU1083
 3407 0054 2C180000 		cmpwi 0,24,0
 3408              	.LBE201:
 3409              	.LBE200:
 3410              	.LBB225:
 3411              	.LBB199:
 3412              		.loc 1 190 9 view .LVU1084
 3413 0058 833A000C 		lwz 25,12(26)
 3414              	.LVL248:
 3415              		.loc 1 190 9 view .LVU1085
 3416              	.LBE199:
 3417              	.LBE225:
 3418              		.loc 1 87 3 is_stmt 1 view .LVU1086
 3419              	.LBB226:
 3420              	.LBI200:
 3421              		.loc 1 78 5 view .LVU1087
 3422              	.LBB220:
 3423              		.loc 1 80 2 view .LVU1088
 3424              		.loc 1 81 2 view .LVU1089
 3425              		.loc 1 82 2 view .LVU1090
 3426              		.loc 1 84 2 view .LVU1091
 3427 005c 418201C8 		beq- 0,.L296
 3428              	.LBB202:
 3429              	.LBB203:
 3430              		.loc 1 84 5 is_stmt 0 view .LVU1092
 3431 0060 8078007C 		lwz 3,124(24)
 3432              	.LVL249:
 3433              		.loc 1 84 5 view .LVU1093
 3434 0064 92C10018 		stw 22,24(1)
 3435              		.cfi_offset 22, -40
 3436              	.LBE203:
 3437              	.LBE202:
 3438              		.loc 1 86 3 is_stmt 1 view .LVU1094
 3439              	.LVL250:
 3440              	.LBB211:
 3441              	.LBI211:
 3442              		.loc 1 188 5 view .LVU1095
 3443              	.LBB212:
 3444              		.loc 1 190 2 view .LVU1096
 3445              	.LBE212:
 3446              	.LBE211:
 3447              	.LBB214:
 3448              	.LBB206:
 3449              		.loc 1 84 2 is_stmt 0 view .LVU1097
 3450 0068 2C030000 		cmpwi 0,3,0
 3451              	.LBE206:
 3452              	.LBE214:
 3453              	.LBB215:
 3454              	.LBB213:
 3455              		.loc 1 190 9 view .LVU1098
 3456 006c 82F8000C 		lwz 23,12(24)
 3457              	.LVL251:
 3458              		.loc 1 190 9 view .LVU1099
 3459              	.LBE213:
 3460              	.LBE215:
 3461              		.loc 1 87 3 is_stmt 1 view .LVU1100
 3462              	.LBB216:
 3463              	.LBI202:
 3464              		.loc 1 78 5 view .LVU1101
 3465              	.LBB207:
 3466              		.loc 1 80 2 view .LVU1102
 3467              		.loc 1 81 2 view .LVU1103
 3468              		.loc 1 82 2 view .LVU1104
 3469              		.loc 1 84 2 view .LVU1105
 3470 0070 418202B0 		beq- 0,.L297
 3471 0074 7C0802A6 		mflr 0
 3472              		.cfi_register 65, 0
 3473 0078 90810008 		stw 4,8(1)
 3474              		.loc 1 86 3 view .LVU1106
 3475              	.LVL252:
 3476              	.LBB204:
 3477              	.LBI204:
 3478              		.loc 1 188 5 view .LVU1107
 3479              	.LBB205:
 3480              		.loc 1 190 2 view .LVU1108
 3481 007c 90010044 		stw 0,68(1)
 3482              		.cfi_offset 65, 4
 3483              		.loc 1 190 9 is_stmt 0 view .LVU1109
 3484 0080 82C3000C 		lwz 22,12(3)
 3485              	.LVL253:
 3486              		.loc 1 190 9 view .LVU1110
 3487              	.LBE205:
 3488              	.LBE204:
 3489              		.loc 1 87 3 is_stmt 1 view .LVU1111
 3490              		.loc 1 87 33 is_stmt 0 view .LVU1112
 3491 0084 48000001 		bl _ZN10GuiElement7GetLeftEv
 3492              	.LVL254:
 3493              		.loc 1 87 33 view .LVU1113
 3494 0088 80010044 		lwz 0,68(1)
 3495 008c 7C691B78 		mr 9,3
 3496              	.LVL255:
 3497              		.loc 1 87 33 view .LVU1114
 3498 0090 80810008 		lwz 4,8(1)
 3499 0094 7C0803A6 		mtlr 0
 3500              		.cfi_restore 65
 3501              	.LVL256:
 3502              	.L271:
 3503              		.loc 1 90 2 is_stmt 1 view .LVU1115
 3504              		.loc 1 90 13 is_stmt 0 view .LVU1116
 3505 0098 81580048 		lwz 10,72(24)
 3506              		.loc 1 90 2 view .LVU1117
 3507 009c 714A0030 		andi. 10,10,0x30
 3508 00a0 4182000C 		beq- 0,.L272
 3509              		.loc 1 91 3 is_stmt 1 view .LVU1118
 3510              		.loc 1 91 9 is_stmt 0 view .LVU1119
 3511 00a4 8158002C 		lwz 10,44(24)
 3512              	.LVL257:
 3513              		.loc 1 91 9 view .LVU1120
 3514 00a8 7D295214 		add 9,9,10
 3515              	.LVL258:
 3516              	.L272:
 3517              		.loc 1 93 2 is_stmt 1 view .LVU1121
 3518              		.loc 1 93 9 is_stmt 0 view .LVU1122
 3519 00ac 81580060 		lwz 10,96(24)
 3520              		.loc 1 93 2 view .LVU1123
 3521 00b0 2C0A0001 		cmpwi 0,10,1
 3522 00b4 418202C4 		beq- 0,.L273
 3523 00b8 2C0A0002 		cmpwi 0,10,2
 3524 00bc 418202A0 		beq- 0,.L274
 3525              		.loc 1 80 6 view .LVU1124
 3526 00c0 314AFFFF 		addic 10,10,-1
 3527 00c4 7D4A5110 		subfe 10,10,10
 3528 00c8 7D295038 		and 9,9,10
 3529              	.LVL259:
 3530              	.L275:
 3531              		.loc 1 105 2 is_stmt 1 view .LVU1125
 3532              		.loc 1 105 13 is_stmt 0 view .LVU1126
 3533 00cc 81580014 		lwz 10,20(24)
 3534              	.LBE207:
 3535              	.LBE216:
 3536 00d0 82C10018 		lwz 22,24(1)
 3537              		.cfi_restore 22
 3538              	.LBB217:
 3539              	.LBB208:
 3540 00d4 7D295214 		add 9,9,10
 3541              	.LVL260:
 3542              	.L270:
 3543              		.loc 1 105 13 view .LVU1127
 3544              	.LBE208:
 3545              	.LBE217:
 3546              		.loc 1 90 2 is_stmt 1 view .LVU1128
 3547              		.loc 1 90 13 is_stmt 0 view .LVU1129
 3548 00d8 815A0048 		lwz 10,72(26)
 3549              		.loc 1 90 2 view .LVU1130
 3550 00dc 714A0030 		andi. 10,10,0x30
 3551 00e0 4182000C 		beq- 0,.L276
 3552              		.loc 1 91 3 is_stmt 1 view .LVU1131
 3553              		.loc 1 91 9 is_stmt 0 view .LVU1132
 3554 00e4 815A002C 		lwz 10,44(26)
 3555              	.LVL261:
 3556              		.loc 1 91 9 view .LVU1133
 3557 00e8 7D295214 		add 9,9,10
 3558              	.LVL262:
 3559              	.L276:
 3560              		.loc 1 93 2 is_stmt 1 view .LVU1134
 3561              		.loc 1 93 9 is_stmt 0 view .LVU1135
 3562 00ec 815A0060 		lwz 10,96(26)
 3563              		.loc 1 93 2 view .LVU1136
 3564 00f0 2C0A0001 		cmpwi 0,10,1
 3565 00f4 41820220 		beq- 0,.L277
 3566 00f8 2C0A0002 		cmpwi 0,10,2
 3567 00fc 418201FC 		beq- 0,.L278
 3568              		.loc 1 80 6 view .LVU1137
 3569 0100 314AFFFF 		addic 10,10,-1
 3570 0104 7D4A5110 		subfe 10,10,10
 3571 0108 7D295038 		and 9,9,10
 3572              	.LVL263:
 3573              	.L279:
 3574              		.loc 1 105 2 is_stmt 1 view .LVU1138
 3575              		.loc 1 105 13 is_stmt 0 view .LVU1139
 3576 010c 815A0014 		lwz 10,20(26)
 3577              	.LBE220:
 3578              	.LBE226:
 3579 0110 82E1001C 		lwz 23,28(1)
 3580              		.cfi_restore 23
 3581 0114 83010020 		lwz 24,32(1)
 3582              		.cfi_restore 24
 3583              	.LBB227:
 3584              	.LBB221:
 3585 0118 7D295214 		add 9,9,10
 3586              	.LVL264:
 3587              		.loc 1 105 13 view .LVU1140
 3588              	.LBE221:
 3589              	.LBE227:
 3590 011c 4800000C 		b .L269
 3591              	.LVL265:
 3592              	.L295:
 3593              		.loc 1 82 6 view .LVU1141
 3594 0120 39200000 		li 9,0
 3595              		.loc 1 81 6 view .LVU1142
 3596 0124 3B200000 		li 25,0
 3597              	.LVL266:
 3598              	.L269:
 3599              		.loc 1 90 2 is_stmt 1 view .LVU1143
 3600              		.loc 1 90 13 is_stmt 0 view .LVU1144
 3601 0128 815E0048 		lwz 10,72(30)
 3602              		.loc 1 90 2 view .LVU1145
 3603 012c 714A0030 		andi. 10,10,0x30
 3604 0130 4182000C 		beq- 0,.L280
 3605              		.loc 1 91 3 is_stmt 1 view .LVU1146
 3606              		.loc 1 91 9 is_stmt 0 view .LVU1147
 3607 0134 815E002C 		lwz 10,44(30)
 3608              	.LVL267:
 3609              		.loc 1 91 9 view .LVU1148
 3610 0138 7D295214 		add 9,9,10
 3611              	.LVL268:
 3612              	.L280:
 3613              		.loc 1 93 2 is_stmt 1 view .LVU1149
 3614              		.loc 1 93 9 is_stmt 0 view .LVU1150
 3615 013c 815E0060 		lwz 10,96(30)
 3616              		.loc 1 93 2 view .LVU1151
 3617 0140 2C0A0001 		cmpwi 0,10,1
 3618 0144 4182019C 		beq- 0,.L281
 3619 0148 2C0A0002 		cmpwi 0,10,2
 3620 014c 41820178 		beq- 0,.L282
 3621              		.loc 1 80 6 view .LVU1152
 3622 0150 314AFFFF 		addic 10,10,-1
 3623 0154 7D4A5110 		subfe 10,10,10
 3624 0158 7D295038 		and 9,9,10
 3625              	.LVL269:
 3626              	.L283:
 3627              		.loc 1 105 2 is_stmt 1 view .LVU1153
 3628              		.loc 1 105 13 is_stmt 0 view .LVU1154
 3629 015c 815E0014 		lwz 10,20(30)
 3630              	.LBE231:
 3631              	.LBE238:
 3632 0160 83210024 		lwz 25,36(1)
 3633              		.cfi_restore 25
 3634 0164 83410028 		lwz 26,40(1)
 3635              		.cfi_restore 26
 3636              	.LBB239:
 3637              	.LBB232:
 3638 0168 7D295214 		add 9,9,10
 3639              	.LVL270:
 3640              	.L268:
 3641              		.loc 1 105 13 view .LVU1155
 3642              	.LBE232:
 3643              	.LBE239:
 3644              		.loc 1 90 2 is_stmt 1 view .LVU1156
 3645              		.loc 1 90 13 is_stmt 0 view .LVU1157
 3646 016c 815F0048 		lwz 10,72(31)
 3647              		.loc 1 90 2 view .LVU1158
 3648 0170 714A0030 		andi. 10,10,0x30
 3649 0174 4182000C 		beq- 0,.L284
 3650              		.loc 1 91 3 is_stmt 1 view .LVU1159
 3651              		.loc 1 91 9 is_stmt 0 view .LVU1160
 3652 0178 815F002C 		lwz 10,44(31)
 3653              	.LVL271:
 3654              		.loc 1 91 9 view .LVU1161
 3655 017c 7D295214 		add 9,9,10
 3656              	.LVL272:
 3657              	.L284:
 3658              		.loc 1 93 2 is_stmt 1 view .LVU1162
 3659              		.loc 1 93 9 is_stmt 0 view .LVU1163
 3660 0180 815F0060 		lwz 10,96(31)
 3661              		.loc 1 93 2 view .LVU1164
 3662 0184 2F8A0001 		cmpwi 7,10,1
 3663 0188 419E008C 		beq- 7,.L285
 3664 018c 2F8A0002 		cmpwi 7,10,2
 3665 0190 419E0064 		beq- 7,.L286
 3666              		.loc 1 80 6 view .LVU1165
 3667 0194 314AFFFF 		addic 10,10,-1
 3668 0198 7D4A5110 		subfe 10,10,10
 3669 019c 7D295038 		and 9,9,10
 3670              	.LVL273:
 3671              	.L287:
 3672              		.loc 1 105 2 is_stmt 1 view .LVU1166
 3673              		.loc 1 105 13 is_stmt 0 view .LVU1167
 3674 01a0 815F0014 		lwz 10,20(31)
 3675              	.LBE245:
 3676              	.LBE252:
 3677              		.loc 1 574 9 view .LVU1168
 3678 01a4 38600000 		li 3,0
 3679              	.LBB253:
 3680              	.LBB246:
 3681              		.loc 1 105 13 view .LVU1169
 3682 01a8 7D295214 		add 9,9,10
 3683              	.LVL274:
 3684              		.loc 1 105 13 view .LVU1170
 3685              	.LBE246:
 3686              	.LBE253:
 3687              		.loc 1 572 24 view .LVU1171
 3688 01ac 7F844800 		cmpw 7,4,9
 3689 01b0 409D0014 		ble- 7,.L288
 3690              		.loc 1 571 48 discriminator 1 view .LVU1172
 3691 01b4 815F000C 		lwz 10,12(31)
 3692 01b8 7D295214 		add 9,9,10
 3693              		.loc 1 571 25 discriminator 1 view .LVU1173
 3694 01bc 7F892000 		cmpw 7,9,4
 3695 01c0 419D0070 		bgt- 7,.L326
 3696              	.L288:
 3697              		.loc 1 575 1 view .LVU1174
 3698 01c4 81810014 		lwz 12,20(1)
 3699              		.cfi_remember_state
 3700              		.cfi_register 70, 12
 3701 01c8 5463063E 		rlwinm 3,3,0,0xff
 3702 01cc 8361002C 		lwz 27,44(1)
 3703 01d0 83810030 		lwz 28,48(1)
 3704              	.LVL275:
 3705              		.loc 1 575 1 view .LVU1175
 3706 01d4 7D808120 		mtcrf 8,12
 3707              		.cfi_restore 70
 3708 01d8 83C10038 		lwz 30,56(1)
 3709 01dc 83E1003C 		lwz 31,60(1)
 3710              	.LVL276:
 3711              		.loc 1 575 1 view .LVU1176
 3712 01e0 38210040 		addi 1,1,64
 3713              		.cfi_restore 31
 3714              		.cfi_restore 30
 3715              		.cfi_restore 28
 3716              		.cfi_restore 27
 3717              		.cfi_def_cfa_offset 0
 3718 01e4 4E800020 		blr
 3719              	.LVL277:
 3720              	.L294:
 3721              		.cfi_restore_state
 3722              	.LBB254:
 3723              	.LBB247:
 3724              		.loc 1 82 6 view .LVU1177
 3725 01e8 39200000 		li 9,0
 3726              		.loc 1 81 6 view .LVU1178
 3727 01ec 3B600000 		li 27,0
 3728 01f0 4BFFFF7C 		b .L268
 3729              	.LVL278:
 3730              	.L286:
 3731              		.loc 1 98 3 is_stmt 1 view .LVU1179
 3732              		.loc 1 99 4 view .LVU1180
 3733              		.loc 1 99 35 is_stmt 0 view .LVU1181
 3734 01f4 815F000C 		lwz 10,12(31)
 3735              		.loc 1 99 23 view .LVU1182
 3736 01f8 7F7B0E70 		srawi 27,27,1
 3737 01fc 7F7B0194 		addze 27,27
 3738              	.LVL279:
 3739              		.loc 1 99 14 view .LVU1183
 3740 0200 7D3B4A14 		add 9,27,9
 3741              		.loc 1 99 35 view .LVU1184
 3742 0204 7D4A0E70 		srawi 10,10,1
 3743 0208 7D4A0194 		addze 10,10
 3744              		.loc 1 99 6 view .LVU1185
 3745 020c 7D2A4850 		subf 9,10,9
 3746              	.LVL280:
 3747              		.loc 1 100 4 is_stmt 1 view .LVU1186
 3748 0210 4BFFFF90 		b .L287
 3749              	.LVL281:
 3750              	.L285:
 3751              		.loc 1 101 3 view .LVU1187
 3752              		.loc 1 102 4 view .LVU1188
 3753              		.loc 1 102 6 is_stmt 0 view .LVU1189
 3754 0214 815F000C 		lwz 10,12(31)
 3755              		.loc 1 102 14 view .LVU1190
 3756 0218 7D3B4A14 		add 9,27,9
 3757              		.loc 1 102 6 view .LVU1191
 3758 021c 7D2A4850 		subf 9,10,9
 3759              	.LVL282:
 3760              		.loc 1 103 4 is_stmt 1 view .LVU1192
 3761 0220 4BFFFF80 		b .L287
 3762              	.LVL283:
 3763              	.L296:
 3764              		.cfi_offset 23, -36
 3765              		.cfi_offset 24, -32
 3766              		.cfi_offset 25, -28
 3767              		.cfi_offset 26, -24
 3768              	.LBB240:
 3769              	.LBB233:
 3770              	.LBB228:
 3771              	.LBB222:
 3772              		.loc 1 82 6 is_stmt 0 view .LVU1193
 3773 0224 39200000 		li 9,0
 3774              		.loc 1 81 6 view .LVU1194
 3775 0228 3AE00000 		li 23,0
 3776 022c 4BFFFEAC 		b .L270
 3777              	.LVL284:
 3778              	.L326:
 3779              		.cfi_restore 23
 3780              		.cfi_restore 24
 3781              		.cfi_restore 25
 3782              		.cfi_restore 26
 3783              		.loc 1 81 6 view .LVU1195
 3784              	.LBE222:
 3785              	.LBE228:
 3786              	.LBE233:
 3787              	.LBE240:
 3788              	.LBE247:
 3789              	.LBE254:
 3790              	.LBB255:
 3791              	.LBI255:
 3792              		.loc 1 113 5 is_stmt 1 view .LVU1196
 3793              	.LBB256:
 3794              		.loc 1 115 2 view .LVU1197
 3795              		.loc 1 116 2 view .LVU1198
 3796              		.loc 1 117 2 view .LVU1199
 3797              		.loc 1 119 2 view .LVU1200
 3798 0230 419200BC 		beq- 4,.L300
 3799 0234 7D200026 		mfcr 9
 3800 0238 7C0802A6 		mflr 0
 3801              		.cfi_register 65, 0
 3802              		.loc 1 122 31 is_stmt 0 view .LVU1201
 3803 023c 7FC3F378 		mr 3,30
 3804 0240 90010044 		stw 0,68(1)
 3805              		.cfi_offset 65, 4
 3806 0244 91210008 		stw 9,8(1)
 3807              		.loc 1 121 3 is_stmt 1 view .LVU1202
 3808              	.LVL285:
 3809              	.LBB257:
 3810              	.LBI257:
 3811              		.loc 1 198 5 view .LVU1203
 3812              	.LBB258:
 3813              		.loc 1 200 2 view .LVU1204
 3814              	.LBE258:
 3815              	.LBE257:
 3816              		.loc 1 122 31 is_stmt 0 view .LVU1205
 3817 0248 48000001 		bl _ZN10GuiElement6GetTopEv
 3818              	.LVL286:
 3819              		.loc 1 122 31 view .LVU1206
 3820 024c 81210008 		lwz 9,8(1)
 3821 0250 80010044 		lwz 0,68(1)
 3822              	.LBB260:
 3823              	.LBB259:
 3824              		.loc 1 200 9 view .LVU1207
 3825 0254 83DE0010 		lwz 30,16(30)
 3826              	.LVL287:
 3827              		.loc 1 200 9 view .LVU1208
 3828              	.LBE259:
 3829              	.LBE260:
 3830              		.loc 1 122 3 is_stmt 1 view .LVU1209
 3831              		.loc 1 122 3 is_stmt 0 view .LVU1210
 3832 0258 7D280120 		mtcrf 128,9
 3833 025c 7C0803A6 		mtlr 0
 3834              		.cfi_restore 65
 3835              	.LVL288:
 3836              	.L289:
 3837              		.loc 1 125 2 is_stmt 1 view .LVU1211
 3838 0260 4182000C 		beq- 0,.L290
 3839              		.loc 1 126 3 view .LVU1212
 3840              		.loc 1 126 8 is_stmt 0 view .LVU1213
 3841 0264 813F0030 		lwz 9,48(31)
 3842              	.LVL289:
 3843              		.loc 1 126 8 view .LVU1214
 3844 0268 7C634A14 		add 3,3,9
 3845              	.LVL290:
 3846              	.L290:
 3847              		.loc 1 128 2 is_stmt 1 view .LVU1215
 3848              		.loc 1 128 9 is_stmt 0 view .LVU1216
 3849 026c 813F0064 		lwz 9,100(31)
 3850              		.loc 1 128 2 view .LVU1217
 3851 0270 2C090004 		cmpwi 0,9,4
 3852 0274 418200B8 		beq- 0,.L291
 3853 0278 2C090005 		cmpwi 0,9,5
 3854 027c 418200C0 		beq- 0,.L292
 3855              		.loc 1 115 6 view .LVU1218
 3856 0280 69290003 		xori 9,9,0x3
 3857 0284 3129FFFF 		addic 9,9,-1
 3858 0288 7D294910 		subfe 9,9,9
 3859 028c 7C694838 		and 9,3,9
 3860              	.LVL291:
 3861              	.L293:
 3862              		.loc 1 140 2 is_stmt 1 view .LVU1219
 3863              		.loc 1 140 13 is_stmt 0 view .LVU1220
 3864 0290 815F0018 		lwz 10,24(31)
 3865              	.LBE256:
 3866              	.LBE255:
 3867              		.loc 1 574 9 view .LVU1221
 3868 0294 38600000 		li 3,0
 3869              	.LBB264:
 3870              	.LBB261:
 3871              		.loc 1 140 13 view .LVU1222
 3872 0298 7D295214 		add 9,9,10
 3873              	.LVL292:
 3874              		.loc 1 140 13 view .LVU1223
 3875              	.LBE261:
 3876              	.LBE264:
 3877              		.loc 1 572 2 discriminator 1 view .LVU1224
 3878 029c 7C1C4800 		cmpw 0,28,9
 3879 02a0 40A1FF24 		ble- 0,.L288
 3880              		.loc 1 572 46 discriminator 1 view .LVU1225
 3881 02a4 811F0010 		lwz 8,16(31)
 3882              		.loc 1 572 24 discriminator 1 view .LVU1226
 3883 02a8 7F8AFE70 		srawi 10,28,31
 3884              		.loc 1 572 46 discriminator 1 view .LVU1227
 3885 02ac 7D294214 		add 9,9,8
 3886              		.loc 1 572 24 discriminator 1 view .LVU1228
 3887 02b0 55230FFE 		srwi 3,9,31
 3888 02b4 7D29E010 		subfc 9,9,28
 3889 02b8 7C635114 		adde 3,3,10
 3890 02bc 68630001 		xori 3,3,0x1
 3891 02c0 4BFFFF04 		b .L288
 3892              	.LVL293:
 3893              	.L282:
 3894              		.cfi_offset 25, -28
 3895              		.cfi_offset 26, -24
 3896              	.LBB265:
 3897              	.LBB248:
 3898              	.LBB241:
 3899              	.LBB234:
 3900              		.loc 1 98 3 is_stmt 1 view .LVU1229
 3901              		.loc 1 99 4 view .LVU1230
 3902              		.loc 1 99 23 is_stmt 0 view .LVU1231
 3903 02c4 7F390E70 		srawi 25,25,1
 3904 02c8 7F390194 		addze 25,25
 3905              	.LVL294:
 3906              		.loc 1 99 35 view .LVU1232
 3907 02cc 7F6A0E70 		srawi 10,27,1
 3908 02d0 7D4A0194 		addze 10,10
 3909              		.loc 1 99 14 view .LVU1233
 3910 02d4 7D394A14 		add 9,25,9
 3911              		.loc 1 99 6 view .LVU1234
 3912 02d8 7D2A4850 		subf 9,10,9
 3913              	.LVL295:
 3914              		.loc 1 100 4 is_stmt 1 view .LVU1235
 3915 02dc 4BFFFE80 		b .L283
 3916              	.LVL296:
 3917              	.L281:
 3918              		.loc 1 101 3 view .LVU1236
 3919              		.loc 1 102 4 view .LVU1237
 3920              		.loc 1 102 14 is_stmt 0 view .LVU1238
 3921 02e0 7D394A14 		add 9,25,9
 3922              		.loc 1 102 6 view .LVU1239
 3923 02e4 7D3B4850 		subf 9,27,9
 3924              	.LVL297:
 3925              		.loc 1 103 4 is_stmt 1 view .LVU1240
 3926 02e8 4BFFFE74 		b .L283
 3927              	.LVL298:
 3928              	.L300:
 3929              		.cfi_restore 25
 3930              		.cfi_restore 26
 3931              		.loc 1 103 4 is_stmt 0 view .LVU1241
 3932              	.LBE234:
 3933              	.LBE241:
 3934              	.LBE248:
 3935              	.LBE265:
 3936              	.LBB266:
 3937              	.LBB262:
 3938              		.loc 1 117 6 view .LVU1242
 3939 02ec 38600000 		li 3,0
 3940              		.loc 1 116 6 view .LVU1243
 3941 02f0 3BC00000 		li 30,0
 3942 02f4 4BFFFF6C 		b .L289
 3943              	.LVL299:
 3944              	.L278:
 3945              		.cfi_offset 23, -36
 3946              		.cfi_offset 24, -32
 3947              		.cfi_offset 25, -28
 3948              		.cfi_offset 26, -24
 3949              		.loc 1 116 6 view .LVU1244
 3950              	.LBE262:
 3951              	.LBE266:
 3952              	.LBB267:
 3953              	.LBB249:
 3954              	.LBB242:
 3955              	.LBB235:
 3956              	.LBB229:
 3957              	.LBB223:
 3958              		.loc 1 98 3 is_stmt 1 view .LVU1245
 3959              		.loc 1 99 4 view .LVU1246
 3960              		.loc 1 99 23 is_stmt 0 view .LVU1247
 3961 02f8 7EF70E70 		srawi 23,23,1
 3962 02fc 7EF70194 		addze 23,23
 3963              	.LVL300:
 3964              		.loc 1 99 35 view .LVU1248
 3965 0300 7F2A0E70 		srawi 10,25,1
 3966 0304 7D4A0194 		addze 10,10
 3967              		.loc 1 99 14 view .LVU1249
 3968 0308 7D374A14 		add 9,23,9
 3969              		.loc 1 99 6 view .LVU1250
 3970 030c 7D2A4850 		subf 9,10,9
 3971              	.LVL301:
 3972              		.loc 1 100 4 is_stmt 1 view .LVU1251
 3973 0310 4BFFFDFC 		b .L279
 3974              	.LVL302:
 3975              	.L277:
 3976              		.loc 1 101 3 view .LVU1252
 3977              		.loc 1 102 4 view .LVU1253
 3978              		.loc 1 102 14 is_stmt 0 view .LVU1254
 3979 0314 7D374A14 		add 9,23,9
 3980              		.loc 1 102 6 view .LVU1255
 3981 0318 7D394850 		subf 9,25,9
 3982              	.LVL303:
 3983              		.loc 1 103 4 is_stmt 1 view .LVU1256
 3984 031c 4BFFFDF0 		b .L279
 3985              	.LVL304:
 3986              	.L297:
 3987              		.cfi_offset 22, -40
 3988              	.LBB218:
 3989              	.LBB209:
 3990              		.loc 1 82 6 is_stmt 0 view .LVU1257
 3991 0320 39200000 		li 9,0
 3992              		.loc 1 81 6 view .LVU1258
 3993 0324 3AC00000 		li 22,0
 3994 0328 4BFFFD70 		b .L271
 3995              	.LVL305:
 3996              	.L291:
 3997              		.cfi_restore 22
 3998              		.cfi_restore 23
 3999              		.cfi_restore 24
 4000              		.cfi_restore 25
 4001              		.cfi_restore 26
 4002              		.loc 1 81 6 view .LVU1259
 4003              	.LBE209:
 4004              	.LBE218:
 4005              	.LBE223:
 4006              	.LBE229:
 4007              	.LBE235:
 4008              	.LBE242:
 4009              	.LBE249:
 4010              	.LBE267:
 4011              	.LBB268:
 4012              	.LBB263:
 4013              		.loc 1 136 3 is_stmt 1 view .LVU1260
 4014              		.loc 1 137 4 view .LVU1261
 4015              		.loc 1 137 6 is_stmt 0 view .LVU1262
 4016 032c 813F0010 		lwz 9,16(31)
 4017              		.loc 1 137 13 view .LVU1263
 4018 0330 7FDE1A14 		add 30,30,3
 4019              	.LVL306:
 4020              		.loc 1 137 6 view .LVU1264
 4021 0334 7D29F050 		subf 9,9,30
 4022              	.LVL307:
 4023              		.loc 1 138 4 is_stmt 1 view .LVU1265
 4024 0338 4BFFFF58 		b .L293
 4025              	.LVL308:
 4026              	.L292:
 4027              		.loc 1 133 3 view .LVU1266
 4028              		.loc 1 134 4 view .LVU1267
 4029              		.loc 1 134 36 is_stmt 0 view .LVU1268
 4030 033c 813F0010 		lwz 9,16(31)
 4031              		.loc 1 134 23 view .LVU1269
 4032 0340 7FDE0E70 		srawi 30,30,1
 4033 0344 7FDE0194 		addze 30,30
 4034              	.LVL309:
 4035              		.loc 1 134 13 view .LVU1270
 4036 0348 7FDE1A14 		add 30,30,3
 4037              		.loc 1 134 36 view .LVU1271
 4038 034c 7D290E70 		srawi 9,9,1
 4039 0350 7D290194 		addze 9,9
 4040              		.loc 1 134 6 view .LVU1272
 4041 0354 7D29F050 		subf 9,9,30
 4042              	.LVL310:
 4043              		.loc 1 135 4 is_stmt 1 view .LVU1273
 4044 0358 4BFFFF38 		b .L293
 4045              	.LVL311:
 4046              	.L274:
 4047              		.cfi_offset 22, -40
 4048              		.cfi_offset 23, -36
 4049              		.cfi_offset 24, -32
 4050              		.cfi_offset 25, -28
 4051              		.cfi_offset 26, -24
 4052              		.loc 1 135 4 is_stmt 0 view .LVU1274
 4053              	.LBE263:
 4054              	.LBE268:
 4055              	.LBB269:
 4056              	.LBB250:
 4057              	.LBB243:
 4058              	.LBB236:
 4059              	.LBB230:
 4060              	.LBB224:
 4061              	.LBB219:
 4062              	.LBB210:
 4063              		.loc 1 98 3 is_stmt 1 view .LVU1275
 4064              		.loc 1 99 4 view .LVU1276
 4065              		.loc 1 99 23 is_stmt 0 view .LVU1277
 4066 035c 7ED60E70 		srawi 22,22,1
 4067 0360 7ED60194 		addze 22,22
 4068              	.LVL312:
 4069              		.loc 1 99 35 view .LVU1278
 4070 0364 7EEA0E70 		srawi 10,23,1
 4071 0368 7D4A0194 		addze 10,10
 4072              		.loc 1 99 14 view .LVU1279
 4073 036c 7D364A14 		add 9,22,9
 4074              		.loc 1 99 6 view .LVU1280
 4075 0370 7D2A4850 		subf 9,10,9
 4076              	.LVL313:
 4077              		.loc 1 100 4 is_stmt 1 view .LVU1281
 4078 0374 4BFFFD58 		b .L275
 4079              	.LVL314:
 4080              	.L273:
 4081              		.loc 1 101 3 view .LVU1282
 4082              		.loc 1 102 4 view .LVU1283
 4083              		.loc 1 102 14 is_stmt 0 view .LVU1284
 4084 0378 7D364A14 		add 9,22,9
 4085              		.loc 1 102 6 view .LVU1285
 4086 037c 7D374850 		subf 9,23,9
 4087              	.LVL315:
 4088              		.loc 1 103 4 is_stmt 1 view .LVU1286
 4089 0380 4BFFFD4C 		b .L275
 4090              	.LBE210:
 4091              	.LBE219:
 4092              	.LBE224:
 4093              	.LBE230:
 4094              	.LBE236:
 4095              	.LBE243:
 4096              	.LBE250:
 4097              	.LBE269:
 4098              		.cfi_endproc
 4099              	.LFE2387:
 4100              		.size	_ZN10GuiElement8IsInsideEii, .-_ZN10GuiElement8IsInsideEii
 4101              		.weak	_ZTS10GuiElement
 4102              		.section	.rodata._ZTS10GuiElement,"aG",@progbits,_ZTS10GuiElement,comdat
 4103              		.align 2
 4104              		.type	_ZTS10GuiElement, @object
 4105              		.size	_ZTS10GuiElement, 13
 4106              	_ZTS10GuiElement:
 4107 0000 31304775 		.string	"10GuiElement"
 4107      69456C65 
 4107      6D656E74 
 4107      00
 4108              		.weak	_ZTI10GuiElement
 4109              		.section	.sdata._ZTI10GuiElement,"awG",@progbits,_ZTI10GuiElement,comdat
 4110              		.align 2
 4111              		.type	_ZTI10GuiElement, @object
 4112              		.size	_ZTI10GuiElement, 8
 4113              	_ZTI10GuiElement:
 4114 0000 00000000 		.long	_ZTVN10__cxxabiv117__class_type_infoE+8
 4115 0004 00000000 		.long	_ZTS10GuiElement
 4116              		.weak	_ZTV10GuiElement
 4117              		.section	.rodata._ZTV10GuiElement,"aG",@progbits,_ZTV10GuiElement,comdat
 4118              		.align 2
 4119              		.type	_ZTV10GuiElement, @object
 4120              		.size	_ZTV10GuiElement, 48
 4121              	_ZTV10GuiElement:
 4122 0000 00000000 		.long	0
 4123 0004 00000000 		.long	_ZTI10GuiElement
 4124 0008 00000000 		.long	_ZN10GuiElementD1Ev
 4125 000c 00000000 		.long	_ZN10GuiElementD0Ev
 4126 0010 00000000 		.long	_ZN10GuiElement10SetVisibleEb
 4127 0014 00000000 		.long	_ZN10GuiElement8SetFocusEi
 4128 0018 00000000 		.long	_ZN10GuiElement8SetStateEii
 4129 001c 00000000 		.long	_ZN10GuiElement10ResetStateEv
 4130 0020 00000000 		.long	_ZN10GuiElement11GetSelectedEv
 4131 0024 00000000 		.long	_ZN10GuiElement12SetAlignmentEii
 4132 0028 00000000 		.long	_ZN10GuiElement6UpdateEP10GuiTrigger
 4133 002c 00000000 		.long	_ZN10GuiElement4DrawEv
 4134              		.section	.rodata.cst4,"aM",@progbits,4
 4135              		.align 2
 4136              	.LC0:
 4137 0000 3F800000 		.long	1065353216
 4138              		.align 2
 4139              	.LC4:
 4140 0004 59800004 		.long	1501560836
 4141              		.align 2
 4142              	.LC6:
 4143 0008 437F0000 		.long	1132396544
 4144              		.align 2
 4145              	.LC9:
 4146 000c 00000000 		.long	0
 4147              		.align 2
 4148              	.LC14:
 4149 0010 42C80000 		.long	1120403456
 4150              		.section	".text"
 4151              	.Letext0:
 4152              		.file 2 "C:/devkitPro/devkitPPC/powerpc-eabi/include/machine/_default_types.h"
 4153              		.file 3 "C:/devkitPro/devkitPPC/powerpc-eabi/include/sys/_stdint.h"
 4154              		.file 4 "C:/devkitPro/libogc/include/gctypes.h"
 4155              		.file 5 "C:/devkitPro/libogc/include/ogc/gx.h"
 4156              		.file 6 "C:/devkitPro/devkitPPC/lib/gcc/powerpc-eabi/13.1.0/include/stddef.h"
 4157              		.file 7 "C:/devkitPro/devkitPPC/powerpc-eabi/include/stdlib.h"
 4158              		.file 8 "C:/devkitPro/devkitPPC/powerpc-eabi/include/c++/13.1.0/cstdlib"
 4159              		.file 9 "C:/devkitPro/devkitPPC/powerpc-eabi/include/c++/13.1.0/bits/std_abs.h"
 4160              		.file 10 "C:/devkitPro/devkitPPC/powerpc-eabi/include/c++/13.1.0/powerpc-eabi/bits/c++config.h"
 4161              		.file 11 "C:/devkitPro/devkitPPC/powerpc-eabi/include/c++/13.1.0/type_traits"
 4162              		.file 12 "C:/devkitPro/devkitPPC/powerpc-eabi/include/c++/13.1.0/debug/debug.h"
 4163              		.file 13 "C:/devkitPro/devkitPPC/powerpc-eabi/include/c++/13.1.0/cstddef"
 4164              		.file 14 "C:/devkitPro/devkitPPC/powerpc-eabi/include/c++/13.1.0/bits/exception_ptr.h"
 4165              		.file 15 "C:/devkitPro/devkitPPC/powerpc-eabi/include/c++/13.1.0/cmath"
 4166              		.file 16 "C:/devkitPro/devkitPPC/powerpc-eabi/include/c++/13.1.0/bits/predefined_ops.h"
 4167              		.file 17 "C:/devkitPro/devkitPPC/powerpc-eabi/include/c++/13.1.0/stdlib.h"
 4168              		.file 18 "C:/devkitPro/devkitPPC/powerpc-eabi/include/math.h"
 4169              		.file 19 "C:/devkitPro/devkitPPC/powerpc-eabi/include/c++/13.1.0/math.h"
 4170              		.file 20 "C:/devkitPro/libogc/include/wiiuse/wiiuse.h"
 4171              		.file 21 "C:/devkitPro/libogc/include/wiiuse/wpad.h"
 4172              		.file 22 "F:/GameModding/MarioKartWii/Mods/Distro/RetroRewind6/dev/Launcher/RRLauncher/launcher/li
 4173              		.file 23 "F:/GameModding/MarioKartWii/Mods/Distro/RetroRewind6/dev/Launcher/RRLauncher/launcher/bu
 4174              		.file 24 "F:/GameModding/MarioKartWii/Mods/Distro/RetroRewind6/dev/Launcher/RRLauncher/launcher/bu
 4175              		.file 25 "F:/GameModding/MarioKartWii/Mods/Distro/RetroRewind6/dev/Launcher/RRLauncher/launcher/bu
 4176              		.file 26 "F:/GameModding/MarioKartWii/Mods/Distro/RetroRewind6/dev/Launcher/RRLauncher/launcher/bu
 4177              		.file 27 "F:/GameModding/MarioKartWii/Mods/Distro/RetroRewind6/dev/Launcher/RRLauncher/launcher/bu
 4178              		.file 28 "F:/GameModding/MarioKartWii/Mods/Distro/RetroRewind6/dev/Launcher/RRLauncher/launcher/bu
 4179              		.file 29 "F:/GameModding/MarioKartWii/Mods/Distro/RetroRewind6/dev/Launcher/RRLauncher/launcher/bu
 4180              		.file 30 "F:/GameModding/MarioKartWii/Mods/Distro/RetroRewind6/dev/Launcher/RRLauncher/launcher/bu
 4181              		.file 31 "F:/GameModding/MarioKartWii/Mods/Distro/RetroRewind6/dev/Launcher/RRLauncher/launcher/bu
 4182              		.file 32 "F:/GameModding/MarioKartWii/Mods/Distro/RetroRewind6/dev/Launcher/RRLauncher/launcher/bu
 4183              		.file 33 "F:/GameModding/MarioKartWii/Mods/Distro/RetroRewind6/dev/Launcher/RRLauncher/launcher/bu
 4184              		.file 34 "F:/GameModding/MarioKartWii/Mods/Distro/RetroRewind6/dev/Launcher/RRLauncher/launcher/bu
 4185              		.file 35 "F:/GameModding/MarioKartWii/Mods/Distro/RetroRewind6/dev/Launcher/RRLauncher/launcher/bu
 4186              		.file 36 "F:/GameModding/MarioKartWii/Mods/Distro/RetroRewind6/dev/Launcher/RRLauncher/launcher/bu
 4187              		.file 37 "F:/GameModding/MarioKartWii/Mods/Distro/RetroRewind6/dev/Launcher/RRLauncher/launcher/bu
 4188              		.file 38 "F:/GameModding/MarioKartWii/Mods/Distro/RetroRewind6/dev/Launcher/RRLauncher/launcher/bu
 4189              		.file 39 "F:/GameModding/MarioKartWii/Mods/Distro/RetroRewind6/dev/Launcher/RRLauncher/launcher/bu
 4190              		.file 40 "F:/GameModding/MarioKartWii/Mods/Distro/RetroRewind6/dev/Launcher/RRLauncher/launcher/bu
 4191              		.file 41 "F:/GameModding/MarioKartWii/Mods/Distro/RetroRewind6/dev/Launcher/RRLauncher/launcher/bu
 4192              		.file 42 "F:/GameModding/MarioKartWii/Mods/Distro/RetroRewind6/dev/Launcher/RRLauncher/launcher/bu
 4193              		.file 43 "F:/GameModding/MarioKartWii/Mods/Distro/RetroRewind6/dev/Launcher/RRLauncher/launcher/bu
 4194              		.file 44 "F:/GameModding/MarioKartWii/Mods/Distro/RetroRewind6/dev/Launcher/RRLauncher/launcher/bu
 4195              		.file 45 "F:/GameModding/MarioKartWii/Mods/Distro/RetroRewind6/dev/Launcher/RRLauncher/launcher/bu
 4196              		.file 46 "F:/GameModding/MarioKartWii/Mods/Distro/RetroRewind6/dev/Launcher/RRLauncher/launcher/bu
 4197              		.file 47 "F:/GameModding/MarioKartWii/Mods/Distro/RetroRewind6/dev/Launcher/RRLauncher/launcher/bu
 4198              		.file 48 "F:/GameModding/MarioKartWii/Mods/Distro/RetroRewind6/dev/Launcher/RRLauncher/launcher/bu
 4199              		.file 49 "F:/GameModding/MarioKartWii/Mods/Distro/RetroRewind6/dev/Launcher/RRLauncher/launcher/bu
 4200              		.file 50 "F:/GameModding/MarioKartWii/Mods/Distro/RetroRewind6/dev/Launcher/RRLauncher/launcher/bu
 4201              		.file 51 "F:/GameModding/MarioKartWii/Mods/Distro/RetroRewind6/dev/Launcher/RRLauncher/launcher/bu
 4202              		.file 52 "F:/GameModding/MarioKartWii/Mods/Distro/RetroRewind6/dev/Launcher/RRLauncher/launcher/bu
 4203              		.file 53 "F:/GameModding/MarioKartWii/Mods/Distro/RetroRewind6/dev/Launcher/RRLauncher/launcher/bu
 4204              		.file 54 "F:/GameModding/MarioKartWii/Mods/Distro/RetroRewind6/dev/Launcher/RRLauncher/launcher/bu
 4205              		.file 55 "F:/GameModding/MarioKartWii/Mods/Distro/RetroRewind6/dev/Launcher/RRLauncher/launcher/bu
 4206              		.file 56 "F:/GameModding/MarioKartWii/Mods/Distro/RetroRewind6/dev/Launcher/RRLauncher/launcher/bu
 4207              		.file 57 "F:/GameModding/MarioKartWii/Mods/Distro/RetroRewind6/dev/Launcher/RRLauncher/launcher/bu
 4208              		.file 58 "F:/GameModding/MarioKartWii/Mods/Distro/RetroRewind6/dev/Launcher/RRLauncher/launcher/li
 4209              		.file 59 "C:/devkitPro/devkitPPC/powerpc-eabi/include/c++/13.1.0/new"
 4210              		.file 60 "C:/devkitPro/devkitPPC/powerpc-eabi/include/c++/13.1.0/bits/memory_resource.h"
 4211              		.file 61 "F:/GameModding/MarioKartWii/Mods/Distro/RetroRewind6/dev/Launcher/RRLauncher/launcher/li