   1              		.file	"gui_sound.cpp"
   2              		.machine ppc
   3              		.section	".text"
   4              	.Ltext0:
   5              		.file 1 "F:/GameModding/MarioKartWii/Mods/Distro/RetroRewind6/dev/Launcher/RRLauncher/launcher/lib
   6              		.section	.text._ZN8GuiSoundC2EPKhii,"ax",@progbits
   7              		.align 2
   8              		.globl _ZN8GuiSoundC2EPKhii
   9              		.type	_ZN8GuiSoundC2EPKhii, @function
  10              	_ZN8GuiSoundC2EPKhii:
  11              	.LVL0:
  12              	.LFB2333:
  13              		.loc 1 16 1 view -0
  14              		.cfi_startproc
  15              	.LBB2:
  16              		.loc 1 18 2 view .LVU1
  17              		.loc 1 21 8 is_stmt 0 view .LVU2
  18 0000 3900FFFF 		li 8,-1
  19              		.loc 1 22 9 view .LVU3
  20 0004 39400064 		li 10,100
  21              		.loc 1 23 7 view .LVU4
  22 0008 39200000 		li 9,0
  23              		.loc 1 18 8 view .LVU5
  24 000c 90830000 		stw 4,0(3)
  25              		.loc 1 19 2 is_stmt 1 view .LVU6
  26              		.loc 1 19 9 is_stmt 0 view .LVU7
  27 0010 90A30008 		stw 5,8(3)
  28              		.loc 1 20 2 is_stmt 1 view .LVU8
  29              		.loc 1 20 7 is_stmt 0 view .LVU9
  30 0014 90C30004 		stw 6,4(3)
  31              		.loc 1 21 2 is_stmt 1 view .LVU10
  32              		.loc 1 21 8 is_stmt 0 view .LVU11
  33 0018 9103000C 		stw 8,12(3)
  34              		.loc 1 22 2 is_stmt 1 view .LVU12
  35              		.loc 1 22 9 is_stmt 0 view .LVU13
  36 001c 91430010 		stw 10,16(3)
  37              		.loc 1 23 2 is_stmt 1 view .LVU14
  38              		.loc 1 23 7 is_stmt 0 view .LVU15
  39 0020 99230014 		stb 9,20(3)
  40              	.LBE2:
  41              		.loc 1 24 1 view .LVU16
  42 0024 4E800020 		blr
  43              		.cfi_endproc
  44              	.LFE2333:
  45              		.size	_ZN8GuiSoundC2EPKhii, .-_ZN8GuiSoundC2EPKhii
  46              		.globl _ZN8GuiSoundC1EPKhii
  47              		.set	_ZN8GuiSoundC1EPKhii,_ZN8GuiSoundC2EPKhii
  48              		.section	.text._ZN8GuiSoundD2Ev,"ax",@progbits
  49              		.align 2
  50              		.globl _ZN8GuiSoundD2Ev
  51              		.type	_ZN8GuiSoundD2Ev, @function
  52              	_ZN8GuiSoundD2Ev:
  53              	.LVL1:
  54              	.LFB2336:
  55              		.loc 1 29 1 is_stmt 1 view -0
  56              		.cfi_startproc
  57              		.cfi_personality 0,__gxx_personality_v0
  58              		.cfi_lsda 0,.LLSDA2336
  59              	.LBB3:
  60              		.loc 1 32 2 view .LVU18
  61 0000 81230004 		lwz 9,4(3)
  62 0004 2C090001 		cmpwi 0,9,1
  63 0008 4CA20020 		bnelr+ 0
  64              		.loc 1 33 3 view .LVU19
  65              	.LBE3:
  66              		.loc 1 29 1 is_stmt 0 view .LVU20
  67 000c 9421FFF8 		stwu 1,-8(1)
  68              		.cfi_def_cfa_offset 8
  69 0010 7C0802A6 		mflr 0
  70 0014 9001000C 		stw 0,12(1)
  71              		.cfi_offset 65, 4
  72              	.LBB4:
  73              		.loc 1 33 10 view .LVU21
  74 0018 48000001 		bl StopOgg
  75              	.LVL2:
  76              		.loc 1 33 10 view .LVU22
  77              	.LBE4:
  78              		.loc 1 35 1 view .LVU23
  79 001c 8001000C 		lwz 0,12(1)
  80 0020 38210008 		addi 1,1,8
  81              		.cfi_def_cfa_offset 0
  82 0024 7C0803A6 		mtlr 0
  83              		.cfi_restore 65
  84 0028 4E800020 		blr
  85              		.cfi_endproc
  86              	.LFE2336:
  87              		.globl __gxx_personality_v0
  88              		.section	.gcc_except_table._ZN8GuiSoundD2Ev,"a",@progbits
  89              	.LLSDA2336:
  90 0000 FF       		.byte	0xff
  91 0001 FF       		.byte	0xff
  92 0002 01       		.byte	0x1
  93 0003 00       		.uleb128 .LLSDACSE2336-.LLSDACSB2336
  94              	.LLSDACSB2336:
  95              	.LLSDACSE2336:
  96              		.section	.text._ZN8GuiSoundD2Ev
  97              		.size	_ZN8GuiSoundD2Ev, .-_ZN8GuiSoundD2Ev
  98              		.globl _ZN8GuiSoundD1Ev
  99              		.set	_ZN8GuiSoundD1Ev,_ZN8GuiSoundD2Ev
 100              		.section	.text._ZN8GuiSound4PlayEv,"ax",@progbits
 101              		.align 2
 102              		.globl _ZN8GuiSound4PlayEv
 103              		.type	_ZN8GuiSound4PlayEv, @function
 104              	_ZN8GuiSound4PlayEv:
 105              	.LVL3:
 106              	.LFB2338:
 107              		.loc 1 38 1 is_stmt 1 view -0
 108              		.cfi_startproc
 109              		.loc 1 40 2 view .LVU25
 110              		.loc 1 42 2 view .LVU26
 111              		.loc 1 38 1 is_stmt 0 view .LVU27
 112 0000 9421FFC8 		stwu 1,-56(1)
 113              		.cfi_def_cfa_offset 56
 114 0004 93C10030 		stw 30,48(1)
 115              		.cfi_offset 30, -8
 116              		.loc 1 42 9 view .LVU28
 117 0008 83C30004 		lwz 30,4(3)
 118              		.loc 1 38 1 view .LVU29
 119 000c 93E10034 		stw 31,52(1)
 120              		.cfi_offset 31, -4
 121 0010 7C7F1B78 		mr 31,3
 122              		.loc 1 42 2 view .LVU30
 123 0014 2C1E0000 		cmpwi 0,30,0
 124 0018 418200B0 		beq- 0,.L10
 125 001c 2C1E0001 		cmpwi 0,30,1
 126 0020 41820014 		beq- 0,.L11
 127              		.loc 1 62 1 view .LVU31
 128 0024 83C10030 		lwz 30,48(1)
 129 0028 83E10034 		lwz 31,52(1)
 130 002c 38210038 		addi 1,1,56
 131              		.cfi_remember_state
 132              		.cfi_restore 31
 133              		.cfi_restore 30
 134              		.cfi_def_cfa_offset 0
 135 0030 4E800020 		blr
 136              	.L11:
 137              		.cfi_restore_state
 138              		.loc 1 54 3 view .LVU32
 139 0034 89230014 		lbz 9,20(3)
 140 0038 7C0802A6 		mflr 0
 141              		.cfi_register 65, 0
 142              		.loc 1 53 9 view .LVU33
 143 003c 39400000 		li 10,0
 144 0040 9001003C 		stw 0,60(1)
 145              		.cfi_offset 65, 4
 146              		.loc 1 52 3 is_stmt 1 view .LVU34
 147              		.loc 1 53 3 view .LVU35
 148              		.loc 1 54 3 is_stmt 0 view .LVU36
 149 0044 2C090000 		cmpwi 0,9,0
 150              		.loc 1 53 9 view .LVU37
 151 0048 9143000C 		stw 10,12(3)
 152              		.loc 1 54 3 is_stmt 1 view .LVU38
 153              		.loc 1 55 11 is_stmt 0 view .LVU39
 154 004c 809F0008 		lwz 4,8(31)
 155              		.loc 1 55 20 view .LVU40
 156 0050 80630000 		lwz 3,0(3)
 157              	.LVL4:
 158              		.loc 1 54 3 view .LVU41
 159 0054 408200B0 		bne- 0,.L17
 160              		.loc 1 57 4 is_stmt 1 view .LVU42
 161              		.loc 1 57 11 is_stmt 0 view .LVU43
 162 0058 38C00000 		li 6,0
 163 005c 38A00000 		li 5,0
 164 0060 48000001 		bl PlayOgg
 165              	.LVL5:
 166              	.L14:
 167              		.loc 1 58 3 is_stmt 1 view .LVU44
 168              		.loc 1 58 27 is_stmt 0 view .LVU45
 169 0064 813F0010 		lwz 9,16(31)
 170 0068 3D404330 		lis 10,0x4330
 171 006c 91410018 		stw 10,24(1)
 172 0070 3D400000 		lis 10,.LC1@ha
 173 0074 6D298000 		xoris 9,9,0x8000
 174 0078 C00A0000 		lfs 0,.LC1@l(10)
 175 007c 9121001C 		stw 9,28(1)
 176 0080 3D200000 		lis 9,.LC3@ha
 177 0084 C1690000 		lfs 11,.LC3@l(9)
 178              		.loc 1 58 19 view .LVU46
 179 0088 3D200000 		lis 9,.LC5@ha
 180              		.loc 1 58 27 view .LVU47
 181 008c C9410018 		lfd 10,24(1)
 182              		.loc 1 58 19 view .LVU48
 183 0090 C1890000 		lfs 12,.LC5@l(9)
 184              		.loc 1 58 15 view .LVU49
 185 0094 39210020 		addi 9,1,32
 186              		.loc 1 58 27 view .LVU50
 187 0098 FC0A0028 		fsub 0,10,0
 188 009c FC005824 		fdiv 0,0,11
 189              		.loc 1 58 19 view .LVU51
 190 00a0 FC000332 		fmul 0,0,12
 191              		.loc 1 58 15 view .LVU52
 192 00a4 FC00001E 		fctiwz 0,0
 193 00a8 7C004FAE 		stfiwx 0,0,9
 194 00ac 8001003C 		lwz 0,60(1)
 195 00b0 80610020 		lwz 3,32(1)
 196              		.loc 1 62 1 view .LVU53
 197 00b4 83C10030 		lwz 30,48(1)
 198              		.loc 1 58 15 view .LVU54
 199 00b8 7C0803A6 		mtlr 0
 200              		.cfi_restore 65
 201              		.loc 1 62 1 view .LVU55
 202 00bc 83E10034 		lwz 31,52(1)
 203              	.LVL6:
 204              		.loc 1 62 1 view .LVU56
 205 00c0 38210038 		addi 1,1,56
 206              		.cfi_restore 31
 207              		.cfi_restore 30
 208              		.cfi_def_cfa_offset 0
 209              		.loc 1 58 15 view .LVU57
 210 00c4 48000000 		b SetVolumeOgg
 211              	.LVL7:
 212              	.L10:
 213              		.cfi_def_cfa_offset 56
 214              		.cfi_offset 30, -8
 215              		.cfi_offset 31, -4
 216              		.loc 1 58 15 view .LVU58
 217 00c8 7C0802A6 		mflr 0
 218              		.cfi_register 65, 0
 219 00cc 93A1002C 		stw 29,44(1)
 220              		.cfi_offset 29, -12
 221              		.loc 1 44 3 is_stmt 1 view .LVU59
 222              		.loc 1 45 3 view .LVU60
 223 00d0 9001003C 		stw 0,60(1)
 224              		.cfi_offset 65, 4
 225              		.loc 1 45 14 is_stmt 0 view .LVU61
 226 00d4 83A30010 		lwz 29,16(3)
 227              	.LVL8:
 228              		.loc 1 46 3 is_stmt 1 view .LVU62
 229              		.loc 1 46 35 is_stmt 0 view .LVU63
 230 00d8 48000001 		bl ASND_GetFirstUnusedVoice
 231              	.LVL9:
 232              		.loc 1 47 3 view .LVU64
 233 00dc 2C030000 		cmpwi 0,3,0
 234              		.loc 1 46 9 discriminator 1 view .LVU65
 235 00e0 907F000C 		stw 3,12(31)
 236              		.loc 1 47 3 is_stmt 1 view .LVU66
 237 00e4 40800030 		bge- 0,.L18
 238 00e8 8001003C 		lwz 0,60(1)
 239 00ec 83A1002C 		lwz 29,44(1)
 240              		.cfi_restore 29
 241              	.LVL10:
 242              		.loc 1 62 1 is_stmt 0 view .LVU67
 243 00f0 83C10030 		lwz 30,48(1)
 244 00f4 7C0803A6 		mtlr 0
 245              		.cfi_restore 65
 246 00f8 83E10034 		lwz 31,52(1)
 247              	.LVL11:
 248              		.loc 1 62 1 view .LVU68
 249 00fc 38210038 		addi 1,1,56
 250              		.cfi_restore 31
 251              		.cfi_restore 30
 252              		.cfi_def_cfa_offset 0
 253 0100 4E800020 		blr
 254              	.LVL12:
 255              	.L17:
 256              		.cfi_def_cfa_offset 56
 257              		.cfi_offset 30, -8
 258              		.cfi_offset 31, -4
 259              		.cfi_offset 65, 4
 260              		.loc 1 55 4 is_stmt 1 view .LVU69
 261              		.loc 1 55 11 is_stmt 0 view .LVU70
 262 0104 38C00001 		li 6,1
 263 0108 38A00000 		li 5,0
 264 010c 48000001 		bl PlayOgg
 265              	.LVL13:
 266 0110 4BFFFF54 		b .L14
 267              	.LVL14:
 268              	.L18:
 269              		.cfi_offset 29, -12
 270              		.loc 1 48 4 is_stmt 1 view .LVU71
 271              		.loc 1 45 20 is_stmt 0 view .LVU72
 272 0114 6FBD8000 		xoris 29,29,0x8000
 273              	.LVL15:
 274              		.loc 1 45 20 view .LVU73
 275 0118 3D404330 		lis 10,0x4330
 276 011c 93A10014 		stw 29,20(1)
 277 0120 3D200000 		lis 9,.LC1@ha
 278 0124 91410010 		stw 10,16(1)
 279 0128 3D400000 		lis 10,.LC3@ha
 280 012c C0090000 		lfs 0,.LC1@l(9)
 281              		.loc 1 45 12 view .LVU74
 282 0130 3D200000 		lis 9,.LC5@ha
 283              		.loc 1 45 20 view .LVU75
 284 0134 C9810010 		lfd 12,16(1)
 285              		.loc 1 48 17 view .LVU76
 286 0138 38A00000 		li 5,0
 287              		.loc 1 45 20 view .LVU77
 288 013c C16A0000 		lfs 11,.LC3@l(10)
 289              		.loc 1 48 17 view .LVU78
 290 0140 60A5BB80 		ori 5,5,0xbb80
 291              		.loc 1 45 20 view .LVU79
 292 0144 FC0C0028 		fsub 0,12,0
 293              		.loc 1 45 12 view .LVU80
 294 0148 C1890000 		lfs 12,.LC5@l(9)
 295              		.loc 1 48 17 view .LVU81
 296 014c 93C10008 		stw 30,8(1)
 297              		.loc 1 45 7 view .LVU82
 298 0150 39210024 		addi 9,1,36
 299              		.loc 1 48 17 view .LVU83
 300 0154 38C00000 		li 6,0
 301 0158 38800003 		li 4,3
 302              		.loc 1 45 20 view .LVU84
 303 015c FC005824 		fdiv 0,0,11
 304              		.loc 1 48 17 view .LVU85
 305 0160 811F0008 		lwz 8,8(31)
 306 0164 80FF0000 		lwz 7,0(31)
 307              		.loc 1 45 12 view .LVU86
 308 0168 FC000332 		fmul 0,0,12
 309              		.loc 1 45 7 view .LVU87
 310 016c FC00001E 		fctiwz 0,0
 311 0170 7C004FAE 		stfiwx 0,0,9
 312 0174 81410024 		lwz 10,36(1)
 313              		.loc 1 48 17 view .LVU88
 314 0178 7D495378 		mr 9,10
 315 017c 48000001 		bl ASND_SetVoice
 316              	.LVL16:
 317 0180 8001003C 		lwz 0,60(1)
 318 0184 83A1002C 		lwz 29,44(1)
 319              		.cfi_restore 29
 320              	.LVL17:
 321              		.loc 1 62 1 view .LVU89
 322 0188 83C10030 		lwz 30,48(1)
 323 018c 7C0803A6 		mtlr 0
 324              		.cfi_restore 65
 325 0190 83E10034 		lwz 31,52(1)
 326              	.LVL18:
 327              		.loc 1 62 1 view .LVU90
 328 0194 38210038 		addi 1,1,56
 329              		.cfi_restore 31
 330              		.cfi_restore 30
 331              		.cfi_def_cfa_offset 0
 332 0198 4E800020 		blr
 333              		.cfi_endproc
 334              	.LFE2338:
 335              		.size	_ZN8GuiSound4PlayEv, .-_ZN8GuiSound4PlayEv
 336              		.section	.text._ZN8GuiSound4StopEv,"ax",@progbits
 337              		.align 2
 338              		.globl _ZN8GuiSound4StopEv
 339              		.type	_ZN8GuiSound4StopEv, @function
 340              	_ZN8GuiSound4StopEv:
 341              	.LVL19:
 342              	.LFB2339:
 343              		.loc 1 65 1 is_stmt 1 view -0
 344              		.cfi_startproc
 345              		.loc 1 67 2 view .LVU92
 346              		.loc 1 67 5 is_stmt 0 view .LVU93
 347 0000 8123000C 		lwz 9,12(3)
 348              		.loc 1 67 2 view .LVU94
 349 0004 2C090000 		cmpwi 0,9,0
 350 0008 4D800020 		bltlr- 0
 351              		.loc 1 70 2 is_stmt 1 view .LVU95
 352              		.loc 1 70 9 is_stmt 0 view .LVU96
 353 000c 81430004 		lwz 10,4(3)
 354              		.loc 1 70 2 view .LVU97
 355 0010 2C0A0000 		cmpwi 0,10,0
 356 0014 41820010 		beq- 0,.L21
 357 0018 2C0A0001 		cmpwi 0,10,1
 358 001c 4C820020 		bnelr- 0
 359              		.loc 1 76 3 is_stmt 1 view .LVU98
 360              		.loc 1 77 3 view .LVU99
 361              		.loc 1 77 10 is_stmt 0 view .LVU100
 362 0020 48000000 		b StopOgg
 363              	.LVL20:
 364              	.L21:
 365              		.loc 1 72 3 is_stmt 1 view .LVU101
 366              		.loc 1 73 3 view .LVU102
 367              		.loc 1 73 17 is_stmt 0 view .LVU103
 368 0024 7D234B78 		mr 3,9
 369              	.LVL21:
 370              		.loc 1 73 17 view .LVU104
 371 0028 48000000 		b ASND_StopVoice
 372              	.LVL22:
 373              		.cfi_endproc
 374              	.LFE2339:
 375              		.size	_ZN8GuiSound4StopEv, .-_ZN8GuiSound4StopEv
 376              		.section	.text._ZN8GuiSound5PauseEv,"ax",@progbits
 377              		.align 2
 378              		.globl _ZN8GuiSound5PauseEv
 379              		.type	_ZN8GuiSound5PauseEv, @function
 380              	_ZN8GuiSound5PauseEv:
 381              	.LVL23:
 382              	.LFB2340:
 383              		.loc 1 84 1 is_stmt 1 view -0
 384              		.cfi_startproc
 385              		.loc 1 86 2 view .LVU106
 386              		.loc 1 86 5 is_stmt 0 view .LVU107
 387 0000 8123000C 		lwz 9,12(3)
 388              		.loc 1 86 2 view .LVU108
 389 0004 2C090000 		cmpwi 0,9,0
 390 0008 4D800020 		bltlr- 0
 391              		.loc 1 89 2 is_stmt 1 view .LVU109
 392              		.loc 1 89 9 is_stmt 0 view .LVU110
 393 000c 81430004 		lwz 10,4(3)
 394              		.loc 1 89 2 view .LVU111
 395 0010 2C0A0000 		cmpwi 0,10,0
 396 0014 41820014 		beq- 0,.L26
 397 0018 2C0A0001 		cmpwi 0,10,1
 398 001c 4C820020 		bnelr- 0
 399              		.loc 1 95 3 is_stmt 1 view .LVU112
 400              		.loc 1 96 3 view .LVU113
 401              		.loc 1 96 11 is_stmt 0 view .LVU114
 402 0020 38600001 		li 3,1
 403              	.LVL24:
 404              		.loc 1 96 11 view .LVU115
 405 0024 48000000 		b PauseOgg
 406              	.LVL25:
 407              	.L26:
 408              		.loc 1 91 3 is_stmt 1 view .LVU116
 409              		.loc 1 92 3 view .LVU117
 410              		.loc 1 92 18 is_stmt 0 view .LVU118
 411 0028 7D234B78 		mr 3,9
 412              	.LVL26:
 413              		.loc 1 92 18 view .LVU119
 414 002c 38800001 		li 4,1
 415 0030 48000000 		b ASND_PauseVoice
 416              	.LVL27:
 417              		.cfi_endproc
 418              	.LFE2340:
 419              		.size	_ZN8GuiSound5PauseEv, .-_ZN8GuiSound5PauseEv
 420              		.section	.text._ZN8GuiSound6ResumeEv,"ax",@progbits
 421              		.align 2
 422              		.globl _ZN8GuiSound6ResumeEv
 423              		.type	_ZN8GuiSound6ResumeEv, @function
 424              	_ZN8GuiSound6ResumeEv:
 425              	.LVL28:
 426              	.LFB2341:
 427              		.loc 1 103 1 is_stmt 1 view -0
 428              		.cfi_startproc
 429              		.loc 1 105 2 view .LVU121
 430              		.loc 1 105 5 is_stmt 0 view .LVU122
 431 0000 8123000C 		lwz 9,12(3)
 432              		.loc 1 105 2 view .LVU123
 433 0004 2C090000 		cmpwi 0,9,0
 434 0008 4D800020 		bltlr- 0
 435              		.loc 1 108 2 is_stmt 1 view .LVU124
 436              		.loc 1 108 9 is_stmt 0 view .LVU125
 437 000c 81430004 		lwz 10,4(3)
 438              		.loc 1 108 2 view .LVU126
 439 0010 2C0A0000 		cmpwi 0,10,0
 440 0014 41820014 		beq- 0,.L31
 441 0018 2C0A0001 		cmpwi 0,10,1
 442 001c 4C820020 		bnelr- 0
 443              		.loc 1 114 3 is_stmt 1 view .LVU127
 444              		.loc 1 115 3 view .LVU128
 445              		.loc 1 115 11 is_stmt 0 view .LVU129
 446 0020 38600000 		li 3,0
 447              	.LVL29:
 448              		.loc 1 115 11 view .LVU130
 449 0024 48000000 		b PauseOgg
 450              	.LVL30:
 451              	.L31:
 452              		.loc 1 110 3 is_stmt 1 view .LVU131
 453              		.loc 1 111 3 view .LVU132
 454              		.loc 1 111 18 is_stmt 0 view .LVU133
 455 0028 7D234B78 		mr 3,9
 456              	.LVL31:
 457              		.loc 1 111 18 view .LVU134
 458 002c 38800000 		li 4,0
 459 0030 48000000 		b ASND_PauseVoice
 460              	.LVL32:
 461              		.cfi_endproc
 462              	.LFE2341:
 463              		.size	_ZN8GuiSound6ResumeEv, .-_ZN8GuiSound6ResumeEv
 464              		.section	.text._ZN8GuiSound9IsPlayingEv,"ax",@progbits
 465              		.align 2
 466              		.globl _ZN8GuiSound9IsPlayingEv
 467              		.type	_ZN8GuiSound9IsPlayingEv, @function
 468              	_ZN8GuiSound9IsPlayingEv:
 469              	.LVL33:
 470              	.LFB2342:
 471              		.loc 1 122 1 is_stmt 1 view -0
 472              		.cfi_startproc
 473              		.loc 1 123 2 view .LVU136
 474              		.loc 1 122 1 is_stmt 0 view .LVU137
 475 0000 9421FFF0 		stwu 1,-16(1)
 476              		.cfi_def_cfa_offset 16
 477 0004 7C0802A6 		mflr 0
 478 0008 93E1000C 		stw 31,12(1)
 479              		.cfi_register 65, 0
 480              		.cfi_offset 31, -4
 481 000c 7C7F1B78 		mr 31,3
 482              		.loc 1 123 21 view .LVU138
 483 0010 8063000C 		lwz 3,12(3)
 484              	.LVL34:
 485              		.loc 1 122 1 view .LVU139
 486 0014 90010014 		stw 0,20(1)
 487              		.cfi_offset 65, 4
 488              		.loc 1 123 21 view .LVU140
 489 0018 48000001 		bl ASND_StatusVoice
 490              	.LVL35:
 491              		.loc 1 123 44 discriminator 1 view .LVU141
 492 001c 2C030001 		cmpwi 0,3,1
 493 0020 41820030 		beq- 0,.L36
 494              		.loc 1 123 63 discriminator 2 view .LVU142
 495 0024 807F000C 		lwz 3,12(31)
 496 0028 48000001 		bl ASND_StatusVoice
 497              	.LVL36:
 498              		.loc 1 127 1 view .LVU143
 499 002c 80010014 		lwz 0,20(1)
 500              		.loc 1 123 44 discriminator 1 view .LVU144
 501 0030 68630002 		xori 3,3,0x2
 502              		.loc 1 127 1 view .LVU145
 503 0034 83E1000C 		lwz 31,12(1)
 504              	.LVL37:
 505              		.loc 1 123 44 discriminator 1 view .LVU146
 506 0038 7C630034 		cntlzw 3,3
 507              		.loc 1 127 1 view .LVU147
 508 003c 7C0803A6 		mtlr 0
 509              		.cfi_remember_state
 510              		.cfi_restore 65
 511              		.loc 1 123 44 discriminator 1 view .LVU148
 512 0040 5463D97E 		srwi 3,3,5
 513              		.loc 1 127 1 view .LVU149
 514 0044 38210010 		addi 1,1,16
 515              		.cfi_restore 31
 516              		.cfi_def_cfa_offset 0
 517 0048 546307FE 		rlwinm 3,3,0,31,31
 518 004c 4E800020 		blr
 519              	.LVL38:
 520              	.L36:
 521              		.cfi_restore_state
 522              		.loc 1 127 1 view .LVU150
 523 0050 80010014 		lwz 0,20(1)
 524              		.loc 1 124 10 view .LVU151
 525 0054 38600001 		li 3,1
 526              		.loc 1 127 1 view .LVU152
 527 0058 83E1000C 		lwz 31,12(1)
 528              	.LVL39:
 529              		.loc 1 127 1 view .LVU153
 530 005c 546307FE 		rlwinm 3,3,0,31,31
 531 0060 7C0803A6 		mtlr 0
 532              		.cfi_restore 65
 533 0064 38210010 		addi 1,1,16
 534              		.cfi_restore 31
 535              		.cfi_def_cfa_offset 0
 536 0068 4E800020 		blr
 537              		.cfi_endproc
 538              	.LFE2342:
 539              		.size	_ZN8GuiSound9IsPlayingEv, .-_ZN8GuiSound9IsPlayingEv
 540              		.section	.text._ZN8GuiSound9SetVolumeEi,"ax",@progbits
 541              		.align 2
 542              		.globl _ZN8GuiSound9SetVolumeEi
 543              		.type	_ZN8GuiSound9SetVolumeEi, @function
 544              	_ZN8GuiSound9SetVolumeEi:
 545              	.LVL40:
 546              	.LFB2343:
 547              		.loc 1 130 1 is_stmt 1 view -0
 548              		.cfi_startproc
 549              		.loc 1 132 2 view .LVU155
 550              		.loc 1 134 5 is_stmt 0 view .LVU156
 551 0000 8123000C 		lwz 9,12(3)
 552              		.loc 1 132 9 view .LVU157
 553 0004 90830010 		stw 4,16(3)
 554              		.loc 1 134 2 is_stmt 1 view .LVU158
 555 0008 2C090000 		cmpwi 0,9,0
 556 000c 4D800020 		bltlr- 0
 557              		.loc 1 137 2 view .LVU159
 558              		.loc 1 130 1 is_stmt 0 view .LVU160
 559 0010 9421FFE8 		stwu 1,-24(1)
 560              		.cfi_def_cfa_offset 24
 561              		.loc 1 137 26 view .LVU161
 562 0014 3D004330 		lis 8,0x4330
 563 0018 6C848000 		xoris 4,4,0x8000
 564              	.LVL41:
 565              		.loc 1 137 26 view .LVU162
 566 001c 3D400000 		lis 10,.LC1@ha
 567 0020 91010008 		stw 8,8(1)
 568              	.LVL42:
 569              		.loc 1 137 26 view .LVU163
 570 0024 3D000000 		lis 8,.LC3@ha
 571 0028 9081000C 		stw 4,12(1)
 572 002c C00A0000 		lfs 0,.LC1@l(10)
 573              		.loc 1 137 18 view .LVU164
 574 0030 3D400000 		lis 10,.LC5@ha
 575              		.loc 1 137 26 view .LVU165
 576 0034 C9810008 		lfd 12,8(1)
 577 0038 C1680000 		lfs 11,.LC3@l(8)
 578              		.loc 1 137 6 view .LVU166
 579 003c 39010010 		addi 8,1,16
 580              		.loc 1 137 26 view .LVU167
 581 0040 FC0C0028 		fsub 0,12,0
 582              		.loc 1 137 18 view .LVU168
 583 0044 C18A0000 		lfs 12,.LC5@l(10)
 584              		.loc 1 139 9 view .LVU169
 585 0048 81430004 		lwz 10,4(3)
 586              		.loc 1 137 26 view .LVU170
 587 004c FC005824 		fdiv 0,0,11
 588              		.loc 1 139 2 view .LVU171
 589 0050 2C0A0000 		cmpwi 0,10,0
 590              		.loc 1 137 18 view .LVU172
 591 0054 FC000332 		fmul 0,0,12
 592              		.loc 1 137 6 view .LVU173
 593 0058 FC00001E 		fctiwz 0,0
 594 005c 7C0047AE 		stfiwx 0,0,8
 595 0060 80A10010 		lwz 5,16(1)
 596              	.LVL43:
 597              		.loc 1 139 2 is_stmt 1 view .LVU174
 598 0064 41820018 		beq- 0,.L40
 599 0068 2C0A0001 		cmpwi 0,10,1
 600 006c 40820020 		bne- 0,.L46
 601              		.loc 1 145 3 view .LVU175
 602              		.loc 1 146 3 view .LVU176
 603              		.loc 1 146 15 is_stmt 0 view .LVU177
 604 0070 7CA32B78 		mr 3,5
 605              	.LVL44:
 606              		.loc 1 150 1 view .LVU178
 607 0074 38210018 		addi 1,1,24
 608              		.cfi_remember_state
 609              		.cfi_def_cfa_offset 0
 610              		.loc 1 146 15 view .LVU179
 611 0078 48000000 		b SetVolumeOgg
 612              	.LVL45:
 613              	.L40:
 614              		.cfi_restore_state
 615              		.loc 1 141 3 is_stmt 1 view .LVU180
 616              		.loc 1 142 3 view .LVU181
 617              		.loc 1 142 25 is_stmt 0 view .LVU182
 618 007c 7D234B78 		mr 3,9
 619              	.LVL46:
 620              		.loc 1 142 25 view .LVU183
 621 0080 7CA42B78 		mr 4,5
 622              		.loc 1 150 1 view .LVU184
 623 0084 38210018 		addi 1,1,24
 624              		.cfi_remember_state
 625              		.cfi_def_cfa_offset 0
 626              		.loc 1 142 25 view .LVU185
 627 0088 48000000 		b ASND_ChangeVolumeVoice
 628              	.LVL47:
 629              	.L46:
 630              		.cfi_restore_state
 631              		.loc 1 150 1 view .LVU186
 632 008c 38210018 		addi 1,1,24
 633              		.cfi_def_cfa_offset 0
 634 0090 4E800020 		blr
 635              		.cfi_endproc
 636              	.LFE2343:
 637              		.size	_ZN8GuiSound9SetVolumeEi, .-_ZN8GuiSound9SetVolumeEi
 638              		.section	.text._ZN8GuiSound7SetLoopEb,"ax",@progbits
 639              		.align 2
 640              		.globl _ZN8GuiSound7SetLoopEb
 641              		.type	_ZN8GuiSound7SetLoopEb, @function
 642              	_ZN8GuiSound7SetLoopEb:
 643              	.LVL48:
 644              	.LFB2344:
 645              		.loc 1 153 1 is_stmt 1 view -0
 646              		.cfi_startproc
 647              		.loc 1 154 2 view .LVU188
 648              		.loc 1 154 7 is_stmt 0 view .LVU189
 649 0000 98830014 		stb 4,20(3)
 650              		.loc 1 155 1 view .LVU190
 651 0004 4E800020 		blr
 652              		.cfi_endproc
 653              	.LFE2344:
 654              		.size	_ZN8GuiSound7SetLoopEb, .-_ZN8GuiSound7SetLoopEb
 655              		.section	.rodata.cst4,"aM",@progbits,4
 656              		.align 2
 657              	.LC1:
 658 0000 59800004 		.long	1501560836
 659              		.align 2
 660              	.LC3:
 661 0004 42C80000 		.long	1120403456
 662              		.align 2
 663              	.LC5:
 664 0008 437F0000 		.long	1132396544
 665              		.section	".text"
 666              	.Letext0:
 667              		.file 2 "C:/devkitPro/devkitPPC/powerpc-eabi/include/machine/_default_types.h"
 668              		.file 3 "C:/devkitPro/devkitPPC/powerpc-eabi/include/sys/_stdint.h"
 669              		.file 4 "C:/devkitPro/libogc/include/gctypes.h"
 670              		.file 5 "C:/devkitPro/libogc/include/ogc/gx.h"
 671              		.file 6 "C:/devkitPro/devkitPPC/lib/gcc/powerpc-eabi/13.1.0/include/stddef.h"
 672              		.file 7 "C:/devkitPro/devkitPPC/powerpc-eabi/include/stdlib.h"
 673              		.file 8 "C:/devkitPro/devkitPPC/powerpc-eabi/include/c++/13.1.0/cstdlib"
 674              		.file 9 "C:/devkitPro/devkitPPC/powerpc-eabi/include/c++/13.1.0/bits/std_abs.h"
 675              		.file 10 "C:/devkitPro/devkitPPC/powerpc-eabi/include/c++/13.1.0/type_traits"
 676              		.file 11 "C:/devkitPro/devkitPPC/powerpc-eabi/include/c++/13.1.0/debug/debug.h"
 677              		.file 12 "C:/devkitPro/devkitPPC/powerpc-eabi/include/c++/13.1.0/powerpc-eabi/bits/c++config.h"
 678              		.file 13 "C:/devkitPro/devkitPPC/powerpc-eabi/include/c++/13.1.0/cstddef"
 679              		.file 14 "C:/devkitPro/devkitPPC/powerpc-eabi/include/c++/13.1.0/bits/exception_ptr.h"
 680              		.file 15 "C:/devkitPro/devkitPPC/powerpc-eabi/include/c++/13.1.0/cmath"
 681              		.file 16 "C:/devkitPro/devkitPPC/powerpc-eabi/include/c++/13.1.0/bits/predefined_ops.h"
 682              		.file 17 "C:/devkitPro/devkitPPC/powerpc-eabi/include/c++/13.1.0/stdlib.h"
 683              		.file 18 "C:/devkitPro/devkitPPC/powerpc-eabi/include/math.h"
 684              		.file 19 "C:/devkitPro/devkitPPC/powerpc-eabi/include/c++/13.1.0/math.h"
 685              		.file 20 "C:/devkitPro/libogc/include/asndlib.h"
 686              		.file 21 "F:/GameModding/MarioKartWii/Mods/Distro/RetroRewind6/dev/Launcher/RRLauncher/launcher/bu
 687              		.file 22 "F:/GameModding/MarioKartWii/Mods/Distro/RetroRewind6/dev/Launcher/RRLauncher/launcher/bu
 688              		.file 23 "F:/GameModding/MarioKartWii/Mods/Distro/RetroRewind6/dev/Launcher/RRLauncher/launcher/bu
 689              		.file 24 "F:/GameModding/MarioKartWii/Mods/Distro/RetroRewind6/dev/Launcher/RRLauncher/launcher/bu
 690              		.file 25 "F:/GameModding/MarioKartWii/Mods/Distro/RetroRewind6/dev/Launcher/RRLauncher/launcher/bu
 691              		.file 26 "F:/GameModding/MarioKartWii/Mods/Distro/RetroRewind6/dev/Launcher/RRLauncher/launcher/bu
 692              		.file 27 "F:/GameModding/MarioKartWii/Mods/Distro/RetroRewind6/dev/Launcher/RRLauncher/launcher/bu
 693              		.file 28 "F:/GameModding/MarioKartWii/Mods/Distro/RetroRewind6/dev/Launcher/RRLauncher/launcher/bu
 694              		.file 29 "F:/GameModding/MarioKartWii/Mods/Distro/RetroRewind6/dev/Launcher/RRLauncher/launcher/bu
 695              		.file 30 "F:/GameModding/MarioKartWii/Mods/Distro/RetroRewind6/dev/Launcher/RRLauncher/launcher/bu
 696              		.file 31 "F:/GameModding/MarioKartWii/Mods/Distro/RetroRewind6/dev/Launcher/RRLauncher/launcher/bu
 697              		.file 32 "F:/GameModding/MarioKartWii/Mods/Distro/RetroRewind6/dev/Launcher/RRLauncher/launcher/bu
 698              		.file 33 "F:/GameModding/MarioKartWii/Mods/Distro/RetroRewind6/dev/Launcher/RRLauncher/launcher/bu
 699              		.file 34 "F:/GameModding/MarioKartWii/Mods/Distro/RetroRewind6/dev/Launcher/RRLauncher/launcher/bu
 700              		.file 35 "F:/GameModding/MarioKartWii/Mods/Distro/RetroRewind6/dev/Launcher/RRLauncher/launcher/bu
 701              		.file 36 "F:/GameModding/MarioKartWii/Mods/Distro/RetroRewind6/dev/Launcher/RRLauncher/launcher/bu
 702              		.file 37 "F:/GameModding/MarioKartWii/Mods/Distro/RetroRewind6/dev/Launcher/RRLauncher/launcher/bu
 703              		.file 38 "F:/GameModding/MarioKartWii/Mods/Distro/RetroRewind6/dev/Launcher/RRLauncher/launcher/bu
 704              		.file 39 "F:/GameModding/MarioKartWii/Mods/Distro/RetroRewind6/dev/Launcher/RRLauncher/launcher/bu
 705              		.file 40 "F:/GameModding/MarioKartWii/Mods/Distro/RetroRewind6/dev/Launcher/RRLauncher/launcher/bu
 706              		.file 41 "F:/GameModding/MarioKartWii/Mods/Distro/RetroRewind6/dev/Launcher/RRLauncher/launcher/bu
 707              		.file 42 "F:/GameModding/MarioKartWii/Mods/Distro/RetroRewind6/dev/Launcher/RRLauncher/launcher/bu
 708              		.file 43 "F:/GameModding/MarioKartWii/Mods/Distro/RetroRewind6/dev/Launcher/RRLauncher/launcher/bu
 709              		.file 44 "F:/GameModding/MarioKartWii/Mods/Distro/RetroRewind6/dev/Launcher/RRLauncher/launcher/bu
 710              		.file 45 "F:/GameModding/MarioKartWii/Mods/Distro/RetroRewind6/dev/Launcher/RRLauncher/launcher/bu
 711              		.file 46 "F:/GameModding/MarioKartWii/Mods/Distro/RetroRewind6/dev/Launcher/RRLauncher/launcher/bu
 712              		.file 47 "F:/GameModding/MarioKartWii/Mods/Distro/RetroRewind6/dev/Launcher/RRLauncher/launcher/bu
 713              		.file 48 "F:/GameModding/MarioKartWii/Mods/Distro/RetroRewind6/dev/Launcher/RRLauncher/launcher/bu
 714              		.file 49 "F:/GameModding/MarioKartWii/Mods/Distro/RetroRewind6/dev/Launcher/RRLauncher/launcher/bu
 715              		.file 50 "F:/GameModding/MarioKartWii/Mods/Distro/RetroRewind6/dev/Launcher/RRLauncher/launcher/bu
 716              		.file 51 "F:/GameModding/MarioKartWii/Mods/Distro/RetroRewind6/dev/Launcher/RRLauncher/launcher/bu
 717              		.file 52 "F:/GameModding/MarioKartWii/Mods/Distro/RetroRewind6/dev/Launcher/RRLauncher/launcher/bu
 718              		.file 53 "F:/GameModding/MarioKartWii/Mods/Distro/RetroRewind6/dev/Launcher/RRLauncher/launcher/bu
 719              		.file 54 "F:/GameModding/MarioKartWii/Mods/Distro/RetroRewind6/dev/Launcher/RRLauncher/launcher/bu
 720              		.file 55 "F:/GameModding/MarioKartWii/Mods/Distro/RetroRewind6/dev/Launcher/RRLauncher/launcher/bu
 721              		.file 56 "F:/GameModding/MarioKartWii/Mods/Distro/RetroRewind6/dev/Launcher/RRLauncher/launcher/li
 722              		.file 57 "F:/GameModding/MarioKartWii/Mods/Distro/RetroRewind6/dev/Launcher/RRLauncher/launcher/li
 723              		.file 58 "C:/devkitPro/devkitPPC/powerpc-eabi/include/c++/13.1.0/bits/memory_resource.h"
 724              		.file 59 "F:/GameModding/MarioKartWii/Mods/Distro/RetroRewind6/dev/Launcher/RRLauncher/launcher/li