   1              		.file	"gui_optionbrowser.cpp"
   2              		.machine ppc
   3              		.section	".text"
   4              	.Ltext0:
   5              		.file 1 "F:/GameModding/MarioKartWii/Mods/Distro/RetroRewind6/dev/Launcher/RRLauncher/launcher/lib
   6              		.section	.text._ZN16GuiOptionBrowser10ResetStateEv,"ax",@progbits
   7              		.align 2
   8              		.globl _ZN16GuiOptionBrowser10ResetStateEv
   9              		.type	_ZN16GuiOptionBrowser10ResetStateEv, @function
  10              	_ZN16GuiOptionBrowser10ResetStateEv:
  11              	.LVL0:
  12              	.LFB2341:
  13              		.loc 1 152 1 view -0
  14              		.cfi_startproc
  15              		.loc 1 153 2 view .LVU1
  16 0000 81230068 		lwz 9,104(3)
  17              		.loc 1 152 1 is_stmt 0 view .LVU2
  18 0004 7C0802A6 		mflr 0
  19 0008 9421FFF0 		stwu 1,-16(1)
  20              		.cfi_def_cfa_offset 16
  21              		.cfi_register 65, 0
  22              		.loc 1 153 2 view .LVU3
  23 000c 2C090004 		cmpwi 0,9,4
  24              		.loc 1 152 1 view .LVU4
  25 0010 90010014 		stw 0,20(1)
  26 0014 93C10008 		stw 30,8(1)
  27 0018 93E1000C 		stw 31,12(1)
  28              		.cfi_offset 65, 4
  29              		.cfi_offset 30, -8
  30              		.cfi_offset 31, -4
  31              		.loc 1 153 2 view .LVU5
  32 001c 41820014 		beq- 0,.L2
  33              		.loc 1 155 3 is_stmt 1 view .LVU6
  34              		.loc 1 155 9 is_stmt 0 view .LVU7
  35 0020 39400000 		li 10,0
  36              		.loc 1 156 13 view .LVU8
  37 0024 3920FFFF 		li 9,-1
  38              		.loc 1 155 9 view .LVU9
  39 0028 91430068 		stw 10,104(3)
  40              		.loc 1 156 3 is_stmt 1 view .LVU10
  41              		.loc 1 156 13 is_stmt 0 view .LVU11
  42 002c 9123006C 		stw 9,108(3)
  43              	.LVL1:
  44              	.LBB37:
  45              		.loc 1 159 16 is_stmt 1 discriminator 1 view .LVU12
  46              	.L2:
  47              		.loc 1 159 16 is_stmt 0 discriminator 1 view .LVU13
  48 0030 3BE300D0 		addi 31,3,208
  49              	.LBE37:
  50              		.loc 1 152 1 view .LVU14
  51 0034 3BC00008 		li 30,8
  52              	.LVL2:
  53              	.L3:
  54              	.LBB38:
  55              		.loc 1 161 3 is_stmt 1 view .LVU15
  56              		.loc 1 161 14 is_stmt 0 view .LVU16
  57 0038 807F0004 		lwz 3,4(31)
  58              		.loc 1 159 16 discriminator 1 view .LVU17
  59 003c 3BDEFFFF 		addi 30,30,-1
  60              	.LVL3:
  61              		.loc 1 161 14 view .LVU18
  62 0040 3BFF0008 		addi 31,31,8
  63              		.loc 1 161 27 view .LVU19
  64 0044 81230000 		lwz 9,0(3)
  65 0048 81290014 		lwz 9,20(9)
  66 004c 7D2903A6 		mtctr 9
  67 0050 4E800421 		bctrl
  68              	.LVL4:
  69              		.loc 1 159 2 is_stmt 1 discriminator 3 view .LVU20
  70              		.loc 1 159 16 discriminator 1 view .LVU21
  71              		.loc 1 161 3 view .LVU22
  72              		.loc 1 161 14 is_stmt 0 view .LVU23
  73 0054 807F0000 		lwz 3,0(31)
  74              		.loc 1 161 27 view .LVU24
  75 0058 81230000 		lwz 9,0(3)
  76 005c 81290014 		lwz 9,20(9)
  77 0060 7D2903A6 		mtctr 9
  78 0064 4E800421 		bctrl
  79              	.LVL5:
  80              		.loc 1 159 2 is_stmt 1 discriminator 3 view .LVU25
  81              		.loc 1 159 16 discriminator 1 view .LVU26
  82 0068 37DEFFFF 		addic. 30,30,-1
  83 006c 4082FFCC 		bne+ 0,.L3
  84              	.LBE38:
  85              		.loc 1 163 1 is_stmt 0 view .LVU27
  86 0070 80010014 		lwz 0,20(1)
  87 0074 83C10008 		lwz 30,8(1)
  88 0078 83E1000C 		lwz 31,12(1)
  89 007c 7C0803A6 		mtlr 0
  90              		.cfi_restore 65
  91 0080 38210010 		addi 1,1,16
  92              		.cfi_restore 31
  93              		.cfi_restore 30
  94              		.cfi_def_cfa_offset 0
  95 0084 4E800020 		blr
  96              		.cfi_endproc
  97              	.LFE2341:
  98              		.size	_ZN16GuiOptionBrowser10ResetStateEv, .-_ZN16GuiOptionBrowser10ResetStateEv
  99              		.section	.text._ZN16GuiOptionBrowserD2Ev,"ax",@progbits
 100              		.align 2
 101              		.globl _ZN16GuiOptionBrowserD2Ev
 102              		.type	_ZN16GuiOptionBrowserD2Ev, @function
 103              	_ZN16GuiOptionBrowserD2Ev:
 104              	.LVL6:
 105              	.LFB2336:
 106              		.loc 1 101 1 is_stmt 1 view -0
 107              		.cfi_startproc
 108              		.loc 1 101 1 is_stmt 0 view .LVU29
 109 0000 9421FFE8 		stwu 1,-24(1)
 110              		.cfi_def_cfa_offset 24
 111              	.LBB39:
 112              		.loc 1 101 37 view .LVU30
 113 0004 3D200000 		lis 9,_ZTV16GuiOptionBrowser+8@ha
 114              	.LBE39:
 115              		.loc 1 101 1 view .LVU31
 116 0008 7C0802A6 		mflr 0
 117              	.LBB46:
 118              		.loc 1 101 37 view .LVU32
 119 000c 39290000 		la 9,_ZTV16GuiOptionBrowser+8@l(9)
 120              	.LBE46:
 121              		.loc 1 101 1 view .LVU33
 122 0010 93A1000C 		stw 29,12(1)
 123              		.cfi_register 65, 0
 124              		.cfi_offset 29, -12
 125 0014 7C7D1B78 		mr 29,3
 126              	.LBB47:
 127              	.LBB40:
 128              		.loc 1 103 9 view .LVU34
 129 0018 80630134 		lwz 3,308(3)
 130              	.LVL7:
 131              		.loc 1 103 9 view .LVU35
 132              	.LBE40:
 133              	.LBE47:
 134              		.loc 1 101 1 view .LVU36
 135 001c 9001001C 		stw 0,28(1)
 136              	.LBB48:
 137              	.LBB43:
 138              		.loc 1 103 2 view .LVU37
 139 0020 2C030000 		cmpwi 0,3,0
 140              	.LBE43:
 141              	.LBE48:
 142              		.loc 1 101 1 view .LVU38
 143 0024 93C10010 		stw 30,16(1)
 144 0028 93E10014 		stw 31,20(1)
 145              		.cfi_offset 65, 4
 146              		.cfi_offset 30, -8
 147              		.cfi_offset 31, -4
 148              	.LBB49:
 149              		.loc 1 101 37 view .LVU39
 150 002c 913D0000 		stw 9,0(29)
 151              	.LBB44:
 152              		.loc 1 103 2 is_stmt 1 view .LVU40
 153 0030 41820014 		beq- 0,.L12
 154              		.loc 1 103 9 is_stmt 0 discriminator 1 view .LVU41
 155 0034 81230000 		lwz 9,0(3)
 156 0038 81290004 		lwz 9,4(9)
 157 003c 7D2903A6 		mtctr 9
 158 0040 4E800421 		bctrl
 159              	.LVL8:
 160              	.L12:
 161              		.loc 1 104 2 is_stmt 1 view .LVU42
 162              		.loc 1 104 9 is_stmt 0 view .LVU43
 163 0044 807D0138 		lwz 3,312(29)
 164              		.loc 1 104 2 view .LVU44
 165 0048 2C030000 		cmpwi 0,3,0
 166 004c 41820014 		beq- 0,.L13
 167              		.loc 1 104 9 discriminator 1 view .LVU45
 168 0050 81230000 		lwz 9,0(3)
 169 0054 81290004 		lwz 9,4(9)
 170 0058 7D2903A6 		mtctr 9
 171 005c 4E800421 		bctrl
 172              	.LVL9:
 173              	.L13:
 174              		.loc 1 106 2 is_stmt 1 view .LVU46
 175              		.loc 1 106 9 is_stmt 0 view .LVU47
 176 0060 807D013C 		lwz 3,316(29)
 177              		.loc 1 106 2 view .LVU48
 178 0064 2C030000 		cmpwi 0,3,0
 179 0068 41820014 		beq- 0,.L14
 180              		.loc 1 106 9 discriminator 1 view .LVU49
 181 006c 81230000 		lwz 9,0(3)
 182 0070 81290004 		lwz 9,4(9)
 183 0074 7D2903A6 		mtctr 9
 184 0078 4E800421 		bctrl
 185              	.LVL10:
 186              	.L14:
 187              		.loc 1 107 2 is_stmt 1 view .LVU50
 188              		.loc 1 107 9 is_stmt 0 view .LVU51
 189 007c 807D0140 		lwz 3,320(29)
 190              		.loc 1 107 2 view .LVU52
 191 0080 2C030000 		cmpwi 0,3,0
 192 0084 41820014 		beq- 0,.L15
 193              		.loc 1 107 9 discriminator 1 view .LVU53
 194 0088 81230000 		lwz 9,0(3)
 195 008c 81290004 		lwz 9,4(9)
 196 0090 7D2903A6 		mtctr 9
 197 0094 4E800421 		bctrl
 198              	.LVL11:
 199              	.L15:
 200              		.loc 1 108 2 is_stmt 1 view .LVU54
 201              		.loc 1 108 9 is_stmt 0 view .LVU55
 202 0098 807D0144 		lwz 3,324(29)
 203              		.loc 1 108 2 view .LVU56
 204 009c 2C030000 		cmpwi 0,3,0
 205 00a0 41820014 		beq- 0,.L16
 206              		.loc 1 108 9 discriminator 1 view .LVU57
 207 00a4 81230000 		lwz 9,0(3)
 208 00a8 81290004 		lwz 9,4(9)
 209 00ac 7D2903A6 		mtctr 9
 210 00b0 4E800421 		bctrl
 211              	.LVL12:
 212              	.L16:
 213              		.loc 1 109 2 is_stmt 1 view .LVU58
 214              		.loc 1 109 9 is_stmt 0 view .LVU59
 215 00b4 807D0148 		lwz 3,328(29)
 216              		.loc 1 109 2 view .LVU60
 217 00b8 2C030000 		cmpwi 0,3,0
 218 00bc 41820014 		beq- 0,.L17
 219              		.loc 1 109 9 discriminator 1 view .LVU61
 220 00c0 81230000 		lwz 9,0(3)
 221 00c4 81290004 		lwz 9,4(9)
 222 00c8 7D2903A6 		mtctr 9
 223 00cc 4E800421 		bctrl
 224              	.LVL13:
 225              	.L17:
 226              		.loc 1 110 2 is_stmt 1 view .LVU62
 227              		.loc 1 110 9 is_stmt 0 view .LVU63
 228 00d0 807D014C 		lwz 3,332(29)
 229              		.loc 1 110 2 view .LVU64
 230 00d4 2C030000 		cmpwi 0,3,0
 231 00d8 41820014 		beq- 0,.L18
 232              		.loc 1 110 9 discriminator 1 view .LVU65
 233 00dc 81230000 		lwz 9,0(3)
 234 00e0 81290004 		lwz 9,4(9)
 235 00e4 7D2903A6 		mtctr 9
 236 00e8 4E800421 		bctrl
 237              	.LVL14:
 238              	.L18:
 239              		.loc 1 111 2 is_stmt 1 view .LVU66
 240              		.loc 1 111 9 is_stmt 0 view .LVU67
 241 00ec 807D0150 		lwz 3,336(29)
 242              		.loc 1 111 2 view .LVU68
 243 00f0 2C030000 		cmpwi 0,3,0
 244 00f4 41820014 		beq- 0,.L19
 245              		.loc 1 111 9 discriminator 1 view .LVU69
 246 00f8 81230000 		lwz 9,0(3)
 247 00fc 81290004 		lwz 9,4(9)
 248 0100 7D2903A6 		mtctr 9
 249 0104 4E800421 		bctrl
 250              	.LVL15:
 251              	.L19:
 252              		.loc 1 113 2 is_stmt 1 view .LVU70
 253              		.loc 1 113 9 is_stmt 0 view .LVU71
 254 0108 83FD0154 		lwz 31,340(29)
 255              		.loc 1 113 2 view .LVU72
 256 010c 2C1F0000 		cmpwi 0,31,0
 257 0110 41820018 		beq- 0,.L20
 258              		.loc 1 113 9 discriminator 1 view .LVU73
 259 0114 7FE3FB78 		mr 3,31
 260 0118 48000001 		bl _ZN12GuiImageDataD1Ev
 261              	.LVL16:
 262 011c 3880000C 		li 4,12
 263 0120 7FE3FB78 		mr 3,31
 264 0124 48000001 		bl _ZdlPvj
 265              	.LVL17:
 266              	.L20:
 267              		.loc 1 114 2 is_stmt 1 view .LVU74
 268              		.loc 1 114 9 is_stmt 0 view .LVU75
 269 0128 83FD0158 		lwz 31,344(29)
 270              		.loc 1 114 2 view .LVU76
 271 012c 2C1F0000 		cmpwi 0,31,0
 272 0130 41820018 		beq- 0,.L21
 273              		.loc 1 114 9 discriminator 1 view .LVU77
 274 0134 7FE3FB78 		mr 3,31
 275 0138 48000001 		bl _ZN12GuiImageDataD1Ev
 276              	.LVL18:
 277 013c 3880000C 		li 4,12
 278 0140 7FE3FB78 		mr 3,31
 279 0144 48000001 		bl _ZdlPvj
 280              	.LVL19:
 281              	.L21:
 282              		.loc 1 115 2 is_stmt 1 view .LVU78
 283              		.loc 1 115 9 is_stmt 0 view .LVU79
 284 0148 83FD015C 		lwz 31,348(29)
 285              		.loc 1 115 2 view .LVU80
 286 014c 2C1F0000 		cmpwi 0,31,0
 287 0150 41820018 		beq- 0,.L22
 288              		.loc 1 115 9 discriminator 1 view .LVU81
 289 0154 7FE3FB78 		mr 3,31
 290 0158 48000001 		bl _ZN12GuiImageDataD1Ev
 291              	.LVL20:
 292 015c 3880000C 		li 4,12
 293 0160 7FE3FB78 		mr 3,31
 294 0164 48000001 		bl _ZdlPvj
 295              	.LVL21:
 296              	.L22:
 297              		.loc 1 116 2 is_stmt 1 view .LVU82
 298              		.loc 1 116 9 is_stmt 0 view .LVU83
 299 0168 83FD0160 		lwz 31,352(29)
 300              		.loc 1 116 2 view .LVU84
 301 016c 2C1F0000 		cmpwi 0,31,0
 302 0170 41820018 		beq- 0,.L23
 303              		.loc 1 116 9 discriminator 1 view .LVU85
 304 0174 7FE3FB78 		mr 3,31
 305 0178 48000001 		bl _ZN12GuiImageDataD1Ev
 306              	.LVL22:
 307 017c 3880000C 		li 4,12
 308 0180 7FE3FB78 		mr 3,31
 309 0184 48000001 		bl _ZdlPvj
 310              	.LVL23:
 311              	.L23:
 312              		.loc 1 117 2 is_stmt 1 view .LVU86
 313              		.loc 1 117 9 is_stmt 0 view .LVU87
 314 0188 83FD0164 		lwz 31,356(29)
 315              		.loc 1 117 2 view .LVU88
 316 018c 2C1F0000 		cmpwi 0,31,0
 317 0190 41820018 		beq- 0,.L24
 318              		.loc 1 117 9 discriminator 1 view .LVU89
 319 0194 7FE3FB78 		mr 3,31
 320 0198 48000001 		bl _ZN12GuiImageDataD1Ev
 321              	.LVL24:
 322 019c 3880000C 		li 4,12
 323 01a0 7FE3FB78 		mr 3,31
 324 01a4 48000001 		bl _ZdlPvj
 325              	.LVL25:
 326              	.L24:
 327              		.loc 1 118 2 is_stmt 1 view .LVU90
 328              		.loc 1 118 9 is_stmt 0 view .LVU91
 329 01a8 83FD0168 		lwz 31,360(29)
 330              		.loc 1 118 2 view .LVU92
 331 01ac 2C1F0000 		cmpwi 0,31,0
 332 01b0 41820018 		beq- 0,.L25
 333              		.loc 1 118 9 discriminator 1 view .LVU93
 334 01b4 7FE3FB78 		mr 3,31
 335 01b8 48000001 		bl _ZN12GuiImageDataD1Ev
 336              	.LVL26:
 337 01bc 3880000C 		li 4,12
 338 01c0 7FE3FB78 		mr 3,31
 339 01c4 48000001 		bl _ZdlPvj
 340              	.LVL27:
 341              	.L25:
 342              		.loc 1 119 2 is_stmt 1 view .LVU94
 343              		.loc 1 119 9 is_stmt 0 view .LVU95
 344 01c8 83FD016C 		lwz 31,364(29)
 345              		.loc 1 119 2 view .LVU96
 346 01cc 2C1F0000 		cmpwi 0,31,0
 347 01d0 41820018 		beq- 0,.L26
 348              		.loc 1 119 9 discriminator 1 view .LVU97
 349 01d4 7FE3FB78 		mr 3,31
 350 01d8 48000001 		bl _ZN12GuiImageDataD1Ev
 351              	.LVL28:
 352 01dc 3880000C 		li 4,12
 353 01e0 7FE3FB78 		mr 3,31
 354 01e4 48000001 		bl _ZdlPvj
 355              	.LVL29:
 356              	.L26:
 357              		.loc 1 121 2 is_stmt 1 view .LVU98
 358              		.loc 1 121 9 is_stmt 0 view .LVU99
 359 01e8 83FD0178 		lwz 31,376(29)
 360              		.loc 1 121 2 view .LVU100
 361 01ec 2C1F0000 		cmpwi 0,31,0
 362 01f0 41820018 		beq- 0,.L27
 363              		.loc 1 121 9 discriminator 1 view .LVU101
 364 01f4 7FE3FB78 		mr 3,31
 365 01f8 48000001 		bl _ZN10GuiTriggerD1Ev
 366              	.LVL30:
 367 01fc 3880016C 		li 4,364
 368 0200 7FE3FB78 		mr 3,31
 369 0204 48000001 		bl _ZdlPvj
 370              	.LVL31:
 371              	.L27:
 372              		.loc 1 122 2 is_stmt 1 view .LVU102
 373              		.loc 1 122 9 is_stmt 0 view .LVU103
 374 0208 83FD0170 		lwz 31,368(29)
 375              		.loc 1 122 2 view .LVU104
 376 020c 2C1F0000 		cmpwi 0,31,0
 377 0210 41820018 		beq- 0,.L28
 378              		.loc 1 122 9 discriminator 1 view .LVU105
 379 0214 7FE3FB78 		mr 3,31
 380 0218 48000001 		bl _ZN8GuiSoundD1Ev
 381              	.LVL32:
 382 021c 38800018 		li 4,24
 383 0220 7FE3FB78 		mr 3,31
 384 0224 48000001 		bl _ZdlPvj
 385              	.LVL33:
 386              	.L28:
 387              		.loc 1 123 2 is_stmt 1 view .LVU106
 388              		.loc 1 123 9 is_stmt 0 view .LVU107
 389 0228 83FD0174 		lwz 31,372(29)
 390              		.loc 1 123 2 view .LVU108
 391 022c 2C1F0000 		cmpwi 0,31,0
 392 0230 41820018 		beq- 0,.L29
 393              		.loc 1 123 9 discriminator 1 view .LVU109
 394 0234 7FE3FB78 		mr 3,31
 395 0238 48000001 		bl _ZN8GuiSoundD1Ev
 396              	.LVL34:
 397 023c 38800018 		li 4,24
 398 0240 7FE3FB78 		mr 3,31
 399 0244 48000001 		bl _ZdlPvj
 400              	.LVL35:
 401              	.LBB41:
 402              		.loc 1 125 16 is_stmt 1 discriminator 1 view .LVU110
 403              	.L29:
 404              		.loc 1 125 16 is_stmt 0 discriminator 1 view .LVU111
 405 0248 3BFD0080 		addi 31,29,128
 406              	.LBE41:
 407              	.LBE44:
 408              	.LBE49:
 409              		.loc 1 101 1 view .LVU112
 410 024c 3BC00008 		li 30,8
 411              	.L34:
 412              	.LVL36:
 413              	.LBB50:
 414              	.LBB45:
 415              	.LBB42:
 416              		.loc 1 127 3 is_stmt 1 view .LVU113
 417              		.loc 1 127 21 is_stmt 0 view .LVU114
 418 0250 813F0074 		lwz 9,116(31)
 419              		.loc 1 127 3 view .LVU115
 420 0254 2C090000 		cmpwi 0,9,0
 421              		.loc 1 127 21 discriminator 1 view .LVU116
 422 0258 7D234B78 		mr 3,9
 423              		.loc 1 127 3 view .LVU117
 424 025c 41820014 		beq- 0,.L30
 425              		.loc 1 127 21 discriminator 1 view .LVU118
 426 0260 81290000 		lwz 9,0(9)
 427 0264 81290004 		lwz 9,4(9)
 428 0268 7D2903A6 		mtctr 9
 429 026c 4E800421 		bctrl
 430              	.LVL37:
 431              	.L30:
 432              		.loc 1 128 3 is_stmt 1 view .LVU119
 433              		.loc 1 128 21 is_stmt 0 view .LVU120
 434 0270 853F0004 		lwzu 9,4(31)
 435              		.loc 1 128 3 view .LVU121
 436 0274 2C090000 		cmpwi 0,9,0
 437              		.loc 1 128 21 discriminator 1 view .LVU122
 438 0278 7D234B78 		mr 3,9
 439              		.loc 1 128 3 view .LVU123
 440 027c 41820014 		beq- 0,.L31
 441              		.loc 1 128 21 discriminator 1 view .LVU124
 442 0280 81290000 		lwz 9,0(9)
 443 0284 81290004 		lwz 9,4(9)
 444 0288 7D2903A6 		mtctr 9
 445 028c 4E800421 		bctrl
 446              	.LVL38:
 447              	.L31:
 448              		.loc 1 129 3 is_stmt 1 view .LVU125
 449              		.loc 1 129 20 is_stmt 0 view .LVU126
 450 0290 813F0090 		lwz 9,144(31)
 451              		.loc 1 129 3 view .LVU127
 452 0294 2C090000 		cmpwi 0,9,0
 453              		.loc 1 129 20 discriminator 1 view .LVU128
 454 0298 7D234B78 		mr 3,9
 455              		.loc 1 129 3 view .LVU129
 456 029c 41820014 		beq- 0,.L32
 457              		.loc 1 129 20 discriminator 1 view .LVU130
 458 02a0 81290000 		lwz 9,0(9)
 459 02a4 81290004 		lwz 9,4(9)
 460 02a8 7D2903A6 		mtctr 9
 461 02ac 4E800421 		bctrl
 462              	.LVL39:
 463              	.L32:
 464              		.loc 1 130 3 is_stmt 1 view .LVU131
 465              		.loc 1 130 21 is_stmt 0 view .LVU132
 466 02b0 813F0050 		lwz 9,80(31)
 467              		.loc 1 130 3 view .LVU133
 468 02b4 2C090000 		cmpwi 0,9,0
 469              		.loc 1 130 21 discriminator 1 view .LVU134
 470 02b8 7D234B78 		mr 3,9
 471              		.loc 1 130 3 view .LVU135
 472 02bc 41820014 		beq- 0,.L33
 473              		.loc 1 130 21 discriminator 1 view .LVU136
 474 02c0 81290000 		lwz 9,0(9)
 475 02c4 81290004 		lwz 9,4(9)
 476 02c8 7D2903A6 		mtctr 9
 477 02cc 4E800421 		bctrl
 478              	.LVL40:
 479              	.L33:
 480              		.loc 1 125 2 is_stmt 1 discriminator 2 view .LVU137
 481              		.loc 1 125 16 discriminator 1 view .LVU138
 482 02d0 37DEFFFF 		addic. 30,30,-1
 483              	.LVL41:
 484              		.loc 1 125 16 is_stmt 0 discriminator 1 view .LVU139
 485 02d4 4082FF7C 		bne+ 0,.L34
 486              	.LBE42:
 487              	.LBE45:
 488              	.LBE50:
 489              		.loc 1 132 1 view .LVU140
 490 02d8 8001001C 		lwz 0,28(1)
 491              	.LBB51:
 492 02dc 7FA3EB78 		mr 3,29
 493              	.LBE51:
 494 02e0 83C10010 		lwz 30,16(1)
 495              	.LVL42:
 496              		.loc 1 132 1 view .LVU141
 497 02e4 83A1000C 		lwz 29,12(1)
 498              	.LVL43:
 499              		.loc 1 132 1 view .LVU142
 500 02e8 7C0803A6 		mtlr 0
 501              		.cfi_restore 65
 502 02ec 83E10014 		lwz 31,20(1)
 503 02f0 38210018 		addi 1,1,24
 504              		.cfi_restore 31
 505              		.cfi_restore 30
 506              		.cfi_restore 29
 507              		.cfi_def_cfa_offset 0
 508              	.LBB52:
 509 02f4 48000000 		b _ZN10GuiElementD2Ev
 510              	.LVL44:
 511              		.loc 1 132 1 view .LVU143
 512              	.LBE52:
 513              		.cfi_endproc
 514              	.LFE2336:
 515              		.size	_ZN16GuiOptionBrowserD2Ev, .-_ZN16GuiOptionBrowserD2Ev
 516              		.globl _ZN16GuiOptionBrowserD1Ev
 517              		.set	_ZN16GuiOptionBrowserD1Ev,_ZN16GuiOptionBrowserD2Ev
 518              		.section	.text._ZN16GuiOptionBrowserD0Ev,"ax",@progbits
 519              		.align 2
 520              		.globl _ZN16GuiOptionBrowserD0Ev
 521              		.type	_ZN16GuiOptionBrowserD0Ev, @function
 522              	_ZN16GuiOptionBrowserD0Ev:
 523              	.LVL45:
 524              	.LFB2338:
 525              		.loc 1 101 1 is_stmt 1 view -0
 526              		.cfi_startproc
 527              		.loc 1 101 1 is_stmt 0 view .LVU145
 528 0000 9421FFF0 		stwu 1,-16(1)
 529              		.cfi_def_cfa_offset 16
 530 0004 7C0802A6 		mflr 0
 531 0008 93E1000C 		stw 31,12(1)
 532              		.cfi_register 65, 0
 533              		.cfi_offset 31, -4
 534 000c 7C7F1B78 		mr 31,3
 535 0010 90010014 		stw 0,20(1)
 536              		.cfi_offset 65, 4
 537              		.loc 1 132 1 view .LVU146
 538 0014 48000001 		bl _ZN16GuiOptionBrowserD1Ev
 539              	.LVL46:
 540              		.loc 1 132 1 view .LVU147
 541 0018 80010014 		lwz 0,20(1)
 542              		.loc 1 132 1 discriminator 1 view .LVU148
 543 001c 7FE3FB78 		mr 3,31
 544              		.loc 1 132 1 view .LVU149
 545 0020 83E1000C 		lwz 31,12(1)
 546              	.LVL47:
 547              		.loc 1 132 1 discriminator 1 view .LVU150
 548 0024 3880017C 		li 4,380
 549              		.loc 1 132 1 view .LVU151
 550 0028 7C0803A6 		mtlr 0
 551              		.cfi_restore 65
 552 002c 38210010 		addi 1,1,16
 553              		.cfi_restore 31
 554              		.cfi_def_cfa_offset 0
 555              		.loc 1 132 1 discriminator 1 view .LVU152
 556 0030 48000000 		b _ZdlPvj
 557              	.LVL48:
 558              		.loc 1 132 1 discriminator 1 view .LVU153
 559              		.cfi_endproc
 560              	.LFE2338:
 561              		.size	_ZN16GuiOptionBrowserD0Ev, .-_ZN16GuiOptionBrowserD0Ev
 562              		.section	.text._ZN16GuiOptionBrowser4DrawEv,"ax",@progbits
 563              		.align 2
 564              		.globl _ZN16GuiOptionBrowser4DrawEv
 565              		.type	_ZN16GuiOptionBrowser4DrawEv, @function
 566              	_ZN16GuiOptionBrowser4DrawEv:
 567              	.LVL49:
 568              	.LFB2344:
 569              		.loc 1 203 1 is_stmt 1 view -0
 570              		.cfi_startproc
 571              		.loc 1 204 2 view .LVU155
 572              		.loc 1 203 1 is_stmt 0 view .LVU156
 573 0000 9421FFE8 		stwu 1,-24(1)
 574              		.cfi_def_cfa_offset 24
 575 0004 7C0802A6 		mflr 0
 576 0008 93C10010 		stw 30,16(1)
 577              		.cfi_register 65, 0
 578              		.cfi_offset 30, -8
 579 000c 7C7E1B78 		mr 30,3
 580 0010 9001001C 		stw 0,28(1)
 581              		.cfi_offset 65, 4
 582              		.loc 1 204 21 view .LVU157
 583 0014 48000001 		bl _ZN10GuiElement9IsVisibleEv
 584              	.LVL50:
 585              		.loc 1 204 2 discriminator 1 view .LVU158
 586 0018 2C030000 		cmpwi 0,3,0
 587 001c 41820150 		beq- 0,.L105
 588              		.loc 1 207 2 view .LVU159
 589 0020 807E013C 		lwz 3,316(30)
 590 0024 93E10014 		stw 31,20(1)
 591              		.cfi_offset 31, -4
 592              		.loc 1 207 2 is_stmt 1 view .LVU160
 593              		.loc 1 207 20 is_stmt 0 view .LVU161
 594 0028 81230000 		lwz 9,0(3)
 595 002c 81290024 		lwz 9,36(9)
 596 0030 7D2903A6 		mtctr 9
 597 0034 4E800421 		bctrl
 598              	.LVL51:
 599              		.loc 1 209 2 is_stmt 1 view .LVU162
 600              		.loc 1 209 6 is_stmt 0 view .LVU163
 601 0038 83FE00A8 		lwz 31,168(30)
 602              	.LVL52:
 603              		.loc 1 211 2 is_stmt 1 view .LVU164
 604              	.LBB53:
 605              		.loc 1 211 16 discriminator 1 view .LVU165
 606              		.loc 1 213 3 view .LVU166
 607 003c 2C1F0000 		cmpwi 0,31,0
 608 0040 418000C0 		blt- 0,.L107
 609 0044 93810008 		stw 28,8(1)
 610              		.cfi_offset 28, -16
 611 0048 3B9E00F0 		addi 28,30,240
 612 004c 93A1000C 		stw 29,12(1)
 613              		.cfi_offset 29, -12
 614 0050 3BBE00D0 		addi 29,30,208
 615              	.LVL53:
 616              	.L109:
 617              		.loc 1 215 4 view .LVU167
 618              		.loc 1 215 15 is_stmt 0 view .LVU168
 619 0054 847D0004 		lwzu 3,4(29)
 620              		.loc 1 215 22 view .LVU169
 621 0058 81230000 		lwz 9,0(3)
 622 005c 81290024 		lwz 9,36(9)
 623 0060 7D2903A6 		mtctr 9
 624 0064 4E800421 		bctrl
 625              	.LVL54:
 626              		.loc 1 216 4 is_stmt 1 view .LVU170
 627              	.LBB54:
 628              	.LBI54:
 629              		.loc 1 186 5 view .LVU171
 630              	.LBB55:
 631              		.loc 1 190 33 is_stmt 0 discriminator 1 view .LVU172
 632 0068 815E00B0 		lwz 10,176(30)
 633 006c 1CFF0032 		mulli 7,31,50
 634 0070 7FE9F8F8 		not 9,31
 635              		.loc 1 190 42 discriminator 1 view .LVU173
 636 0074 810A0000 		lwz 8,0(10)
 637 0078 7D4A3A14 		add 10,10,7
 638 007c 7D294214 		add 9,9,8
 639 0080 71270001 		andi. 7,9,0x1
 640 0084 41820020 		beq- 0,.L113
 641              		.loc 1 188 2 is_stmt 1 view .LVU174
 642              		.loc 1 188 6 is_stmt 0 view .LVU175
 643 0088 3BFF0001 		addi 31,31,1
 644              	.LVL55:
 645              		.loc 1 190 2 is_stmt 1 view .LVU176
 646              		.loc 1 190 18 is_stmt 0 discriminator 1 view .LVU177
 647 008c 7C1F4000 		cmpw 0,31,8
 648 0090 40800068 		bge- 0,.L127
 649              		.loc 1 193 2 is_stmt 1 view .LVU178
 650 0094 88EA0036 		lbz 7,54(10)
 651 0098 394A0032 		addi 10,10,50
 652 009c 2C070000 		cmpwi 0,7,0
 653 00a0 408200C0 		bne- 0,.L123
 654              	.LVL56:
 655              	.L113:
 656              		.loc 1 193 2 is_stmt 0 view .LVU179
 657 00a4 38FF0001 		addi 7,31,1
 658 00a8 5529F87E 		srwi 9,9,1
 659 00ac 7C074000 		cmpw 0,7,8
 660 00b0 39290001 		addi 9,9,1
 661 00b4 418100A4 		bgt- 0,.L117
 662 00b8 3CE08000 		lis 7,0x8000
 663 00bc 7C083800 		cmpw 0,8,7
 664 00c0 40A20028 		bne+ 0,.L108
 665 00c4 48000094 		b .L117
 666              	.LVL57:
 667              	.L128:
 668              		.loc 1 193 2 view .LVU180
 669 00c8 890A0036 		lbz 8,54(10)
 670 00cc 394A0064 		addi 10,10,100
 671 00d0 2C080000 		cmpwi 0,8,0
 672 00d4 4082008C 		bne- 0,.L123
 673 00d8 890A0004 		lbz 8,4(10)
 674              		.loc 1 188 6 view .LVU181
 675 00dc 3BFF0001 		addi 31,31,1
 676              	.LVL58:
 677              		.loc 1 190 2 is_stmt 1 view .LVU182
 678              		.loc 1 193 2 view .LVU183
 679 00e0 2C080000 		cmpwi 0,8,0
 680 00e4 4082007C 		bne- 0,.L123
 681              	.LVL59:
 682              	.L108:
 683              		.loc 1 188 2 view .LVU184
 684              		.loc 1 193 2 view .LVU185
 685              		.loc 1 188 2 view .LVU186
 686              		.loc 1 190 18 is_stmt 0 discriminator 1 view .LVU187
 687 00e8 2C090001 		cmpwi 0,9,1
 688              		.loc 1 188 6 view .LVU188
 689 00ec 3BFF0001 		addi 31,31,1
 690              	.LVL60:
 691              		.loc 1 190 2 is_stmt 1 view .LVU189
 692              		.loc 1 190 18 is_stmt 0 discriminator 1 view .LVU190
 693 00f0 3929FFFF 		addi 9,9,-1
 694 00f4 4082FFD4 		bne+ 0,.L128
 695              	.LVL61:
 696              	.L127:
 697              		.loc 1 190 18 discriminator 1 view .LVU191
 698 00f8 83810008 		lwz 28,8(1)
 699              		.cfi_restore 28
 700 00fc 83A1000C 		lwz 29,12(1)
 701              		.cfi_restore 29
 702              	.L107:
 703              		.loc 1 190 18 discriminator 1 view .LVU192
 704              	.LBE55:
 705              	.LBE54:
 706              	.LBE53:
 707              		.loc 1 222 2 is_stmt 1 view .LVU193
 708 0100 807E0140 		lwz 3,320(30)
 709              		.loc 1 222 20 is_stmt 0 view .LVU194
 710 0104 81230000 		lwz 9,0(3)
 711 0108 81290024 		lwz 9,36(9)
 712 010c 7D2903A6 		mtctr 9
 713 0110 4E800421 		bctrl
 714              	.LVL62:
 715              		.loc 1 223 2 is_stmt 1 view .LVU195
 716 0114 807E0134 		lwz 3,308(30)
 717              		.loc 1 223 18 is_stmt 0 view .LVU196
 718 0118 81230000 		lwz 9,0(3)
 719 011c 81290024 		lwz 9,36(9)
 720 0120 7D2903A6 		mtctr 9
 721 0124 4E800421 		bctrl
 722              	.LVL63:
 723              		.loc 1 224 2 is_stmt 1 view .LVU197
 724 0128 807E0138 		lwz 3,312(30)
 725              		.loc 1 224 20 is_stmt 0 view .LVU198
 726 012c 81230000 		lwz 9,0(3)
 727 0130 81290024 		lwz 9,36(9)
 728 0134 7D2903A6 		mtctr 9
 729 0138 4E800421 		bctrl
 730              	.LVL64:
 731              		.loc 1 226 2 is_stmt 1 view .LVU199
 732              		.loc 1 227 1 is_stmt 0 view .LVU200
 733 013c 8001001C 		lwz 0,28(1)
 734              		.loc 1 226 21 view .LVU201
 735 0140 83E10014 		lwz 31,20(1)
 736              		.cfi_restore 31
 737 0144 7FC3F378 		mr 3,30
 738              		.loc 1 227 1 view .LVU202
 739 0148 83C10010 		lwz 30,16(1)
 740              	.LVL65:
 741              		.loc 1 227 1 view .LVU203
 742 014c 7C0803A6 		mtlr 0
 743              		.cfi_restore 65
 744 0150 38210018 		addi 1,1,24
 745              		.cfi_restore 30
 746              		.cfi_def_cfa_offset 0
 747              		.loc 1 226 21 view .LVU204
 748 0154 48000000 		b _ZN10GuiElement13UpdateEffectsEv
 749              	.LVL66:
 750              	.L117:
 751              		.cfi_def_cfa_offset 24
 752              		.cfi_offset 28, -16
 753              		.cfi_offset 29, -12
 754              		.cfi_offset 30, -8
 755              		.cfi_offset 31, -4
 756              		.cfi_offset 65, 4
 757              		.loc 1 226 21 view .LVU205
 758 0158 39200001 		li 9,1
 759 015c 4BFFFF8C 		b .L108
 760              	.LVL67:
 761              	.L123:
 762              	.LBB56:
 763              		.loc 1 211 2 is_stmt 1 discriminator 2 view .LVU206
 764              		.loc 1 211 16 discriminator 1 view .LVU207
 765 0160 7C1DE040 		cmplw 0,29,28
 766 0164 4082FEF0 		bne+ 0,.L109
 767              		.loc 1 211 16 is_stmt 0 discriminator 1 view .LVU208
 768 0168 4BFFFF90 		b .L127
 769              	.LVL68:
 770              	.L105:
 771              		.cfi_restore 28
 772              		.cfi_restore 29
 773              		.cfi_restore 31
 774              		.loc 1 211 16 discriminator 1 view .LVU209
 775              	.LBE56:
 776              		.loc 1 227 1 view .LVU210
 777 016c 8001001C 		lwz 0,28(1)
 778 0170 83C10010 		lwz 30,16(1)
 779              	.LVL69:
 780              		.loc 1 227 1 view .LVU211
 781 0174 38210018 		addi 1,1,24
 782              		.cfi_restore 30
 783              		.cfi_def_cfa_offset 0
 784 0178 7C0803A6 		mtlr 0
 785              		.cfi_restore 65
 786 017c 4E800020 		blr
 787              		.cfi_endproc
 788              	.LFE2344:
 789              		.size	_ZN16GuiOptionBrowser4DrawEv, .-_ZN16GuiOptionBrowser4DrawEv
 790              		.section	.text._ZN16GuiOptionBrowser8SetFocusEi,"ax",@progbits
 791              		.align 2
 792              		.globl _ZN16GuiOptionBrowser8SetFocusEi
 793              		.type	_ZN16GuiOptionBrowser8SetFocusEi, @function
 794              	_ZN16GuiOptionBrowser8SetFocusEi:
 795              	.LVL70:
 796              	.LFB2340:
 797              		.loc 1 141 1 is_stmt 1 view -0
 798              		.cfi_startproc
 799              		.loc 1 142 2 view .LVU213
 800              		.loc 1 141 1 is_stmt 0 view .LVU214
 801 0000 9421FFE8 		stwu 1,-24(1)
 802              		.cfi_def_cfa_offset 24
 803 0004 7C0802A6 		mflr 0
 804 0008 93810008 		stw 28,8(1)
 805              		.cfi_register 65, 0
 806              		.cfi_offset 28, -16
 807 000c 7C9C2378 		mr 28,4
 808 0010 93A1000C 		stw 29,12(1)
 809              		.cfi_offset 29, -12
 810 0014 7C7D1B78 		mr 29,3
 811 0018 93C10010 		stw 30,16(1)
 812              		.cfi_offset 30, -8
 813              		.loc 1 142 8 view .LVU215
 814 001c 3BC00008 		li 30,8
 815              		.loc 1 141 1 view .LVU216
 816 0020 93E10014 		stw 31,20(1)
 817              		.cfi_offset 31, -4
 818 0024 3BE300D0 		addi 31,3,208
 819 0028 9001001C 		stw 0,28(1)
 820              		.cfi_offset 65, 4
 821              		.loc 1 142 8 view .LVU217
 822 002c 90830008 		stw 4,8(3)
 823              		.loc 1 144 2 is_stmt 1 view .LVU218
 824              	.LVL71:
 825              	.LBB61:
 826              		.loc 1 144 16 discriminator 1 view .LVU219
 827              	.L130:
 828              		.loc 1 145 3 view .LVU220
 829              		.loc 1 145 14 is_stmt 0 view .LVU221
 830 0030 807F0004 		lwz 3,4(31)
 831              		.loc 1 144 16 discriminator 1 view .LVU222
 832 0034 3BDEFFFF 		addi 30,30,-1
 833              	.LVL72:
 834              		.loc 1 145 14 view .LVU223
 835 0038 3BFF0008 		addi 31,31,8
 836              		.loc 1 145 27 view .LVU224
 837 003c 81230000 		lwz 9,0(3)
 838 0040 81290014 		lwz 9,20(9)
 839 0044 7D2903A6 		mtctr 9
 840 0048 4E800421 		bctrl
 841              	.LVL73:
 842              		.loc 1 144 2 is_stmt 1 discriminator 3 view .LVU225
 843              		.loc 1 144 16 discriminator 1 view .LVU226
 844              		.loc 1 145 3 view .LVU227
 845              		.loc 1 145 14 is_stmt 0 view .LVU228
 846 004c 807F0000 		lwz 3,0(31)
 847              		.loc 1 145 27 view .LVU229
 848 0050 81230000 		lwz 9,0(3)
 849 0054 81290014 		lwz 9,20(9)
 850 0058 7D2903A6 		mtctr 9
 851 005c 4E800421 		bctrl
 852              	.LVL74:
 853              		.loc 1 144 2 is_stmt 1 discriminator 3 view .LVU230
 854              		.loc 1 144 16 discriminator 1 view .LVU231
 855 0060 37DEFFFF 		addic. 30,30,-1
 856 0064 4082FFCC 		bne+ 0,.L130
 857              	.LBE61:
 858              		.loc 1 147 2 view .LVU232
 859 0068 2C1C0001 		cmpwi 0,28,1
 860 006c 41820024 		beq- 0,.L135
 861              		.loc 1 149 1 is_stmt 0 view .LVU233
 862 0070 8001001C 		lwz 0,28(1)
 863 0074 83810008 		lwz 28,8(1)
 864              	.LVL75:
 865              		.loc 1 149 1 view .LVU234
 866 0078 83A1000C 		lwz 29,12(1)
 867              	.LVL76:
 868              		.loc 1 149 1 view .LVU235
 869 007c 7C0803A6 		mtlr 0
 870              		.cfi_remember_state
 871              		.cfi_restore 65
 872 0080 83C10010 		lwz 30,16(1)
 873 0084 83E10014 		lwz 31,20(1)
 874 0088 38210018 		addi 1,1,24
 875              		.cfi_restore 31
 876              		.cfi_restore 30
 877              		.cfi_restore 29
 878              		.cfi_restore 28
 879              		.cfi_def_cfa_offset 0
 880 008c 4E800020 		blr
 881              	.LVL77:
 882              	.L135:
 883              		.cfi_restore_state
 884              	.LBB62:
 885              	.LBI62:
 886              		.loc 1 140 6 is_stmt 1 view .LVU236
 887              	.LBB63:
 888              		.loc 1 148 3 view .LVU237
 889              		.loc 1 148 25 is_stmt 0 view .LVU238
 890 0090 813D00A4 		lwz 9,164(29)
 891              		.loc 1 148 36 view .LVU239
 892 0094 38A0FFFF 		li 5,-1
 893              	.LBE63:
 894              	.LBE62:
 895              		.loc 1 149 1 view .LVU240
 896 0098 8001001C 		lwz 0,28(1)
 897              	.LBB70:
 898              	.LBB64:
 899              		.loc 1 148 36 view .LVU241
 900 009c 38800001 		li 4,1
 901              		.loc 1 148 25 view .LVU242
 902 00a0 39290034 		addi 9,9,52
 903              	.LBE64:
 904              	.LBE70:
 905              		.loc 1 149 1 view .LVU243
 906 00a4 83810008 		lwz 28,8(1)
 907              	.LVL78:
 908              	.LBB71:
 909              	.LBB65:
 910              		.loc 1 148 25 view .LVU244
 911 00a8 5529103A 		slwi 9,9,2
 912              	.LBE65:
 913              	.LBE71:
 914              		.loc 1 149 1 view .LVU245
 915 00ac 83C10010 		lwz 30,16(1)
 916              	.LBB72:
 917              	.LBB66:
 918              		.loc 1 148 25 view .LVU246
 919 00b0 7FBD4A14 		add 29,29,9
 920              	.LVL79:
 921              		.loc 1 148 25 view .LVU247
 922              	.LBE66:
 923              	.LBE72:
 924              		.loc 1 149 1 view .LVU248
 925 00b4 83E10014 		lwz 31,20(1)
 926              	.LBB73:
 927              	.LBB67:
 928              		.loc 1 148 25 view .LVU249
 929 00b8 807D0004 		lwz 3,4(29)
 930              	.LBE67:
 931              	.LBE73:
 932              		.loc 1 149 1 view .LVU250
 933 00bc 7C0803A6 		mtlr 0
 934              		.cfi_restore 65
 935 00c0 83A1000C 		lwz 29,12(1)
 936              	.LBB74:
 937              	.LBB68:
 938              		.loc 1 148 36 view .LVU251
 939 00c4 81230000 		lwz 9,0(3)
 940 00c8 81290010 		lwz 9,16(9)
 941              	.LBE68:
 942              	.LBE74:
 943              		.loc 1 149 1 view .LVU252
 944 00cc 38210018 		addi 1,1,24
 945              		.cfi_restore 31
 946              		.cfi_restore 30
 947              		.cfi_restore 29
 948              		.cfi_restore 28
 949              		.cfi_def_cfa_offset 0
 950              	.LBB75:
 951              	.LBB69:
 952              		.loc 1 148 36 view .LVU253
 953 00d0 7D2903A6 		mtctr 9
 954 00d4 4E800420 		bctr
 955              	.LVL80:
 956              	.LBE69:
 957              	.LBE75:
 958              		.cfi_endproc
 959              	.LFE2340:
 960              		.size	_ZN16GuiOptionBrowser8SetFocusEi, .-_ZN16GuiOptionBrowser8SetFocusEi
 961              		.section	.text._ZN16GuiOptionBrowser6UpdateEP10GuiTrigger,"ax",@progbits
 962              		.align 2
 963              		.globl _ZN16GuiOptionBrowser6UpdateEP10GuiTrigger
 964              		.type	_ZN16GuiOptionBrowser6UpdateEP10GuiTrigger, @function
 965              	_ZN16GuiOptionBrowser6UpdateEP10GuiTrigger:
 966              	.LVL81:
 967              	.LFB2346:
 968              		.loc 1 235 1 is_stmt 1 view -0
 969              		.cfi_startproc
 970              		.loc 1 236 2 view .LVU255
 971 0000 81230068 		lwz 9,104(3)
 972 0004 2C090004 		cmpwi 0,9,4
 973 0008 4D820020 		beqlr- 0
 974              		.loc 1 236 29 is_stmt 0 discriminator 1 view .LVU256
 975 000c 2C040000 		cmpwi 0,4,0
 976              		.loc 1 235 1 view .LVU257
 977 0010 9421FFD8 		stwu 1,-40(1)
 978              		.cfi_def_cfa_offset 40
 979 0014 93E10024 		stw 31,36(1)
 980              		.cfi_offset 31, -4
 981 0018 7C9F2378 		mr 31,4
 982              		.loc 1 236 29 discriminator 1 view .LVU258
 983 001c 418201D0 		beq- 0,.L136
 984 0020 93C10020 		stw 30,32(1)
 985              		.cfi_offset 30, -8
 986 0024 7C7E1B78 		mr 30,3
 987              	.LVL82:
 988              	.LBB91:
 989              	.LBI91:
 990              		.loc 1 234 6 is_stmt 1 view .LVU259
 991              	.LBB92:
 992              		.loc 1 239 2 view .LVU260
 993              		.loc 1 241 2 view .LVU261
 994 0028 80630134 		lwz 3,308(3)
 995              	.LVL83:
 996              		.loc 1 241 2 is_stmt 0 view .LVU262
 997 002c 7C0802A6 		mflr 0
 998              		.cfi_register 65, 0
 999 0030 9001002C 		stw 0,44(1)
 1000              		.cfi_offset 65, 4
 1001              		.loc 1 241 20 view .LVU263
 1002 0034 81230000 		lwz 9,0(3)
 1003 0038 93410010 		stw 26,16(1)
 1004              		.cfi_offset 26, -24
 1005 003c 81290020 		lwz 9,32(9)
 1006 0040 93610014 		stw 27,20(1)
 1007              		.cfi_offset 27, -20
 1008 0044 7D2903A6 		mtctr 9
 1009 0048 93810018 		stw 28,24(1)
 1010              		.cfi_offset 28, -16
 1011 004c 93A1001C 		stw 29,28(1)
 1012              		.cfi_offset 29, -12
 1013              		.loc 1 241 20 view .LVU264
 1014 0050 4E800421 		bctrl
 1015              	.LVL84:
 1016              		.loc 1 242 2 is_stmt 1 view .LVU265
 1017 0054 807E0138 		lwz 3,312(30)
 1018              		.loc 1 242 22 is_stmt 0 view .LVU266
 1019 0058 7FE4FB78 		mr 4,31
 1020 005c 81230000 		lwz 9,0(3)
 1021 0060 81290020 		lwz 9,32(9)
 1022 0064 7D2903A6 		mtctr 9
 1023 0068 4E800421 		bctrl
 1024              	.LVL85:
 1025              		.loc 1 244 2 is_stmt 1 view .LVU267
 1026              		.loc 1 246 2 view .LVU268
 1027              	.LBB93:
 1028 006c 893E00AC 		lbz 9,172(30)
 1029 0070 2C090000 		cmpwi 0,9,0
 1030 0074 40820184 		bne- 0,.L140
 1031              	.LVL86:
 1032              	.L147:
 1033              		.loc 1 246 2 is_stmt 0 view .LVU269
 1034 0078 3B9E00D0 		addi 28,30,208
 1035              	.LBB94:
 1036              	.LBB95:
 1037              		.loc 1 249 11 view .LVU270
 1038 007c 3BA00000 		li 29,0
 1039              	.LBE95:
 1040              	.LBE94:
 1041              	.LBE93:
 1042              	.LBB105:
 1043              	.LBB106:
 1044              		.loc 1 282 12 view .LVU271
 1045 0080 3B40FFFF 		li 26,-1
 1046 0084 48000078 		b .L141
 1047              	.LVL87:
 1048              	.L232:
 1049              		.loc 1 274 49 discriminator 1 view .LVU272
 1050 0088 48000001 		bl _ZN10GuiElement8GetStateEv
 1051              	.LVL88:
 1052              		.loc 1 274 24 discriminator 1 view .LVU273
 1053 008c 2C030001 		cmpwi 0,3,1
 1054 0090 41820118 		beq- 0,.L229
 1055              		.loc 1 276 8 is_stmt 1 view .LVU274
 1056              		.loc 1 276 38 is_stmt 0 view .LVU275
 1057 0094 813E0008 		lwz 9,8(30)
 1058 0098 2C090000 		cmpwi 0,9,0
 1059 009c 418200B4 		beq- 0,.L227
 1060              		.loc 1 276 17 discriminator 1 view .LVU276
 1061 00a0 813E00A4 		lwz 9,164(30)
 1062 00a4 807C0000 		lwz 3,0(28)
 1063 00a8 7C09E800 		cmpw 0,9,29
 1064 00ac 4182006C 		beq- 0,.L172
 1065              	.L152:
 1066              		.loc 1 279 3 is_stmt 1 view .LVU277
 1067              		.loc 1 281 9 is_stmt 0 view .LVU278
 1068 00b0 813F0008 		lwz 9,8(31)
 1069              		.loc 1 279 7 view .LVU279
 1070 00b4 837F0004 		lwz 27,4(31)
 1071              	.LVL89:
 1072              		.loc 1 281 3 is_stmt 1 view .LVU280
 1073              		.loc 1 281 24 is_stmt 0 view .LVU281
 1074 00b8 814900AC 		lwz 10,172(9)
 1075 00bc 2C0A0000 		cmpwi 0,10,0
 1076 00c0 408200A8 		bne- 0,.L230
 1077              	.L156:
 1078              		.loc 1 284 3 is_stmt 1 view .LVU282
 1079              		.loc 1 284 23 is_stmt 0 view .LVU283
 1080 00c4 81230000 		lwz 9,0(3)
 1081 00c8 7FE4FB78 		mr 4,31
 1082 00cc 81290020 		lwz 9,32(9)
 1083 00d0 7D2903A6 		mtctr 9
 1084 00d4 4E800421 		bctrl
 1085              	.LVL90:
 1086              		.loc 1 285 3 is_stmt 1 view .LVU284
 1087              		.loc 1 285 11 is_stmt 0 view .LVU285
 1088 00d8 937F0004 		stw 27,4(31)
 1089              		.loc 1 287 3 is_stmt 1 view .LVU286
 1090              		.loc 1 287 28 is_stmt 0 view .LVU287
 1091 00dc 807C0000 		lwz 3,0(28)
 1092 00e0 48000001 		bl _ZN10GuiElement8GetStateEv
 1093              	.LVL91:
 1094              		.loc 1 287 3 discriminator 1 view .LVU288
 1095 00e4 2C030001 		cmpwi 0,3,1
 1096 00e8 40A20008 		bne+ 0,.L158
 1097              		.loc 1 288 4 is_stmt 1 view .LVU289
 1098              		.loc 1 288 17 is_stmt 0 view .LVU290
 1099 00ec 93BE00A4 		stw 29,164(30)
 1100              	.L158:
 1101              		.loc 1 288 17 view .LVU291
 1102              	.LBE106:
 1103              		.loc 1 272 2 is_stmt 1 discriminator 2 view .LVU292
 1104 00f0 3BBD0001 		addi 29,29,1
 1105              	.LVL92:
 1106              		.loc 1 272 16 discriminator 1 view .LVU293
 1107 00f4 2C1D0008 		cmpwi 0,29,8
 1108 00f8 418200CC 		beq- 0,.L231
 1109              	.LVL93:
 1110              	.L141:
 1111              	.LBB107:
 1112              		.loc 1 274 3 view .LVU294
 1113              		.loc 1 274 24 is_stmt 0 view .LVU295
 1114 00fc 813E00A4 		lwz 9,164(30)
 1115              		.loc 1 274 38 discriminator 1 view .LVU296
 1116 0100 847C0004 		lwzu 3,4(28)
 1117              		.loc 1 274 24 view .LVU297
 1118 0104 7C09E800 		cmpw 0,9,29
 1119 0108 40A2FF80 		bne- 0,.L232
 1120              		.loc 1 276 8 is_stmt 1 view .LVU298
 1121              		.loc 1 276 38 is_stmt 0 view .LVU299
 1122 010c 813E0008 		lwz 9,8(30)
 1123 0110 2C090000 		cmpwi 0,9,0
 1124 0114 4182FF9C 		beq+ 0,.L152
 1125              	.L172:
 1126              		.loc 1 276 63 discriminator 3 view .LVU300
 1127 0118 48000001 		bl _ZN10GuiElement8GetStateEv
 1128              	.LVL94:
 1129              		.loc 1 276 38 discriminator 1 view .LVU301
 1130 011c 2C030000 		cmpwi 0,3,0
 1131 0120 40820030 		bne- 0,.L227
 1132              		.loc 1 277 4 is_stmt 1 view .LVU302
 1133              		.loc 1 277 26 is_stmt 0 view .LVU303
 1134 0124 813E00A4 		lwz 9,164(30)
 1135              		.loc 1 277 37 view .LVU304
 1136 0128 38800001 		li 4,1
 1137 012c 80BF0004 		lwz 5,4(31)
 1138              		.loc 1 277 26 view .LVU305
 1139 0130 39290034 		addi 9,9,52
 1140 0134 5529103A 		slwi 9,9,2
 1141 0138 7D3E4A14 		add 9,30,9
 1142 013c 80690004 		lwz 3,4(9)
 1143              		.loc 1 277 37 view .LVU306
 1144 0140 81230000 		lwz 9,0(3)
 1145 0144 81290010 		lwz 9,16(9)
 1146 0148 7D2903A6 		mtctr 9
 1147 014c 4E800421 		bctrl
 1148              	.LVL95:
 1149              	.L227:
 1150              		.loc 1 281 9 view .LVU307
 1151 0150 813F0008 		lwz 9,8(31)
 1152 0154 807C0000 		lwz 3,0(28)
 1153              		.loc 1 279 3 is_stmt 1 view .LVU308
 1154              		.loc 1 281 24 is_stmt 0 view .LVU309
 1155 0158 814900AC 		lwz 10,172(9)
 1156              		.loc 1 279 7 view .LVU310
 1157 015c 837F0004 		lwz 27,4(31)
 1158              	.LVL96:
 1159              		.loc 1 281 3 is_stmt 1 view .LVU311
 1160              		.loc 1 281 24 is_stmt 0 view .LVU312
 1161 0160 2C0A0000 		cmpwi 0,10,0
 1162 0164 4182FF60 		beq+ 0,.L156
 1163              	.L230:
 1164              		.loc 1 281 50 discriminator 1 view .LVU313
 1165 0168 C18900B4 		lfs 12,180(9)
 1166 016c C00900B0 		lfs 0,176(9)
 1167 0170 39210008 		addi 9,1,8
 1168 0174 FD80601E 		fctiwz 12,12
 1169 0178 FC00001E 		fctiwz 0,0
 1170 017c 7D804FAE 		stfiwx 12,0,9
 1171 0180 3921000C 		addi 9,1,12
 1172 0184 7C004FAE 		stfiwx 0,0,9
 1173 0188 80A10008 		lwz 5,8(1)
 1174 018c 8081000C 		lwz 4,12(1)
 1175 0190 48000001 		bl _ZN10GuiElement8IsInsideEii
 1176              	.LVL97:
 1177              		.loc 1 281 24 discriminator 1 view .LVU314
 1178 0194 2C030000 		cmpwi 0,3,0
 1179 0198 40820008 		bne- 0,.L228
 1180              		.loc 1 282 4 is_stmt 1 view .LVU315
 1181              		.loc 1 282 12 is_stmt 0 view .LVU316
 1182 019c 935F0004 		stw 26,4(31)
 1183              	.L228:
 1184              		.loc 1 282 12 view .LVU317
 1185 01a0 807C0000 		lwz 3,0(28)
 1186 01a4 4BFFFF20 		b .L156
 1187              	.LVL98:
 1188              	.L229:
 1189              		.loc 1 275 4 is_stmt 1 view .LVU318
 1190              		.loc 1 275 15 is_stmt 0 view .LVU319
 1191 01a8 807C0000 		lwz 3,0(28)
 1192              		.loc 1 275 28 view .LVU320
 1193 01ac 81230000 		lwz 9,0(3)
 1194 01b0 81290014 		lwz 9,20(9)
 1195 01b4 7D2903A6 		mtctr 9
 1196 01b8 4E800421 		bctrl
 1197              	.LVL99:
 1198 01bc 807C0000 		lwz 3,0(28)
 1199 01c0 4BFFFEF0 		b .L152
 1200              	.LVL100:
 1201              	.L231:
 1202              		.loc 1 275 28 view .LVU321
 1203              	.LBE107:
 1204              	.LBE105:
 1205              		.loc 1 292 2 is_stmt 1 view .LVU322
 1206 01c4 813E0008 		lwz 9,8(30)
 1207 01c8 2C090000 		cmpwi 0,9,0
 1208 01cc 408200D8 		bne- 0,.L233
 1209              	.L226:
 1210 01d0 8001002C 		lwz 0,44(1)
 1211 01d4 83410010 		lwz 26,16(1)
 1212              		.cfi_restore 26
 1213 01d8 83610014 		lwz 27,20(1)
 1214              		.cfi_restore 27
 1215              	.LVL101:
 1216              		.loc 1 292 2 is_stmt 0 view .LVU323
 1217 01dc 7C0803A6 		mtlr 0
 1218              		.cfi_restore 65
 1219 01e0 83810018 		lwz 28,24(1)
 1220              		.cfi_restore 28
 1221 01e4 83A1001C 		lwz 29,28(1)
 1222              		.cfi_restore 29
 1223              	.LVL102:
 1224              		.loc 1 292 2 view .LVU324
 1225 01e8 83C10020 		lwz 30,32(1)
 1226              		.cfi_restore 30
 1227              	.LVL103:
 1228              	.L136:
 1229              		.loc 1 292 2 view .LVU325
 1230              	.LBE92:
 1231              	.LBE91:
 1232              		.loc 1 340 1 view .LVU326
 1233 01ec 83E10024 		lwz 31,36(1)
 1234              	.LVL104:
 1235              		.loc 1 340 1 view .LVU327
 1236 01f0 38210028 		addi 1,1,40
 1237              		.cfi_restore 31
 1238              		.cfi_def_cfa_offset 0
 1239 01f4 4E800020 		blr
 1240              	.LVL105:
 1241              	.L140:
 1242              		.cfi_def_cfa_offset 40
 1243              		.cfi_offset 26, -24
 1244              		.cfi_offset 27, -20
 1245              		.cfi_offset 28, -16
 1246              		.cfi_offset 29, -12
 1247              		.cfi_offset 30, -8
 1248              		.cfi_offset 31, -4
 1249              		.cfi_offset 65, 4
 1250              	.LBB119:
 1251              	.LBB117:
 1252              	.LBB108:
 1253              	.LBB102:
 1254              		.loc 1 248 15 view .LVU328
 1255 01f8 39200000 		li 9,0
 1256              	.LBE102:
 1257              	.LBE108:
 1258              		.loc 1 244 7 view .LVU329
 1259 01fc 83BE00A8 		lwz 29,168(30)
 1260              	.LBB109:
 1261              	.LBB103:
 1262              		.loc 1 248 3 is_stmt 1 view .LVU330
 1263              		.loc 1 248 15 is_stmt 0 view .LVU331
 1264 0200 993E00AC 		stb 9,172(30)
 1265              		.loc 1 249 3 is_stmt 1 view .LVU332
 1266              	.LVL106:
 1267              	.LBB100:
 1268              		.loc 1 249 17 discriminator 1 view .LVU333
 1269 0204 3B7E0084 		addi 27,30,132
 1270              		.loc 1 249 11 is_stmt 0 view .LVU334
 1271 0208 3B800000 		li 28,0
 1272              	.LVL107:
 1273              	.L177:
 1274              		.loc 1 251 4 is_stmt 1 view .LVU335
 1275 020c 2C1D0000 		cmpwi 0,29,0
 1276              		.loc 1 253 19 is_stmt 0 view .LVU336
 1277 0210 807B0050 		lwz 3,80(27)
 1278              		.loc 1 251 4 view .LVU337
 1279 0214 40800140 		bge- 0,.L234
 1280              		.loc 1 266 5 is_stmt 1 view .LVU338
 1281              		.loc 1 266 29 is_stmt 0 view .LVU339
 1282 0218 81230000 		lwz 9,0(3)
 1283 021c 38800000 		li 4,0
 1284 0220 81290008 		lwz 9,8(9)
 1285 0224 7D2903A6 		mtctr 9
 1286 0228 4E800421 		bctrl
 1287              	.LVL108:
 1288              		.loc 1 267 5 is_stmt 1 view .LVU340
 1289              		.loc 1 267 16 is_stmt 0 view .LVU341
 1290 022c 807B0050 		lwz 3,80(27)
 1291              		.loc 1 267 27 view .LVU342
 1292 0230 38A0FFFF 		li 5,-1
 1293 0234 38800004 		li 4,4
 1294 0238 81230000 		lwz 9,0(3)
 1295 023c 81290010 		lwz 9,16(9)
 1296 0240 7D2903A6 		mtctr 9
 1297 0244 4E800421 		bctrl
 1298              	.LVL109:
 1299              		.loc 1 249 3 is_stmt 1 discriminator 2 view .LVU343
 1300              		.loc 1 249 17 is_stmt 0 discriminator 1 view .LVU344
 1301 0248 2C1C0007 		cmpwi 0,28,7
 1302              		.loc 1 249 3 discriminator 2 view .LVU345
 1303 024c 393C0001 		addi 9,28,1
 1304              	.LVL110:
 1305              		.loc 1 249 17 is_stmt 1 discriminator 1 view .LVU346
 1306 0250 41A2FE28 		beq- 0,.L147
 1307 0254 3BBC0035 		addi 29,28,53
 1308 0258 23890008 		subfic 28,9,8
 1309 025c 57BD103A 		slwi 29,29,2
 1310 0260 7FBEEA14 		add 29,30,29
 1311              	.LVL111:
 1312              	.L148:
 1313              		.loc 1 251 4 view .LVU347
 1314              		.loc 1 253 19 is_stmt 0 view .LVU348
 1315 0264 847D0004 		lwzu 3,4(29)
 1316              		.loc 1 266 5 is_stmt 1 view .LVU349
 1317              		.loc 1 266 29 is_stmt 0 view .LVU350
 1318 0268 38800000 		li 4,0
 1319 026c 81230000 		lwz 9,0(3)
 1320 0270 81290008 		lwz 9,8(9)
 1321 0274 7D2903A6 		mtctr 9
 1322 0278 4E800421 		bctrl
 1323              	.LVL112:
 1324              		.loc 1 267 5 is_stmt 1 view .LVU351
 1325              		.loc 1 267 16 is_stmt 0 view .LVU352
 1326 027c 807D0000 		lwz 3,0(29)
 1327              		.loc 1 267 27 view .LVU353
 1328 0280 38A0FFFF 		li 5,-1
 1329 0284 38800004 		li 4,4
 1330 0288 81230000 		lwz 9,0(3)
 1331 028c 81290010 		lwz 9,16(9)
 1332 0290 7D2903A6 		mtctr 9
 1333 0294 4E800421 		bctrl
 1334              	.LVL113:
 1335              		.loc 1 249 3 is_stmt 1 discriminator 2 view .LVU354
 1336              		.loc 1 249 17 discriminator 1 view .LVU355
 1337 0298 379CFFFF 		addic. 28,28,-1
 1338              	.LVL114:
 1339              		.loc 1 249 17 is_stmt 0 discriminator 1 view .LVU356
 1340 029c 4082FFC8 		bne+ 0,.L148
 1341 02a0 4BFFFDD8 		b .L147
 1342              	.LVL115:
 1343              	.L233:
 1344              		.loc 1 249 17 discriminator 1 view .LVU357
 1345              	.LBE100:
 1346              	.LBE103:
 1347              	.LBE109:
 1348              		.loc 1 295 2 is_stmt 1 view .LVU358
 1349              		.loc 1 295 12 is_stmt 0 view .LVU359
 1350 02a4 7FE3FB78 		mr 3,31
 1351 02a8 48000001 		bl _ZN10GuiTrigger4DownEv
 1352              	.LVL116:
 1353              		.loc 1 295 15 discriminator 1 view .LVU360
 1354 02ac 2C030000 		cmpwi 0,3,0
 1355 02b0 4182021C 		beq- 0,.L235
 1356              	.L159:
 1357              		.loc 1 297 3 is_stmt 1 view .LVU361
 1358              		.loc 1 297 41 is_stmt 0 view .LVU362
 1359 02b4 80BE00A4 		lwz 5,164(30)
 1360 02b8 54A6103A 		slwi 6,5,2
 1361 02bc 7CDE3214 		add 6,30,6
 1362              		.loc 1 297 28 view .LVU363
 1363 02c0 814600B4 		lwz 10,180(6)
 1364              	.LVL117:
 1365              	.LBB110:
 1366              	.LBI110:
 1367              		.loc 1 186 5 is_stmt 1 view .LVU364
 1368 02c4 394A0001 		addi 10,10,1
 1369              	.LVL118:
 1370              		.loc 1 186 5 is_stmt 0 view .LVU365
 1371 02c8 1D0A0032 		mulli 8,10,50
 1372              	.LBB111:
 1373              		.loc 1 190 2 view .LVU366
 1374 02cc 2C0A0000 		cmpwi 0,10,0
 1375 02d0 39080004 		addi 8,8,4
 1376              		.loc 1 188 2 is_stmt 1 view .LVU367
 1377              	.LVL119:
 1378              		.loc 1 190 2 view .LVU368
 1379 02d4 41800030 		blt- 0,.L165
 1380 02d8 80FE00B0 		lwz 7,176(30)
 1381 02dc 48000018 		b .L164
 1382              	.LVL120:
 1383              	.L236:
 1384              		.loc 1 193 37 is_stmt 0 view .LVU369
 1385 02e0 7D2740AE 		lbzx 9,7,8
 1386              		.loc 1 193 2 view .LVU370
 1387 02e4 39080032 		addi 8,8,50
 1388 02e8 5529063E 		rlwinm 9,9,0,0xff
 1389 02ec 2C090000 		cmpwi 0,9,0
 1390 02f0 40820180 		bne- 0,.L163
 1391              	.LVL121:
 1392              	.L164:
 1393              		.loc 1 193 2 is_stmt 1 view .LVU371
 1394              		.loc 1 188 2 view .LVU372
 1395              		.loc 1 190 18 is_stmt 0 discriminator 1 view .LVU373
 1396 02f4 81270000 		lwz 9,0(7)
 1397 02f8 7C0A4800 		cmpw 0,10,9
 1398              		.loc 1 188 6 view .LVU374
 1399 02fc 394A0001 		addi 10,10,1
 1400              	.LVL122:
 1401              		.loc 1 190 2 is_stmt 1 view .LVU375
 1402              		.loc 1 190 18 is_stmt 0 discriminator 1 view .LVU376
 1403 0300 4180FFE0 		blt+ 0,.L236
 1404              	.LVL123:
 1405              	.L165:
 1406              		.loc 1 190 18 discriminator 1 view .LVU377
 1407              	.LBE111:
 1408              	.LBE110:
 1409              		.loc 1 314 3 is_stmt 1 view .LVU378
 1410 0304 807E0138 		lwz 3,312(30)
 1411              		.loc 1 314 27 is_stmt 0 view .LVU379
 1412 0308 81230000 		lwz 9,0(3)
 1413 030c 81290014 		lwz 9,20(9)
 1414 0310 7D2903A6 		mtctr 9
 1415 0314 4E800421 		bctrl
 1416              	.LVL124:
 1417              	.L168:
 1418              		.loc 1 338 2 is_stmt 1 view .LVU380
 1419              		.loc 1 338 5 is_stmt 0 view .LVU381
 1420 0318 813E0080 		lwz 9,128(30)
 1421              		.loc 1 338 2 view .LVU382
 1422 031c 2C090000 		cmpwi 0,9,0
 1423 0320 41A2FEB0 		beq- 0,.L226
 1424              		.loc 1 339 3 is_stmt 1 view .LVU383
 1425              		.loc 1 339 11 is_stmt 0 view .LVU384
 1426 0324 8001002C 		lwz 0,44(1)
 1427 0328 7FC3F378 		mr 3,30
 1428 032c 83410010 		lwz 26,16(1)
 1429              		.cfi_remember_state
 1430              		.cfi_restore 26
 1431 0330 7D2903A6 		mtctr 9
 1432 0334 83610014 		lwz 27,20(1)
 1433              		.cfi_restore 27
 1434              	.LVL125:
 1435              		.loc 1 339 11 view .LVU385
 1436 0338 7C0803A6 		mtlr 0
 1437              		.cfi_restore 65
 1438 033c 83810018 		lwz 28,24(1)
 1439              		.cfi_restore 28
 1440 0340 83A1001C 		lwz 29,28(1)
 1441              		.cfi_restore 29
 1442              	.LVL126:
 1443              		.loc 1 339 11 view .LVU386
 1444 0344 83C10020 		lwz 30,32(1)
 1445              		.cfi_restore 30
 1446              	.LVL127:
 1447              		.loc 1 339 11 view .LVU387
 1448              	.LBE117:
 1449              	.LBE119:
 1450              		.loc 1 340 1 view .LVU388
 1451 0348 83E10024 		lwz 31,36(1)
 1452              	.LVL128:
 1453              		.loc 1 340 1 view .LVU389
 1454 034c 38210028 		addi 1,1,40
 1455              		.cfi_restore 31
 1456              		.cfi_def_cfa_offset 0
 1457              	.LBB120:
 1458              	.LBB118:
 1459              		.loc 1 339 11 view .LVU390
 1460 0350 4E800420 		bctr
 1461              	.LVL129:
 1462              	.L234:
 1463              		.cfi_restore_state
 1464              	.LBB112:
 1465              	.LBB104:
 1466              	.LBB101:
 1467              		.loc 1 253 5 is_stmt 1 view .LVU391
 1468              		.loc 1 253 30 is_stmt 0 view .LVU392
 1469 0354 48000001 		bl _ZN10GuiElement8GetStateEv
 1470              	.LVL130:
 1471              		.loc 1 253 5 discriminator 1 view .LVU393
 1472 0358 2C030004 		cmpwi 0,3,4
 1473 035c 40A20038 		bne+ 0,.L143
 1474              		.loc 1 255 6 is_stmt 1 view .LVU394
 1475              		.loc 1 255 17 is_stmt 0 view .LVU395
 1476 0360 807B0050 		lwz 3,80(27)
 1477              		.loc 1 255 30 view .LVU396
 1478 0364 38800001 		li 4,1
 1479 0368 81230000 		lwz 9,0(3)
 1480 036c 81290008 		lwz 9,8(9)
 1481 0370 7D2903A6 		mtctr 9
 1482 0374 4E800421 		bctrl
 1483              	.LVL131:
 1484              		.loc 1 256 6 is_stmt 1 view .LVU397
 1485              		.loc 1 256 17 is_stmt 0 view .LVU398
 1486 0378 807B0050 		lwz 3,80(27)
 1487              		.loc 1 256 28 view .LVU399
 1488 037c 38A0FFFF 		li 5,-1
 1489 0380 38800000 		li 4,0
 1490 0384 81230000 		lwz 9,0(3)
 1491 0388 81290010 		lwz 9,16(9)
 1492 038c 7D2903A6 		mtctr 9
 1493 0390 4E800421 		bctrl
 1494              	.LVL132:
 1495              	.L143:
 1496              		.loc 1 259 5 is_stmt 1 view .LVU400
 1497 0394 1F5D0032 		mulli 26,29,50
 1498              		.loc 1 259 45 is_stmt 0 view .LVU401
 1499 0398 809E00B0 		lwz 4,176(30)
 1500              		.loc 1 259 26 view .LVU402
 1501 039c 807B0070 		lwz 3,112(27)
 1502              		.loc 1 259 45 view .LVU403
 1503 03a0 393A0004 		addi 9,26,4
 1504              		.loc 1 259 26 view .LVU404
 1505 03a4 7C844A14 		add 4,4,9
 1506 03a8 48000001 		bl _ZN7GuiText7SetTextEPKc
 1507              	.LVL133:
 1508              		.loc 1 260 5 is_stmt 1 view .LVU405
 1509              		.loc 1 260 46 is_stmt 0 view .LVU406
 1510 03ac 809E00B0 		lwz 4,176(30)
 1511 03b0 393A05E0 		addi 9,26,1504
 1512              		.loc 1 260 26 view .LVU407
 1513 03b4 807B0000 		lwz 3,0(27)
 1514 03b8 7C844A14 		add 4,4,9
 1515 03bc 48000001 		bl _ZN7GuiText7SetTextEPKc
 1516              	.LVL134:
 1517              		.loc 1 261 5 is_stmt 1 view .LVU408
 1518              	.LBB96:
 1519              	.LBB97:
 1520              		.loc 1 190 33 is_stmt 0 discriminator 1 view .LVU409
 1521 03c0 815E00B0 		lwz 10,176(30)
 1522              	.LBE97:
 1523              	.LBE96:
 1524              		.loc 1 261 20 view .LVU410
 1525 03c4 93BB0030 		stw 29,48(27)
 1526              		.loc 1 262 5 is_stmt 1 view .LVU411
 1527              	.LVL135:
 1528              	.LBB99:
 1529              	.LBI96:
 1530              		.loc 1 186 5 view .LVU412
 1531 03c8 7FA9E8F8 		not 9,29
 1532              	.LBB98:
 1533              		.loc 1 190 42 is_stmt 0 discriminator 1 view .LVU413
 1534 03cc 810A0000 		lwz 8,0(10)
 1535 03d0 7D4AD214 		add 10,10,26
 1536 03d4 7D294214 		add 9,9,8
 1537 03d8 71270001 		andi. 7,9,0x1
 1538 03dc 41820020 		beq- 0,.L199
 1539              		.loc 1 188 2 is_stmt 1 view .LVU414
 1540              	.LVL136:
 1541              		.loc 1 188 6 is_stmt 0 view .LVU415
 1542 03e0 3BBD0001 		addi 29,29,1
 1543              	.LVL137:
 1544              		.loc 1 190 2 is_stmt 1 view .LVU416
 1545              		.loc 1 190 18 is_stmt 0 discriminator 1 view .LVU417
 1546 03e4 7C1D4000 		cmpw 0,29,8
 1547 03e8 40800068 		bge- 0,.L179
 1548              		.loc 1 193 2 is_stmt 1 view .LVU418
 1549 03ec 88EA0036 		lbz 7,54(10)
 1550 03f0 394A0032 		addi 10,10,50
 1551 03f4 2C070000 		cmpwi 0,7,0
 1552 03f8 4082005C 		bne- 0,.L144
 1553              	.LVL138:
 1554              	.L199:
 1555              		.loc 1 193 2 is_stmt 0 view .LVU419
 1556 03fc 38FD0001 		addi 7,29,1
 1557 0400 5529F87E 		srwi 9,9,1
 1558 0404 7C074000 		cmpw 0,7,8
 1559 0408 39290001 		addi 9,9,1
 1560 040c 4181005C 		bgt- 0,.L204
 1561 0410 3CE08000 		lis 7,0x8000
 1562 0414 7C083800 		cmpw 0,8,7
 1563 0418 40A20028 		bne+ 0,.L145
 1564 041c 4800004C 		b .L204
 1565              	.LVL139:
 1566              	.L237:
 1567              		.loc 1 193 2 view .LVU420
 1568 0420 890A0036 		lbz 8,54(10)
 1569 0424 394A0064 		addi 10,10,100
 1570 0428 2C080000 		cmpwi 0,8,0
 1571 042c 40820028 		bne- 0,.L144
 1572 0430 890A0004 		lbz 8,4(10)
 1573              		.loc 1 188 6 view .LVU421
 1574 0434 3BBD0001 		addi 29,29,1
 1575              		.loc 1 190 2 is_stmt 1 view .LVU422
 1576              		.loc 1 193 2 view .LVU423
 1577 0438 2C080000 		cmpwi 0,8,0
 1578 043c 40820018 		bne- 0,.L144
 1579              	.LVL140:
 1580              	.L145:
 1581              		.loc 1 188 2 view .LVU424
 1582              		.loc 1 193 2 view .LVU425
 1583              		.loc 1 188 2 view .LVU426
 1584              		.loc 1 190 18 is_stmt 0 discriminator 1 view .LVU427
 1585 0440 2C090001 		cmpwi 0,9,1
 1586              		.loc 1 188 6 view .LVU428
 1587 0444 3BBD0001 		addi 29,29,1
 1588              	.LVL141:
 1589              		.loc 1 190 2 is_stmt 1 view .LVU429
 1590              		.loc 1 190 18 is_stmt 0 discriminator 1 view .LVU430
 1591 0448 3929FFFF 		addi 9,9,-1
 1592 044c 4082FFD4 		bne+ 0,.L237
 1593              	.L179:
 1594              	.LVL142:
 1595              		.loc 1 191 11 view .LVU431
 1596 0450 3BA0FFFF 		li 29,-1
 1597              	.LVL143:
 1598              	.L144:
 1599              		.loc 1 191 11 view .LVU432
 1600              	.LBE98:
 1601              	.LBE99:
 1602              		.loc 1 249 3 is_stmt 1 discriminator 2 view .LVU433
 1603 0454 3B9C0001 		addi 28,28,1
 1604              	.LVL144:
 1605              		.loc 1 249 17 discriminator 1 view .LVU434
 1606 0458 2C1C0008 		cmpwi 0,28,8
 1607 045c 41A2FC1C 		beq- 0,.L147
 1608 0460 3B7B0004 		addi 27,27,4
 1609 0464 4BFFFDA8 		b .L177
 1610              	.LVL145:
 1611              	.L204:
 1612              		.loc 1 249 17 is_stmt 0 discriminator 1 view .LVU435
 1613 0468 39200001 		li 9,1
 1614 046c 4BFFFFD4 		b .L145
 1615              	.LVL146:
 1616              	.L163:
 1617              		.loc 1 249 17 discriminator 1 view .LVU436
 1618              	.LBE101:
 1619              	.LBE104:
 1620              	.LBE112:
 1621              		.loc 1 299 3 is_stmt 1 view .LVU437
 1622              		.loc 1 301 4 view .LVU438
 1623 0470 2C050007 		cmpwi 0,5,7
 1624 0474 408200F0 		bne- 0,.L238
 1625              		.loc 1 304 5 view .LVU439
 1626              		.loc 1 304 36 is_stmt 0 view .LVU440
 1627 0478 815E00A8 		lwz 10,168(30)
 1628              	.LVL147:
 1629              	.LBB113:
 1630              	.LBI113:
 1631              		.loc 1 186 5 is_stmt 1 view .LVU441
 1632 047c 394A0001 		addi 10,10,1
 1633              	.LVL148:
 1634              		.loc 1 186 5 is_stmt 0 view .LVU442
 1635 0480 1D0A0032 		mulli 8,10,50
 1636              	.LBB114:
 1637              		.loc 1 190 2 view .LVU443
 1638 0484 2C0A0000 		cmpwi 0,10,0
 1639 0488 39080004 		addi 8,8,4
 1640              		.loc 1 188 2 is_stmt 1 view .LVU444
 1641              	.LVL149:
 1642              		.loc 1 190 2 view .LVU445
 1643 048c 40A00020 		bge+ 0,.L167
 1644 0490 48000028 		b .L181
 1645              	.LVL150:
 1646              	.L239:
 1647              		.loc 1 193 37 is_stmt 0 view .LVU446
 1648 0494 7D2740AE 		lbzx 9,7,8
 1649              		.loc 1 193 2 view .LVU447
 1650 0498 39080032 		addi 8,8,50
 1651 049c 5529063E 		rlwinm 9,9,0,0xff
 1652 04a0 2C090000 		cmpwi 0,9,0
 1653 04a4 40820018 		bne- 0,.L166
 1654              		.loc 1 188 6 view .LVU448
 1655 04a8 394A0001 		addi 10,10,1
 1656              	.LVL151:
 1657              		.loc 1 190 2 is_stmt 1 view .LVU449
 1658              	.L167:
 1659              		.loc 1 193 2 view .LVU450
 1660              		.loc 1 188 2 view .LVU451
 1661              		.loc 1 190 18 is_stmt 0 discriminator 1 view .LVU452
 1662 04ac 81270000 		lwz 9,0(7)
 1663 04b0 7C095000 		cmpw 0,9,10
 1664 04b4 4181FFE0 		bgt+ 0,.L239
 1665              	.L181:
 1666              		.loc 1 191 11 view .LVU453
 1667 04b8 3940FFFF 		li 10,-1
 1668              	.L166:
 1669              	.LVL152:
 1670              		.loc 1 191 11 view .LVU454
 1671              	.LBE114:
 1672              	.LBE113:
 1673              		.loc 1 305 17 view .LVU455
 1674 04bc 39200001 		li 9,1
 1675              		.loc 1 304 16 discriminator 1 view .LVU456
 1676 04c0 915E00A8 		stw 10,168(30)
 1677              		.loc 1 305 5 is_stmt 1 view .LVU457
 1678              		.loc 1 305 17 is_stmt 0 view .LVU458
 1679 04c4 993E00AC 		stb 9,172(30)
 1680 04c8 4BFFFE3C 		b .L165
 1681              	.LVL153:
 1682              	.L235:
 1683              		.loc 1 295 40 discriminator 2 view .LVU459
 1684 04cc 807E0138 		lwz 3,312(30)
 1685 04d0 48000001 		bl _ZN10GuiElement8GetStateEv
 1686              	.LVL154:
 1687              		.loc 1 295 15 discriminator 1 view .LVU460
 1688 04d4 2C030002 		cmpwi 0,3,2
 1689 04d8 41A2FDDC 		beq- 0,.L159
 1690              		.loc 1 316 7 is_stmt 1 view .LVU461
 1691              		.loc 1 316 15 is_stmt 0 view .LVU462
 1692 04dc 7FE3FB78 		mr 3,31
 1693 04e0 48000001 		bl _ZN10GuiTrigger2UpEv
 1694              	.LVL155:
 1695              		.loc 1 316 18 discriminator 1 view .LVU463
 1696 04e4 2C030000 		cmpwi 0,3,0
 1697 04e8 418200EC 		beq- 0,.L160
 1698              	.L169:
 1699              		.loc 1 318 3 is_stmt 1 view .LVU464
 1700              		.loc 1 318 41 is_stmt 0 view .LVU465
 1701 04ec 809E00A4 		lwz 4,164(30)
 1702 04f0 5485103A 		slwi 5,4,2
 1703 04f4 7CBE2A14 		add 5,30,5
 1704              		.loc 1 318 28 view .LVU466
 1705 04f8 812500B4 		lwz 9,180(5)
 1706              	.LVL156:
 1707              	.LBB115:
 1708              	.LBI115:
 1709              		.loc 1 186 5 is_stmt 1 view .LVU467
 1710 04fc 3909FFFF 		addi 8,9,-1
 1711 0500 39290001 		addi 9,9,1
 1712              	.LVL157:
 1713              		.loc 1 186 5 is_stmt 0 view .LVU468
 1714 0504 2C08FFFF 		cmpwi 0,8,-1
 1715 0508 1CE80032 		mulli 7,8,50
 1716 050c 38E70004 		addi 7,7,4
 1717 0510 40A00030 		bge+ 0,.L161
 1718 0514 480000D4 		b .L240
 1719              	.LVL158:
 1720              	.L241:
 1721              	.LBB116:
 1722              		.loc 1 190 33 discriminator 1 view .LVU469
 1723 0518 815E00B0 		lwz 10,176(30)
 1724              		.loc 1 190 18 discriminator 1 view .LVU470
 1725 051c 80CA0000 		lwz 6,0(10)
 1726 0520 7C083000 		cmpw 0,8,6
 1727 0524 40800028 		bge- 0,.L170
 1728              		.loc 1 193 37 view .LVU471
 1729 0528 7D4A38AE 		lbzx 10,10,7
 1730              		.loc 1 193 2 view .LVU472
 1731 052c 38E7FFCE 		addi 7,7,-50
 1732 0530 554A063E 		rlwinm 10,10,0,0xff
 1733 0534 2C0A0000 		cmpwi 0,10,0
 1734 0538 408200B8 		bne- 0,.L171
 1735 053c 3908FFFF 		addi 8,8,-1
 1736              	.LVL159:
 1737              	.L161:
 1738              		.loc 1 188 2 is_stmt 1 view .LVU473
 1739              		.loc 1 190 2 view .LVU474
 1740              		.loc 1 193 2 view .LVU475
 1741              		.loc 1 190 2 is_stmt 0 view .LVU476
 1742 0540 2C090001 		cmpwi 0,9,1
 1743 0544 3929FFFF 		addi 9,9,-1
 1744 0548 4082FFD0 		bne+ 0,.L241
 1745              	.LVL160:
 1746              	.L170:
 1747              		.loc 1 190 2 view .LVU477
 1748              	.LBE116:
 1749              	.LBE115:
 1750              		.loc 1 335 3 is_stmt 1 view .LVU478
 1751 054c 807E0134 		lwz 3,308(30)
 1752              		.loc 1 335 25 is_stmt 0 view .LVU479
 1753 0550 81230000 		lwz 9,0(3)
 1754 0554 81290014 		lwz 9,20(9)
 1755 0558 7D2903A6 		mtctr 9
 1756 055c 4E800421 		bctrl
 1757              	.LVL161:
 1758 0560 4BFFFDB8 		b .L168
 1759              	.LVL162:
 1760              	.L238:
 1761              		.loc 1 307 9 is_stmt 1 view .LVU480
 1762              		.loc 1 307 48 is_stmt 0 view .LVU481
 1763 0564 806600D8 		lwz 3,216(6)
 1764 0568 48000001 		bl _ZN10GuiElement9IsVisibleEv
 1765              	.LVL163:
 1766              		.loc 1 307 9 discriminator 1 view .LVU482
 1767 056c 2C030000 		cmpwi 0,3,0
 1768 0570 41A2FD94 		beq- 0,.L165
 1769              		.loc 1 309 5 is_stmt 1 view .LVU483
 1770              		.loc 1 309 27 is_stmt 0 view .LVU484
 1771 0574 813E00A4 		lwz 9,164(30)
 1772 0578 39290034 		addi 9,9,52
 1773 057c 5529103A 		slwi 9,9,2
 1774 0580 7D3E4A14 		add 9,30,9
 1775 0584 80690004 		lwz 3,4(9)
 1776              		.loc 1 309 40 view .LVU485
 1777 0588 81230000 		lwz 9,0(3)
 1778 058c 81290014 		lwz 9,20(9)
 1779 0590 7D2903A6 		mtctr 9
 1780 0594 4E800421 		bctrl
 1781              	.LVL164:
 1782              		.loc 1 310 5 is_stmt 1 view .LVU486
 1783              		.loc 1 310 29 is_stmt 0 view .LVU487
 1784 0598 813E00A4 		lwz 9,164(30)
 1785              		.loc 1 310 40 view .LVU488
 1786 059c 80BF0004 		lwz 5,4(31)
 1787 05a0 38800001 		li 4,1
 1788              		.loc 1 310 29 view .LVU489
 1789 05a4 39290035 		addi 9,9,53
 1790 05a8 5529103A 		slwi 9,9,2
 1791 05ac 7D3E4A14 		add 9,30,9
 1792 05b0 80690004 		lwz 3,4(9)
 1793              		.loc 1 310 40 view .LVU490
 1794 05b4 81230000 		lwz 9,0(3)
 1795 05b8 81290010 		lwz 9,16(9)
 1796 05bc 7D2903A6 		mtctr 9
 1797 05c0 4E800421 		bctrl
 1798              	.LVL165:
 1799              		.loc 1 311 5 is_stmt 1 view .LVU491
 1800              		.loc 1 311 17 is_stmt 0 view .LVU492
 1801 05c4 813E00A4 		lwz 9,164(30)
 1802 05c8 39290001 		addi 9,9,1
 1803 05cc 913E00A4 		stw 9,164(30)
 1804 05d0 4BFFFD34 		b .L165
 1805              	.LVL166:
 1806              	.L160:
 1807              		.loc 1 316 41 discriminator 2 view .LVU493
 1808 05d4 807E0134 		lwz 3,308(30)
 1809 05d8 48000001 		bl _ZN10GuiElement8GetStateEv
 1810              	.LVL167:
 1811              		.loc 1 316 18 discriminator 1 view .LVU494
 1812 05dc 2C030002 		cmpwi 0,3,2
 1813 05e0 4082FD38 		bne+ 0,.L168
 1814 05e4 4BFFFF08 		b .L169
 1815              	.LVL168:
 1816              	.L240:
 1817              		.loc 1 316 18 discriminator 1 view .LVU495
 1818 05e8 39200001 		li 9,1
 1819 05ec 4BFFFF54 		b .L161
 1820              	.LVL169:
 1821              	.L171:
 1822              		.loc 1 320 3 is_stmt 1 view .LVU496
 1823              		.loc 1 322 4 view .LVU497
 1824 05f0 2C040000 		cmpwi 0,4,0
 1825 05f4 40820014 		bne- 0,.L242
 1826              		.loc 1 325 5 view .LVU498
 1827              		.loc 1 326 17 is_stmt 0 view .LVU499
 1828 05f8 39200001 		li 9,1
 1829              		.loc 1 325 16 view .LVU500
 1830 05fc 911E00A8 		stw 8,168(30)
 1831              		.loc 1 326 5 is_stmt 1 view .LVU501
 1832              		.loc 1 326 17 is_stmt 0 view .LVU502
 1833 0600 993E00AC 		stb 9,172(30)
 1834 0604 4BFFFF48 		b .L170
 1835              	.L242:
 1836              		.loc 1 330 5 is_stmt 1 view .LVU503
 1837              		.loc 1 330 27 is_stmt 0 view .LVU504
 1838 0608 806500D4 		lwz 3,212(5)
 1839              		.loc 1 330 40 view .LVU505
 1840 060c 81230000 		lwz 9,0(3)
 1841 0610 81290014 		lwz 9,20(9)
 1842 0614 7D2903A6 		mtctr 9
 1843 0618 4E800421 		bctrl
 1844              	.LVL170:
 1845              		.loc 1 331 5 is_stmt 1 view .LVU506
 1846              		.loc 1 331 29 is_stmt 0 view .LVU507
 1847 061c 813E00A4 		lwz 9,164(30)
 1848              		.loc 1 331 40 view .LVU508
 1849 0620 80BF0004 		lwz 5,4(31)
 1850 0624 38800001 		li 4,1
 1851              		.loc 1 331 29 view .LVU509
 1852 0628 39290033 		addi 9,9,51
 1853 062c 5529103A 		slwi 9,9,2
 1854 0630 7D3E4A14 		add 9,30,9
 1855 0634 80690004 		lwz 3,4(9)
 1856              		.loc 1 331 40 view .LVU510
 1857 0638 81230000 		lwz 9,0(3)
 1858 063c 81290010 		lwz 9,16(9)
 1859 0640 7D2903A6 		mtctr 9
 1860 0644 4E800421 		bctrl
 1861              	.LVL171:
 1862              		.loc 1 332 5 is_stmt 1 view .LVU511
 1863              		.loc 1 332 17 is_stmt 0 view .LVU512
 1864 0648 813E00A4 		lwz 9,164(30)
 1865 064c 3929FFFF 		addi 9,9,-1
 1866 0650 913E00A4 		stw 9,164(30)
 1867 0654 4BFFFEF8 		b .L170
 1868              	.LBE118:
 1869              	.LBE120:
 1870              		.cfi_endproc
 1871              	.LFE2346:
 1872              		.size	_ZN16GuiOptionBrowser6UpdateEP10GuiTrigger, .-_ZN16GuiOptionBrowser6UpdateEP10GuiTrigger
 1873              		.section	.text._ZN16GuiOptionBrowser15SetCol2PositionEi,"ax",@progbits
 1874              		.align 2
 1875              		.globl _ZN16GuiOptionBrowser15SetCol2PositionEi
 1876              		.type	_ZN16GuiOptionBrowser15SetCol2PositionEi, @function
 1877              	_ZN16GuiOptionBrowser15SetCol2PositionEi:
 1878              	.LVL172:
 1879              	.LFB2339:
 1880              		.loc 1 135 1 is_stmt 1 view -0
 1881              		.cfi_startproc
 1882              		.loc 1 136 2 view .LVU514
 1883              	.LBB121:
 1884              		.loc 1 136 16 discriminator 1 view .LVU515
 1885              	.LBE121:
 1886              		.loc 1 135 1 is_stmt 0 view .LVU516
 1887 0000 9421FFE8 		stwu 1,-24(1)
 1888              		.cfi_def_cfa_offset 24
 1889 0004 7C0802A6 		mflr 0
 1890 0008 9001001C 		stw 0,28(1)
 1891 000c 93A1000C 		stw 29,12(1)
 1892              		.cfi_offset 65, 4
 1893              		.cfi_offset 29, -12
 1894 0010 7C9D2378 		mr 29,4
 1895 0014 93C10010 		stw 30,16(1)
 1896              		.cfi_offset 30, -8
 1897 0018 3BC00008 		li 30,8
 1898 001c 93E10014 		stw 31,20(1)
 1899              		.cfi_offset 31, -4
 1900 0020 3BE30080 		addi 31,3,128
 1901              	.LVL173:
 1902              	.L244:
 1903              	.LBB122:
 1904              		.loc 1 137 3 is_stmt 1 view .LVU517
 1905              		.loc 1 137 28 is_stmt 0 view .LVU518
 1906 0024 807F0004 		lwz 3,4(31)
 1907 0028 38A00000 		li 5,0
 1908 002c 7FA4EB78 		mr 4,29
 1909              		.loc 1 136 16 discriminator 1 view .LVU519
 1910 0030 3BDEFFFF 		addi 30,30,-1
 1911              	.LVL174:
 1912              		.loc 1 137 28 view .LVU520
 1913 0034 48000001 		bl _ZN10GuiElement11SetPositionEii
 1914              	.LVL175:
 1915              		.loc 1 136 2 is_stmt 1 discriminator 3 view .LVU521
 1916              		.loc 1 136 16 discriminator 1 view .LVU522
 1917              		.loc 1 137 3 view .LVU523
 1918              		.loc 1 137 28 is_stmt 0 view .LVU524
 1919 0038 807F0008 		lwz 3,8(31)
 1920 003c 38A00000 		li 5,0
 1921 0040 7FA4EB78 		mr 4,29
 1922 0044 48000001 		bl _ZN10GuiElement11SetPositionEii
 1923              	.LVL176:
 1924              		.loc 1 136 2 is_stmt 1 discriminator 3 view .LVU525
 1925              		.loc 1 136 16 discriminator 1 view .LVU526
 1926 0048 37DEFFFF 		addic. 30,30,-1
 1927              		.loc 1 137 14 is_stmt 0 view .LVU527
 1928 004c 3BFF0008 		addi 31,31,8
 1929              		.loc 1 136 16 discriminator 1 view .LVU528
 1930 0050 4082FFD4 		bne+ 0,.L244
 1931              	.LBE122:
 1932              		.loc 1 138 1 view .LVU529
 1933 0054 8001001C 		lwz 0,28(1)
 1934 0058 83A1000C 		lwz 29,12(1)
 1935              	.LVL177:
 1936              		.loc 1 138 1 view .LVU530
 1937 005c 83C10010 		lwz 30,16(1)
 1938 0060 7C0803A6 		mtlr 0
 1939              		.cfi_restore 65
 1940 0064 83E10014 		lwz 31,20(1)
 1941 0068 38210018 		addi 1,1,24
 1942              		.cfi_restore 31
 1943              		.cfi_restore 30
 1944              		.cfi_restore 29
 1945              		.cfi_def_cfa_offset 0
 1946 006c 4E800020 		blr
 1947              		.cfi_endproc
 1948              	.LFE2339:
 1949              		.size	_ZN16GuiOptionBrowser15SetCol2PositionEi, .-_ZN16GuiOptionBrowser15SetCol2PositionEi
 1950              		.section	.text._ZN16GuiOptionBrowser16GetClickedOptionEv,"ax",@progbits
 1951              		.align 2
 1952              		.globl _ZN16GuiOptionBrowser16GetClickedOptionEv
 1953              		.type	_ZN16GuiOptionBrowser16GetClickedOptionEv, @function
 1954              	_ZN16GuiOptionBrowser16GetClickedOptionEv:
 1955              	.LVL178:
 1956              	.LFB2342:
 1957              		.loc 1 166 1 is_stmt 1 view -0
 1958              		.cfi_startproc
 1959              		.loc 1 167 2 view .LVU532
 1960              		.loc 1 168 2 view .LVU533
 1961              	.LBB123:
 1962              		.loc 1 168 16 discriminator 1 view .LVU534
 1963              	.LBE123:
 1964              		.loc 1 166 1 is_stmt 0 view .LVU535
 1965 0000 9421FFE8 		stwu 1,-24(1)
 1966              		.cfi_def_cfa_offset 24
 1967 0004 7C0802A6 		mflr 0
 1968 0008 9001001C 		stw 0,28(1)
 1969 000c 93A1000C 		stw 29,12(1)
 1970 0010 93810008 		stw 28,8(1)
 1971              		.cfi_offset 65, 4
 1972              		.cfi_offset 29, -12
 1973              		.cfi_offset 28, -16
 1974 0014 7C7C1B78 		mr 28,3
 1975 0018 93C10010 		stw 30,16(1)
 1976              		.cfi_offset 30, -8
 1977 001c 3BC300D0 		addi 30,3,208
 1978 0020 93E10014 		stw 31,20(1)
 1979              		.cfi_offset 31, -4
 1980              	.LBB124:
 1981              		.loc 1 168 10 view .LVU536
 1982 0024 3BE00000 		li 31,0
 1983              	.LVL179:
 1984              	.L251:
 1985              		.loc 1 170 3 is_stmt 1 view .LVU537
 1986              		.loc 1 170 28 is_stmt 0 view .LVU538
 1987 0028 807E0004 		lwz 3,4(30)
 1988              		.loc 1 170 17 view .LVU539
 1989 002c 3BBE0004 		addi 29,30,4
 1990 0030 3BDD0004 		addi 30,29,4
 1991              		.loc 1 170 28 view .LVU540
 1992 0034 48000001 		bl _ZN10GuiElement8GetStateEv
 1993              	.LVL180:
 1994              		.loc 1 168 2 is_stmt 1 discriminator 2 view .LVU541
 1995              		.loc 1 170 3 is_stmt 0 discriminator 1 view .LVU542
 1996 0038 2C030002 		cmpwi 0,3,2
 1997 003c 41820048 		beq- 0,.L255
 1998              		.loc 1 170 28 view .LVU543
 1999 0040 807D0004 		lwz 3,4(29)
 2000              		.loc 1 168 2 discriminator 2 view .LVU544
 2001 0044 3BFF0001 		addi 31,31,1
 2002              	.LVL181:
 2003              		.loc 1 168 16 is_stmt 1 discriminator 1 view .LVU545
 2004              		.loc 1 170 3 view .LVU546
 2005              		.loc 1 170 28 is_stmt 0 view .LVU547
 2006 0048 48000001 		bl _ZN10GuiElement8GetStateEv
 2007              	.LVL182:
 2008              		.loc 1 168 2 is_stmt 1 discriminator 2 view .LVU548
 2009              		.loc 1 170 3 is_stmt 0 discriminator 1 view .LVU549
 2010 004c 2C030002 		cmpwi 0,3,2
 2011 0050 41820034 		beq- 0,.L255
 2012              		.loc 1 168 2 discriminator 2 view .LVU550
 2013 0054 3BFF0001 		addi 31,31,1
 2014              	.LVL183:
 2015              		.loc 1 168 16 is_stmt 1 discriminator 1 view .LVU551
 2016 0058 2C1F0008 		cmpwi 0,31,8
 2017 005c 4082FFCC 		bne+ 0,.L251
 2018              	.LBE124:
 2019              		.loc 1 178 1 is_stmt 0 view .LVU552
 2020 0060 8001001C 		lwz 0,28(1)
 2021              		.loc 1 167 6 view .LVU553
 2022 0064 3860FFFF 		li 3,-1
 2023              		.loc 1 177 2 is_stmt 1 view .LVU554
 2024              		.loc 1 178 1 is_stmt 0 view .LVU555
 2025 0068 83810008 		lwz 28,8(1)
 2026              	.LVL184:
 2027              		.loc 1 178 1 view .LVU556
 2028 006c 83A1000C 		lwz 29,12(1)
 2029 0070 7C0803A6 		mtlr 0
 2030              		.cfi_remember_state
 2031              		.cfi_restore 65
 2032 0074 83C10010 		lwz 30,16(1)
 2033 0078 83E10014 		lwz 31,20(1)
 2034              	.LVL185:
 2035              		.loc 1 178 1 view .LVU557
 2036 007c 38210018 		addi 1,1,24
 2037              		.cfi_restore 31
 2038              		.cfi_restore 30
 2039              		.cfi_restore 29
 2040              		.cfi_restore 28
 2041              		.cfi_def_cfa_offset 0
 2042 0080 4E800020 		blr
 2043              	.LVL186:
 2044              	.L255:
 2045              		.cfi_restore_state
 2046              	.LBB125:
 2047              		.loc 1 172 4 is_stmt 1 view .LVU558
 2048 0084 57FF103A 		slwi 31,31,2
 2049              		.loc 1 172 26 is_stmt 0 view .LVU559
 2050 0088 38A0FFFF 		li 5,-1
 2051 008c 7F9CFA14 		add 28,28,31
 2052              	.LVL187:
 2053              		.loc 1 172 26 view .LVU560
 2054 0090 38800001 		li 4,1
 2055              		.loc 1 172 15 view .LVU561
 2056 0094 807C00D4 		lwz 3,212(28)
 2057              		.loc 1 172 26 view .LVU562
 2058 0098 81230000 		lwz 9,0(3)
 2059 009c 81290010 		lwz 9,16(9)
 2060 00a0 7D2903A6 		mtctr 9
 2061 00a4 4E800421 		bctrl
 2062              	.LVL188:
 2063              		.loc 1 173 4 is_stmt 1 view .LVU563
 2064              	.LBE125:
 2065              		.loc 1 178 1 is_stmt 0 view .LVU564
 2066 00a8 8001001C 		lwz 0,28(1)
 2067              	.LBB126:
 2068              		.loc 1 173 10 view .LVU565
 2069 00ac 807C00B4 		lwz 3,180(28)
 2070              	.LVL189:
 2071              		.loc 1 174 4 is_stmt 1 view .LVU566
 2072              	.LBE126:
 2073              		.loc 1 178 1 is_stmt 0 view .LVU567
 2074 00b0 83810008 		lwz 28,8(1)
 2075 00b4 7C0803A6 		mtlr 0
 2076              		.cfi_restore 65
 2077 00b8 83A1000C 		lwz 29,12(1)
 2078 00bc 83C10010 		lwz 30,16(1)
 2079 00c0 83E10014 		lwz 31,20(1)
 2080 00c4 38210018 		addi 1,1,24
 2081              		.cfi_restore 31
 2082              		.cfi_restore 30
 2083              		.cfi_restore 29
 2084              		.cfi_restore 28
 2085              		.cfi_def_cfa_offset 0
 2086 00c8 4E800020 		blr
 2087              		.cfi_endproc
 2088              	.LFE2342:
 2089              		.size	_ZN16GuiOptionBrowser16GetClickedOptionEv, .-_ZN16GuiOptionBrowser16GetClickedOptionEv
 2090              		.section	.text._ZN16GuiOptionBrowser12FindMenuItemEii,"ax",@progbits
 2091              		.align 2
 2092              		.globl _ZN16GuiOptionBrowser12FindMenuItemEii
 2093              		.type	_ZN16GuiOptionBrowser12FindMenuItemEii, @function
 2094              	_ZN16GuiOptionBrowser12FindMenuItemEii:
 2095              	.LVL190:
 2096              	.LFB2343:
 2097              		.loc 1 187 1 is_stmt 1 view -0
 2098              		.cfi_startproc
 2099              		.loc 1 187 1 is_stmt 0 view .LVU569
 2100 0000 7C842A14 		add 4,4,5
 2101              	.LVL191:
 2102              		.loc 1 187 1 view .LVU570
 2103 0004 1CE50032 		mulli 7,5,50
 2104 0008 1D440032 		mulli 10,4,50
 2105 000c 394A0004 		addi 10,10,4
 2106 0010 4800002C 		b .L260
 2107              	.LVL192:
 2108              	.L265:
 2109              		.loc 1 190 33 discriminator 1 view .LVU571
 2110 0014 812300B0 		lwz 9,176(3)
 2111              		.loc 1 190 18 discriminator 1 view .LVU572
 2112 0018 81090000 		lwz 8,0(9)
 2113 001c 7C082000 		cmpw 0,8,4
 2114 0020 40810024 		ble- 0,.L262
 2115              		.loc 1 193 37 view .LVU573
 2116 0024 7D2950AE 		lbzx 9,9,10
 2117              		.loc 1 193 2 view .LVU574
 2118 0028 7D4A3A14 		add 10,10,7
 2119 002c 5529063E 		rlwinm 9,9,0,0xff
 2120 0030 2C090000 		cmpwi 0,9,0
 2121 0034 40820018 		bne- 0,.L264
 2122 0038 7C842A14 		add 4,4,5
 2123              	.LVL193:
 2124              	.L260:
 2125              		.loc 1 188 2 is_stmt 1 view .LVU575
 2126              		.loc 1 190 2 view .LVU576
 2127              		.loc 1 193 2 view .LVU577
 2128              		.loc 1 190 2 is_stmt 0 view .LVU578
 2129 003c 2C040000 		cmpwi 0,4,0
 2130 0040 4080FFD4 		bge+ 0,.L265
 2131              	.L262:
 2132              		.loc 1 191 11 view .LVU579
 2133 0044 3860FFFF 		li 3,-1
 2134              	.LVL194:
 2135              		.loc 1 197 1 view .LVU580
 2136 0048 4E800020 		blr
 2137              	.LVL195:
 2138              	.L264:
 2139              		.loc 1 194 10 view .LVU581
 2140 004c 7C832378 		mr 3,4
 2141              	.LVL196:
 2142              		.loc 1 194 10 view .LVU582
 2143 0050 4E800020 		blr
 2144              		.cfi_endproc
 2145              	.LFE2343:
 2146              		.size	_ZN16GuiOptionBrowser12FindMenuItemEii, .-_ZN16GuiOptionBrowser12FindMenuItemEii
 2147              		.section	.text._ZN16GuiOptionBrowser13TriggerUpdateEv,"ax",@progbits
 2148              		.align 2
 2149              		.globl _ZN16GuiOptionBrowser13TriggerUpdateEv
 2150              		.type	_ZN16GuiOptionBrowser13TriggerUpdateEv, @function
 2151              	_ZN16GuiOptionBrowser13TriggerUpdateEv:
 2152              	.LVL197:
 2153              	.LFB2345:
 2154              		.loc 1 230 1 is_stmt 1 view -0
 2155              		.cfi_startproc
 2156              		.loc 1 231 2 view .LVU584
 2157              		.loc 1 231 14 is_stmt 0 view .LVU585
 2158 0000 39200001 		li 9,1
 2159 0004 992300AC 		stb 9,172(3)
 2160              		.loc 1 232 1 view .LVU586
 2161 0008 4E800020 		blr
 2162              		.cfi_endproc
 2163              	.LFE2345:
 2164              		.size	_ZN16GuiOptionBrowser13TriggerUpdateEv, .-_ZN16GuiOptionBrowser13TriggerUpdateEv
 2165              		.section	.text._ZN16GuiOptionBrowserC2EiiP11_optionlist,"ax",@progbits
 2166              		.align 2
 2167              		.globl _ZN16GuiOptionBrowserC2EiiP11_optionlist
 2168              		.type	_ZN16GuiOptionBrowserC2EiiP11_optionlist, @function
 2169              	_ZN16GuiOptionBrowserC2EiiP11_optionlist:
 2170              	.LVL198:
 2171              	.LFB2333:
 2172              		.loc 1 16 1 is_stmt 1 view -0
 2173              		.cfi_startproc
 2174              		.cfi_personality 0,__gxx_personality_v0
 2175              		.cfi_lsda 0,.LLSDA2333
 2176              		.loc 1 16 1 is_stmt 0 view .LVU588
 2177 0000 9421FFD0 		stwu 1,-48(1)
 2178              		.cfi_def_cfa_offset 48
 2179 0004 7C0802A6 		mflr 0
 2180 0008 93E1002C 		stw 31,44(1)
 2181              		.cfi_register 65, 0
 2182              		.cfi_offset 31, -4
 2183 000c 7CDF3378 		mr 31,6
 2184 0010 93810020 		stw 28,32(1)
 2185              		.cfi_offset 28, -16
 2186 0014 7C9C2378 		mr 28,4
 2187 0018 93A10024 		stw 29,36(1)
 2188              		.cfi_offset 29, -12
 2189 001c 7CBD2B78 		mr 29,5
 2190 0020 93C10028 		stw 30,40(1)
 2191              		.cfi_offset 30, -8
 2192 0024 7C7E1B78 		mr 30,3
 2193 0028 90010034 		stw 0,52(1)
 2194 002c 93210014 		stw 25,20(1)
 2195 0030 93410018 		stw 26,24(1)
 2196 0034 9361001C 		stw 27,28(1)
 2197              		.cfi_offset 65, 4
 2198              		.cfi_offset 25, -28
 2199              		.cfi_offset 26, -24
 2200              		.cfi_offset 27, -20
 2201              	.LEHB0:
 2202              	.LBB127:
 2203              		.loc 1 16 64 view .LVU589
 2204 0038 48000001 		bl _ZN10GuiElementC2Ev
 2205              	.LVL199:
 2206              	.LEHE0:
 2207              	.LBB128:
 2208              	.LBB129:
 2209              	.LBB130:
 2210              		.loc 1 190 42 discriminator 1 view .LVU590
 2211 003c 813F0000 		lwz 9,0(31)
 2212              	.LBE130:
 2213              	.LBE129:
 2214              	.LBE128:
 2215              		.loc 1 16 64 discriminator 1 view .LVU591
 2216 0040 3D400000 		lis 10,_ZTV16GuiOptionBrowser+8@ha
 2217 0044 394A0000 		la 10,_ZTV16GuiOptionBrowser+8@l(10)
 2218              	.LBB138:
 2219              		.loc 1 21 13 view .LVU592
 2220 0048 38E00001 		li 7,1
 2221 004c 71280001 		andi. 8,9,0x1
 2222              		.loc 1 18 8 view .LVU593
 2223 0050 939E000C 		stw 28,12(30)
 2224              		.loc 1 19 9 view .LVU594
 2225 0054 93BE0010 		stw 29,16(30)
 2226              		.loc 1 20 10 view .LVU595
 2227 0058 93FE00B0 		stw 31,176(30)
 2228              	.LBE138:
 2229              		.loc 1 16 64 discriminator 1 view .LVU596
 2230 005c 915E0000 		stw 10,0(30)
 2231              	.LBB139:
 2232              		.loc 1 18 2 is_stmt 1 view .LVU597
 2233              		.loc 1 19 2 view .LVU598
 2234              		.loc 1 20 2 view .LVU599
 2235              		.loc 1 21 2 view .LVU600
 2236              		.loc 1 21 13 is_stmt 0 view .LVU601
 2237 0060 98FE0070 		stb 7,112(30)
 2238              		.loc 1 22 2 is_stmt 1 view .LVU602
 2239              	.LVL200:
 2240              	.LBB133:
 2241              	.LBI129:
 2242              		.loc 1 186 5 view .LVU603
 2243 0064 40820548 		bne- 0,.L340
 2244 0068 391F0004 		addi 8,31,4
 2245 006c 3940FFFF 		li 10,-1
 2246              	.L321:
 2247 0070 2C090000 		cmpwi 0,9,0
 2248 0074 5529F87E 		srwi 9,9,1
 2249 0078 39290001 		addi 9,9,1
 2250 007c 40A00028 		bge+ 0,.L269
 2251 0080 48000524 		b .L341
 2252              	.LVL201:
 2253              	.L342:
 2254              	.LBB131:
 2255              		.loc 1 193 2 view .LVU604
 2256 0084 88E80000 		lbz 7,0(8)
 2257 0088 2C070000 		cmpwi 0,7,0
 2258 008c 4082002C 		bne- 0,.L268
 2259              		.loc 1 188 2 view .LVU605
 2260              		.loc 1 193 2 is_stmt 0 view .LVU606
 2261 0090 88E80032 		lbz 7,50(8)
 2262 0094 39080064 		addi 8,8,100
 2263              		.loc 1 188 6 view .LVU607
 2264 0098 394A0001 		addi 10,10,1
 2265              	.LVL202:
 2266              		.loc 1 190 2 is_stmt 1 view .LVU608
 2267              		.loc 1 193 2 view .LVU609
 2268 009c 2C070000 		cmpwi 0,7,0
 2269 00a0 40820018 		bne- 0,.L268
 2270              	.LVL203:
 2271              	.L269:
 2272              		.loc 1 188 2 view .LVU610
 2273              		.loc 1 190 18 is_stmt 0 discriminator 1 view .LVU611
 2274 00a4 2C090001 		cmpwi 0,9,1
 2275              		.loc 1 188 6 view .LVU612
 2276 00a8 394A0001 		addi 10,10,1
 2277              	.LVL204:
 2278              		.loc 1 190 2 is_stmt 1 view .LVU613
 2279              		.loc 1 190 18 is_stmt 0 discriminator 1 view .LVU614
 2280 00ac 3929FFFF 		addi 9,9,-1
 2281 00b0 4082FFD4 		bne+ 0,.L342
 2282              	.L294:
 2283              		.loc 1 191 11 view .LVU615
 2284 00b4 3940FFFF 		li 10,-1
 2285              	.LVL205:
 2286              	.L268:
 2287              		.loc 1 191 11 view .LVU616
 2288              	.LBE131:
 2289              	.LBE133:
 2290              		.loc 1 24 15 view .LVU617
 2291 00b8 39200000 		li 9,0
 2292              		.loc 1 23 14 view .LVU618
 2293 00bc 39000001 		li 8,1
 2294              		.loc 1 22 13 discriminator 1 view .LVU619
 2295 00c0 915E00A8 		stw 10,168(30)
 2296              		.loc 1 23 2 is_stmt 1 view .LVU620
 2297              		.loc 1 27 14 is_stmt 0 view .LVU621
 2298 00c4 3860016C 		li 3,364
 2299              		.loc 1 23 14 view .LVU622
 2300 00c8 991E00AC 		stb 8,172(30)
 2301              		.loc 1 24 2 is_stmt 1 view .LVU623
 2302              		.loc 1 24 15 is_stmt 0 view .LVU624
 2303 00cc 913E00A4 		stw 9,164(30)
 2304              		.loc 1 25 2 is_stmt 1 view .LVU625
 2305              		.loc 1 25 8 is_stmt 0 view .LVU626
 2306 00d0 913E0008 		stw 9,8(30)
 2307              		.loc 1 27 2 is_stmt 1 view .LVU627
 2308              	.LEHB1:
 2309              		.loc 1 27 14 is_stmt 0 view .LVU628
 2310 00d4 48000001 		bl _Znwj
 2311              	.LVL206:
 2312              	.LEHE1:
 2313 00d8 7C7F1B78 		mr 31,3
 2314              	.LVL207:
 2315              	.LEHB2:
 2316              		.loc 1 27 14 discriminator 1 view .LVU629
 2317 00dc 48000001 		bl _ZN10GuiTriggerC1Ev
 2318              	.LVL208:
 2319              	.LEHE2:
 2320              		.loc 1 28 25 view .LVU630
 2321 00e0 3CA00010 		lis 5,0x10
 2322              		.loc 1 27 8 discriminator 3 view .LVU631
 2323 00e4 93FE0178 		stw 31,376(30)
 2324              		.loc 1 28 2 is_stmt 1 view .LVU632
 2325              		.loc 1 28 25 is_stmt 0 view .LVU633
 2326 00e8 7FE3FB78 		mr 3,31
 2327 00ec 60A50008 		ori 5,5,0x8
 2328 00f0 38C00100 		li 6,256
 2329 00f4 3880FFFF 		li 4,-1
 2330              	.LEHB3:
 2331 00f8 48000001 		bl _ZN10GuiTrigger16SetSimpleTriggerEijt
 2332              	.LVL209:
 2333              		.loc 1 30 2 is_stmt 1 view .LVU634
 2334              		.loc 1 30 78 is_stmt 0 view .LVU635
 2335 00fc 38600018 		li 3,24
 2336 0100 48000001 		bl _Znwj
 2337              	.LVL210:
 2338              	.LEHE3:
 2339              		.loc 1 30 78 discriminator 1 view .LVU636
 2340 0104 3C800000 		lis 4,button_over_pcm@ha
 2341 0108 38C00000 		li 6,0
 2342 010c 38840000 		la 4,button_over_pcm@l(4)
 2343 0110 38A00B3C 		li 5,2876
 2344              		.loc 1 30 78 view .LVU637
 2345 0114 7C7F1B78 		mr 31,3
 2346              	.LEHB4:
 2347              		.loc 1 30 78 discriminator 1 view .LVU638
 2348 0118 48000001 		bl _ZN8GuiSoundC1EPKhii
 2349              	.LVL211:
 2350              	.LEHE4:
 2351              		.loc 1 30 15 discriminator 3 view .LVU639
 2352 011c 93FE0170 		stw 31,368(30)
 2353              		.loc 1 31 2 is_stmt 1 view .LVU640
 2354              		.loc 1 31 81 is_stmt 0 view .LVU641
 2355 0120 38600018 		li 3,24
 2356              	.LEHB5:
 2357 0124 48000001 		bl _Znwj
 2358              	.LVL212:
 2359              	.LEHE5:
 2360              		.loc 1 31 81 discriminator 1 view .LVU642
 2361 0128 3C800000 		lis 4,button_click_pcm@ha
 2362 012c 38C00000 		li 6,0
 2363 0130 38840000 		la 4,button_click_pcm@l(4)
 2364 0134 38A01C24 		li 5,7204
 2365              		.loc 1 31 81 view .LVU643
 2366 0138 7C7F1B78 		mr 31,3
 2367              	.LEHB6:
 2368              		.loc 1 31 81 discriminator 1 view .LVU644
 2369 013c 48000001 		bl _ZN8GuiSoundC1EPKhii
 2370              	.LVL213:
 2371              	.LEHE6:
 2372              		.loc 1 31 16 discriminator 3 view .LVU645
 2373 0140 93FE0174 		stw 31,372(30)
 2374              		.loc 1 33 2 is_stmt 1 view .LVU646
 2375              		.loc 1 33 45 is_stmt 0 view .LVU647
 2376 0144 3860000C 		li 3,12
 2377              	.LEHB7:
 2378 0148 48000001 		bl _Znwj
 2379              	.LVL214:
 2380              	.LEHE7:
 2381              		.loc 1 33 45 discriminator 1 view .LVU648
 2382 014c 3C800000 		lis 4,bg_options_png@ha
 2383              		.loc 1 33 45 view .LVU649
 2384 0150 7C7F1B78 		mr 31,3
 2385              		.loc 1 33 45 discriminator 1 view .LVU650
 2386 0154 38840000 		la 4,bg_options_png@l(4)
 2387              	.LEHB8:
 2388 0158 48000001 		bl _ZN12GuiImageDataC1EPKh
 2389              	.LVL215:
 2390              	.LEHE8:
 2391              		.loc 1 33 12 discriminator 3 view .LVU651
 2392 015c 93FE0154 		stw 31,340(30)
 2393              		.loc 1 34 2 is_stmt 1 view .LVU652
 2394              		.loc 1 34 39 is_stmt 0 view .LVU653
 2395 0160 38600098 		li 3,152
 2396              	.LEHB9:
 2397 0164 48000001 		bl _Znwj
 2398              	.LVL216:
 2399              	.LEHE9:
 2400              		.loc 1 34 39 discriminator 1 view .LVU654
 2401 0168 809E0154 		lwz 4,340(30)
 2402              		.loc 1 34 39 view .LVU655
 2403 016c 7C7F1B78 		mr 31,3
 2404              	.LEHB10:
 2405              		.loc 1 34 39 discriminator 1 view .LVU656
 2406 0170 48000001 		bl _ZN8GuiImageC1EP12GuiImageData
 2407              	.LVL217:
 2408              	.LEHE10:
 2409              		.loc 1 34 15 discriminator 3 view .LVU657
 2410 0174 93FE013C 		stw 31,316(30)
 2411              		.loc 1 35 2 is_stmt 1 view .LVU658
 2412              		.loc 1 35 25 is_stmt 0 view .LVU659
 2413 0178 7FE3FB78 		mr 3,31
 2414 017c 7FC4F378 		mr 4,30
 2415              	.LEHB11:
 2416 0180 48000001 		bl _ZN10GuiElement9SetParentEPS_
 2417              	.LVL218:
 2418              		.loc 1 36 2 is_stmt 1 view .LVU660
 2419 0184 807E013C 		lwz 3,316(30)
 2420              		.loc 1 36 28 is_stmt 0 view .LVU661
 2421 0188 38A00005 		li 5,5
 2422 018c 38800000 		li 4,0
 2423 0190 81230000 		lwz 9,0(3)
 2424 0194 8129001C 		lwz 9,28(9)
 2425 0198 7D2903A6 		mtctr 9
 2426 019c 4E800421 		bctrl
 2427              	.LVL219:
 2428              		.loc 1 38 2 is_stmt 1 view .LVU662
 2429              		.loc 1 38 56 is_stmt 0 view .LVU663
 2430 01a0 3860000C 		li 3,12
 2431 01a4 48000001 		bl _Znwj
 2432              	.LVL220:
 2433              	.LEHE11:
 2434              		.loc 1 38 56 discriminator 1 view .LVU664
 2435 01a8 3C800000 		lis 4,bg_options_entry_png@ha
 2436              		.loc 1 38 56 view .LVU665
 2437 01ac 7C7F1B78 		mr 31,3
 2438              		.loc 1 38 56 discriminator 1 view .LVU666
 2439 01b0 38840000 		la 4,bg_options_entry_png@l(4)
 2440              	.LEHB12:
 2441 01b4 48000001 		bl _ZN12GuiImageDataC1EPKh
 2442              	.LVL221:
 2443              	.LEHE12:
 2444              		.loc 1 38 17 discriminator 3 view .LVU667
 2445 01b8 93FE0158 		stw 31,344(30)
 2446              		.loc 1 40 2 is_stmt 1 view .LVU668
 2447              		.loc 1 40 44 is_stmt 0 view .LVU669
 2448 01bc 3860000C 		li 3,12
 2449              	.LEHB13:
 2450 01c0 48000001 		bl _Znwj
 2451              	.LVL222:
 2452              	.LEHE13:
 2453              		.loc 1 40 44 discriminator 1 view .LVU670
 2454 01c4 3C800000 		lis 4,scrollbar_png@ha
 2455              		.loc 1 40 44 view .LVU671
 2456 01c8 7C7F1B78 		mr 31,3
 2457              		.loc 1 40 44 discriminator 1 view .LVU672
 2458 01cc 38840000 		la 4,scrollbar_png@l(4)
 2459              	.LEHB14:
 2460 01d0 48000001 		bl _ZN12GuiImageDataC1EPKh
 2461              	.LVL223:
 2462              	.LEHE14:
 2463              		.loc 1 40 12 discriminator 3 view .LVU673
 2464 01d4 93FE015C 		stw 31,348(30)
 2465              		.loc 1 41 2 is_stmt 1 view .LVU674
 2466              		.loc 1 41 39 is_stmt 0 view .LVU675
 2467 01d8 38600098 		li 3,152
 2468              	.LEHB15:
 2469 01dc 48000001 		bl _Znwj
 2470              	.LVL224:
 2471              	.LEHE15:
 2472              		.loc 1 41 39 discriminator 1 view .LVU676
 2473 01e0 809E015C 		lwz 4,348(30)
 2474              		.loc 1 41 39 view .LVU677
 2475 01e4 7C7F1B78 		mr 31,3
 2476              	.LEHB16:
 2477              		.loc 1 41 39 discriminator 1 view .LVU678
 2478 01e8 48000001 		bl _ZN8GuiImageC1EP12GuiImageData
 2479              	.LVL225:
 2480              	.LEHE16:
 2481              		.loc 1 41 15 discriminator 3 view .LVU679
 2482 01ec 93FE0140 		stw 31,320(30)
 2483              		.loc 1 42 2 is_stmt 1 view .LVU680
 2484              		.loc 1 42 25 is_stmt 0 view .LVU681
 2485 01f0 7FE3FB78 		mr 3,31
 2486 01f4 7FC4F378 		mr 4,30
 2487              	.LEHB17:
 2488 01f8 48000001 		bl _ZN10GuiElement9SetParentEPS_
 2489              	.LVL226:
 2490              		.loc 1 43 2 is_stmt 1 view .LVU682
 2491 01fc 807E0140 		lwz 3,320(30)
 2492              		.loc 1 43 28 is_stmt 0 view .LVU683
 2493 0200 38A00003 		li 5,3
 2494 0204 38800001 		li 4,1
 2495 0208 81230000 		lwz 9,0(3)
 2496 020c 8129001C 		lwz 9,28(9)
 2497 0210 7D2903A6 		mtctr 9
 2498 0214 4E800421 		bctrl
 2499              	.LVL227:
 2500              		.loc 1 44 2 is_stmt 1 view .LVU684
 2501              		.loc 1 44 27 is_stmt 0 view .LVU685
 2502 0218 807E0140 		lwz 3,320(30)
 2503 021c 38A0001E 		li 5,30
 2504 0220 38800000 		li 4,0
 2505 0224 48000001 		bl _ZN10GuiElement11SetPositionEii
 2506              	.LVL228:
 2507              		.loc 1 46 2 is_stmt 1 view .LVU686
 2508              		.loc 1 46 54 is_stmt 0 view .LVU687
 2509 0228 3860000C 		li 3,12
 2510 022c 48000001 		bl _Znwj
 2511              	.LVL229:
 2512              	.LEHE17:
 2513              		.loc 1 46 54 discriminator 1 view .LVU688
 2514 0230 3C800000 		lis 4,scrollbar_arrowdown_png@ha
 2515              		.loc 1 46 54 view .LVU689
 2516 0234 7C7F1B78 		mr 31,3
 2517              		.loc 1 46 54 discriminator 1 view .LVU690
 2518 0238 38840000 		la 4,scrollbar_arrowdown_png@l(4)
 2519              	.LEHB18:
 2520 023c 48000001 		bl _ZN12GuiImageDataC1EPKh
 2521              	.LVL230:
 2522              	.LEHE18:
 2523              		.loc 1 46 12 discriminator 3 view .LVU691
 2524 0240 93FE0160 		stw 31,352(30)
 2525              		.loc 1 47 2 is_stmt 1 view .LVU692
 2526              		.loc 1 47 39 is_stmt 0 view .LVU693
 2527 0244 38600098 		li 3,152
 2528              	.LEHB19:
 2529 0248 48000001 		bl _Znwj
 2530              	.LVL231:
 2531              	.LEHE19:
 2532              		.loc 1 47 39 discriminator 1 view .LVU694
 2533 024c 809E0160 		lwz 4,352(30)
 2534              		.loc 1 47 39 view .LVU695
 2535 0250 7C7F1B78 		mr 31,3
 2536              	.LEHB20:
 2537              		.loc 1 47 39 discriminator 1 view .LVU696
 2538 0254 48000001 		bl _ZN8GuiImageC1EP12GuiImageData
 2539              	.LVL232:
 2540              	.LEHE20:
 2541              		.loc 1 47 15 discriminator 3 view .LVU697
 2542 0258 93FE0144 		stw 31,324(30)
 2543              		.loc 1 48 2 is_stmt 1 view .LVU698
 2544              		.loc 1 48 63 is_stmt 0 view .LVU699
 2545 025c 3860000C 		li 3,12
 2546              	.LEHB21:
 2547 0260 48000001 		bl _Znwj
 2548              	.LVL233:
 2549              	.LEHE21:
 2550              		.loc 1 48 63 discriminator 1 view .LVU700
 2551 0264 3C800000 		lis 4,scrollbar_arrowdown_over_png@ha
 2552              		.loc 1 48 63 view .LVU701
 2553 0268 7C7F1B78 		mr 31,3
 2554              		.loc 1 48 63 discriminator 1 view .LVU702
 2555 026c 38840000 		la 4,scrollbar_arrowdown_over_png@l(4)
 2556              	.LEHB22:
 2557 0270 48000001 		bl _ZN12GuiImageDataC1EPKh
 2558              	.LVL234:
 2559              	.LEHE22:
 2560              		.loc 1 48 16 discriminator 3 view .LVU703
 2561 0274 93FE0164 		stw 31,356(30)
 2562              		.loc 1 49 2 is_stmt 1 view .LVU704
 2563              		.loc 1 49 47 is_stmt 0 view .LVU705
 2564 0278 38600098 		li 3,152
 2565              	.LEHB23:
 2566 027c 48000001 		bl _Znwj
 2567              	.LVL235:
 2568              	.LEHE23:
 2569              		.loc 1 49 47 discriminator 1 view .LVU706
 2570 0280 809E0164 		lwz 4,356(30)
 2571              		.loc 1 49 47 view .LVU707
 2572 0284 7C7F1B78 		mr 31,3
 2573              	.LEHB24:
 2574              		.loc 1 49 47 discriminator 1 view .LVU708
 2575 0288 48000001 		bl _ZN8GuiImageC1EP12GuiImageData
 2576              	.LVL236:
 2577              	.LEHE24:
 2578              		.loc 1 49 19 discriminator 3 view .LVU709
 2579 028c 93FE0148 		stw 31,328(30)
 2580              		.loc 1 50 2 is_stmt 1 view .LVU710
 2581              		.loc 1 50 50 is_stmt 0 view .LVU711
 2582 0290 3860000C 		li 3,12
 2583              	.LEHB25:
 2584 0294 48000001 		bl _Znwj
 2585              	.LVL237:
 2586              	.LEHE25:
 2587              		.loc 1 50 50 discriminator 1 view .LVU712
 2588 0298 3C800000 		lis 4,scrollbar_arrowup_png@ha
 2589              		.loc 1 50 50 view .LVU713
 2590 029c 7C7F1B78 		mr 31,3
 2591              		.loc 1 50 50 discriminator 1 view .LVU714
 2592 02a0 38840000 		la 4,scrollbar_arrowup_png@l(4)
 2593              	.LEHB26:
 2594 02a4 48000001 		bl _ZN12GuiImageDataC1EPKh
 2595              	.LVL238:
 2596              	.LEHE26:
 2597              		.loc 1 50 10 discriminator 3 view .LVU715
 2598 02a8 93FE0168 		stw 31,360(30)
 2599              		.loc 1 51 2 is_stmt 1 view .LVU716
 2600              		.loc 1 51 35 is_stmt 0 view .LVU717
 2601 02ac 38600098 		li 3,152
 2602              	.LEHB27:
 2603 02b0 48000001 		bl _Znwj
 2604              	.LVL239:
 2605              	.LEHE27:
 2606              		.loc 1 51 35 discriminator 1 view .LVU718
 2607 02b4 809E0168 		lwz 4,360(30)
 2608              		.loc 1 51 35 view .LVU719
 2609 02b8 7C7F1B78 		mr 31,3
 2610              	.LEHB28:
 2611              		.loc 1 51 35 discriminator 1 view .LVU720
 2612 02bc 48000001 		bl _ZN8GuiImageC1EP12GuiImageData
 2613              	.LVL240:
 2614              	.LEHE28:
 2615              		.loc 1 51 13 discriminator 3 view .LVU721
 2616 02c0 93FE014C 		stw 31,332(30)
 2617              		.loc 1 52 2 is_stmt 1 view .LVU722
 2618              		.loc 1 52 59 is_stmt 0 view .LVU723
 2619 02c4 3860000C 		li 3,12
 2620              	.LEHB29:
 2621 02c8 48000001 		bl _Znwj
 2622              	.LVL241:
 2623              	.LEHE29:
 2624              		.loc 1 52 59 discriminator 1 view .LVU724
 2625 02cc 3C800000 		lis 4,scrollbar_arrowup_over_png@ha
 2626              		.loc 1 52 59 view .LVU725
 2627 02d0 7C7F1B78 		mr 31,3
 2628              		.loc 1 52 59 discriminator 1 view .LVU726
 2629 02d4 38840000 		la 4,scrollbar_arrowup_over_png@l(4)
 2630              	.LEHB30:
 2631 02d8 48000001 		bl _ZN12GuiImageDataC1EPKh
 2632              	.LVL242:
 2633              	.LEHE30:
 2634              		.loc 1 52 14 discriminator 3 view .LVU727
 2635 02dc 93FE016C 		stw 31,364(30)
 2636              		.loc 1 53 2 is_stmt 1 view .LVU728
 2637              		.loc 1 53 43 is_stmt 0 view .LVU729
 2638 02e0 38600098 		li 3,152
 2639              	.LEHB31:
 2640 02e4 48000001 		bl _Znwj
 2641              	.LVL243:
 2642              	.LEHE31:
 2643              		.loc 1 53 43 discriminator 1 view .LVU730
 2644 02e8 809E016C 		lwz 4,364(30)
 2645              		.loc 1 53 43 view .LVU731
 2646 02ec 7C7F1B78 		mr 31,3
 2647              	.LEHB32:
 2648              		.loc 1 53 43 discriminator 1 view .LVU732
 2649 02f0 48000001 		bl _ZN8GuiImageC1EP12GuiImageData
 2650              	.LVL244:
 2651              	.LEHE32:
 2652              		.loc 1 53 17 discriminator 3 view .LVU733
 2653 02f4 93FE0150 		stw 31,336(30)
 2654              		.loc 1 55 2 is_stmt 1 view .LVU734
 2655              		.loc 1 55 76 is_stmt 0 view .LVU735
 2656 02f8 386000E0 		li 3,224
 2657              	.LEHB33:
 2658 02fc 48000001 		bl _Znwj
 2659              	.LVL245:
 2660              	.LEHE33:
 2661 0300 7C7F1B78 		mr 31,3
 2662              		.loc 1 55 76 discriminator 1 view .LVU736
 2663 0304 807E014C 		lwz 3,332(30)
 2664              	.LEHB34:
 2665 0308 48000001 		bl _ZN10GuiElement8GetWidthEv
 2666              	.LVL246:
 2667 030c 7C7D1B78 		mr 29,3
 2668              	.LVL247:
 2669              		.loc 1 55 76 discriminator 3 view .LVU737
 2670 0310 807E014C 		lwz 3,332(30)
 2671 0314 48000001 		bl _ZN10GuiElement9GetHeightEv
 2672              	.LVL248:
 2673 0318 7C651B78 		mr 5,3
 2674              		.loc 1 55 76 discriminator 5 view .LVU738
 2675 031c 7FA4EB78 		mr 4,29
 2676 0320 7FE3FB78 		mr 3,31
 2677 0324 48000001 		bl _ZN9GuiButtonC1Eii
 2678              	.LVL249:
 2679              	.LEHE34:
 2680              		.loc 1 55 13 discriminator 7 view .LVU739
 2681 0328 93FE0134 		stw 31,308(30)
 2682              		.loc 1 56 2 is_stmt 1 view .LVU740
 2683              		.loc 1 56 23 is_stmt 0 view .LVU741
 2684 032c 7FE3FB78 		mr 3,31
 2685 0330 7FC4F378 		mr 4,30
 2686              	.LEHB35:
 2687 0334 48000001 		bl _ZN10GuiElement9SetParentEPS_
 2688              	.LVL250:
 2689              		.loc 1 57 2 is_stmt 1 view .LVU742
 2690              		.loc 1 57 22 is_stmt 0 view .LVU743
 2691 0338 809E014C 		lwz 4,332(30)
 2692 033c 807E0134 		lwz 3,308(30)
 2693 0340 48000001 		bl _ZN9GuiButton8SetImageEP8GuiImage
 2694              	.LVL251:
 2695              		.loc 1 58 2 is_stmt 1 view .LVU744
 2696              		.loc 1 58 26 is_stmt 0 view .LVU745
 2697 0344 809E0150 		lwz 4,336(30)
 2698 0348 807E0134 		lwz 3,308(30)
 2699 034c 48000001 		bl _ZN9GuiButton12SetImageOverEP8GuiImage
 2700              	.LVL252:
 2701              		.loc 1 59 2 is_stmt 1 view .LVU746
 2702 0350 807E0134 		lwz 3,308(30)
 2703              		.loc 1 59 26 is_stmt 0 view .LVU747
 2704 0354 38A00003 		li 5,3
 2705 0358 38800001 		li 4,1
 2706 035c 81230000 		lwz 9,0(3)
 2707 0360 8129001C 		lwz 9,28(9)
 2708 0364 7D2903A6 		mtctr 9
 2709 0368 4E800421 		bctrl
 2710              	.LVL253:
 2711              		.loc 1 60 2 is_stmt 1 view .LVU748
 2712              		.loc 1 60 27 is_stmt 0 view .LVU749
 2713 036c 807E0134 		lwz 3,308(30)
 2714 0370 38800000 		li 4,0
 2715 0374 48000001 		bl _ZN10GuiElement13SetSelectableEb
 2716              	.LVL254:
 2717              		.loc 1 61 2 is_stmt 1 view .LVU750
 2718              		.loc 1 61 24 is_stmt 0 view .LVU751
 2719 0378 809E0178 		lwz 4,376(30)
 2720 037c 807E0134 		lwz 3,308(30)
 2721 0380 48000001 		bl _ZN10GuiElement10SetTriggerEP10GuiTrigger
 2722              	.LVL255:
 2723              		.loc 1 62 2 is_stmt 1 view .LVU752
 2724              		.loc 1 62 26 is_stmt 0 view .LVU753
 2725 0384 809E0170 		lwz 4,368(30)
 2726 0388 807E0134 		lwz 3,308(30)
 2727 038c 48000001 		bl _ZN9GuiButton12SetSoundOverEP8GuiSound
 2728              	.LVL256:
 2729              		.loc 1 63 2 is_stmt 1 view .LVU754
 2730              		.loc 1 63 27 is_stmt 0 view .LVU755
 2731 0390 809E0174 		lwz 4,372(30)
 2732 0394 807E0134 		lwz 3,308(30)
 2733 0398 48000001 		bl _ZN9GuiButton13SetSoundClickEP8GuiSound
 2734              	.LVL257:
 2735              		.loc 1 65 2 is_stmt 1 view .LVU756
 2736              		.loc 1 65 82 is_stmt 0 view .LVU757
 2737 039c 386000E0 		li 3,224
 2738 03a0 48000001 		bl _Znwj
 2739              	.LVL258:
 2740              	.LEHE35:
 2741 03a4 7C7F1B78 		mr 31,3
 2742              		.loc 1 65 82 discriminator 1 view .LVU758
 2743 03a8 807E0144 		lwz 3,324(30)
 2744              	.LEHB36:
 2745 03ac 48000001 		bl _ZN10GuiElement8GetWidthEv
 2746              	.LVL259:
 2747 03b0 7C7D1B78 		mr 29,3
 2748              		.loc 1 65 82 discriminator 3 view .LVU759
 2749 03b4 807E0144 		lwz 3,324(30)
 2750 03b8 48000001 		bl _ZN10GuiElement9GetHeightEv
 2751              	.LVL260:
 2752 03bc 7C651B78 		mr 5,3
 2753              		.loc 1 65 82 discriminator 5 view .LVU760
 2754 03c0 7FA4EB78 		mr 4,29
 2755 03c4 7FE3FB78 		mr 3,31
 2756 03c8 48000001 		bl _ZN9GuiButtonC1Eii
 2757              	.LVL261:
 2758              	.LEHE36:
 2759              		.loc 1 65 15 discriminator 7 view .LVU761
 2760 03cc 93FE0138 		stw 31,312(30)
 2761              		.loc 1 66 2 is_stmt 1 view .LVU762
 2762              		.loc 1 66 25 is_stmt 0 view .LVU763
 2763 03d0 7FE3FB78 		mr 3,31
 2764 03d4 7FC4F378 		mr 4,30
 2765              	.LEHB37:
 2766 03d8 48000001 		bl _ZN10GuiElement9SetParentEPS_
 2767              	.LVL262:
 2768              		.loc 1 67 2 is_stmt 1 view .LVU764
 2769              		.loc 1 67 24 is_stmt 0 view .LVU765
 2770 03dc 809E0144 		lwz 4,324(30)
 2771 03e0 807E0138 		lwz 3,312(30)
 2772 03e4 48000001 		bl _ZN9GuiButton8SetImageEP8GuiImage
 2773              	.LVL263:
 2774              		.loc 1 68 2 is_stmt 1 view .LVU766
 2775              		.loc 1 68 28 is_stmt 0 view .LVU767
 2776 03e8 809E0148 		lwz 4,328(30)
 2777 03ec 807E0138 		lwz 3,312(30)
 2778 03f0 48000001 		bl _ZN9GuiButton12SetImageOverEP8GuiImage
 2779              	.LVL264:
 2780              		.loc 1 69 2 is_stmt 1 view .LVU768
 2781 03f4 807E0138 		lwz 3,312(30)
 2782              		.loc 1 69 28 is_stmt 0 view .LVU769
 2783 03f8 38A00004 		li 5,4
 2784 03fc 38800001 		li 4,1
 2785 0400 81230000 		lwz 9,0(3)
 2786 0404 8129001C 		lwz 9,28(9)
 2787 0408 7D2903A6 		mtctr 9
 2788 040c 4E800421 		bctrl
 2789              	.LVL265:
 2790              		.loc 1 70 2 is_stmt 1 view .LVU770
 2791              		.loc 1 70 29 is_stmt 0 view .LVU771
 2792 0410 807E0138 		lwz 3,312(30)
 2793 0414 38800000 		li 4,0
 2794 0418 48000001 		bl _ZN10GuiElement13SetSelectableEb
 2795              	.LVL266:
 2796              		.loc 1 71 2 is_stmt 1 view .LVU772
 2797              		.loc 1 71 26 is_stmt 0 view .LVU773
 2798 041c 809E0178 		lwz 4,376(30)
 2799 0420 807E0138 		lwz 3,312(30)
 2800 0424 48000001 		bl _ZN10GuiElement10SetTriggerEP10GuiTrigger
 2801              	.LVL267:
 2802              		.loc 1 72 2 is_stmt 1 view .LVU774
 2803              		.loc 1 72 28 is_stmt 0 view .LVU775
 2804 0428 809E0170 		lwz 4,368(30)
 2805 042c 807E0138 		lwz 3,312(30)
 2806 0430 48000001 		bl _ZN9GuiButton12SetSoundOverEP8GuiSound
 2807              	.LVL268:
 2808              		.loc 1 73 2 is_stmt 1 view .LVU776
 2809              		.loc 1 73 29 is_stmt 0 view .LVU777
 2810 0434 809E0174 		lwz 4,372(30)
 2811 0438 807E0138 		lwz 3,312(30)
 2812 043c 48000001 		bl _ZN9GuiButton13SetSoundClickEP8GuiSound
 2813              	.LVL269:
 2814 0440 3BFE0080 		addi 31,30,128
 2815 0444 3B3E00A0 		addi 25,30,160
 2816 0448 3B800003 		li 28,3
 2817              	.LVL270:
 2818              	.LBB134:
 2819              		.loc 1 77 71 discriminator 1 view .LVU778
 2820 044c 3B6000FF 		li 27,255
 2821              	.L270:
 2822              		.loc 1 77 3 is_stmt 1 view .LVU779
 2823              		.loc 1 77 71 is_stmt 0 view .LVU780
 2824 0450 386000B0 		li 3,176
 2825 0454 48000001 		bl _Znwj
 2826              	.LVL271:
 2827              	.LEHE37:
 2828              		.loc 1 77 71 discriminator 1 view .LVU781
 2829 0458 38C10008 		addi 6,1,8
 2830 045c 38A00014 		li 5,20
 2831 0460 38800000 		li 4,0
 2832 0464 93610008 		stw 27,8(1)
 2833              		.loc 1 77 71 view .LVU782
 2834 0468 7C7D1B78 		mr 29,3
 2835              	.LEHB38:
 2836              		.loc 1 77 71 discriminator 1 view .LVU783
 2837 046c 48000001 		bl _ZN7GuiTextC1EPKci9_gx_color
 2838              	.LVL272:
 2839              	.LEHE38:
 2840              		.loc 1 77 16 discriminator 3 view .LVU784
 2841 0470 93BF0074 		stw 29,116(31)
 2842              		.loc 1 78 3 is_stmt 1 view .LVU785
 2843              		.loc 1 78 29 is_stmt 0 view .LVU786
 2844 0474 7FA3EB78 		mr 3,29
 2845 0478 38A00005 		li 5,5
 2846 047c 38800000 		li 4,0
 2847              	.LEHB39:
 2848 0480 48000001 		bl _ZN7GuiText12SetAlignmentEii
 2849              	.LVL273:
 2850              		.loc 1 79 3 is_stmt 1 view .LVU787
 2851              		.loc 1 79 28 is_stmt 0 view .LVU788
 2852 0484 807F0074 		lwz 3,116(31)
 2853 0488 38A00000 		li 5,0
 2854 048c 38800008 		li 4,8
 2855 0490 48000001 		bl _ZN10GuiElement11SetPositionEii
 2856              	.LVL274:
 2857              		.loc 1 81 3 is_stmt 1 view .LVU789
 2858              		.loc 1 81 71 is_stmt 0 view .LVU790
 2859 0494 386000B0 		li 3,176
 2860 0498 48000001 		bl _Znwj
 2861              	.LVL275:
 2862              	.LEHE39:
 2863              		.loc 1 81 71 discriminator 1 view .LVU791
 2864 049c 38C10008 		addi 6,1,8
 2865 04a0 38A00014 		li 5,20
 2866 04a4 38800000 		li 4,0
 2867 04a8 93610008 		stw 27,8(1)
 2868              		.loc 1 81 71 view .LVU792
 2869 04ac 7C7D1B78 		mr 29,3
 2870              	.LEHB40:
 2871              		.loc 1 81 71 discriminator 1 view .LVU793
 2872 04b0 48000001 		bl _ZN7GuiTextC1EPKci9_gx_color
 2873              	.LVL276:
 2874              	.LEHE40:
 2875              		.loc 1 81 16 discriminator 3 view .LVU794
 2876 04b4 93BF0004 		stw 29,4(31)
 2877              		.loc 1 82 3 is_stmt 1 view .LVU795
 2878              		.loc 1 82 29 is_stmt 0 view .LVU796
 2879 04b8 7FA3EB78 		mr 3,29
 2880 04bc 38A00005 		li 5,5
 2881 04c0 38800000 		li 4,0
 2882              	.LEHB41:
 2883 04c4 48000001 		bl _ZN7GuiText12SetAlignmentEii
 2884              	.LVL277:
 2885              		.loc 1 83 3 is_stmt 1 view .LVU797
 2886              		.loc 1 83 28 is_stmt 0 view .LVU798
 2887 04c8 807F0004 		lwz 3,4(31)
 2888 04cc 38A00000 		li 5,0
 2889 04d0 388000FA 		li 4,250
 2890 04d4 48000001 		bl _ZN10GuiElement11SetPositionEii
 2891              	.LVL278:
 2892              		.loc 1 85 3 is_stmt 1 view .LVU799
 2893              		.loc 1 85 44 is_stmt 0 view .LVU800
 2894 04d8 38600098 		li 3,152
 2895 04dc 48000001 		bl _Znwj
 2896              	.LVL279:
 2897              	.LEHE41:
 2898              		.loc 1 85 44 discriminator 1 view .LVU801
 2899 04e0 809E0158 		lwz 4,344(30)
 2900              		.loc 1 85 44 view .LVU802
 2901 04e4 7C7D1B78 		mr 29,3
 2902              	.LEHB42:
 2903              		.loc 1 85 44 discriminator 1 view .LVU803
 2904 04e8 48000001 		bl _ZN8GuiImageC1EP12GuiImageData
 2905              	.LVL280:
 2906              	.LEHE42:
 2907              		.loc 1 85 15 discriminator 3 view .LVU804
 2908 04ec 93BF0094 		stw 29,148(31)
 2909              		.loc 1 87 3 is_stmt 1 view .LVU805
 2910              		.loc 1 87 38 is_stmt 0 view .LVU806
 2911 04f0 386000E0 		li 3,224
 2912              	.LEHB43:
 2913 04f4 48000001 		bl _Znwj
 2914              	.LVL281:
 2915              	.LEHE43:
 2916              		.loc 1 87 38 discriminator 1 view .LVU807
 2917 04f8 38A0001E 		li 5,30
 2918 04fc 38800200 		li 4,512
 2919              		.loc 1 87 38 view .LVU808
 2920 0500 7C7D1B78 		mr 29,3
 2921              	.LEHB44:
 2922              		.loc 1 87 38 discriminator 1 view .LVU809
 2923 0504 48000001 		bl _ZN9GuiButtonC1Eii
 2924              	.LVL282:
 2925              	.LEHE44:
 2926              		.loc 1 87 16 discriminator 3 view .LVU810
 2927 0508 93BF0054 		stw 29,84(31)
 2928              		.loc 1 88 3 is_stmt 1 view .LVU811
 2929              		.loc 1 88 26 is_stmt 0 view .LVU812
 2930 050c 7FA3EB78 		mr 3,29
 2931 0510 7FC4F378 		mr 4,30
 2932              	.LEHB45:
 2933 0514 48000001 		bl _ZN10GuiElement9SetParentEPS_
 2934              	.LVL283:
 2935              		.loc 1 89 3 is_stmt 1 view .LVU813
 2936              		.loc 1 89 25 is_stmt 0 view .LVU814
 2937 0518 809F0074 		lwz 4,116(31)
 2938 051c 38A00000 		li 5,0
 2939 0520 807F0054 		lwz 3,84(31)
 2940 0524 48000001 		bl _ZN9GuiButton8SetLabelEP7GuiTexti
 2941              	.LVL284:
 2942              		.loc 1 90 3 is_stmt 1 view .LVU815
 2943              		.loc 1 90 25 is_stmt 0 view .LVU816
 2944 0528 807F0054 		lwz 3,84(31)
 2945 052c 38A00001 		li 5,1
 2946 0530 849F0004 		lwzu 4,4(31)
 2947 0534 48000001 		bl _ZN9GuiButton8SetLabelEP7GuiTexti
 2948              	.LVL285:
 2949              		.loc 1 91 3 is_stmt 1 view .LVU817
 2950              		.loc 1 91 29 is_stmt 0 view .LVU818
 2951 0538 809F0090 		lwz 4,144(31)
 2952 053c 807F0050 		lwz 3,80(31)
 2953 0540 48000001 		bl _ZN9GuiButton12SetImageOverEP8GuiImage
 2954              	.LVL286:
 2955              		.loc 1 92 3 is_stmt 1 view .LVU819
 2956              		.loc 1 92 28 is_stmt 0 view .LVU820
 2957 0544 807F0050 		lwz 3,80(31)
 2958 0548 7F85E378 		mr 5,28
 2959 054c 38800002 		li 4,2
 2960 0550 48000001 		bl _ZN10GuiElement11SetPositionEii
 2961              	.LVL287:
 2962              		.loc 1 93 3 is_stmt 1 view .LVU821
 2963              		.loc 1 93 27 is_stmt 0 view .LVU822
 2964 0554 809E0178 		lwz 4,376(30)
 2965 0558 807F0050 		lwz 3,80(31)
 2966 055c 48000001 		bl _ZN10GuiElement10SetTriggerEP10GuiTrigger
 2967              	.LVL288:
 2968              		.loc 1 94 3 is_stmt 1 view .LVU823
 2969              		.loc 1 94 30 is_stmt 0 view .LVU824
 2970 0560 809E0174 		lwz 4,372(30)
 2971 0564 807F0050 		lwz 3,80(31)
 2972 0568 48000001 		bl _ZN9GuiButton13SetSoundClickEP8GuiSound
 2973              	.LVL289:
 2974              	.LEHE45:
 2975              		.loc 1 75 2 is_stmt 1 discriminator 2 view .LVU825
 2976              		.loc 1 75 16 discriminator 1 view .LVU826
 2977 056c 7C19F840 		cmplw 0,25,31
 2978 0570 3B9C001E 		addi 28,28,30
 2979 0574 4082FEDC 		bne+ 0,.L270
 2980              	.LBE134:
 2981              	.LBE139:
 2982              	.LBE127:
 2983              		.loc 1 96 1 is_stmt 0 view .LVU827
 2984 0578 80010034 		lwz 0,52(1)
 2985 057c 83210014 		lwz 25,20(1)
 2986 0580 83410018 		lwz 26,24(1)
 2987 0584 7C0803A6 		mtlr 0
 2988              		.cfi_remember_state
 2989              		.cfi_restore 65
 2990 0588 8361001C 		lwz 27,28(1)
 2991 058c 83810020 		lwz 28,32(1)
 2992 0590 83A10024 		lwz 29,36(1)
 2993 0594 83C10028 		lwz 30,40(1)
 2994              	.LVL290:
 2995              		.loc 1 96 1 view .LVU828
 2996 0598 83E1002C 		lwz 31,44(1)
 2997 059c 38210030 		addi 1,1,48
 2998              		.cfi_restore 31
 2999              		.cfi_restore 30
 3000              		.cfi_restore 29
 3001              		.cfi_restore 28
 3002              		.cfi_restore 27
 3003              		.cfi_restore 26
 3004              		.cfi_restore 25
 3005              		.cfi_def_cfa_offset 0
 3006 05a0 4E800020 		blr
 3007              	.LVL291:
 3008              	.L341:
 3009              		.cfi_restore_state
 3010              		.loc 1 96 1 view .LVU829
 3011 05a4 39200001 		li 9,1
 3012 05a8 4BFFFAFC 		b .L269
 3013              	.L340:
 3014              	.LBB143:
 3015              	.LBB140:
 3016              	.LBB135:
 3017              	.LBB132:
 3018              		.loc 1 188 2 is_stmt 1 view .LVU830
 3019              		.loc 1 188 6 is_stmt 0 view .LVU831
 3020 05ac 39400000 		li 10,0
 3021              	.LVL292:
 3022              		.loc 1 190 2 is_stmt 1 view .LVU832
 3023              		.loc 1 190 18 is_stmt 0 discriminator 1 view .LVU833
 3024 05b0 7C0A4800 		cmpw 0,10,9
 3025 05b4 40A0FB00 		bge- 0,.L294
 3026              		.loc 1 193 2 is_stmt 1 view .LVU834
 3027 05b8 88FF0004 		lbz 7,4(31)
 3028 05bc 391F0036 		addi 8,31,54
 3029 05c0 2C070000 		cmpwi 0,7,0
 3030 05c4 4182FAAC 		beq+ 0,.L321
 3031 05c8 4BFFFAF0 		b .L268
 3032              	.LVL293:
 3033              	.L295:
 3034              		.loc 1 193 2 is_stmt 0 view .LVU835
 3035              	.LBE132:
 3036              	.LBE135:
 3037              	.LBE140:
 3038              		.loc 1 96 1 view .LVU836
 3039 05cc 7C7F1B78 		mr 31,3
 3040 05d0 48000014 		b .L272
 3041              	.L317:
 3042              	.LBB141:
 3043              	.LBB136:
 3044              		.loc 1 87 38 discriminator 4 view .LVU837
 3045 05d4 7C7F1B78 		mr 31,3
 3046 05d8 388000E0 		li 4,224
 3047 05dc 7FA3EB78 		mr 3,29
 3048 05e0 48000001 		bl _ZdlPvj
 3049              	.LVL294:
 3050              	.L272:
 3051              		.loc 1 87 38 discriminator 4 view .LVU838
 3052              	.LBE136:
 3053              	.LBE141:
 3054              		.loc 1 96 1 view .LVU839
 3055 05e4 7FC3F378 		mr 3,30
 3056 05e8 48000001 		bl _ZN10GuiElementD2Ev
 3057              	.LVL295:
 3058 05ec 7FE3FB78 		mr 3,31
 3059              	.LEHB46:
 3060 05f0 48000001 		bl _Unwind_Resume
 3061              	.LVL296:
 3062              	.LEHE46:
 3063              	.L316:
 3064              	.LBB142:
 3065              	.LBB137:
 3066              		.loc 1 85 44 discriminator 4 view .LVU840
 3067 05f4 7C7F1B78 		mr 31,3
 3068 05f8 38800098 		li 4,152
 3069 05fc 7FA3EB78 		mr 3,29
 3070 0600 48000001 		bl _ZdlPvj
 3071              	.LVL297:
 3072 0604 4BFFFFE0 		b .L272
 3073              	.L315:
 3074              	.L336:
 3075              		.loc 1 81 71 discriminator 4 view .LVU841
 3076 0608 7C7F1B78 		mr 31,3
 3077 060c 388000B0 		li 4,176
 3078 0610 7FA3EB78 		mr 3,29
 3079 0614 48000001 		bl _ZdlPvj
 3080              	.LVL298:
 3081 0618 4BFFFFCC 		b .L272
 3082              	.L314:
 3083 061c 4BFFFFEC 		b .L336
 3084              	.LVL299:
 3085              	.L313:
 3086              	.L338:
 3087              		.loc 1 81 71 discriminator 4 view .LVU842
 3088              	.LBE137:
 3089              		.loc 1 65 82 discriminator 8 view .LVU843
 3090 0620 7C691B78 		mr 9,3
 3091 0624 388000E0 		li 4,224
 3092 0628 7FE3FB78 		mr 3,31
 3093 062c 7D3F4B78 		mr 31,9
 3094 0630 48000001 		bl _ZdlPvj
 3095              	.LVL300:
 3096 0634 4BFFFFB0 		b .L272
 3097              	.L312:
 3098 0638 4BFFFFE8 		b .L338
 3099              	.LVL301:
 3100              	.L311:
 3101              	.L337:
 3102              		.loc 1 53 43 discriminator 4 view .LVU844
 3103 063c 7C691B78 		mr 9,3
 3104 0640 38800098 		li 4,152
 3105 0644 7FE3FB78 		mr 3,31
 3106 0648 7D3F4B78 		mr 31,9
 3107 064c 48000001 		bl _ZdlPvj
 3108              	.LVL302:
 3109 0650 4BFFFF94 		b .L272
 3110              	.L310:
 3111              	.L335:
 3112              		.loc 1 52 59 discriminator 4 view .LVU845
 3113 0654 7C691B78 		mr 9,3
 3114 0658 3880000C 		li 4,12
 3115 065c 7FE3FB78 		mr 3,31
 3116 0660 7D3F4B78 		mr 31,9
 3117 0664 48000001 		bl _ZdlPvj
 3118              	.LVL303:
 3119 0668 4BFFFF7C 		b .L272
 3120              	.L309:
 3121 066c 4BFFFFD0 		b .L337
 3122              	.L308:
 3123 0670 4BFFFFE4 		b .L335
 3124              	.L307:
 3125 0674 4BFFFFC8 		b .L337
 3126              	.L306:
 3127 0678 4BFFFFDC 		b .L335
 3128              	.L305:
 3129 067c 4BFFFFC0 		b .L337
 3130              	.L304:
 3131 0680 4BFFFFD4 		b .L335
 3132              	.L303:
 3133 0684 4BFFFFB8 		b .L337
 3134              	.L302:
 3135 0688 4BFFFFCC 		b .L335
 3136              	.L301:
 3137 068c 4BFFFFC8 		b .L335
 3138              	.L300:
 3139 0690 4BFFFFAC 		b .L337
 3140              	.L299:
 3141 0694 4BFFFFC0 		b .L335
 3142              	.L298:
 3143              	.L339:
 3144              		.loc 1 31 81 discriminator 4 view .LVU846
 3145 0698 7C691B78 		mr 9,3
 3146 069c 38800018 		li 4,24
 3147 06a0 7FE3FB78 		mr 3,31
 3148 06a4 7D3F4B78 		mr 31,9
 3149 06a8 48000001 		bl _ZdlPvj
 3150              	.LVL304:
 3151 06ac 4BFFFF38 		b .L272
 3152              	.L297:
 3153 06b0 4BFFFFE8 		b .L339
 3154              	.L296:
 3155              		.loc 1 27 14 discriminator 4 view .LVU847
 3156 06b4 7C691B78 		mr 9,3
 3157 06b8 3880016C 		li 4,364
 3158 06bc 7FE3FB78 		mr 3,31
 3159 06c0 7D3F4B78 		mr 31,9
 3160 06c4 48000001 		bl _ZdlPvj
 3161              	.LVL305:
 3162 06c8 4BFFFF1C 		b .L272
 3163              	.LBE142:
 3164              	.LBE143:
 3165              		.cfi_endproc
 3166              	.LFE2333:
 3167              		.globl __gxx_personality_v0
 3168              		.section	.gcc_except_table._ZN16GuiOptionBrowserC2EiiP11_optionlist,"a",@progbits
 3169              	.LLSDA2333:
 3170 0000 FF       		.byte	0xff
 3171 0001 FF       		.byte	0xff
 3172 0002 01       		.byte	0x1
 3173 0003 9802     		.uleb128 .LLSDACSE2333-.LLSDACSB2333
 3174              	.LLSDACSB2333:
 3175 0005 38       		.uleb128 .LEHB0-.LFB2333
 3176 0006 04       		.uleb128 .LEHE0-.LEHB0
 3177 0007 00       		.uleb128 0
 3178 0008 00       		.uleb128 0
 3179 0009 D401     		.uleb128 .LEHB1-.LFB2333
 3180 000b 04       		.uleb128 .LEHE1-.LEHB1
 3181 000c CC0B     		.uleb128 .L295-.LFB2333
 3182 000e 00       		.uleb128 0
 3183 000f DC01     		.uleb128 .LEHB2-.LFB2333
 3184 0011 04       		.uleb128 .LEHE2-.LEHB2
 3185 0012 B40D     		.uleb128 .L296-.LFB2333
 3186 0014 00       		.uleb128 0
 3187 0015 F801     		.uleb128 .LEHB3-.LFB2333
 3188 0017 0C       		.uleb128 .LEHE3-.LEHB3
 3189 0018 CC0B     		.uleb128 .L295-.LFB2333
 3190 001a 00       		.uleb128 0
 3191 001b 9802     		.uleb128 .LEHB4-.LFB2333
 3192 001d 04       		.uleb128 .LEHE4-.LEHB4
 3193 001e B00D     		.uleb128 .L297-.LFB2333
 3194 0020 00       		.uleb128 0
 3195 0021 A402     		.uleb128 .LEHB5-.LFB2333
 3196 0023 04       		.uleb128 .LEHE5-.LEHB5
 3197 0024 CC0B     		.uleb128 .L295-.LFB2333
 3198 0026 00       		.uleb128 0
 3199 0027 BC02     		.uleb128 .LEHB6-.LFB2333
 3200 0029 04       		.uleb128 .LEHE6-.LEHB6
 3201 002a 980D     		.uleb128 .L298-.LFB2333
 3202 002c 00       		.uleb128 0
 3203 002d C802     		.uleb128 .LEHB7-.LFB2333
 3204 002f 04       		.uleb128 .LEHE7-.LEHB7
 3205 0030 CC0B     		.uleb128 .L295-.LFB2333
 3206 0032 00       		.uleb128 0
 3207 0033 D802     		.uleb128 .LEHB8-.LFB2333
 3208 0035 04       		.uleb128 .LEHE8-.LEHB8
 3209 0036 940D     		.uleb128 .L299-.LFB2333
 3210 0038 00       		.uleb128 0
 3211 0039 E402     		.uleb128 .LEHB9-.LFB2333
 3212 003b 04       		.uleb128 .LEHE9-.LEHB9
 3213 003c CC0B     		.uleb128 .L295-.LFB2333
 3214 003e 00       		.uleb128 0
 3215 003f F002     		.uleb128 .LEHB10-.LFB2333
 3216 0041 04       		.uleb128 .LEHE10-.LEHB10
 3217 0042 900D     		.uleb128 .L300-.LFB2333
 3218 0044 00       		.uleb128 0
 3219 0045 8003     		.uleb128 .LEHB11-.LFB2333
 3220 0047 28       		.uleb128 .LEHE11-.LEHB11
 3221 0048 CC0B     		.uleb128 .L295-.LFB2333
 3222 004a 00       		.uleb128 0
 3223 004b B403     		.uleb128 .LEHB12-.LFB2333
 3224 004d 04       		.uleb128 .LEHE12-.LEHB12
 3225 004e 8C0D     		.uleb128 .L301-.LFB2333
 3226 0050 00       		.uleb128 0
 3227 0051 C003     		.uleb128 .LEHB13-.LFB2333
 3228 0053 04       		.uleb128 .LEHE13-.LEHB13
 3229 0054 CC0B     		.uleb128 .L295-.LFB2333
 3230 0056 00       		.uleb128 0
 3231 0057 D003     		.uleb128 .LEHB14-.LFB2333
 3232 0059 04       		.uleb128 .LEHE14-.LEHB14
 3233 005a 880D     		.uleb128 .L302-.LFB2333
 3234 005c 00       		.uleb128 0
 3235 005d DC03     		.uleb128 .LEHB15-.LFB2333
 3236 005f 04       		.uleb128 .LEHE15-.LEHB15
 3237 0060 CC0B     		.uleb128 .L295-.LFB2333
 3238 0062 00       		.uleb128 0
 3239 0063 E803     		.uleb128 .LEHB16-.LFB2333
 3240 0065 04       		.uleb128 .LEHE16-.LEHB16
 3241 0066 840D     		.uleb128 .L303-.LFB2333
 3242 0068 00       		.uleb128 0
 3243 0069 F803     		.uleb128 .LEHB17-.LFB2333
 3244 006b 38       		.uleb128 .LEHE17-.LEHB17
 3245 006c CC0B     		.uleb128 .L295-.LFB2333
 3246 006e 00       		.uleb128 0
 3247 006f BC04     		.uleb128 .LEHB18-.LFB2333
 3248 0071 04       		.uleb128 .LEHE18-.LEHB18
 3249 0072 800D     		.uleb128 .L304-.LFB2333
 3250 0074 00       		.uleb128 0
 3251 0075 C804     		.uleb128 .LEHB19-.LFB2333
 3252 0077 04       		.uleb128 .LEHE19-.LEHB19
 3253 0078 CC0B     		.uleb128 .L295-.LFB2333
 3254 007a 00       		.uleb128 0
 3255 007b D404     		.uleb128 .LEHB20-.LFB2333
 3256 007d 04       		.uleb128 .LEHE20-.LEHB20
 3257 007e FC0C     		.uleb128 .L305-.LFB2333
 3258 0080 00       		.uleb128 0
 3259 0081 E004     		.uleb128 .LEHB21-.LFB2333
 3260 0083 04       		.uleb128 .LEHE21-.LEHB21
 3261 0084 CC0B     		.uleb128 .L295-.LFB2333
 3262 0086 00       		.uleb128 0
 3263 0087 F004     		.uleb128 .LEHB22-.LFB2333
 3264 0089 04       		.uleb128 .LEHE22-.LEHB22
 3265 008a F80C     		.uleb128 .L306-.LFB2333
 3266 008c 00       		.uleb128 0
 3267 008d FC04     		.uleb128 .LEHB23-.LFB2333
 3268 008f 04       		.uleb128 .LEHE23-.LEHB23
 3269 0090 CC0B     		.uleb128 .L295-.LFB2333
 3270 0092 00       		.uleb128 0
 3271 0093 8805     		.uleb128 .LEHB24-.LFB2333
 3272 0095 04       		.uleb128 .LEHE24-.LEHB24
 3273 0096 F40C     		.uleb128 .L307-.LFB2333
 3274 0098 00       		.uleb128 0
 3275 0099 9405     		.uleb128 .LEHB25-.LFB2333
 3276 009b 04       		.uleb128 .LEHE25-.LEHB25
 3277 009c CC0B     		.uleb128 .L295-.LFB2333
 3278 009e 00       		.uleb128 0
 3279 009f A405     		.uleb128 .LEHB26-.LFB2333
 3280 00a1 04       		.uleb128 .LEHE26-.LEHB26
 3281 00a2 F00C     		.uleb128 .L308-.LFB2333
 3282 00a4 00       		.uleb128 0
 3283 00a5 B005     		.uleb128 .LEHB27-.LFB2333
 3284 00a7 04       		.uleb128 .LEHE27-.LEHB27
 3285 00a8 CC0B     		.uleb128 .L295-.LFB2333
 3286 00aa 00       		.uleb128 0
 3287 00ab BC05     		.uleb128 .LEHB28-.LFB2333
 3288 00ad 04       		.uleb128 .LEHE28-.LEHB28
 3289 00ae EC0C     		.uleb128 .L309-.LFB2333
 3290 00b0 00       		.uleb128 0
 3291 00b1 C805     		.uleb128 .LEHB29-.LFB2333
 3292 00b3 04       		.uleb128 .LEHE29-.LEHB29
 3293 00b4 CC0B     		.uleb128 .L295-.LFB2333
 3294 00b6 00       		.uleb128 0
 3295 00b7 D805     		.uleb128 .LEHB30-.LFB2333
 3296 00b9 04       		.uleb128 .LEHE30-.LEHB30
 3297 00ba D40C     		.uleb128 .L310-.LFB2333
 3298 00bc 00       		.uleb128 0
 3299 00bd E405     		.uleb128 .LEHB31-.LFB2333
 3300 00bf 04       		.uleb128 .LEHE31-.LEHB31
 3301 00c0 CC0B     		.uleb128 .L295-.LFB2333
 3302 00c2 00       		.uleb128 0
 3303 00c3 F005     		.uleb128 .LEHB32-.LFB2333
 3304 00c5 04       		.uleb128 .LEHE32-.LEHB32
 3305 00c6 BC0C     		.uleb128 .L311-.LFB2333
 3306 00c8 00       		.uleb128 0
 3307 00c9 FC05     		.uleb128 .LEHB33-.LFB2333
 3308 00cb 04       		.uleb128 .LEHE33-.LEHB33
 3309 00cc CC0B     		.uleb128 .L295-.LFB2333
 3310 00ce 00       		.uleb128 0
 3311 00cf 8806     		.uleb128 .LEHB34-.LFB2333
 3312 00d1 20       		.uleb128 .LEHE34-.LEHB34
 3313 00d2 B80C     		.uleb128 .L312-.LFB2333
 3314 00d4 00       		.uleb128 0
 3315 00d5 B406     		.uleb128 .LEHB35-.LFB2333
 3316 00d7 70       		.uleb128 .LEHE35-.LEHB35
 3317 00d8 CC0B     		.uleb128 .L295-.LFB2333
 3318 00da 00       		.uleb128 0
 3319 00db AC07     		.uleb128 .LEHB36-.LFB2333
 3320 00dd 20       		.uleb128 .LEHE36-.LEHB36
 3321 00de A00C     		.uleb128 .L313-.LFB2333
 3322 00e0 00       		.uleb128 0
 3323 00e1 D807     		.uleb128 .LEHB37-.LFB2333
 3324 00e3 8001     		.uleb128 .LEHE37-.LEHB37
 3325 00e5 CC0B     		.uleb128 .L295-.LFB2333
 3326 00e7 00       		.uleb128 0
 3327 00e8 EC08     		.uleb128 .LEHB38-.LFB2333
 3328 00ea 04       		.uleb128 .LEHE38-.LEHB38
 3329 00eb 9C0C     		.uleb128 .L314-.LFB2333
 3330 00ed 00       		.uleb128 0
 3331 00ee 8009     		.uleb128 .LEHB39-.LFB2333
 3332 00f0 1C       		.uleb128 .LEHE39-.LEHB39
 3333 00f1 CC0B     		.uleb128 .L295-.LFB2333
 3334 00f3 00       		.uleb128 0
 3335 00f4 B009     		.uleb128 .LEHB40-.LFB2333
 3336 00f6 04       		.uleb128 .LEHE40-.LEHB40
 3337 00f7 880C     		.uleb128 .L315-.LFB2333
 3338 00f9 00       		.uleb128 0
 3339 00fa C409     		.uleb128 .LEHB41-.LFB2333
 3340 00fc 1C       		.uleb128 .LEHE41-.LEHB41
 3341 00fd CC0B     		.uleb128 .L295-.LFB2333
 3342 00ff 00       		.uleb128 0
 3343 0100 E809     		.uleb128 .LEHB42-.LFB2333
 3344 0102 04       		.uleb128 .LEHE42-.LEHB42
 3345 0103 F40B     		.uleb128 .L316-.LFB2333
 3346 0105 00       		.uleb128 0
 3347 0106 F409     		.uleb128 .LEHB43-.LFB2333
 3348 0108 04       		.uleb128 .LEHE43-.LEHB43
 3349 0109 CC0B     		.uleb128 .L295-.LFB2333
 3350 010b 00       		.uleb128 0
 3351 010c 840A     		.uleb128 .LEHB44-.LFB2333
 3352 010e 04       		.uleb128 .LEHE44-.LEHB44
 3353 010f D40B     		.uleb128 .L317-.LFB2333
 3354 0111 00       		.uleb128 0
 3355 0112 940A     		.uleb128 .LEHB45-.LFB2333
 3356 0114 58       		.uleb128 .LEHE45-.LEHB45
 3357 0115 CC0B     		.uleb128 .L295-.LFB2333
 3358 0117 00       		.uleb128 0
 3359 0118 F00B     		.uleb128 .LEHB46-.LFB2333
 3360 011a 04       		.uleb128 .LEHE46-.LEHB46
 3361 011b 00       		.uleb128 0
 3362 011c 00       		.uleb128 0
 3363              	.LLSDACSE2333:
 3364              		.section	.text._ZN16GuiOptionBrowserC2EiiP11_optionlist
 3365              		.size	_ZN16GuiOptionBrowserC2EiiP11_optionlist, .-_ZN16GuiOptionBrowserC2EiiP11_optionlist
 3366              		.globl _ZN16GuiOptionBrowserC1EiiP11_optionlist
 3367              		.set	_ZN16GuiOptionBrowserC1EiiP11_optionlist,_ZN16GuiOptionBrowserC2EiiP11_optionlist
 3368              		.weak	_ZTS16GuiOptionBrowser
 3369              		.section	.rodata._ZTS16GuiOptionBrowser,"aG",@progbits,_ZTS16GuiOptionBrowser,comdat
 3370              		.align 2
 3371              		.type	_ZTS16GuiOptionBrowser, @object
 3372              		.size	_ZTS16GuiOptionBrowser, 19
 3373              	_ZTS16GuiOptionBrowser:
 3374 0000 31364775 		.string	"16GuiOptionBrowser"
 3374      694F7074 
 3374      696F6E42 
 3374      726F7773 
 3374      657200
 3375              		.weak	_ZTI16GuiOptionBrowser
 3376              		.section	.rodata._ZTI16GuiOptionBrowser,"aG",@progbits,_ZTI16GuiOptionBrowser,comdat
 3377              		.align 2
 3378              		.type	_ZTI16GuiOptionBrowser, @object
 3379              		.size	_ZTI16GuiOptionBrowser, 12
 3380              	_ZTI16GuiOptionBrowser:
 3381 0000 00000000 		.long	_ZTVN10__cxxabiv120__si_class_type_infoE+8
 3382 0004 00000000 		.long	_ZTS16GuiOptionBrowser
 3383 0008 00000000 		.long	_ZTI10GuiElement
 3384              		.weak	_ZTV16GuiOptionBrowser
 3385              		.section	.rodata._ZTV16GuiOptionBrowser,"aG",@progbits,_ZTV16GuiOptionBrowser,comdat
 3386              		.align 2
 3387              		.type	_ZTV16GuiOptionBrowser, @object
 3388              		.size	_ZTV16GuiOptionBrowser, 48
 3389              	_ZTV16GuiOptionBrowser:
 3390 0000 00000000 		.long	0
 3391 0004 00000000 		.long	_ZTI16GuiOptionBrowser
 3392 0008 00000000 		.long	_ZN16GuiOptionBrowserD1Ev
 3393 000c 00000000 		.long	_ZN16GuiOptionBrowserD0Ev
 3394 0010 00000000 		.long	_ZN10GuiElement10SetVisibleEb
 3395 0014 00000000 		.long	_ZN16GuiOptionBrowser8SetFocusEi
 3396 0018 00000000 		.long	_ZN10GuiElement8SetStateEii
 3397 001c 00000000 		.long	_ZN16GuiOptionBrowser10ResetStateEv
 3398 0020 00000000 		.long	_ZN10GuiElement11GetSelectedEv
 3399 0024 00000000 		.long	_ZN10GuiElement12SetAlignmentEii
 3400 0028 00000000 		.long	_ZN16GuiOptionBrowser6UpdateEP10GuiTrigger
 3401 002c 00000000 		.long	_ZN16GuiOptionBrowser4DrawEv
 3402              		.section	".text"
 3403              	.Letext0:
 3404              		.file 2 "C:/devkitPro/devkitPPC/powerpc-eabi/include/machine/_default_types.h"
 3405              		.file 3 "C:/devkitPro/devkitPPC/powerpc-eabi/include/sys/_stdint.h"
 3406              		.file 4 "C:/devkitPro/libogc/include/gctypes.h"
 3407              		.file 5 "C:/devkitPro/libogc/include/ogc/gx.h"
 3408              		.file 6 "C:/devkitPro/devkitPPC/lib/gcc/powerpc-eabi/13.1.0/include/stddef.h"
 3409              		.file 7 "C:/devkitPro/devkitPPC/powerpc-eabi/include/stdlib.h"
 3410              		.file 8 "C:/devkitPro/devkitPPC/powerpc-eabi/include/c++/13.1.0/cstdlib"
 3411              		.file 9 "C:/devkitPro/devkitPPC/powerpc-eabi/include/c++/13.1.0/bits/std_abs.h"
 3412              		.file 10 "C:/devkitPro/devkitPPC/powerpc-eabi/include/c++/13.1.0/powerpc-eabi/bits/c++config.h"
 3413              		.file 11 "C:/devkitPro/devkitPPC/powerpc-eabi/include/c++/13.1.0/type_traits"
 3414              		.file 12 "C:/devkitPro/devkitPPC/powerpc-eabi/include/c++/13.1.0/debug/debug.h"
 3415              		.file 13 "C:/devkitPro/devkitPPC/powerpc-eabi/include/c++/13.1.0/cstddef"
 3416              		.file 14 "C:/devkitPro/devkitPPC/powerpc-eabi/include/c++/13.1.0/bits/exception_ptr.h"
 3417              		.file 15 "C:/devkitPro/devkitPPC/powerpc-eabi/include/c++/13.1.0/cmath"
 3418              		.file 16 "C:/devkitPro/devkitPPC/powerpc-eabi/include/c++/13.1.0/bits/predefined_ops.h"
 3419              		.file 17 "C:/devkitPro/devkitPPC/powerpc-eabi/include/c++/13.1.0/stdlib.h"
 3420              		.file 18 "C:/devkitPro/devkitPPC/powerpc-eabi/include/math.h"
 3421              		.file 19 "C:/devkitPro/devkitPPC/powerpc-eabi/include/c++/13.1.0/math.h"
 3422              		.file 20 "C:/devkitPro/libogc/include/wiiuse/wiiuse.h"
 3423              		.file 21 "C:/devkitPro/libogc/include/wiiuse/wpad.h"
 3424              		.file 22 "F:/GameModding/MarioKartWii/Mods/Distro/RetroRewind6/dev/Launcher/RRLauncher/launcher/bu
 3425              		.file 23 "F:/GameModding/MarioKartWii/Mods/Distro/RetroRewind6/dev/Launcher/RRLauncher/launcher/bu
 3426              		.file 24 "F:/GameModding/MarioKartWii/Mods/Distro/RetroRewind6/dev/Launcher/RRLauncher/launcher/bu
 3427              		.file 25 "F:/GameModding/MarioKartWii/Mods/Distro/RetroRewind6/dev/Launcher/RRLauncher/launcher/bu
 3428              		.file 26 "F:/GameModding/MarioKartWii/Mods/Distro/RetroRewind6/dev/Launcher/RRLauncher/launcher/bu
 3429              		.file 27 "F:/GameModding/MarioKartWii/Mods/Distro/RetroRewind6/dev/Launcher/RRLauncher/launcher/bu
 3430              		.file 28 "F:/GameModding/MarioKartWii/Mods/Distro/RetroRewind6/dev/Launcher/RRLauncher/launcher/bu
 3431              		.file 29 "F:/GameModding/MarioKartWii/Mods/Distro/RetroRewind6/dev/Launcher/RRLauncher/launcher/bu
 3432              		.file 30 "F:/GameModding/MarioKartWii/Mods/Distro/RetroRewind6/dev/Launcher/RRLauncher/launcher/bu
 3433              		.file 31 "F:/GameModding/MarioKartWii/Mods/Distro/RetroRewind6/dev/Launcher/RRLauncher/launcher/bu
 3434              		.file 32 "F:/GameModding/MarioKartWii/Mods/Distro/RetroRewind6/dev/Launcher/RRLauncher/launcher/bu
 3435              		.file 33 "F:/GameModding/MarioKartWii/Mods/Distro/RetroRewind6/dev/Launcher/RRLauncher/launcher/bu
 3436              		.file 34 "F:/GameModding/MarioKartWii/Mods/Distro/RetroRewind6/dev/Launcher/RRLauncher/launcher/bu
 3437              		.file 35 "F:/GameModding/MarioKartWii/Mods/Distro/RetroRewind6/dev/Launcher/RRLauncher/launcher/bu
 3438              		.file 36 "F:/GameModding/MarioKartWii/Mods/Distro/RetroRewind6/dev/Launcher/RRLauncher/launcher/bu
 3439              		.file 37 "F:/GameModding/MarioKartWii/Mods/Distro/RetroRewind6/dev/Launcher/RRLauncher/launcher/bu
 3440              		.file 38 "F:/GameModding/MarioKartWii/Mods/Distro/RetroRewind6/dev/Launcher/RRLauncher/launcher/bu
 3441              		.file 39 "F:/GameModding/MarioKartWii/Mods/Distro/RetroRewind6/dev/Launcher/RRLauncher/launcher/bu
 3442              		.file 40 "F:/GameModding/MarioKartWii/Mods/Distro/RetroRewind6/dev/Launcher/RRLauncher/launcher/bu
 3443              		.file 41 "F:/GameModding/MarioKartWii/Mods/Distro/RetroRewind6/dev/Launcher/RRLauncher/launcher/bu
 3444              		.file 42 "F:/GameModding/MarioKartWii/Mods/Distro/RetroRewind6/dev/Launcher/RRLauncher/launcher/bu
 3445              		.file 43 "F:/GameModding/MarioKartWii/Mods/Distro/RetroRewind6/dev/Launcher/RRLauncher/launcher/bu
 3446              		.file 44 "F:/GameModding/MarioKartWii/Mods/Distro/RetroRewind6/dev/Launcher/RRLauncher/launcher/bu
 3447              		.file 45 "F:/GameModding/MarioKartWii/Mods/Distro/RetroRewind6/dev/Launcher/RRLauncher/launcher/bu
 3448              		.file 46 "F:/GameModding/MarioKartWii/Mods/Distro/RetroRewind6/dev/Launcher/RRLauncher/launcher/bu
 3449              		.file 47 "F:/GameModding/MarioKartWii/Mods/Distro/RetroRewind6/dev/Launcher/RRLauncher/launcher/bu
 3450              		.file 48 "F:/GameModding/MarioKartWii/Mods/Distro/RetroRewind6/dev/Launcher/RRLauncher/launcher/bu
 3451              		.file 49 "F:/GameModding/MarioKartWii/Mods/Distro/RetroRewind6/dev/Launcher/RRLauncher/launcher/bu
 3452              		.file 50 "F:/GameModding/MarioKartWii/Mods/Distro/RetroRewind6/dev/Launcher/RRLauncher/launcher/bu
 3453              		.file 51 "F:/GameModding/MarioKartWii/Mods/Distro/RetroRewind6/dev/Launcher/RRLauncher/launcher/bu
 3454              		.file 52 "F:/GameModding/MarioKartWii/Mods/Distro/RetroRewind6/dev/Launcher/RRLauncher/launcher/bu
 3455              		.file 53 "F:/GameModding/MarioKartWii/Mods/Distro/RetroRewind6/dev/Launcher/RRLauncher/launcher/bu
 3456              		.file 54 "F:/GameModding/MarioKartWii/Mods/Distro/RetroRewind6/dev/Launcher/RRLauncher/launcher/bu
 3457              		.file 55 "F:/GameModding/MarioKartWii/Mods/Distro/RetroRewind6/dev/Launcher/RRLauncher/launcher/bu
 3458              		.file 56 "F:/GameModding/MarioKartWii/Mods/Distro/RetroRewind6/dev/Launcher/RRLauncher/launcher/bu
 3459              		.file 57 "F:/GameModding/MarioKartWii/Mods/Distro/RetroRewind6/dev/Launcher/RRLauncher/launcher/li
 3460              		.file 58 "C:/devkitPro/devkitPPC/powerpc-eabi/include/c++/13.1.0/new"
 3461              		.file 59 "C:/devkitPro/devkitPPC/powerpc-eabi/include/c++/13.1.0/bits/memory_resource.h"
 3462              		.file 60 "F:/GameModding/MarioKartWii/Mods/Distro/RetroRewind6/dev/Launcher/RRLauncher/launcher/li