   1              		.file	"gui_trigger.cpp"
   2              		.machine ppc
   3              		.section	".text"
   4              	.Ltext0:
   5              		.file 1 "F:/GameModding/MarioKartWii/Mods/Distro/RetroRewind6/dev/Launcher/RRLauncher/launcher/lib
   6              		.section	.text._ZN10GuiTriggerC2Ev,"ax",@progbits
   7              		.align 2
   8              		.globl _ZN10GuiTriggerC2Ev
   9              		.type	_ZN10GuiTriggerC2Ev, @function
  10              	_ZN10GuiTriggerC2Ev:
  11              	.LVL0:
  12              	.LFB2333:
  13              		.loc 1 18 1 view -0
  14              		.cfi_startproc
  15              	.LBB6:
  16              		.loc 1 20 2 view .LVU1
  17              	.LBE6:
  18              		.loc 1 18 1 is_stmt 0 view .LVU2
  19 0000 9421FFF0 		stwu 1,-16(1)
  20              		.cfi_def_cfa_offset 16
  21 0004 7C0802A6 		mflr 0
  22              	.LBB7:
  23              		.loc 1 20 7 view .LVU3
  24 0008 3920FFFF 		li 9,-1
  25              		.loc 1 21 9 view .LVU4
  26 000c 3943000C 		addi 10,3,12
  27              	.LBE7:
  28              		.loc 1 18 1 view .LVU5
  29 0010 93E1000C 		stw 31,12(1)
  30              	.LBB8:
  31              		.loc 1 21 8 view .LVU6
  32 0014 38A00154 		li 5,340
  33              	.LBE8:
  34              		.loc 1 18 1 view .LVU7
  35 0018 90010014 		stw 0,20(1)
  36              		.cfi_offset 65, 4
  37              		.cfi_offset 31, -4
  38              		.loc 1 18 1 view .LVU8
  39 001c 7C7F1B78 		mr 31,3
  40              	.LBB9:
  41              		.loc 1 20 7 view .LVU9
  42 0020 91230004 		stw 9,4(3)
  43              		.loc 1 21 2 is_stmt 1 view .LVU10
  44              		.loc 1 21 8 is_stmt 0 view .LVU11
  45 0024 38800000 		li 4,0
  46 0028 7D435378 		mr 3,10
  47              	.LVL1:
  48              		.loc 1 21 8 view .LVU12
  49 002c 48000001 		bl memset
  50              	.LVL2:
  51              		.loc 1 22 2 is_stmt 1 view .LVU13
  52              		.loc 1 22 8 is_stmt 0 view .LVU14
  53 0030 39200000 		li 9,0
  54 0034 913F0160 		stw 9,352(31)
  55 0038 913F0164 		stw 9,356(31)
  56 003c 913F0168 		stw 9,360(31)
  57              		.loc 1 23 2 is_stmt 1 view .LVU15
  58              		.loc 1 23 7 is_stmt 0 view .LVU16
  59 0040 907F0008 		stw 3,8(31)
  60              	.LBE9:
  61              		.loc 1 24 1 view .LVU17
  62 0044 80010014 		lwz 0,20(1)
  63 0048 83E1000C 		lwz 31,12(1)
  64              	.LVL3:
  65              		.loc 1 24 1 view .LVU18
  66 004c 38210010 		addi 1,1,16
  67              		.cfi_restore 31
  68              		.cfi_def_cfa_offset 0
  69 0050 7C0803A6 		mtlr 0
  70              		.cfi_restore 65
  71 0054 4E800020 		blr
  72              		.cfi_endproc
  73              	.LFE2333:
  74              		.size	_ZN10GuiTriggerC2Ev, .-_ZN10GuiTriggerC2Ev
  75              		.globl _ZN10GuiTriggerC1Ev
  76              		.set	_ZN10GuiTriggerC1Ev,_ZN10GuiTriggerC2Ev
  77              		.section	.text._ZN10GuiTriggerD2Ev,"ax",@progbits
  78              		.align 2
  79              		.globl _ZN10GuiTriggerD2Ev
  80              		.type	_ZN10GuiTriggerD2Ev, @function
  81              	_ZN10GuiTriggerD2Ev:
  82              	.LVL4:
  83              	.LFB2336:
  84              		.loc 1 29 1 is_stmt 1 view -0
  85              		.cfi_startproc
  86              		.loc 1 31 1 is_stmt 0 view .LVU20
  87 0000 4E800020 		blr
  88              		.cfi_endproc
  89              	.LFE2336:
  90              		.size	_ZN10GuiTriggerD2Ev, .-_ZN10GuiTriggerD2Ev
  91              		.globl _ZN10GuiTriggerD1Ev
  92              		.set	_ZN10GuiTriggerD1Ev,_ZN10GuiTriggerD2Ev
  93              		.section	.text._ZN10GuiTrigger16SetSimpleTriggerEijt,"ax",@progbits
  94              		.align 2
  95              		.globl _ZN10GuiTrigger16SetSimpleTriggerEijt
  96              		.type	_ZN10GuiTrigger16SetSimpleTriggerEijt, @function
  97              	_ZN10GuiTrigger16SetSimpleTriggerEijt:
  98              	.LVL5:
  99              	.LFB2338:
 100              		.loc 1 39 1 is_stmt 1 view -0
 101              		.cfi_startproc
 102              		.loc 1 40 2 view .LVU22
 103              		.loc 1 40 7 is_stmt 0 view .LVU23
 104 0000 39200000 		li 9,0
 105              		.loc 1 41 7 view .LVU24
 106 0004 90830004 		stw 4,4(3)
 107              		.loc 1 42 18 view .LVU25
 108 0008 90A30020 		stw 5,32(3)
 109              		.loc 1 43 13 view .LVU26
 110 000c B0C30160 		sth 6,352(3)
 111              		.loc 1 40 7 view .LVU27
 112 0010 99230000 		stb 9,0(3)
 113              		.loc 1 41 2 is_stmt 1 view .LVU28
 114              		.loc 1 42 2 view .LVU29
 115              		.loc 1 43 2 view .LVU30
 116              		.loc 1 44 1 is_stmt 0 view .LVU31
 117 0014 4E800020 		blr
 118              		.cfi_endproc
 119              	.LFE2338:
 120              		.size	_ZN10GuiTrigger16SetSimpleTriggerEijt, .-_ZN10GuiTrigger16SetSimpleTriggerEijt
 121              		.section	.text._ZN10GuiTrigger14SetHeldTriggerEijt,"ax",@progbits
 122              		.align 2
 123              		.globl _ZN10GuiTrigger14SetHeldTriggerEijt
 124              		.type	_ZN10GuiTrigger14SetHeldTriggerEijt, @function
 125              	_ZN10GuiTrigger14SetHeldTriggerEijt:
 126              	.LVL6:
 127              	.LFB2339:
 128              		.loc 1 52 1 is_stmt 1 view -0
 129              		.cfi_startproc
 130              		.loc 1 53 2 view .LVU33
 131              		.loc 1 53 7 is_stmt 0 view .LVU34
 132 0000 39200001 		li 9,1
 133              		.loc 1 54 7 view .LVU35
 134 0004 90830004 		stw 4,4(3)
 135              		.loc 1 55 18 view .LVU36
 136 0008 90A30018 		stw 5,24(3)
 137              		.loc 1 56 13 view .LVU37
 138 000c B0C30164 		sth 6,356(3)
 139              		.loc 1 53 7 view .LVU38
 140 0010 99230000 		stb 9,0(3)
 141              		.loc 1 54 2 is_stmt 1 view .LVU39
 142              		.loc 1 55 2 view .LVU40
 143              		.loc 1 56 2 view .LVU41
 144              		.loc 1 57 1 is_stmt 0 view .LVU42
 145 0014 4E800020 		blr
 146              		.cfi_endproc
 147              	.LFE2339:
 148              		.size	_ZN10GuiTrigger14SetHeldTriggerEijt, .-_ZN10GuiTrigger14SetHeldTriggerEijt
 149              		.section	.text._ZN10GuiTrigger20SetButtonOnlyTriggerEijt,"ax",@progbits
 150              		.align 2
 151              		.globl _ZN10GuiTrigger20SetButtonOnlyTriggerEijt
 152              		.type	_ZN10GuiTrigger20SetButtonOnlyTriggerEijt, @function
 153              	_ZN10GuiTrigger20SetButtonOnlyTriggerEijt:
 154              	.LVL7:
 155              	.LFB2340:
 156              		.loc 1 64 1 is_stmt 1 view -0
 157              		.cfi_startproc
 158              		.loc 1 65 2 view .LVU44
 159              		.loc 1 65 7 is_stmt 0 view .LVU45
 160 0000 39200002 		li 9,2
 161              		.loc 1 66 7 view .LVU46
 162 0004 90830004 		stw 4,4(3)
 163              		.loc 1 67 18 view .LVU47
 164 0008 90A30020 		stw 5,32(3)
 165              		.loc 1 68 13 view .LVU48
 166 000c B0C30160 		sth 6,352(3)
 167              		.loc 1 65 7 view .LVU49
 168 0010 99230000 		stb 9,0(3)
 169              		.loc 1 66 2 is_stmt 1 view .LVU50
 170              		.loc 1 67 2 view .LVU51
 171              		.loc 1 68 2 view .LVU52
 172              		.loc 1 69 1 is_stmt 0 view .LVU53
 173 0014 4E800020 		blr
 174              		.cfi_endproc
 175              	.LFE2340:
 176              		.size	_ZN10GuiTrigger20SetButtonOnlyTriggerEijt, .-_ZN10GuiTrigger20SetButtonOnlyTriggerEijt
 177              		.section	.text._ZN10GuiTrigger27SetButtonOnlyInFocusTriggerEijt,"ax",@progbits
 178              		.align 2
 179              		.globl _ZN10GuiTrigger27SetButtonOnlyInFocusTriggerEijt
 180              		.type	_ZN10GuiTrigger27SetButtonOnlyInFocusTriggerEijt, @function
 181              	_ZN10GuiTrigger27SetButtonOnlyInFocusTriggerEijt:
 182              	.LVL8:
 183              	.LFB2341:
 184              		.loc 1 77 1 is_stmt 1 view -0
 185              		.cfi_startproc
 186              		.loc 1 78 2 view .LVU55
 187              		.loc 1 78 7 is_stmt 0 view .LVU56
 188 0000 39200003 		li 9,3
 189              		.loc 1 79 7 view .LVU57
 190 0004 90830004 		stw 4,4(3)
 191              		.loc 1 80 18 view .LVU58
 192 0008 90A30020 		stw 5,32(3)
 193              		.loc 1 81 13 view .LVU59
 194 000c B0C30160 		sth 6,352(3)
 195              		.loc 1 78 7 view .LVU60
 196 0010 99230000 		stb 9,0(3)
 197              		.loc 1 79 2 is_stmt 1 view .LVU61
 198              		.loc 1 80 2 view .LVU62
 199              		.loc 1 81 2 view .LVU63
 200              		.loc 1 82 1 is_stmt 0 view .LVU64
 201 0014 4E800020 		blr
 202              		.cfi_endproc
 203              	.LFE2341:
 204              		.size	_ZN10GuiTrigger27SetButtonOnlyInFocusTriggerEijt, .-_ZN10GuiTrigger27SetButtonOnlyInFocusTri
 205              		.section	.text._ZN10GuiTrigger10WPAD_StickEhi,"ax",@progbits
 206              		.align 2
 207              		.globl _ZN10GuiTrigger10WPAD_StickEhi
 208              		.type	_ZN10GuiTrigger10WPAD_StickEhi, @function
 209              	_ZN10GuiTrigger10WPAD_StickEhi:
 210              	.LVL9:
 211              	.LFB2342:
 212              		.loc 1 91 1 is_stmt 1 view -0
 213              		.cfi_startproc
 214              		.loc 1 92 2 view .LVU66
 215              		.loc 1 93 2 view .LVU67
 216              		.loc 1 95 2 view .LVU68
 217              		.loc 1 95 10 is_stmt 0 view .LVU69
 218 0000 81430008 		lwz 10,8(3)
 219              		.loc 1 91 1 view .LVU70
 220 0004 7C0802A6 		mflr 0
 221 0008 9421FFE8 		stwu 1,-24(1)
 222              		.cfi_def_cfa_offset 24
 223              		.cfi_register 65, 0
 224              		.loc 1 95 20 view .LVU71
 225 000c 812A00F8 		lwz 9,248(10)
 226              		.loc 1 91 1 view .LVU72
 227 0010 9001001C 		stw 0,28(1)
 228              		.loc 1 95 2 view .LVU73
 229 0014 2C090002 		cmpwi 0,9,2
 230              		.loc 1 91 1 view .LVU74
 231 0018 DBE10010 		stfd 31,16(1)
 232              		.cfi_offset 65, 4
 233              		.cfi_offset 63, -8
 234              		.loc 1 95 2 view .LVU75
 235 001c 418200FC 		beq- 0,.L10
 236 0020 2C090003 		cmpwi 0,9,3
 237 0024 4182005C 		beq- 0,.L11
 238 0028 2C090001 		cmpwi 0,9,1
 239 002c 41820054 		beq- 0,.L11
 240              	.L19:
 241 0030 3D200000 		lis 9,.LC2@ha
 242 0034 C0290000 		lfs 1,.LC2@l(9)
 243 0038 FFE00890 		fmr 31,1
 244              	.LVL10:
 245              	.L12:
 246              		.loc 1 133 2 is_stmt 1 view .LVU76
 247              		.loc 1 135 2 view .LVU77
 248 003c 2C050000 		cmpwi 0,5,0
 249 0040 40820084 		bne- 0,.L15
 250              	.L27:
 251              		.loc 1 136 3 view .LVU78
 252              	.LVL11:
 253              	.LBB14:
 254              	.LBI14:
 255              		.file 2 "C:/devkitPro/devkitPPC/powerpc-eabi/include/c++/13.1.0/cmath"
 256              		.loc 2 427 3 view .LVU79
 257              	.LBB15:
 258              		.loc 2 428 5 view .LVU80
 259              		.loc 2 428 26 is_stmt 0 view .LVU81
 260 0044 48000001 		bl sinf
 261              	.LVL12:
 262              		.loc 2 428 26 view .LVU82
 263              	.LBE15:
 264              	.LBE14:
 265              		.loc 1 140 18 view .LVU83
 266 0048 3D200000 		lis 9,.LC6@ha
 267              		.loc 1 136 13 discriminator 1 view .LVU84
 268 004c EFFF0072 		fmuls 31,31,1
 269              	.LVL13:
 270              		.loc 1 140 2 is_stmt 1 view .LVU85
 271              		.loc 1 140 18 is_stmt 0 view .LVU86
 272 0050 C0090000 		lfs 0,.LC6@l(9)
 273              		.loc 1 140 26 view .LVU87
 274 0054 39210008 		addi 9,1,8
 275              		.loc 1 140 18 view .LVU88
 276 0058 FFFF0032 		fmul 31,31,0
 277              	.LVL14:
 278              		.loc 1 140 26 view .LVU89
 279 005c FFE0F81E 		fctiwz 31,31
 280 0060 7FE04FAE 		stfiwx 31,0,9
 281 0064 80610008 		lwz 3,8(1)
 282              		.loc 1 141 1 view .LVU90
 283 0068 8001001C 		lwz 0,28(1)
 284 006c CBE10010 		lfd 31,16(1)
 285 0070 7C630774 		extsb 3,3
 286 0074 7C0803A6 		mtlr 0
 287              		.cfi_remember_state
 288              		.cfi_restore 65
 289 0078 38210018 		addi 1,1,24
 290              		.cfi_restore 63
 291              		.cfi_def_cfa_offset 0
 292 007c 4E800020 		blr
 293              	.LVL15:
 294              	.L11:
 295              		.cfi_restore_state
 296              		.loc 1 105 3 is_stmt 1 view .LVU91
 297              		.loc 1 106 4 view .LVU92
 298 0080 2C040000 		cmpwi 0,4,0
 299 0084 40A2FFAC 		bne- 0,.L19
 300              		.loc 1 108 5 view .LVU93
 301              		.loc 1 108 9 is_stmt 0 view .LVU94
 302 0088 C3EA0120 		lfs 31,288(10)
 303              	.LVL16:
 304              		.loc 1 109 5 is_stmt 1 view .LVU95
 305              		.loc 1 109 9 is_stmt 0 view .LVU96
 306 008c C02A011C 		lfs 1,284(10)
 307              	.LVL17:
 308              	.L13:
 309              		.loc 1 131 2 is_stmt 1 view .LVU97
 310              		.loc 1 136 23 is_stmt 0 view .LVU98
 311 0090 3D200000 		lis 9,.LC3@ha
 312              		.loc 1 131 2 view .LVU99
 313 0094 3D400000 		lis 10,.LC0@ha
 314              		.loc 1 136 23 view .LVU100
 315 0098 C1890000 		lfs 12,.LC3@l(9)
 316              		.loc 1 136 18 view .LVU101
 317 009c 3D200000 		lis 9,.LC4@ha
 318              		.loc 1 131 2 view .LVU102
 319 00a0 C00A0000 		lfs 0,.LC0@l(10)
 320              		.loc 1 136 23 view .LVU103
 321 00a4 EC210332 		fmuls 1,1,12
 322              	.LVL18:
 323              		.loc 1 136 18 view .LVU104
 324 00a8 C1890000 		lfs 12,.LC4@l(9)
 325              		.loc 1 131 2 view .LVU105
 326 00ac FC1F0000 		fcmpu 0,31,0
 327              		.loc 1 136 18 view .LVU106
 328 00b0 EC216024 		fdivs 1,1,12
 329              		.loc 1 131 2 view .LVU107
 330 00b4 4081004C 		bng- 0,.L26
 331              		.loc 1 132 27 discriminator 1 view .LVU108
 332 00b8 FFE00090 		fmr 31,0
 333              	.LVL19:
 334              	.L28:
 335              		.loc 1 133 2 is_stmt 1 view .LVU109
 336              		.loc 1 135 2 view .LVU110
 337 00bc 2C050000 		cmpwi 0,5,0
 338 00c0 41A2FF84 		beq- 0,.L27
 339              	.L15:
 340              		.loc 1 138 3 view .LVU111
 341              	.LVL20:
 342              	.LBB16:
 343              	.LBI16:
 344              		.loc 2 186 3 view .LVU112
 345              	.LBB17:
 346              		.loc 2 187 5 view .LVU113
 347              		.loc 2 187 26 is_stmt 0 view .LVU114
 348 00c4 48000001 		bl cosf
 349              	.LVL21:
 350              		.loc 2 187 26 view .LVU115
 351              	.LBE17:
 352              	.LBE16:
 353              		.loc 1 140 18 view .LVU116
 354 00c8 3D200000 		lis 9,.LC6@ha
 355              		.loc 1 138 13 discriminator 1 view .LVU117
 356 00cc EFFF0072 		fmuls 31,31,1
 357              	.LVL22:
 358              		.loc 1 140 2 is_stmt 1 view .LVU118
 359              		.loc 1 140 18 is_stmt 0 view .LVU119
 360 00d0 C0090000 		lfs 0,.LC6@l(9)
 361              		.loc 1 140 26 view .LVU120
 362 00d4 39210008 		addi 9,1,8
 363              		.loc 1 140 18 view .LVU121
 364 00d8 FFFF0032 		fmul 31,31,0
 365              	.LVL23:
 366              		.loc 1 140 26 view .LVU122
 367 00dc FFE0F81E 		fctiwz 31,31
 368 00e0 7FE04FAE 		stfiwx 31,0,9
 369 00e4 80610008 		lwz 3,8(1)
 370              		.loc 1 141 1 view .LVU123
 371 00e8 8001001C 		lwz 0,28(1)
 372 00ec CBE10010 		lfd 31,16(1)
 373 00f0 7C630774 		extsb 3,3
 374 00f4 7C0803A6 		mtlr 0
 375              		.cfi_remember_state
 376              		.cfi_restore 65
 377 00f8 38210018 		addi 1,1,24
 378              		.cfi_restore 63
 379              		.cfi_def_cfa_offset 0
 380 00fc 4E800020 		blr
 381              	.LVL24:
 382              	.L26:
 383              		.cfi_restore_state
 384              		.loc 1 132 7 is_stmt 1 view .LVU124
 385 0100 3D200000 		lis 9,.LC1@ha
 386 0104 C0090000 		lfs 0,.LC1@l(9)
 387 0108 FC1F0000 		fcmpu 0,31,0
 388 010c 40A0FF30 		bnl- 0,.L12
 389              		.loc 1 132 27 is_stmt 0 discriminator 1 view .LVU125
 390 0110 FFE00090 		fmr 31,0
 391 0114 4BFFFFA8 		b .L28
 392              	.LVL25:
 393              	.L10:
 394              		.loc 1 113 3 is_stmt 1 view .LVU126
 395              		.loc 1 114 4 view .LVU127
 396 0118 2C040000 		cmpwi 0,4,0
 397 011c 40820010 		bne- 0,.L14
 398              		.loc 1 116 5 view .LVU128
 399              		.loc 1 116 9 is_stmt 0 view .LVU129
 400 0120 C3EA011C 		lfs 31,284(10)
 401              	.LVL26:
 402              		.loc 1 117 5 is_stmt 1 view .LVU130
 403              		.loc 1 117 9 is_stmt 0 view .LVU131
 404 0124 C02A0118 		lfs 1,280(10)
 405              	.LVL27:
 406              		.loc 1 117 9 view .LVU132
 407 0128 4BFFFF68 		b .L13
 408              	.LVL28:
 409              	.L14:
 410              		.loc 1 121 5 is_stmt 1 view .LVU133
 411              		.loc 1 121 9 is_stmt 0 view .LVU134
 412 012c C3EA012C 		lfs 31,300(10)
 413              	.LVL29:
 414              		.loc 1 122 5 is_stmt 1 view .LVU135
 415              		.loc 1 122 9 is_stmt 0 view .LVU136
 416 0130 C02A0128 		lfs 1,296(10)
 417              	.LVL30:
 418              		.loc 1 122 9 view .LVU137
 419 0134 4BFFFF5C 		b .L13
 420              		.cfi_endproc
 421              	.LFE2342:
 422              		.size	_ZN10GuiTrigger10WPAD_StickEhi, .-_ZN10GuiTrigger10WPAD_StickEhi
 423              		.section	.text._ZN10GuiTrigger4LeftEv,"ax",@progbits
 424              		.align 2
 425              		.globl _ZN10GuiTrigger4LeftEv
 426              		.type	_ZN10GuiTrigger4LeftEv, @function
 427              	_ZN10GuiTrigger4LeftEv:
 428              	.LVL31:
 429              	.LFB2343:
 430              		.loc 1 144 1 is_stmt 1 view -0
 431              		.cfi_startproc
 432              		.loc 1 145 2 view .LVU139
 433              		.loc 1 147 2 view .LVU140
 434              		.loc 1 147 6 is_stmt 0 view .LVU141
 435 0000 81430008 		lwz 10,8(3)
 436              		.loc 1 144 1 view .LVU142
 437 0004 9421FFD0 		stwu 1,-48(1)
 438              		.cfi_def_cfa_offset 48
 439              		.loc 1 147 16 view .LVU143
 440 0008 810A00F8 		lwz 8,248(10)
 441              		.loc 1 144 1 view .LVU144
 442 000c 93A1001C 		stw 29,28(1)
 443              		.loc 1 147 2 view .LVU145
 444 0010 2F880002 		cmpwi 7,8,2
 445              		.loc 1 144 1 view .LVU146
 446 0014 93C10020 		stw 30,32(1)
 447              		.cfi_offset 29, -20
 448              		.cfi_offset 30, -16
 449              		.loc 1 147 2 view .LVU147
 450 0018 419E0158 		beq- 7,.L46
 451              		.loc 1 149 7 is_stmt 1 view .LVU148
 452 001c 2C080003 		cmpwi 0,8,3
 453              		.loc 1 145 6 is_stmt 0 view .LVU149
 454 0020 3BC00100 		li 30,256
 455              		.loc 1 149 7 view .LVU150
 456 0024 41820140 		beq- 0,.L54
 457              	.L30:
 458              	.LVL32:
 459              		.loc 1 152 2 is_stmt 1 view .LVU151
 460              		.loc 1 152 13 is_stmt 0 view .LVU152
 461 0028 83AA0014 		lwz 29,20(10)
 462              		.loc 1 152 20 view .LVU153
 463 002c 812A000C 		lwz 9,12(10)
 464 0030 7FA94B78 		or 9,29,9
 465              		.loc 1 155 4 view .LVU154
 466 0034 7D29F039 		and. 9,9,30
 467 0038 40820018 		bne- 0,.L31
 468              		.loc 1 153 19 view .LVU155
 469 003c A1230160 		lhz 9,352(3)
 470 0040 A0E30164 		lhz 7,356(3)
 471 0044 7D293B78 		or 9,9,7
 472              		.loc 1 153 4 view .LVU156
 473 0048 71290001 		andi. 9,9,0x1
 474 004c 41820070 		beq- 0,.L55
 475              	.L31:
 476              		.loc 1 157 3 is_stmt 1 view .LVU157
 477 0050 7FBDF039 		and. 29,29,30
 478 0054 40820044 		bne- 0,.L40
 479              		.loc 1 158 4 is_stmt 0 view .LVU158
 480 0058 A1230160 		lhz 9,352(3)
 481 005c 71290001 		andi. 9,9,0x1
 482 0060 40820038 		bne- 0,.L40
 483              		.loc 1 163 8 is_stmt 1 view .LVU159
 484              		.loc 1 163 23 is_stmt 0 view .LVU160
 485 0064 3D400000 		lis 10,_ZL11scrollDelay@ha
 486 0068 812A0000 		lwz 9,_ZL11scrollDelay@l(10)
 487              		.loc 1 163 8 view .LVU161
 488 006c 2C090000 		cmpwi 0,9,0
 489 0070 4182010C 		beq- 0,.L56
 490              		.loc 1 170 4 is_stmt 1 view .LVU162
 491 0074 4081000C 		ble- 0,.L34
 492              		.loc 1 171 5 view .LVU163
 493              		.loc 1 171 16 is_stmt 0 view .LVU164
 494 0078 3929FFFF 		addi 9,9,-1
 495 007c 912A0000 		stw 9,_ZL11scrollDelay@l(10)
 496              	.L34:
 497              		.loc 1 174 9 view .LVU165
 498 0080 38600000 		li 3,0
 499              	.LVL33:
 500              	.L57:
 501              		.loc 1 175 1 view .LVU166
 502 0084 83A1001C 		lwz 29,28(1)
 503 0088 546307FE 		rlwinm 3,3,0,31,31
 504 008c 83C10020 		lwz 30,32(1)
 505              	.LVL34:
 506              		.loc 1 175 1 view .LVU167
 507 0090 38210030 		addi 1,1,48
 508              		.cfi_remember_state
 509              		.cfi_restore 30
 510              		.cfi_restore 29
 511              		.cfi_def_cfa_offset 0
 512 0094 4E800020 		blr
 513              	.LVL35:
 514              	.L40:
 515              		.cfi_restore_state
 516              		.loc 1 160 4 is_stmt 1 view .LVU168
 517              		.loc 1 160 16 is_stmt 0 view .LVU169
 518 0098 3D200000 		lis 9,_ZL11scrollDelay@ha
 519 009c 39400014 		li 10,20
 520 00a0 91490000 		stw 10,_ZL11scrollDelay@l(9)
 521              		.loc 1 161 4 is_stmt 1 view .LVU170
 522              	.L42:
 523              		.loc 1 161 11 is_stmt 0 view .LVU171
 524 00a4 38600001 		li 3,1
 525              	.LVL36:
 526              		.loc 1 175 1 view .LVU172
 527 00a8 83A1001C 		lwz 29,28(1)
 528 00ac 83C10020 		lwz 30,32(1)
 529              	.LVL37:
 530              		.loc 1 175 1 view .LVU173
 531 00b0 546307FE 		rlwinm 3,3,0,31,31
 532 00b4 38210030 		addi 1,1,48
 533              		.cfi_remember_state
 534              		.cfi_restore 30
 535              		.cfi_restore 29
 536              		.cfi_def_cfa_offset 0
 537 00b8 4E800020 		blr
 538              	.LVL38:
 539              	.L55:
 540              		.cfi_restore_state
 541              		.loc 1 154 4 view .LVU174
 542 00bc 89230166 		lbz 9,358(3)
 543 00c0 7D290774 		extsb 9,9
 544 00c4 2C09FFCE 		cmpwi 0,9,-50
 545 00c8 41A0FF88 		blt- 0,.L31
 546 00cc DBE10028 		stfd 31,40(1)
 547              		.cfi_offset 63, -8
 548              	.LVL39:
 549              	.LBB24:
 550              	.LBI24:
 551              		.loc 1 90 4 is_stmt 1 view .LVU175
 552              	.LBB25:
 553              		.loc 1 92 2 view .LVU176
 554              		.loc 1 93 2 view .LVU177
 555              		.loc 1 95 2 view .LVU178
 556 00d0 419E00FC 		beq- 7,.L32
 557 00d4 2C080003 		cmpwi 0,8,3
 558 00d8 4182000C 		beq- 0,.L33
 559 00dc 2C080001 		cmpwi 0,8,1
 560 00e0 408200A8 		bne- 0,.L51
 561              	.L33:
 562              		.loc 1 95 2 is_stmt 0 view .LVU179
 563 00e4 7C0802A6 		mflr 0
 564              		.cfi_register 65, 0
 565              		.loc 1 108 9 view .LVU180
 566 00e8 C3EA0120 		lfs 31,288(10)
 567 00ec 90010034 		stw 0,52(1)
 568              		.cfi_offset 65, 4
 569              		.loc 1 105 3 is_stmt 1 view .LVU181
 570              		.loc 1 106 4 view .LVU182
 571              		.loc 1 108 5 view .LVU183
 572              	.LVL40:
 573              		.loc 1 109 5 view .LVU184
 574              		.loc 1 109 9 is_stmt 0 view .LVU185
 575 00f0 C00A011C 		lfs 0,284(10)
 576              	.LVL41:
 577              	.L35:
 578              		.loc 1 131 2 is_stmt 1 view .LVU186
 579              		.loc 1 136 23 is_stmt 0 view .LVU187
 580 00f4 3D400000 		lis 10,.LC3@ha
 581              		.loc 1 136 18 view .LVU188
 582 00f8 3D200000 		lis 9,.LC4@ha
 583              		.loc 1 136 23 view .LVU189
 584 00fc C18A0000 		lfs 12,.LC3@l(10)
 585              		.loc 1 136 18 view .LVU190
 586 0100 C0290000 		lfs 1,.LC4@l(9)
 587              		.loc 1 136 23 view .LVU191
 588 0104 EC000332 		fmuls 0,0,12
 589              	.LVL42:
 590              		.loc 1 136 23 view .LVU192
 591 0108 90610014 		stw 3,20(1)
 592              	.LBB26:
 593              	.LBB27:
 594              		.loc 2 428 26 view .LVU193
 595 010c EC200824 		fdivs 1,0,1
 596 0110 48000001 		bl sinf
 597              	.LVL43:
 598              		.loc 2 428 26 view .LVU194
 599              	.LBE27:
 600              	.LBE26:
 601              		.loc 1 131 2 view .LVU195
 602 0114 3D200000 		lis 9,.LC0@ha
 603 0118 C0090000 		lfs 0,.LC0@l(9)
 604 011c 80610014 		lwz 3,20(1)
 605 0120 FC1F0000 		fcmpu 0,31,0
 606 0124 40810070 		bng- 0,.L49
 607              	.LVL44:
 608              		.loc 1 140 18 view .LVU196
 609 0128 3D200000 		lis 9,.LC6@ha
 610 012c C0090000 		lfs 0,.LC6@l(9)
 611              		.loc 1 140 26 view .LVU197
 612 0130 39210010 		addi 9,1,16
 613              		.loc 1 140 18 view .LVU198
 614 0134 FC010032 		fmul 0,1,0
 615              		.loc 1 140 26 view .LVU199
 616 0138 FC00001E 		fctiwz 0,0
 617 013c 7C004FAE 		stfiwx 0,0,9
 618 0140 81210010 		lwz 9,16(1)
 619              	.LVL45:
 620              	.L38:
 621              		.loc 1 133 2 is_stmt 1 view .LVU200
 622              		.loc 1 135 2 view .LVU201
 623              		.loc 1 136 3 view .LVU202
 624              	.LBB29:
 625              	.LBI26:
 626              		.loc 2 427 3 view .LVU203
 627              	.LBB28:
 628              		.loc 2 428 5 view .LVU204
 629              		.loc 2 428 5 is_stmt 0 view .LVU205
 630              	.LBE28:
 631              	.LBE29:
 632              		.loc 1 140 2 is_stmt 1 view .LVU206
 633              		.loc 1 140 2 is_stmt 0 view .LVU207
 634              	.LBE25:
 635              	.LBE24:
 636              		.loc 1 155 4 discriminator 1 view .LVU208
 637 0144 7D290774 		extsb 9,9
 638 0148 80010034 		lwz 0,52(1)
 639 014c 2C09FFCE 		cmpwi 0,9,-50
 640 0150 CBE10028 		lfd 31,40(1)
 641              		.cfi_restore 63
 642 0154 7C0803A6 		mtlr 0
 643              		.cfi_restore 65
 644 0158 4180FEF8 		blt+ 0,.L31
 645              		.loc 1 174 9 view .LVU209
 646 015c 38600000 		li 3,0
 647              	.LVL46:
 648              		.loc 1 174 9 view .LVU210
 649 0160 4BFFFF24 		b .L57
 650              	.LVL47:
 651              	.L54:
 652              		.loc 1 150 10 view .LVU211
 653 0164 3FC00040 		lis 30,0x40
 654 0168 63DE0100 		ori 30,30,0x100
 655 016c 4BFFFEBC 		b .L30
 656              	.L46:
 657              		.loc 1 148 10 view .LVU212
 658 0170 3FC00002 		lis 30,0x2
 659 0174 63DE0100 		ori 30,30,0x100
 660 0178 4BFFFEB0 		b .L30
 661              	.LVL48:
 662              	.L56:
 663              		.loc 1 165 4 is_stmt 1 view .LVU213
 664              		.loc 1 165 16 is_stmt 0 view .LVU214
 665 017c 39200003 		li 9,3
 666 0180 912A0000 		stw 9,_ZL11scrollDelay@l(10)
 667              		.loc 1 166 4 is_stmt 1 view .LVU215
 668              		.loc 1 166 11 is_stmt 0 view .LVU216
 669 0184 4BFFFF20 		b .L42
 670              	.LVL49:
 671              	.L51:
 672              		.cfi_offset 63, -8
 673              		.loc 1 166 11 view .LVU217
 674 0188 CBE10028 		lfd 31,40(1)
 675              		.cfi_restore 63
 676              		.loc 1 174 9 view .LVU218
 677 018c 38600000 		li 3,0
 678              	.LVL50:
 679              		.loc 1 174 9 view .LVU219
 680 0190 4BFFFEF4 		b .L57
 681              	.LVL51:
 682              	.L49:
 683              		.cfi_offset 63, -8
 684              		.cfi_offset 65, 4
 685              	.LBB31:
 686              	.LBB30:
 687              		.loc 1 132 7 is_stmt 1 view .LVU220
 688 0194 3D200000 		lis 9,.LC1@ha
 689 0198 C0090000 		lfs 0,.LC1@l(9)
 690 019c FC1F0000 		fcmpu 0,31,0
 691 01a0 40800040 		bnl- 0,.L58
 692              		.loc 1 132 23 discriminator 1 view .LVU221
 693              	.LVL52:
 694              		.loc 1 136 7 is_stmt 0 discriminator 1 view .LVU222
 695 01a4 FC000850 		fneg 0,1
 696              		.loc 1 140 18 view .LVU223
 697 01a8 3D200000 		lis 9,.LC6@ha
 698 01ac C1890000 		lfs 12,.LC6@l(9)
 699              		.loc 1 140 26 view .LVU224
 700 01b0 39210008 		addi 9,1,8
 701              		.loc 1 136 7 discriminator 1 view .LVU225
 702 01b4 FC200090 		fmr 1,0
 703              		.loc 1 140 18 view .LVU226
 704 01b8 FC010332 		fmul 0,1,12
 705              		.loc 1 140 26 view .LVU227
 706 01bc FC00001E 		fctiwz 0,0
 707 01c0 7C004FAE 		stfiwx 0,0,9
 708 01c4 81210008 		lwz 9,8(1)
 709 01c8 4BFFFF7C 		b .L38
 710              	.LVL53:
 711              	.L32:
 712              		.cfi_restore 65
 713              		.loc 1 140 26 view .LVU228
 714 01cc 7C0802A6 		mflr 0
 715              		.cfi_register 65, 0
 716              		.loc 1 116 9 view .LVU229
 717 01d0 C3EA011C 		lfs 31,284(10)
 718 01d4 90010034 		stw 0,52(1)
 719              		.cfi_offset 65, 4
 720              		.loc 1 113 3 is_stmt 1 view .LVU230
 721              		.loc 1 114 4 view .LVU231
 722              		.loc 1 116 5 view .LVU232
 723              	.LVL54:
 724              		.loc 1 117 5 view .LVU233
 725              		.loc 1 117 9 is_stmt 0 view .LVU234
 726 01d8 C00A0118 		lfs 0,280(10)
 727              	.LVL55:
 728              		.loc 1 117 9 view .LVU235
 729 01dc 4BFFFF18 		b .L35
 730              	.LVL56:
 731              	.L58:
 732              		.loc 1 136 13 discriminator 1 view .LVU236
 733 01e0 EC1F0072 		fmuls 0,31,1
 734              		.loc 1 140 18 view .LVU237
 735 01e4 3D200000 		lis 9,.LC6@ha
 736 01e8 C1890000 		lfs 12,.LC6@l(9)
 737              		.loc 1 140 26 view .LVU238
 738 01ec 3921000C 		addi 9,1,12
 739              		.loc 1 140 18 view .LVU239
 740 01f0 FC000332 		fmul 0,0,12
 741              		.loc 1 140 26 view .LVU240
 742 01f4 FC00001E 		fctiwz 0,0
 743 01f8 7C004FAE 		stfiwx 0,0,9
 744 01fc 8121000C 		lwz 9,12(1)
 745 0200 4BFFFF44 		b .L38
 746              	.LBE30:
 747              	.LBE31:
 748              		.cfi_endproc
 749              	.LFE2343:
 750              		.size	_ZN10GuiTrigger4LeftEv, .-_ZN10GuiTrigger4LeftEv
 751              		.section	.text._ZN10GuiTrigger5RightEv,"ax",@progbits
 752              		.align 2
 753              		.globl _ZN10GuiTrigger5RightEv
 754              		.type	_ZN10GuiTrigger5RightEv, @function
 755              	_ZN10GuiTrigger5RightEv:
 756              	.LVL57:
 757              	.LFB2344:
 758              		.loc 1 178 1 is_stmt 1 view -0
 759              		.cfi_startproc
 760              		.loc 1 179 2 view .LVU242
 761              		.loc 1 181 2 view .LVU243
 762              		.loc 1 181 6 is_stmt 0 view .LVU244
 763 0000 81430008 		lwz 10,8(3)
 764              		.loc 1 178 1 view .LVU245
 765 0004 9421FFD0 		stwu 1,-48(1)
 766              		.cfi_def_cfa_offset 48
 767              		.loc 1 181 16 view .LVU246
 768 0008 810A00F8 		lwz 8,248(10)
 769              		.loc 1 178 1 view .LVU247
 770 000c 93A1001C 		stw 29,28(1)
 771              		.loc 1 181 2 view .LVU248
 772 0010 2F880002 		cmpwi 7,8,2
 773              		.loc 1 178 1 view .LVU249
 774 0014 93C10020 		stw 30,32(1)
 775              		.cfi_offset 29, -20
 776              		.cfi_offset 30, -16
 777              		.loc 1 181 2 view .LVU250
 778 0018 419E0158 		beq- 7,.L76
 779              		.loc 1 183 7 is_stmt 1 view .LVU251
 780 001c 2C080003 		cmpwi 0,8,3
 781              		.loc 1 179 6 is_stmt 0 view .LVU252
 782 0020 3BC00200 		li 30,512
 783              		.loc 1 183 7 view .LVU253
 784 0024 41820140 		beq- 0,.L84
 785              	.L60:
 786              	.LVL58:
 787              		.loc 1 186 2 is_stmt 1 view .LVU254
 788              		.loc 1 186 13 is_stmt 0 view .LVU255
 789 0028 83AA0014 		lwz 29,20(10)
 790              		.loc 1 186 20 view .LVU256
 791 002c 812A000C 		lwz 9,12(10)
 792 0030 7FA94B78 		or 9,29,9
 793              		.loc 1 189 4 view .LVU257
 794 0034 7D29F039 		and. 9,9,30
 795 0038 40820018 		bne- 0,.L61
 796              		.loc 1 187 19 view .LVU258
 797 003c A1230160 		lhz 9,352(3)
 798 0040 A0E30164 		lhz 7,356(3)
 799 0044 7D293B78 		or 9,9,7
 800              		.loc 1 187 4 view .LVU259
 801 0048 71290002 		andi. 9,9,0x2
 802 004c 41820070 		beq- 0,.L85
 803              	.L61:
 804              		.loc 1 191 3 is_stmt 1 view .LVU260
 805 0050 7FBDF039 		and. 29,29,30
 806 0054 40820044 		bne- 0,.L70
 807              		.loc 1 192 4 is_stmt 0 view .LVU261
 808 0058 A1230160 		lhz 9,352(3)
 809 005c 71290002 		andi. 9,9,0x2
 810 0060 40820038 		bne- 0,.L70
 811              		.loc 1 197 8 is_stmt 1 view .LVU262
 812              		.loc 1 197 23 is_stmt 0 view .LVU263
 813 0064 3D400000 		lis 10,_ZL11scrollDelay@ha
 814 0068 812A0000 		lwz 9,_ZL11scrollDelay@l(10)
 815              		.loc 1 197 8 view .LVU264
 816 006c 2C090000 		cmpwi 0,9,0
 817 0070 4182010C 		beq- 0,.L86
 818              		.loc 1 204 4 is_stmt 1 view .LVU265
 819 0074 4081000C 		ble- 0,.L64
 820              		.loc 1 205 5 view .LVU266
 821              		.loc 1 205 16 is_stmt 0 view .LVU267
 822 0078 3929FFFF 		addi 9,9,-1
 823 007c 912A0000 		stw 9,_ZL11scrollDelay@l(10)
 824              	.L64:
 825              		.loc 1 208 9 view .LVU268
 826 0080 38600000 		li 3,0
 827              	.LVL59:
 828              	.L87:
 829              		.loc 1 209 1 view .LVU269
 830 0084 83A1001C 		lwz 29,28(1)
 831 0088 546307FE 		rlwinm 3,3,0,31,31
 832 008c 83C10020 		lwz 30,32(1)
 833              	.LVL60:
 834              		.loc 1 209 1 view .LVU270
 835 0090 38210030 		addi 1,1,48
 836              		.cfi_remember_state
 837              		.cfi_restore 30
 838              		.cfi_restore 29
 839              		.cfi_def_cfa_offset 0
 840 0094 4E800020 		blr
 841              	.LVL61:
 842              	.L70:
 843              		.cfi_restore_state
 844              		.loc 1 194 4 is_stmt 1 view .LVU271
 845              		.loc 1 194 16 is_stmt 0 view .LVU272
 846 0098 3D200000 		lis 9,_ZL11scrollDelay@ha
 847 009c 39400014 		li 10,20
 848 00a0 91490000 		stw 10,_ZL11scrollDelay@l(9)
 849              		.loc 1 195 4 is_stmt 1 view .LVU273
 850              	.L72:
 851              		.loc 1 195 11 is_stmt 0 view .LVU274
 852 00a4 38600001 		li 3,1
 853              	.LVL62:
 854              		.loc 1 209 1 view .LVU275
 855 00a8 83A1001C 		lwz 29,28(1)
 856 00ac 83C10020 		lwz 30,32(1)
 857              	.LVL63:
 858              		.loc 1 209 1 view .LVU276
 859 00b0 546307FE 		rlwinm 3,3,0,31,31
 860 00b4 38210030 		addi 1,1,48
 861              		.cfi_remember_state
 862              		.cfi_restore 30
 863              		.cfi_restore 29
 864              		.cfi_def_cfa_offset 0
 865 00b8 4E800020 		blr
 866              	.LVL64:
 867              	.L85:
 868              		.cfi_restore_state
 869              		.loc 1 188 4 view .LVU277
 870 00bc 89230166 		lbz 9,358(3)
 871 00c0 7D290774 		extsb 9,9
 872 00c4 2C090032 		cmpwi 0,9,50
 873 00c8 41A1FF88 		bgt- 0,.L61
 874 00cc DBE10028 		stfd 31,40(1)
 875              		.cfi_offset 63, -8
 876              	.LVL65:
 877              	.LBB38:
 878              	.LBI38:
 879              		.loc 1 90 4 is_stmt 1 view .LVU278
 880              	.LBB39:
 881              		.loc 1 92 2 view .LVU279
 882              		.loc 1 93 2 view .LVU280
 883              		.loc 1 95 2 view .LVU281
 884 00d0 419E00FC 		beq- 7,.L62
 885 00d4 2C080003 		cmpwi 0,8,3
 886 00d8 4182000C 		beq- 0,.L63
 887 00dc 2C080001 		cmpwi 0,8,1
 888 00e0 408200A8 		bne- 0,.L81
 889              	.L63:
 890              		.loc 1 95 2 is_stmt 0 view .LVU282
 891 00e4 7C0802A6 		mflr 0
 892              		.cfi_register 65, 0
 893              		.loc 1 108 9 view .LVU283
 894 00e8 C3EA0120 		lfs 31,288(10)
 895 00ec 90010034 		stw 0,52(1)
 896              		.cfi_offset 65, 4
 897              		.loc 1 105 3 is_stmt 1 view .LVU284
 898              		.loc 1 106 4 view .LVU285
 899              		.loc 1 108 5 view .LVU286
 900              	.LVL66:
 901              		.loc 1 109 5 view .LVU287
 902              		.loc 1 109 9 is_stmt 0 view .LVU288
 903 00f0 C00A011C 		lfs 0,284(10)
 904              	.LVL67:
 905              	.L65:
 906              		.loc 1 131 2 is_stmt 1 view .LVU289
 907              		.loc 1 136 23 is_stmt 0 view .LVU290
 908 00f4 3D400000 		lis 10,.LC3@ha
 909              		.loc 1 136 18 view .LVU291
 910 00f8 3D200000 		lis 9,.LC4@ha
 911              		.loc 1 136 23 view .LVU292
 912 00fc C18A0000 		lfs 12,.LC3@l(10)
 913              		.loc 1 136 18 view .LVU293
 914 0100 C0290000 		lfs 1,.LC4@l(9)
 915              		.loc 1 136 23 view .LVU294
 916 0104 EC000332 		fmuls 0,0,12
 917              	.LVL68:
 918              		.loc 1 136 23 view .LVU295
 919 0108 90610014 		stw 3,20(1)
 920              	.LBB40:
 921              	.LBB41:
 922              		.loc 2 428 26 view .LVU296
 923 010c EC200824 		fdivs 1,0,1
 924 0110 48000001 		bl sinf
 925              	.LVL69:
 926              		.loc 2 428 26 view .LVU297
 927              	.LBE41:
 928              	.LBE40:
 929              		.loc 1 131 2 view .LVU298
 930 0114 3D200000 		lis 9,.LC0@ha
 931 0118 C0090000 		lfs 0,.LC0@l(9)
 932 011c 80610014 		lwz 3,20(1)
 933 0120 FC1F0000 		fcmpu 0,31,0
 934 0124 40810070 		bng- 0,.L79
 935              	.LVL70:
 936              		.loc 1 140 18 view .LVU299
 937 0128 3D200000 		lis 9,.LC6@ha
 938 012c C0090000 		lfs 0,.LC6@l(9)
 939              		.loc 1 140 26 view .LVU300
 940 0130 39210010 		addi 9,1,16
 941              		.loc 1 140 18 view .LVU301
 942 0134 FC010032 		fmul 0,1,0
 943              		.loc 1 140 26 view .LVU302
 944 0138 FC00001E 		fctiwz 0,0
 945 013c 7C004FAE 		stfiwx 0,0,9
 946 0140 81210010 		lwz 9,16(1)
 947              	.LVL71:
 948              	.L68:
 949              		.loc 1 133 2 is_stmt 1 view .LVU303
 950              		.loc 1 135 2 view .LVU304
 951              		.loc 1 136 3 view .LVU305
 952              	.LBB43:
 953              	.LBI40:
 954              		.loc 2 427 3 view .LVU306
 955              	.LBB42:
 956              		.loc 2 428 5 view .LVU307
 957              		.loc 2 428 5 is_stmt 0 view .LVU308
 958              	.LBE42:
 959              	.LBE43:
 960              		.loc 1 140 2 is_stmt 1 view .LVU309
 961              		.loc 1 140 2 is_stmt 0 view .LVU310
 962              	.LBE39:
 963              	.LBE38:
 964              		.loc 1 189 4 discriminator 1 view .LVU311
 965 0144 7D290774 		extsb 9,9
 966 0148 80010034 		lwz 0,52(1)
 967 014c 2C090032 		cmpwi 0,9,50
 968 0150 CBE10028 		lfd 31,40(1)
 969              		.cfi_restore 63
 970 0154 7C0803A6 		mtlr 0
 971              		.cfi_restore 65
 972 0158 4181FEF8 		bgt+ 0,.L61
 973              		.loc 1 208 9 view .LVU312
 974 015c 38600000 		li 3,0
 975              	.LVL72:
 976              		.loc 1 208 9 view .LVU313
 977 0160 4BFFFF24 		b .L87
 978              	.LVL73:
 979              	.L84:
 980              		.loc 1 184 10 view .LVU314
 981 0164 3FC00008 		lis 30,0x8
 982 0168 63DE0200 		ori 30,30,0x200
 983 016c 4BFFFEBC 		b .L60
 984              	.L76:
 985              		.loc 1 182 10 view .LVU315
 986 0170 3FC08000 		lis 30,0x8000
 987 0174 63DE0200 		ori 30,30,0x200
 988 0178 4BFFFEB0 		b .L60
 989              	.LVL74:
 990              	.L86:
 991              		.loc 1 199 4 is_stmt 1 view .LVU316
 992              		.loc 1 199 16 is_stmt 0 view .LVU317
 993 017c 39200003 		li 9,3
 994 0180 912A0000 		stw 9,_ZL11scrollDelay@l(10)
 995              		.loc 1 200 4 is_stmt 1 view .LVU318
 996              		.loc 1 200 11 is_stmt 0 view .LVU319
 997 0184 4BFFFF20 		b .L72
 998              	.LVL75:
 999              	.L81:
 1000              		.cfi_offset 63, -8
 1001              		.loc 1 200 11 view .LVU320
 1002 0188 CBE10028 		lfd 31,40(1)
 1003              		.cfi_restore 63
 1004              		.loc 1 208 9 view .LVU321
 1005 018c 38600000 		li 3,0
 1006              	.LVL76:
 1007              		.loc 1 208 9 view .LVU322
 1008 0190 4BFFFEF4 		b .L87
 1009              	.LVL77:
 1010              	.L79:
 1011              		.cfi_offset 63, -8
 1012              		.cfi_offset 65, 4
 1013              	.LBB45:
 1014              	.LBB44:
 1015              		.loc 1 132 7 is_stmt 1 view .LVU323
 1016 0194 3D200000 		lis 9,.LC1@ha
 1017 0198 C0090000 		lfs 0,.LC1@l(9)
 1018 019c FC1F0000 		fcmpu 0,31,0
 1019 01a0 40800040 		bnl- 0,.L88
 1020              		.loc 1 132 23 discriminator 1 view .LVU324
 1021              	.LVL78:
 1022              		.loc 1 136 7 is_stmt 0 discriminator 1 view .LVU325
 1023 01a4 FC000850 		fneg 0,1
 1024              		.loc 1 140 18 view .LVU326
 1025 01a8 3D200000 		lis 9,.LC6@ha
 1026 01ac C1890000 		lfs 12,.LC6@l(9)
 1027              		.loc 1 140 26 view .LVU327
 1028 01b0 39210008 		addi 9,1,8
 1029              		.loc 1 136 7 discriminator 1 view .LVU328
 1030 01b4 FC200090 		fmr 1,0
 1031              		.loc 1 140 18 view .LVU329
 1032 01b8 FC010332 		fmul 0,1,12
 1033              		.loc 1 140 26 view .LVU330
 1034 01bc FC00001E 		fctiwz 0,0
 1035 01c0 7C004FAE 		stfiwx 0,0,9
 1036 01c4 81210008 		lwz 9,8(1)
 1037 01c8 4BFFFF7C 		b .L68
 1038              	.LVL79:
 1039              	.L62:
 1040              		.cfi_restore 65
 1041              		.loc 1 140 26 view .LVU331
 1042 01cc 7C0802A6 		mflr 0
 1043              		.cfi_register 65, 0
 1044              		.loc 1 116 9 view .LVU332
 1045 01d0 C3EA011C 		lfs 31,284(10)
 1046 01d4 90010034 		stw 0,52(1)
 1047              		.cfi_offset 65, 4
 1048              		.loc 1 113 3 is_stmt 1 view .LVU333
 1049              		.loc 1 114 4 view .LVU334
 1050              		.loc 1 116 5 view .LVU335
 1051              	.LVL80:
 1052              		.loc 1 117 5 view .LVU336
 1053              		.loc 1 117 9 is_stmt 0 view .LVU337
 1054 01d8 C00A0118 		lfs 0,280(10)
 1055              	.LVL81:
 1056              		.loc 1 117 9 view .LVU338
 1057 01dc 4BFFFF18 		b .L65
 1058              	.LVL82:
 1059              	.L88:
 1060              		.loc 1 136 13 discriminator 1 view .LVU339
 1061 01e0 EC1F0072 		fmuls 0,31,1
 1062              		.loc 1 140 18 view .LVU340
 1063 01e4 3D200000 		lis 9,.LC6@ha
 1064 01e8 C1890000 		lfs 12,.LC6@l(9)
 1065              		.loc 1 140 26 view .LVU341
 1066 01ec 3921000C 		addi 9,1,12
 1067              		.loc 1 140 18 view .LVU342
 1068 01f0 FC000332 		fmul 0,0,12
 1069              		.loc 1 140 26 view .LVU343
 1070 01f4 FC00001E 		fctiwz 0,0
 1071 01f8 7C004FAE 		stfiwx 0,0,9
 1072 01fc 8121000C 		lwz 9,12(1)
 1073 0200 4BFFFF44 		b .L68
 1074              	.LBE44:
 1075              	.LBE45:
 1076              		.cfi_endproc
 1077              	.LFE2344:
 1078              		.size	_ZN10GuiTrigger5RightEv, .-_ZN10GuiTrigger5RightEv
 1079              		.section	.text._ZN10GuiTrigger2UpEv,"ax",@progbits
 1080              		.align 2
 1081              		.globl _ZN10GuiTrigger2UpEv
 1082              		.type	_ZN10GuiTrigger2UpEv, @function
 1083              	_ZN10GuiTrigger2UpEv:
 1084              	.LVL83:
 1085              	.LFB2345:
 1086              		.loc 1 212 1 is_stmt 1 view -0
 1087              		.cfi_startproc
 1088              		.loc 1 213 2 view .LVU345
 1089              		.loc 1 215 2 view .LVU346
 1090              		.loc 1 215 6 is_stmt 0 view .LVU347
 1091 0000 81430008 		lwz 10,8(3)
 1092              		.loc 1 212 1 view .LVU348
 1093 0004 9421FFD0 		stwu 1,-48(1)
 1094              		.cfi_def_cfa_offset 48
 1095              		.loc 1 215 16 view .LVU349
 1096 0008 810A00F8 		lwz 8,248(10)
 1097              		.loc 1 212 1 view .LVU350
 1098 000c 93C10020 		stw 30,32(1)
 1099              		.cfi_offset 30, -16
 1100              		.loc 1 216 10 view .LVU351
 1101 0010 3FC00001 		lis 30,0x1
 1102              		.loc 1 215 2 view .LVU352
 1103 0014 3928FFFE 		addi 9,8,-2
 1104              		.loc 1 212 1 view .LVU353
 1105 0018 93A1001C 		stw 29,28(1)
 1106              		.loc 1 215 2 view .LVU354
 1107 001c 28090001 		cmplwi 0,9,1
 1108              		.loc 1 216 10 view .LVU355
 1109 0020 63DE0800 		ori 30,30,0x800
 1110              		.cfi_offset 29, -20
 1111              		.loc 1 215 2 view .LVU356
 1112 0024 40810008 		ble- 0,.L90
 1113 0028 3BC00800 		li 30,2048
 1114              	.L90:
 1115              	.LVL84:
 1116              		.loc 1 220 2 is_stmt 1 view .LVU357
 1117              		.loc 1 220 13 is_stmt 0 view .LVU358
 1118 002c 83AA0014 		lwz 29,20(10)
 1119              		.loc 1 220 20 view .LVU359
 1120 0030 812A000C 		lwz 9,12(10)
 1121 0034 7FA94B78 		or 9,29,9
 1122              		.loc 1 223 4 view .LVU360
 1123 0038 7D29F039 		and. 9,9,30
 1124 003c 40820018 		bne- 0,.L91
 1125              		.loc 1 221 19 view .LVU361
 1126 0040 A1230160 		lhz 9,352(3)
 1127 0044 A0E30164 		lhz 7,356(3)
 1128 0048 7D293B78 		or 9,9,7
 1129              		.loc 1 221 4 view .LVU362
 1130 004c 71290008 		andi. 9,9,0x8
 1131 0050 41820070 		beq- 0,.L114
 1132              	.L91:
 1133              		.loc 1 225 3 is_stmt 1 view .LVU363
 1134 0054 7FBDF039 		and. 29,29,30
 1135 0058 40820044 		bne- 0,.L100
 1136              		.loc 1 226 4 is_stmt 0 view .LVU364
 1137 005c A1230160 		lhz 9,352(3)
 1138 0060 71290008 		andi. 9,9,0x8
 1139 0064 40820038 		bne- 0,.L100
 1140              		.loc 1 231 8 is_stmt 1 view .LVU365
 1141              		.loc 1 231 23 is_stmt 0 view .LVU366
 1142 0068 3D400000 		lis 10,_ZL11scrollDelay@ha
 1143 006c 812A0000 		lwz 9,_ZL11scrollDelay@l(10)
 1144              		.loc 1 231 8 view .LVU367
 1145 0070 2C090000 		cmpwi 0,9,0
 1146 0074 418200F8 		beq- 0,.L115
 1147              		.loc 1 238 4 is_stmt 1 view .LVU368
 1148 0078 4081000C 		ble- 0,.L94
 1149              		.loc 1 239 5 view .LVU369
 1150              		.loc 1 239 16 is_stmt 0 view .LVU370
 1151 007c 3929FFFF 		addi 9,9,-1
 1152 0080 912A0000 		stw 9,_ZL11scrollDelay@l(10)
 1153              	.L94:
 1154              		.loc 1 242 9 view .LVU371
 1155 0084 38600000 		li 3,0
 1156              	.LVL85:
 1157              	.L116:
 1158              		.loc 1 243 1 view .LVU372
 1159 0088 83A1001C 		lwz 29,28(1)
 1160 008c 546307FE 		rlwinm 3,3,0,31,31
 1161 0090 83C10020 		lwz 30,32(1)
 1162              	.LVL86:
 1163              		.loc 1 243 1 view .LVU373
 1164 0094 38210030 		addi 1,1,48
 1165              		.cfi_remember_state
 1166              		.cfi_restore 30
 1167              		.cfi_restore 29
 1168              		.cfi_def_cfa_offset 0
 1169 0098 4E800020 		blr
 1170              	.LVL87:
 1171              	.L100:
 1172              		.cfi_restore_state
 1173              		.loc 1 228 4 is_stmt 1 view .LVU374
 1174              		.loc 1 228 16 is_stmt 0 view .LVU375
 1175 009c 3D200000 		lis 9,_ZL11scrollDelay@ha
 1176 00a0 39400014 		li 10,20
 1177 00a4 91490000 		stw 10,_ZL11scrollDelay@l(9)
 1178              		.loc 1 229 4 is_stmt 1 view .LVU376
 1179              	.L102:
 1180              		.loc 1 229 11 is_stmt 0 view .LVU377
 1181 00a8 38600001 		li 3,1
 1182              	.LVL88:
 1183              		.loc 1 243 1 view .LVU378
 1184 00ac 83A1001C 		lwz 29,28(1)
 1185 00b0 83C10020 		lwz 30,32(1)
 1186              	.LVL89:
 1187              		.loc 1 243 1 view .LVU379
 1188 00b4 546307FE 		rlwinm 3,3,0,31,31
 1189 00b8 38210030 		addi 1,1,48
 1190              		.cfi_remember_state
 1191              		.cfi_restore 30
 1192              		.cfi_restore 29
 1193              		.cfi_def_cfa_offset 0
 1194 00bc 4E800020 		blr
 1195              	.LVL90:
 1196              	.L114:
 1197              		.cfi_restore_state
 1198              		.loc 1 222 4 view .LVU380
 1199 00c0 89230167 		lbz 9,359(3)
 1200 00c4 7D290774 		extsb 9,9
 1201 00c8 2C090032 		cmpwi 0,9,50
 1202 00cc 41A1FF88 		bgt- 0,.L91
 1203              	.LBB52:
 1204              	.LBB53:
 1205              		.loc 1 95 2 view .LVU381
 1206 00d0 2C080002 		cmpwi 0,8,2
 1207 00d4 DBE10028 		stfd 31,40(1)
 1208              		.cfi_offset 63, -8
 1209              	.LVL91:
 1210              		.loc 1 95 2 view .LVU382
 1211              	.LBE53:
 1212              	.LBI52:
 1213              		.loc 1 90 4 is_stmt 1 view .LVU383
 1214              	.LBB58:
 1215              		.loc 1 92 2 view .LVU384
 1216              		.loc 1 93 2 view .LVU385
 1217              		.loc 1 95 2 view .LVU386
 1218 00d8 418200E4 		beq- 0,.L92
 1219 00dc 2C080003 		cmpwi 0,8,3
 1220 00e0 4182000C 		beq- 0,.L93
 1221 00e4 2C080001 		cmpwi 0,8,1
 1222 00e8 40820090 		bne- 0,.L111
 1223              	.L93:
 1224              		.loc 1 95 2 is_stmt 0 view .LVU387
 1225 00ec 7C0802A6 		mflr 0
 1226              		.cfi_register 65, 0
 1227              		.loc 1 108 9 view .LVU388
 1228 00f0 C3EA0120 		lfs 31,288(10)
 1229 00f4 90010034 		stw 0,52(1)
 1230              		.cfi_offset 65, 4
 1231              		.loc 1 105 3 is_stmt 1 view .LVU389
 1232              		.loc 1 106 4 view .LVU390
 1233              		.loc 1 108 5 view .LVU391
 1234              	.LVL92:
 1235              		.loc 1 109 5 view .LVU392
 1236              		.loc 1 109 9 is_stmt 0 view .LVU393
 1237 00f8 C00A011C 		lfs 0,284(10)
 1238              	.LVL93:
 1239              	.L95:
 1240              		.loc 1 131 2 is_stmt 1 view .LVU394
 1241              		.loc 1 138 23 is_stmt 0 view .LVU395
 1242 00fc 3D400000 		lis 10,.LC3@ha
 1243              		.loc 1 138 18 view .LVU396
 1244 0100 3D200000 		lis 9,.LC4@ha
 1245              		.loc 1 138 23 view .LVU397
 1246 0104 C18A0000 		lfs 12,.LC3@l(10)
 1247              		.loc 1 138 18 view .LVU398
 1248 0108 C0290000 		lfs 1,.LC4@l(9)
 1249              		.loc 1 138 23 view .LVU399
 1250 010c EC000332 		fmuls 0,0,12
 1251              	.LVL94:
 1252              		.loc 1 138 23 view .LVU400
 1253 0110 90610014 		stw 3,20(1)
 1254              	.LBB54:
 1255              	.LBB55:
 1256              		.loc 2 187 26 view .LVU401
 1257 0114 EC200824 		fdivs 1,0,1
 1258 0118 48000001 		bl cosf
 1259              	.LVL95:
 1260              		.loc 2 187 26 view .LVU402
 1261              	.LBE55:
 1262              	.LBE54:
 1263              		.loc 1 131 2 view .LVU403
 1264 011c 3D200000 		lis 9,.LC0@ha
 1265 0120 C0090000 		lfs 0,.LC0@l(9)
 1266 0124 80610014 		lwz 3,20(1)
 1267 0128 FC1F0000 		fcmpu 0,31,0
 1268 012c 40810058 		bng- 0,.L108
 1269              	.LVL96:
 1270              		.loc 1 140 18 view .LVU404
 1271 0130 3D200000 		lis 9,.LC6@ha
 1272 0134 C0090000 		lfs 0,.LC6@l(9)
 1273              		.loc 1 140 26 view .LVU405
 1274 0138 39210010 		addi 9,1,16
 1275              		.loc 1 140 18 view .LVU406
 1276 013c FC010032 		fmul 0,1,0
 1277              		.loc 1 140 26 view .LVU407
 1278 0140 FC00001E 		fctiwz 0,0
 1279 0144 7C004FAE 		stfiwx 0,0,9
 1280 0148 81210010 		lwz 9,16(1)
 1281              	.LVL97:
 1282              	.L98:
 1283              		.loc 1 133 2 is_stmt 1 view .LVU408
 1284              		.loc 1 135 2 view .LVU409
 1285              		.loc 1 138 3 view .LVU410
 1286              	.LBB57:
 1287              	.LBI54:
 1288              		.loc 2 186 3 view .LVU411
 1289              	.LBB56:
 1290              		.loc 2 187 5 view .LVU412
 1291              		.loc 2 187 5 is_stmt 0 view .LVU413
 1292              	.LBE56:
 1293              	.LBE57:
 1294              		.loc 1 140 2 is_stmt 1 view .LVU414
 1295              		.loc 1 140 2 is_stmt 0 view .LVU415
 1296              	.LBE58:
 1297              	.LBE52:
 1298              		.loc 1 223 4 discriminator 1 view .LVU416
 1299 014c 7D290774 		extsb 9,9
 1300 0150 80010034 		lwz 0,52(1)
 1301 0154 2C090032 		cmpwi 0,9,50
 1302 0158 CBE10028 		lfd 31,40(1)
 1303              		.cfi_restore 63
 1304 015c 7C0803A6 		mtlr 0
 1305              		.cfi_restore 65
 1306 0160 4181FEF4 		bgt+ 0,.L91
 1307              		.loc 1 242 9 view .LVU417
 1308 0164 38600000 		li 3,0
 1309              	.LVL98:
 1310              		.loc 1 242 9 view .LVU418
 1311 0168 4BFFFF20 		b .L116
 1312              	.LVL99:
 1313              	.L115:
 1314              		.loc 1 233 4 is_stmt 1 view .LVU419
 1315              		.loc 1 233 16 is_stmt 0 view .LVU420
 1316 016c 39200003 		li 9,3
 1317 0170 912A0000 		stw 9,_ZL11scrollDelay@l(10)
 1318              		.loc 1 234 4 is_stmt 1 view .LVU421
 1319              		.loc 1 234 11 is_stmt 0 view .LVU422
 1320 0174 4BFFFF34 		b .L102
 1321              	.LVL100:
 1322              	.L111:
 1323              		.cfi_offset 63, -8
 1324              		.loc 1 234 11 view .LVU423
 1325 0178 CBE10028 		lfd 31,40(1)
 1326              		.cfi_restore 63
 1327              		.loc 1 242 9 view .LVU424
 1328 017c 38600000 		li 3,0
 1329              	.LVL101:
 1330              		.loc 1 242 9 view .LVU425
 1331 0180 4BFFFF08 		b .L116
 1332              	.LVL102:
 1333              	.L108:
 1334              		.cfi_offset 63, -8
 1335              		.cfi_offset 65, 4
 1336              	.LBB60:
 1337              	.LBB59:
 1338              		.loc 1 132 7 is_stmt 1 view .LVU426
 1339 0184 3D200000 		lis 9,.LC1@ha
 1340 0188 C0090000 		lfs 0,.LC1@l(9)
 1341 018c FC1F0000 		fcmpu 0,31,0
 1342 0190 40800040 		bnl- 0,.L117
 1343              		.loc 1 132 23 discriminator 1 view .LVU427
 1344              	.LVL103:
 1345              		.loc 1 138 7 is_stmt 0 discriminator 1 view .LVU428
 1346 0194 FC000850 		fneg 0,1
 1347              		.loc 1 140 18 view .LVU429
 1348 0198 3D200000 		lis 9,.LC6@ha
 1349 019c C1890000 		lfs 12,.LC6@l(9)
 1350              		.loc 1 140 26 view .LVU430
 1351 01a0 39210008 		addi 9,1,8
 1352              		.loc 1 138 7 discriminator 1 view .LVU431
 1353 01a4 FC200090 		fmr 1,0
 1354              		.loc 1 140 18 view .LVU432
 1355 01a8 FC010332 		fmul 0,1,12
 1356              		.loc 1 140 26 view .LVU433
 1357 01ac FC00001E 		fctiwz 0,0
 1358 01b0 7C004FAE 		stfiwx 0,0,9
 1359 01b4 81210008 		lwz 9,8(1)
 1360 01b8 4BFFFF94 		b .L98
 1361              	.LVL104:
 1362              	.L92:
 1363              		.cfi_restore 65
 1364              		.loc 1 140 26 view .LVU434
 1365 01bc 7C0802A6 		mflr 0
 1366              		.cfi_register 65, 0
 1367              		.loc 1 116 9 view .LVU435
 1368 01c0 C3EA011C 		lfs 31,284(10)
 1369 01c4 90010034 		stw 0,52(1)
 1370              		.cfi_offset 65, 4
 1371              		.loc 1 113 3 is_stmt 1 view .LVU436
 1372              		.loc 1 114 4 view .LVU437
 1373              		.loc 1 116 5 view .LVU438
 1374              	.LVL105:
 1375              		.loc 1 117 5 view .LVU439
 1376              		.loc 1 117 9 is_stmt 0 view .LVU440
 1377 01c8 C00A0118 		lfs 0,280(10)
 1378              	.LVL106:
 1379              		.loc 1 117 9 view .LVU441
 1380 01cc 4BFFFF30 		b .L95
 1381              	.LVL107:
 1382              	.L117:
 1383              		.loc 1 138 13 discriminator 1 view .LVU442
 1384 01d0 EC1F0072 		fmuls 0,31,1
 1385              		.loc 1 140 18 view .LVU443
 1386 01d4 3D200000 		lis 9,.LC6@ha
 1387 01d8 C1890000 		lfs 12,.LC6@l(9)
 1388              		.loc 1 140 26 view .LVU444
 1389 01dc 3921000C 		addi 9,1,12
 1390              		.loc 1 140 18 view .LVU445
 1391 01e0 FC000332 		fmul 0,0,12
 1392              		.loc 1 140 26 view .LVU446
 1393 01e4 FC00001E 		fctiwz 0,0
 1394 01e8 7C004FAE 		stfiwx 0,0,9
 1395 01ec 8121000C 		lwz 9,12(1)
 1396 01f0 4BFFFF5C 		b .L98
 1397              	.LBE59:
 1398              	.LBE60:
 1399              		.cfi_endproc
 1400              	.LFE2345:
 1401              		.size	_ZN10GuiTrigger2UpEv, .-_ZN10GuiTrigger2UpEv
 1402              		.section	.text._ZN10GuiTrigger4DownEv,"ax",@progbits
 1403              		.align 2
 1404              		.globl _ZN10GuiTrigger4DownEv
 1405              		.type	_ZN10GuiTrigger4DownEv, @function
 1406              	_ZN10GuiTrigger4DownEv:
 1407              	.LVL108:
 1408              	.LFB2346:
 1409              		.loc 1 246 1 is_stmt 1 view -0
 1410              		.cfi_startproc
 1411              		.loc 1 247 2 view .LVU448
 1412              		.loc 1 249 2 view .LVU449
 1413              		.loc 1 249 6 is_stmt 0 view .LVU450
 1414 0000 81430008 		lwz 10,8(3)
 1415              		.loc 1 246 1 view .LVU451
 1416 0004 9421FFD0 		stwu 1,-48(1)
 1417              		.cfi_def_cfa_offset 48
 1418              		.loc 1 249 16 view .LVU452
 1419 0008 810A00F8 		lwz 8,248(10)
 1420              		.loc 1 246 1 view .LVU453
 1421 000c 93C10020 		stw 30,32(1)
 1422              		.cfi_offset 30, -16
 1423              		.loc 1 250 10 view .LVU454
 1424 0010 3FC04000 		lis 30,0x4000
 1425              		.loc 1 249 2 view .LVU455
 1426 0014 3928FFFE 		addi 9,8,-2
 1427              		.loc 1 246 1 view .LVU456
 1428 0018 93A1001C 		stw 29,28(1)
 1429              		.loc 1 249 2 view .LVU457
 1430 001c 28090001 		cmplwi 0,9,1
 1431              		.loc 1 250 10 view .LVU458
 1432 0020 63DE0400 		ori 30,30,0x400
 1433              		.cfi_offset 29, -20
 1434              		.loc 1 249 2 view .LVU459
 1435 0024 40810008 		ble- 0,.L119
 1436 0028 3BC00400 		li 30,1024
 1437              	.L119:
 1438              	.LVL109:
 1439              		.loc 1 254 2 is_stmt 1 view .LVU460
 1440              		.loc 1 254 13 is_stmt 0 view .LVU461
 1441 002c 83AA0014 		lwz 29,20(10)
 1442              		.loc 1 254 20 view .LVU462
 1443 0030 812A000C 		lwz 9,12(10)
 1444 0034 7FA94B78 		or 9,29,9
 1445              		.loc 1 257 4 view .LVU463
 1446 0038 7D29F039 		and. 9,9,30
 1447 003c 40820018 		bne- 0,.L120
 1448              		.loc 1 255 19 view .LVU464
 1449 0040 A1230160 		lhz 9,352(3)
 1450 0044 A0E30164 		lhz 7,356(3)
 1451 0048 7D293B78 		or 9,9,7
 1452              		.loc 1 255 4 view .LVU465
 1453 004c 71290004 		andi. 9,9,0x4
 1454 0050 41820070 		beq- 0,.L143
 1455              	.L120:
 1456              		.loc 1 259 3 is_stmt 1 view .LVU466
 1457 0054 7FBDF039 		and. 29,29,30
 1458 0058 40820044 		bne- 0,.L129
 1459              		.loc 1 260 4 is_stmt 0 view .LVU467
 1460 005c A1230160 		lhz 9,352(3)
 1461 0060 71290004 		andi. 9,9,0x4
 1462 0064 40820038 		bne- 0,.L129
 1463              		.loc 1 265 8 is_stmt 1 view .LVU468
 1464              		.loc 1 265 23 is_stmt 0 view .LVU469
 1465 0068 3D400000 		lis 10,_ZL11scrollDelay@ha
 1466 006c 812A0000 		lwz 9,_ZL11scrollDelay@l(10)
 1467              		.loc 1 265 8 view .LVU470
 1468 0070 2C090000 		cmpwi 0,9,0
 1469 0074 418200F8 		beq- 0,.L144
 1470              		.loc 1 272 4 is_stmt 1 view .LVU471
 1471 0078 4081000C 		ble- 0,.L123
 1472              		.loc 1 273 5 view .LVU472
 1473              		.loc 1 273 16 is_stmt 0 view .LVU473
 1474 007c 3929FFFF 		addi 9,9,-1
 1475 0080 912A0000 		stw 9,_ZL11scrollDelay@l(10)
 1476              	.L123:
 1477              		.loc 1 276 9 view .LVU474
 1478 0084 38600000 		li 3,0
 1479              	.LVL110:
 1480              	.L145:
 1481              		.loc 1 277 1 view .LVU475
 1482 0088 83A1001C 		lwz 29,28(1)
 1483 008c 546307FE 		rlwinm 3,3,0,31,31
 1484 0090 83C10020 		lwz 30,32(1)
 1485              	.LVL111:
 1486              		.loc 1 277 1 view .LVU476
 1487 0094 38210030 		addi 1,1,48
 1488              		.cfi_remember_state
 1489              		.cfi_restore 30
 1490              		.cfi_restore 29
 1491              		.cfi_def_cfa_offset 0
 1492 0098 4E800020 		blr
 1493              	.LVL112:
 1494              	.L129:
 1495              		.cfi_restore_state
 1496              		.loc 1 262 4 is_stmt 1 view .LVU477
 1497              		.loc 1 262 16 is_stmt 0 view .LVU478
 1498 009c 3D200000 		lis 9,_ZL11scrollDelay@ha
 1499 00a0 39400014 		li 10,20
 1500 00a4 91490000 		stw 10,_ZL11scrollDelay@l(9)
 1501              		.loc 1 263 4 is_stmt 1 view .LVU479
 1502              	.L131:
 1503              		.loc 1 263 11 is_stmt 0 view .LVU480
 1504 00a8 38600001 		li 3,1
 1505              	.LVL113:
 1506              		.loc 1 277 1 view .LVU481
 1507 00ac 83A1001C 		lwz 29,28(1)
 1508 00b0 83C10020 		lwz 30,32(1)
 1509              	.LVL114:
 1510              		.loc 1 277 1 view .LVU482
 1511 00b4 546307FE 		rlwinm 3,3,0,31,31
 1512 00b8 38210030 		addi 1,1,48
 1513              		.cfi_remember_state
 1514              		.cfi_restore 30
 1515              		.cfi_restore 29
 1516              		.cfi_def_cfa_offset 0
 1517 00bc 4E800020 		blr
 1518              	.LVL115:
 1519              	.L143:
 1520              		.cfi_restore_state
 1521              		.loc 1 256 4 view .LVU483
 1522 00c0 89230167 		lbz 9,359(3)
 1523 00c4 7D290774 		extsb 9,9
 1524 00c8 2C09FFCE 		cmpwi 0,9,-50
 1525 00cc 41A0FF88 		blt- 0,.L120
 1526              	.LBB67:
 1527              	.LBB68:
 1528              		.loc 1 95 2 view .LVU484
 1529 00d0 2C080002 		cmpwi 0,8,2
 1530 00d4 DBE10028 		stfd 31,40(1)
 1531              		.cfi_offset 63, -8
 1532              	.LVL116:
 1533              		.loc 1 95 2 view .LVU485
 1534              	.LBE68:
 1535              	.LBI67:
 1536              		.loc 1 90 4 is_stmt 1 view .LVU486
 1537              	.LBB73:
 1538              		.loc 1 92 2 view .LVU487
 1539              		.loc 1 93 2 view .LVU488
 1540              		.loc 1 95 2 view .LVU489
 1541 00d8 418200E4 		beq- 0,.L121
 1542 00dc 2C080003 		cmpwi 0,8,3
 1543 00e0 4182000C 		beq- 0,.L122
 1544 00e4 2C080001 		cmpwi 0,8,1
 1545 00e8 40820090 		bne- 0,.L140
 1546              	.L122:
 1547              		.loc 1 95 2 is_stmt 0 view .LVU490
 1548 00ec 7C0802A6 		mflr 0
 1549              		.cfi_register 65, 0
 1550              		.loc 1 108 9 view .LVU491
 1551 00f0 C3EA0120 		lfs 31,288(10)
 1552 00f4 90010034 		stw 0,52(1)
 1553              		.cfi_offset 65, 4
 1554              		.loc 1 105 3 is_stmt 1 view .LVU492
 1555              		.loc 1 106 4 view .LVU493
 1556              		.loc 1 108 5 view .LVU494
 1557              	.LVL117:
 1558              		.loc 1 109 5 view .LVU495
 1559              		.loc 1 109 9 is_stmt 0 view .LVU496
 1560 00f8 C00A011C 		lfs 0,284(10)
 1561              	.LVL118:
 1562              	.L124:
 1563              		.loc 1 131 2 is_stmt 1 view .LVU497
 1564              		.loc 1 138 23 is_stmt 0 view .LVU498
 1565 00fc 3D400000 		lis 10,.LC3@ha
 1566              		.loc 1 138 18 view .LVU499
 1567 0100 3D200000 		lis 9,.LC4@ha
 1568              		.loc 1 138 23 view .LVU500
 1569 0104 C18A0000 		lfs 12,.LC3@l(10)
 1570              		.loc 1 138 18 view .LVU501
 1571 0108 C0290000 		lfs 1,.LC4@l(9)
 1572              		.loc 1 138 23 view .LVU502
 1573 010c EC000332 		fmuls 0,0,12
 1574              	.LVL119:
 1575              		.loc 1 138 23 view .LVU503
 1576 0110 90610014 		stw 3,20(1)
 1577              	.LBB69:
 1578              	.LBB70:
 1579              		.loc 2 187 26 view .LVU504
 1580 0114 EC200824 		fdivs 1,0,1
 1581 0118 48000001 		bl cosf
 1582              	.LVL120:
 1583              		.loc 2 187 26 view .LVU505
 1584              	.LBE70:
 1585              	.LBE69:
 1586              		.loc 1 131 2 view .LVU506
 1587 011c 3D200000 		lis 9,.LC0@ha
 1588 0120 C0090000 		lfs 0,.LC0@l(9)
 1589 0124 80610014 		lwz 3,20(1)
 1590 0128 FC1F0000 		fcmpu 0,31,0
 1591 012c 40810058 		bng- 0,.L137
 1592              	.LVL121:
 1593              		.loc 1 140 18 view .LVU507
 1594 0130 3D200000 		lis 9,.LC6@ha
 1595 0134 C0090000 		lfs 0,.LC6@l(9)
 1596              		.loc 1 140 26 view .LVU508
 1597 0138 39210010 		addi 9,1,16
 1598              		.loc 1 140 18 view .LVU509
 1599 013c FC010032 		fmul 0,1,0
 1600              		.loc 1 140 26 view .LVU510
 1601 0140 FC00001E 		fctiwz 0,0
 1602 0144 7C004FAE 		stfiwx 0,0,9
 1603 0148 81210010 		lwz 9,16(1)
 1604              	.LVL122:
 1605              	.L127:
 1606              		.loc 1 133 2 is_stmt 1 view .LVU511
 1607              		.loc 1 135 2 view .LVU512
 1608              		.loc 1 138 3 view .LVU513
 1609              	.LBB72:
 1610              	.LBI69:
 1611              		.loc 2 186 3 view .LVU514
 1612              	.LBB71:
 1613              		.loc 2 187 5 view .LVU515
 1614              		.loc 2 187 5 is_stmt 0 view .LVU516
 1615              	.LBE71:
 1616              	.LBE72:
 1617              		.loc 1 140 2 is_stmt 1 view .LVU517
 1618              		.loc 1 140 2 is_stmt 0 view .LVU518
 1619              	.LBE73:
 1620              	.LBE67:
 1621              		.loc 1 257 4 discriminator 1 view .LVU519
 1622 014c 7D290774 		extsb 9,9
 1623 0150 80010034 		lwz 0,52(1)
 1624 0154 2C09FFCE 		cmpwi 0,9,-50
 1625 0158 CBE10028 		lfd 31,40(1)
 1626              		.cfi_restore 63
 1627 015c 7C0803A6 		mtlr 0
 1628              		.cfi_restore 65
 1629 0160 4180FEF4 		blt+ 0,.L120
 1630              		.loc 1 276 9 view .LVU520
 1631 0164 38600000 		li 3,0
 1632              	.LVL123:
 1633              		.loc 1 276 9 view .LVU521
 1634 0168 4BFFFF20 		b .L145
 1635              	.LVL124:
 1636              	.L144:
 1637              		.loc 1 267 4 is_stmt 1 view .LVU522
 1638              		.loc 1 267 16 is_stmt 0 view .LVU523
 1639 016c 39200003 		li 9,3
 1640 0170 912A0000 		stw 9,_ZL11scrollDelay@l(10)
 1641              		.loc 1 268 4 is_stmt 1 view .LVU524
 1642              		.loc 1 268 11 is_stmt 0 view .LVU525
 1643 0174 4BFFFF34 		b .L131
 1644              	.LVL125:
 1645              	.L140:
 1646              		.cfi_offset 63, -8
 1647              		.loc 1 268 11 view .LVU526
 1648 0178 CBE10028 		lfd 31,40(1)
 1649              		.cfi_restore 63
 1650              		.loc 1 276 9 view .LVU527
 1651 017c 38600000 		li 3,0
 1652              	.LVL126:
 1653              		.loc 1 276 9 view .LVU528
 1654 0180 4BFFFF08 		b .L145
 1655              	.LVL127:
 1656              	.L137:
 1657              		.cfi_offset 63, -8
 1658              		.cfi_offset 65, 4
 1659              	.LBB75:
 1660              	.LBB74:
 1661              		.loc 1 132 7 is_stmt 1 view .LVU529
 1662 0184 3D200000 		lis 9,.LC1@ha
 1663 0188 C0090000 		lfs 0,.LC1@l(9)
 1664 018c FC1F0000 		fcmpu 0,31,0
 1665 0190 40800040 		bnl- 0,.L146
 1666              		.loc 1 132 23 discriminator 1 view .LVU530
 1667              	.LVL128:
 1668              		.loc 1 138 7 is_stmt 0 discriminator 1 view .LVU531
 1669 0194 FC000850 		fneg 0,1
 1670              		.loc 1 140 18 view .LVU532
 1671 0198 3D200000 		lis 9,.LC6@ha
 1672 019c C1890000 		lfs 12,.LC6@l(9)
 1673              		.loc 1 140 26 view .LVU533
 1674 01a0 39210008 		addi 9,1,8
 1675              		.loc 1 138 7 discriminator 1 view .LVU534
 1676 01a4 FC200090 		fmr 1,0
 1677              		.loc 1 140 18 view .LVU535
 1678 01a8 FC010332 		fmul 0,1,12
 1679              		.loc 1 140 26 view .LVU536
 1680 01ac FC00001E 		fctiwz 0,0
 1681 01b0 7C004FAE 		stfiwx 0,0,9
 1682 01b4 81210008 		lwz 9,8(1)
 1683 01b8 4BFFFF94 		b .L127
 1684              	.LVL129:
 1685              	.L121:
 1686              		.cfi_restore 65
 1687              		.loc 1 140 26 view .LVU537
 1688 01bc 7C0802A6 		mflr 0
 1689              		.cfi_register 65, 0
 1690              		.loc 1 116 9 view .LVU538
 1691 01c0 C3EA011C 		lfs 31,284(10)
 1692 01c4 90010034 		stw 0,52(1)
 1693              		.cfi_offset 65, 4
 1694              		.loc 1 113 3 is_stmt 1 view .LVU539
 1695              		.loc 1 114 4 view .LVU540
 1696              		.loc 1 116 5 view .LVU541
 1697              	.LVL130:
 1698              		.loc 1 117 5 view .LVU542
 1699              		.loc 1 117 9 is_stmt 0 view .LVU543
 1700 01c8 C00A0118 		lfs 0,280(10)
 1701              	.LVL131:
 1702              		.loc 1 117 9 view .LVU544
 1703 01cc 4BFFFF30 		b .L124
 1704              	.LVL132:
 1705              	.L146:
 1706              		.loc 1 138 13 discriminator 1 view .LVU545
 1707 01d0 EC1F0072 		fmuls 0,31,1
 1708              		.loc 1 140 18 view .LVU546
 1709 01d4 3D200000 		lis 9,.LC6@ha
 1710 01d8 C1890000 		lfs 12,.LC6@l(9)
 1711              		.loc 1 140 26 view .LVU547
 1712 01dc 3921000C 		addi 9,1,12
 1713              		.loc 1 140 18 view .LVU548
 1714 01e0 FC000332 		fmul 0,0,12
 1715              		.loc 1 140 26 view .LVU549
 1716 01e4 FC00001E 		fctiwz 0,0
 1717 01e8 7C004FAE 		stfiwx 0,0,9
 1718 01ec 8121000C 		lwz 9,12(1)
 1719 01f0 4BFFFF5C 		b .L127
 1720              	.LBE74:
 1721              	.LBE75:
 1722              		.cfi_endproc
 1723              	.LFE2346:
 1724              		.size	_ZN10GuiTrigger4DownEv, .-_ZN10GuiTrigger4DownEv
 1725              		.section	.bss._ZL11scrollDelay,"aw",@nobits
 1726              		.align 2
 1727              		.type	_ZL11scrollDelay, @object
 1728              		.size	_ZL11scrollDelay, 4
 1729              	_ZL11scrollDelay:
 1730 0000 00000000 		.zero	4
 1731              		.section	.rodata.cst4,"aM",@progbits,4
 1732              		.align 2
 1733              	.LC0:
 1734 0000 3F800000 		.long	1065353216
 1735              		.align 2
 1736              	.LC1:
 1737 0004 BF800000 		.long	-1082130432
 1738              		.align 2
 1739              	.LC2:
 1740 0008 00000000 		.long	0
 1741              		.align 2
 1742              	.LC3:
 1743 000c 40490FDB 		.long	1078530011
 1744              		.align 2
 1745              	.LC4:
 1746 0010 43340000 		.long	1127481344
 1747              		.align 2
 1748              	.LC6:
 1749 0014 43000000 		.long	1124073472
 1750              		.section	".text"
 1751              	.Letext0:
 1752              		.file 3 "C:/devkitPro/devkitPPC/powerpc-eabi/include/machine/_default_types.h"
 1753              		.file 4 "C:/devkitPro/devkitPPC/powerpc-eabi/include/sys/_stdint.h"
 1754              		.file 5 "C:/devkitPro/libogc/include/gctypes.h"
 1755              		.file 6 "C:/devkitPro/libogc/include/ogc/gx.h"
 1756              		.file 7 "C:/devkitPro/devkitPPC/lib/gcc/powerpc-eabi/13.1.0/include/stddef.h"
 1757              		.file 8 "C:/devkitPro/devkitPPC/powerpc-eabi/include/stdlib.h"
 1758              		.file 9 "C:/devkitPro/devkitPPC/powerpc-eabi/include/c++/13.1.0/cstdlib"
 1759              		.file 10 "C:/devkitPro/devkitPPC/powerpc-eabi/include/c++/13.1.0/bits/std_abs.h"
 1760              		.file 11 "C:/devkitPro/devkitPPC/powerpc-eabi/include/c++/13.1.0/type_traits"
 1761              		.file 12 "C:/devkitPro/devkitPPC/powerpc-eabi/include/c++/13.1.0/debug/debug.h"
 1762              		.file 13 "C:/devkitPro/devkitPPC/powerpc-eabi/include/c++/13.1.0/powerpc-eabi/bits/c++config.h"
 1763              		.file 14 "C:/devkitPro/devkitPPC/powerpc-eabi/include/c++/13.1.0/cstddef"
 1764              		.file 15 "C:/devkitPro/devkitPPC/powerpc-eabi/include/c++/13.1.0/bits/exception_ptr.h"
 1765              		.file 16 "C:/devkitPro/devkitPPC/powerpc-eabi/include/c++/13.1.0/bits/predefined_ops.h"
 1766              		.file 17 "C:/devkitPro/devkitPPC/powerpc-eabi/include/c++/13.1.0/stdlib.h"
 1767              		.file 18 "C:/devkitPro/devkitPPC/powerpc-eabi/include/math.h"
 1768              		.file 19 "C:/devkitPro/devkitPPC/powerpc-eabi/include/c++/13.1.0/math.h"
 1769              		.file 20 "C:/devkitPro/libogc/include/wiiuse/wiiuse.h"
 1770              		.file 21 "C:/devkitPro/libogc/include/wiiuse/wpad.h"
 1771              		.file 22 "F:/GameModding/MarioKartWii/Mods/Distro/RetroRewind6/dev/Launcher/RRLauncher/launcher/bu
 1772              		.file 23 "F:/GameModding/MarioKartWii/Mods/Distro/RetroRewind6/dev/Launcher/RRLauncher/launcher/bu
 1773              		.file 24 "F:/GameModding/MarioKartWii/Mods/Distro/RetroRewind6/dev/Launcher/RRLauncher/launcher/bu
 1774              		.file 25 "F:/GameModding/MarioKartWii/Mods/Distro/RetroRewind6/dev/Launcher/RRLauncher/launcher/bu
 1775              		.file 26 "F:/GameModding/MarioKartWii/Mods/Distro/RetroRewind6/dev/Launcher/RRLauncher/launcher/bu
 1776              		.file 27 "F:/GameModding/MarioKartWii/Mods/Distro/RetroRewind6/dev/Launcher/RRLauncher/launcher/bu
 1777              		.file 28 "F:/GameModding/MarioKartWii/Mods/Distro/RetroRewind6/dev/Launcher/RRLauncher/launcher/bu
 1778              		.file 29 "F:/GameModding/MarioKartWii/Mods/Distro/RetroRewind6/dev/Launcher/RRLauncher/launcher/bu
 1779              		.file 30 "F:/GameModding/MarioKartWii/Mods/Distro/RetroRewind6/dev/Launcher/RRLauncher/launcher/bu
 1780              		.file 31 "F:/GameModding/MarioKartWii/Mods/Distro/RetroRewind6/dev/Launcher/RRLauncher/launcher/bu
 1781              		.file 32 "F:/GameModding/MarioKartWii/Mods/Distro/RetroRewind6/dev/Launcher/RRLauncher/launcher/bu
 1782              		.file 33 "F:/GameModding/MarioKartWii/Mods/Distro/RetroRewind6/dev/Launcher/RRLauncher/launcher/bu
 1783              		.file 34 "F:/GameModding/MarioKartWii/Mods/Distro/RetroRewind6/dev/Launcher/RRLauncher/launcher/bu
 1784              		.file 35 "F:/GameModding/MarioKartWii/Mods/Distro/RetroRewind6/dev/Launcher/RRLauncher/launcher/bu
 1785              		.file 36 "F:/GameModding/MarioKartWii/Mods/Distro/RetroRewind6/dev/Launcher/RRLauncher/launcher/bu
 1786              		.file 37 "F:/GameModding/MarioKartWii/Mods/Distro/RetroRewind6/dev/Launcher/RRLauncher/launcher/bu
 1787              		.file 38 "F:/GameModding/MarioKartWii/Mods/Distro/RetroRewind6/dev/Launcher/RRLauncher/launcher/bu
 1788              		.file 39 "F:/GameModding/MarioKartWii/Mods/Distro/RetroRewind6/dev/Launcher/RRLauncher/launcher/bu
 1789              		.file 40 "F:/GameModding/MarioKartWii/Mods/Distro/RetroRewind6/dev/Launcher/RRLauncher/launcher/bu
 1790              		.file 41 "F:/GameModding/MarioKartWii/Mods/Distro/RetroRewind6/dev/Launcher/RRLauncher/launcher/bu
 1791              		.file 42 "F:/GameModding/MarioKartWii/Mods/Distro/RetroRewind6/dev/Launcher/RRLauncher/launcher/bu
 1792              		.file 43 "F:/GameModding/MarioKartWii/Mods/Distro/RetroRewind6/dev/Launcher/RRLauncher/launcher/bu
 1793              		.file 44 "F:/GameModding/MarioKartWii/Mods/Distro/RetroRewind6/dev/Launcher/RRLauncher/launcher/bu
 1794              		.file 45 "F:/GameModding/MarioKartWii/Mods/Distro/RetroRewind6/dev/Launcher/RRLauncher/launcher/bu
 1795              		.file 46 "F:/GameModding/MarioKartWii/Mods/Distro/RetroRewind6/dev/Launcher/RRLauncher/launcher/bu
 1796              		.file 47 "F:/GameModding/MarioKartWii/Mods/Distro/RetroRewind6/dev/Launcher/RRLauncher/launcher/bu
 1797              		.file 48 "F:/GameModding/MarioKartWii/Mods/Distro/RetroRewind6/dev/Launcher/RRLauncher/launcher/bu
 1798              		.file 49 "F:/GameModding/MarioKartWii/Mods/Distro/RetroRewind6/dev/Launcher/RRLauncher/launcher/bu
 1799              		.file 50 "F:/GameModding/MarioKartWii/Mods/Distro/RetroRewind6/dev/Launcher/RRLauncher/launcher/bu
 1800              		.file 51 "F:/GameModding/MarioKartWii/Mods/Distro/RetroRewind6/dev/Launcher/RRLauncher/launcher/bu
 1801              		.file 52 "F:/GameModding/MarioKartWii/Mods/Distro/RetroRewind6/dev/Launcher/RRLauncher/launcher/bu
 1802              		.file 53 "F:/GameModding/MarioKartWii/Mods/Distro/RetroRewind6/dev/Launcher/RRLauncher/launcher/bu
 1803              		.file 54 "F:/GameModding/MarioKartWii/Mods/Distro/RetroRewind6/dev/Launcher/RRLauncher/launcher/bu
 1804              		.file 55 "F:/GameModding/MarioKartWii/Mods/Distro/RetroRewind6/dev/Launcher/RRLauncher/launcher/bu
 1805              		.file 56 "F:/GameModding/MarioKartWii/Mods/Distro/RetroRewind6/dev/Launcher/RRLauncher/launcher/bu
 1806              		.file 57 "F:/GameModding/MarioKartWii/Mods/Distro/RetroRewind6/dev/Launcher/RRLauncher/launcher/li
 1807              		.file 58 "F:/GameModding/MarioKartWii/Mods/Distro/RetroRewind6/dev/Launcher/RRLauncher/launcher/li
 1808              		.file 59 "C:/devkitPro/devkitPPC/powerpc-eabi/include/string.h"
 1809              		.file 60 "C:/devkitPro/devkitPPC/powerpc-eabi/include/c++/13.1.0/bits/memory_resource.h"