   1              		.file	"gui_keyboard.cpp"
   2              		.machine ppc
   3              		.section	".text"
   4              	.Ltext0:
   5              		.file 1 "F:/GameModding/MarioKartWii/Mods/Distro/RetroRewind6/dev/Launcher/RRLauncher/launcher/lib
   6              		.section	.text._ZN11GuiKeyboardD2Ev,"ax",@progbits
   7              		.align 2
   8              		.globl _ZN11GuiKeyboardD2Ev
   9              		.type	_ZN11GuiKeyboardD2Ev, @function
  10              	_ZN11GuiKeyboardD2Ev:
  11              	.LVL0:
  12              	.LFB2337:
  13              		.loc 1 216 1 view -0
  14              		.cfi_startproc
  15              		.loc 1 216 1 is_stmt 0 view .LVU1
  16 0000 9421FFD8 		stwu 1,-40(1)
  17              		.cfi_def_cfa_offset 40
  18              	.LBB29:
  19              		.loc 1 216 27 view .LVU2
  20 0004 3D200000 		lis 9,_ZTV11GuiKeyboard+8@ha
  21              	.LBE29:
  22              		.loc 1 216 1 view .LVU3
  23 0008 7C0802A6 		mflr 0
  24              	.LBB38:
  25              		.loc 1 216 27 view .LVU4
  26 000c 39290000 		la 9,_ZTV11GuiKeyboard+8@l(9)
  27              	.LBE38:
  28              		.loc 1 216 1 view .LVU5
  29 0010 93810018 		stw 28,24(1)
  30              		.cfi_register 65, 0
  31              		.cfi_offset 28, -16
  32 0014 7C7C1B78 		mr 28,3
  33              	.LBB39:
  34              	.LBB30:
  35              		.loc 1 218 9 view .LVU6
  36 0018 806301F4 		lwz 3,500(3)
  37              	.LVL1:
  38              		.loc 1 218 9 view .LVU7
  39              	.LBE30:
  40              	.LBE39:
  41              		.loc 1 216 1 view .LVU8
  42 001c 9001002C 		stw 0,44(1)
  43              	.LBB40:
  44              	.LBB35:
  45              		.loc 1 218 2 view .LVU9
  46 0020 2C030000 		cmpwi 0,3,0
  47              	.LBE35:
  48              	.LBE40:
  49              		.loc 1 216 1 view .LVU10
  50 0024 9321000C 		stw 25,12(1)
  51 0028 93410010 		stw 26,16(1)
  52 002c 93610014 		stw 27,20(1)
  53 0030 93A1001C 		stw 29,28(1)
  54 0034 93C10020 		stw 30,32(1)
  55 0038 93E10024 		stw 31,36(1)
  56              		.cfi_offset 65, 4
  57              		.cfi_offset 25, -28
  58              		.cfi_offset 26, -24
  59              		.cfi_offset 27, -20
  60              		.cfi_offset 29, -12
  61              		.cfi_offset 30, -8
  62              		.cfi_offset 31, -4
  63              	.LBB41:
  64              		.loc 1 216 27 view .LVU11
  65 003c 913C0000 		stw 9,0(28)
  66              	.LBB36:
  67              		.loc 1 218 2 is_stmt 1 view .LVU12
  68 0040 41820014 		beq- 0,.L2
  69              		.loc 1 218 9 is_stmt 0 discriminator 1 view .LVU13
  70 0044 81230000 		lwz 9,0(3)
  71 0048 81290004 		lwz 9,4(9)
  72 004c 7D2903A6 		mtctr 9
  73 0050 4E800421 		bctrl
  74              	.LVL2:
  75              	.L2:
  76              		.loc 1 219 2 is_stmt 1 view .LVU14
  77              		.loc 1 219 9 is_stmt 0 view .LVU15
  78 0054 83FC04F8 		lwz 31,1272(28)
  79              		.loc 1 219 2 view .LVU16
  80 0058 2C1F0000 		cmpwi 0,31,0
  81 005c 41820018 		beq- 0,.L3
  82              		.loc 1 219 9 discriminator 1 view .LVU17
  83 0060 7FE3FB78 		mr 3,31
  84 0064 48000001 		bl _ZN12GuiImageDataD1Ev
  85              	.LVL3:
  86 0068 3880000C 		li 4,12
  87 006c 7FE3FB78 		mr 3,31
  88 0070 48000001 		bl _ZdlPvj
  89              	.LVL4:
  90              	.L3:
  91              		.loc 1 220 2 is_stmt 1 view .LVU18
  92              		.loc 1 220 9 is_stmt 0 view .LVU19
  93 0074 807C01F8 		lwz 3,504(28)
  94              		.loc 1 220 2 view .LVU20
  95 0078 2C030000 		cmpwi 0,3,0
  96 007c 41820014 		beq- 0,.L4
  97              		.loc 1 220 9 discriminator 1 view .LVU21
  98 0080 81230000 		lwz 9,0(3)
  99 0084 81290004 		lwz 9,4(9)
 100 0088 7D2903A6 		mtctr 9
 101 008c 4E800421 		bctrl
 102              	.LVL5:
 103              	.L4:
 104              		.loc 1 221 2 is_stmt 1 view .LVU22
 105              		.loc 1 221 9 is_stmt 0 view .LVU23
 106 0090 807C01FC 		lwz 3,508(28)
 107              		.loc 1 221 2 view .LVU24
 108 0094 2C030000 		cmpwi 0,3,0
 109 0098 41820014 		beq- 0,.L5
 110              		.loc 1 221 9 discriminator 1 view .LVU25
 111 009c 81230000 		lwz 9,0(3)
 112 00a0 81290004 		lwz 9,4(9)
 113 00a4 7D2903A6 		mtctr 9
 114 00a8 4E800421 		bctrl
 115              	.LVL6:
 116              	.L5:
 117              		.loc 1 222 2 is_stmt 1 view .LVU26
 118              		.loc 1 222 9 is_stmt 0 view .LVU27
 119 00ac 807C0200 		lwz 3,512(28)
 120              		.loc 1 222 2 view .LVU28
 121 00b0 2C030000 		cmpwi 0,3,0
 122 00b4 41820014 		beq- 0,.L6
 123              		.loc 1 222 9 discriminator 1 view .LVU29
 124 00b8 81230000 		lwz 9,0(3)
 125 00bc 81290004 		lwz 9,4(9)
 126 00c0 7D2903A6 		mtctr 9
 127 00c4 4E800421 		bctrl
 128              	.LVL7:
 129              	.L6:
 130              		.loc 1 223 2 is_stmt 1 view .LVU30
 131              		.loc 1 223 9 is_stmt 0 view .LVU31
 132 00c8 807C0204 		lwz 3,516(28)
 133              		.loc 1 223 2 view .LVU32
 134 00cc 2C030000 		cmpwi 0,3,0
 135 00d0 41820014 		beq- 0,.L7
 136              		.loc 1 223 9 discriminator 1 view .LVU33
 137 00d4 81230000 		lwz 9,0(3)
 138 00d8 81290004 		lwz 9,4(9)
 139 00dc 7D2903A6 		mtctr 9
 140 00e0 4E800421 		bctrl
 141              	.LVL8:
 142              	.L7:
 143              		.loc 1 224 2 is_stmt 1 view .LVU34
 144              		.loc 1 224 9 is_stmt 0 view .LVU35
 145 00e4 807C0208 		lwz 3,520(28)
 146              		.loc 1 224 2 view .LVU36
 147 00e8 2C030000 		cmpwi 0,3,0
 148 00ec 41820014 		beq- 0,.L8
 149              		.loc 1 224 9 discriminator 1 view .LVU37
 150 00f0 81230000 		lwz 9,0(3)
 151 00f4 81290004 		lwz 9,4(9)
 152 00f8 7D2903A6 		mtctr 9
 153 00fc 4E800421 		bctrl
 154              	.LVL9:
 155              	.L8:
 156              		.loc 1 225 2 is_stmt 1 view .LVU38
 157              		.loc 1 225 9 is_stmt 0 view .LVU39
 158 0100 807C020C 		lwz 3,524(28)
 159              		.loc 1 225 2 view .LVU40
 160 0104 2C030000 		cmpwi 0,3,0
 161 0108 41820014 		beq- 0,.L9
 162              		.loc 1 225 9 discriminator 1 view .LVU41
 163 010c 81230000 		lwz 9,0(3)
 164 0110 81290004 		lwz 9,4(9)
 165 0114 7D2903A6 		mtctr 9
 166 0118 4E800421 		bctrl
 167              	.LVL10:
 168              	.L9:
 169              		.loc 1 226 2 is_stmt 1 view .LVU42
 170              		.loc 1 226 9 is_stmt 0 view .LVU43
 171 011c 807C0210 		lwz 3,528(28)
 172              		.loc 1 226 2 view .LVU44
 173 0120 2C030000 		cmpwi 0,3,0
 174 0124 41820014 		beq- 0,.L10
 175              		.loc 1 226 9 discriminator 1 view .LVU45
 176 0128 81230000 		lwz 9,0(3)
 177 012c 81290004 		lwz 9,4(9)
 178 0130 7D2903A6 		mtctr 9
 179 0134 4E800421 		bctrl
 180              	.LVL11:
 181              	.L10:
 182              		.loc 1 227 2 is_stmt 1 view .LVU46
 183              		.loc 1 227 9 is_stmt 0 view .LVU47
 184 0138 807C0214 		lwz 3,532(28)
 185              		.loc 1 227 2 view .LVU48
 186 013c 2C030000 		cmpwi 0,3,0
 187 0140 41820014 		beq- 0,.L11
 188              		.loc 1 227 9 discriminator 1 view .LVU49
 189 0144 81230000 		lwz 9,0(3)
 190 0148 81290004 		lwz 9,4(9)
 191 014c 7D2903A6 		mtctr 9
 192 0150 4E800421 		bctrl
 193              	.LVL12:
 194              	.L11:
 195              		.loc 1 228 2 is_stmt 1 view .LVU50
 196              		.loc 1 228 9 is_stmt 0 view .LVU51
 197 0154 807C0218 		lwz 3,536(28)
 198              		.loc 1 228 2 view .LVU52
 199 0158 2C030000 		cmpwi 0,3,0
 200 015c 41820014 		beq- 0,.L12
 201              		.loc 1 228 9 discriminator 1 view .LVU53
 202 0160 81230000 		lwz 9,0(3)
 203 0164 81290004 		lwz 9,4(9)
 204 0168 7D2903A6 		mtctr 9
 205 016c 4E800421 		bctrl
 206              	.LVL13:
 207              	.L12:
 208              		.loc 1 229 2 is_stmt 1 view .LVU54
 209              		.loc 1 229 9 is_stmt 0 view .LVU55
 210 0170 807C021C 		lwz 3,540(28)
 211              		.loc 1 229 2 view .LVU56
 212 0174 2C030000 		cmpwi 0,3,0
 213 0178 41820014 		beq- 0,.L13
 214              		.loc 1 229 9 discriminator 1 view .LVU57
 215 017c 81230000 		lwz 9,0(3)
 216 0180 81290004 		lwz 9,4(9)
 217 0184 7D2903A6 		mtctr 9
 218 0188 4E800421 		bctrl
 219              	.LVL14:
 220              	.L13:
 221              		.loc 1 230 2 is_stmt 1 view .LVU58
 222              		.loc 1 230 9 is_stmt 0 view .LVU59
 223 018c 807C0220 		lwz 3,544(28)
 224              		.loc 1 230 2 view .LVU60
 225 0190 2C030000 		cmpwi 0,3,0
 226 0194 41820014 		beq- 0,.L14
 227              		.loc 1 230 9 discriminator 1 view .LVU61
 228 0198 81230000 		lwz 9,0(3)
 229 019c 81290004 		lwz 9,4(9)
 230 01a0 7D2903A6 		mtctr 9
 231 01a4 4E800421 		bctrl
 232              	.LVL15:
 233              	.L14:
 234              		.loc 1 231 2 is_stmt 1 view .LVU62
 235              		.loc 1 231 9 is_stmt 0 view .LVU63
 236 01a8 807C0224 		lwz 3,548(28)
 237              		.loc 1 231 2 view .LVU64
 238 01ac 2C030000 		cmpwi 0,3,0
 239 01b0 41820014 		beq- 0,.L15
 240              		.loc 1 231 9 discriminator 1 view .LVU65
 241 01b4 81230000 		lwz 9,0(3)
 242 01b8 81290004 		lwz 9,4(9)
 243 01bc 7D2903A6 		mtctr 9
 244 01c0 4E800421 		bctrl
 245              	.LVL16:
 246              	.L15:
 247              		.loc 1 232 2 is_stmt 1 view .LVU66
 248              		.loc 1 232 9 is_stmt 0 view .LVU67
 249 01c4 807C0228 		lwz 3,552(28)
 250              		.loc 1 232 2 view .LVU68
 251 01c8 2C030000 		cmpwi 0,3,0
 252 01cc 41820014 		beq- 0,.L16
 253              		.loc 1 232 9 discriminator 1 view .LVU69
 254 01d0 81230000 		lwz 9,0(3)
 255 01d4 81290004 		lwz 9,4(9)
 256 01d8 7D2903A6 		mtctr 9
 257 01dc 4E800421 		bctrl
 258              	.LVL17:
 259              	.L16:
 260              		.loc 1 233 2 is_stmt 1 view .LVU70
 261              		.loc 1 233 9 is_stmt 0 view .LVU71
 262 01e0 807C022C 		lwz 3,556(28)
 263              		.loc 1 233 2 view .LVU72
 264 01e4 2C030000 		cmpwi 0,3,0
 265 01e8 41820014 		beq- 0,.L17
 266              		.loc 1 233 9 discriminator 1 view .LVU73
 267 01ec 81230000 		lwz 9,0(3)
 268 01f0 81290004 		lwz 9,4(9)
 269 01f4 7D2903A6 		mtctr 9
 270 01f8 4E800421 		bctrl
 271              	.LVL18:
 272              	.L17:
 273              		.loc 1 234 2 is_stmt 1 view .LVU74
 274              		.loc 1 234 9 is_stmt 0 view .LVU75
 275 01fc 807C0230 		lwz 3,560(28)
 276              		.loc 1 234 2 view .LVU76
 277 0200 2C030000 		cmpwi 0,3,0
 278 0204 41820014 		beq- 0,.L18
 279              		.loc 1 234 9 discriminator 1 view .LVU77
 280 0208 81230000 		lwz 9,0(3)
 281 020c 81290004 		lwz 9,4(9)
 282 0210 7D2903A6 		mtctr 9
 283 0214 4E800421 		bctrl
 284              	.LVL19:
 285              	.L18:
 286              		.loc 1 235 2 is_stmt 1 view .LVU78
 287              		.loc 1 235 9 is_stmt 0 view .LVU79
 288 0218 807C0234 		lwz 3,564(28)
 289              		.loc 1 235 2 view .LVU80
 290 021c 2C030000 		cmpwi 0,3,0
 291 0220 41820014 		beq- 0,.L19
 292              		.loc 1 235 9 discriminator 1 view .LVU81
 293 0224 81230000 		lwz 9,0(3)
 294 0228 81290004 		lwz 9,4(9)
 295 022c 7D2903A6 		mtctr 9
 296 0230 4E800421 		bctrl
 297              	.LVL20:
 298              	.L19:
 299              		.loc 1 236 2 is_stmt 1 view .LVU82
 300              		.loc 1 236 9 is_stmt 0 view .LVU83
 301 0234 83FC04FC 		lwz 31,1276(28)
 302              		.loc 1 236 2 view .LVU84
 303 0238 2C1F0000 		cmpwi 0,31,0
 304 023c 41820018 		beq- 0,.L20
 305              		.loc 1 236 9 discriminator 1 view .LVU85
 306 0240 7FE3FB78 		mr 3,31
 307 0244 48000001 		bl _ZN12GuiImageDataD1Ev
 308              	.LVL21:
 309 0248 3880000C 		li 4,12
 310 024c 7FE3FB78 		mr 3,31
 311 0250 48000001 		bl _ZdlPvj
 312              	.LVL22:
 313              	.L20:
 314              		.loc 1 237 2 is_stmt 1 view .LVU86
 315              		.loc 1 237 9 is_stmt 0 view .LVU87
 316 0254 83FC0500 		lwz 31,1280(28)
 317              		.loc 1 237 2 view .LVU88
 318 0258 2C1F0000 		cmpwi 0,31,0
 319 025c 41820018 		beq- 0,.L21
 320              		.loc 1 237 9 discriminator 1 view .LVU89
 321 0260 7FE3FB78 		mr 3,31
 322 0264 48000001 		bl _ZN12GuiImageDataD1Ev
 323              	.LVL23:
 324 0268 3880000C 		li 4,12
 325 026c 7FE3FB78 		mr 3,31
 326 0270 48000001 		bl _ZdlPvj
 327              	.LVL24:
 328              	.L21:
 329              		.loc 1 238 2 is_stmt 1 view .LVU90
 330              		.loc 1 238 9 is_stmt 0 view .LVU91
 331 0274 83FC0504 		lwz 31,1284(28)
 332              		.loc 1 238 2 view .LVU92
 333 0278 2C1F0000 		cmpwi 0,31,0
 334 027c 41820018 		beq- 0,.L22
 335              		.loc 1 238 9 discriminator 1 view .LVU93
 336 0280 7FE3FB78 		mr 3,31
 337 0284 48000001 		bl _ZN12GuiImageDataD1Ev
 338              	.LVL25:
 339 0288 3880000C 		li 4,12
 340 028c 7FE3FB78 		mr 3,31
 341 0290 48000001 		bl _ZdlPvj
 342              	.LVL26:
 343              	.L22:
 344              		.loc 1 239 2 is_stmt 1 view .LVU94
 345              		.loc 1 239 9 is_stmt 0 view .LVU95
 346 0294 83FC0508 		lwz 31,1288(28)
 347              		.loc 1 239 2 view .LVU96
 348 0298 2C1F0000 		cmpwi 0,31,0
 349 029c 41820018 		beq- 0,.L23
 350              		.loc 1 239 9 discriminator 1 view .LVU97
 351 02a0 7FE3FB78 		mr 3,31
 352 02a4 48000001 		bl _ZN12GuiImageDataD1Ev
 353              	.LVL27:
 354 02a8 3880000C 		li 4,12
 355 02ac 7FE3FB78 		mr 3,31
 356 02b0 48000001 		bl _ZdlPvj
 357              	.LVL28:
 358              	.L23:
 359              		.loc 1 240 2 is_stmt 1 view .LVU98
 360              		.loc 1 240 9 is_stmt 0 view .LVU99
 361 02b4 83FC050C 		lwz 31,1292(28)
 362              		.loc 1 240 2 view .LVU100
 363 02b8 2C1F0000 		cmpwi 0,31,0
 364 02bc 41820018 		beq- 0,.L24
 365              		.loc 1 240 9 discriminator 1 view .LVU101
 366 02c0 7FE3FB78 		mr 3,31
 367 02c4 48000001 		bl _ZN12GuiImageDataD1Ev
 368              	.LVL29:
 369 02c8 3880000C 		li 4,12
 370 02cc 7FE3FB78 		mr 3,31
 371 02d0 48000001 		bl _ZdlPvj
 372              	.LVL30:
 373              	.L24:
 374              		.loc 1 241 2 is_stmt 1 view .LVU102
 375              		.loc 1 241 9 is_stmt 0 view .LVU103
 376 02d4 83FC0510 		lwz 31,1296(28)
 377              		.loc 1 241 2 view .LVU104
 378 02d8 2C1F0000 		cmpwi 0,31,0
 379 02dc 41820018 		beq- 0,.L25
 380              		.loc 1 241 9 discriminator 1 view .LVU105
 381 02e0 7FE3FB78 		mr 3,31
 382 02e4 48000001 		bl _ZN12GuiImageDataD1Ev
 383              	.LVL31:
 384 02e8 3880000C 		li 4,12
 385 02ec 7FE3FB78 		mr 3,31
 386 02f0 48000001 		bl _ZdlPvj
 387              	.LVL32:
 388              	.L25:
 389              		.loc 1 242 2 is_stmt 1 view .LVU106
 390              		.loc 1 242 9 is_stmt 0 view .LVU107
 391 02f4 83FC0514 		lwz 31,1300(28)
 392              		.loc 1 242 2 view .LVU108
 393 02f8 2C1F0000 		cmpwi 0,31,0
 394 02fc 41820018 		beq- 0,.L26
 395              		.loc 1 242 9 discriminator 1 view .LVU109
 396 0300 7FE3FB78 		mr 3,31
 397 0304 48000001 		bl _ZN8GuiSoundD1Ev
 398              	.LVL33:
 399 0308 38800018 		li 4,24
 400 030c 7FE3FB78 		mr 3,31
 401 0310 48000001 		bl _ZdlPvj
 402              	.LVL34:
 403              	.L26:
 404              		.loc 1 243 2 is_stmt 1 view .LVU110
 405              		.loc 1 243 9 is_stmt 0 view .LVU111
 406 0314 83FC0518 		lwz 31,1304(28)
 407              		.loc 1 243 2 view .LVU112
 408 0318 2C1F0000 		cmpwi 0,31,0
 409 031c 41820018 		beq- 0,.L27
 410              		.loc 1 243 9 discriminator 1 view .LVU113
 411 0320 7FE3FB78 		mr 3,31
 412 0324 48000001 		bl _ZN8GuiSoundD1Ev
 413              	.LVL35:
 414 0328 38800018 		li 4,24
 415 032c 7FE3FB78 		mr 3,31
 416 0330 48000001 		bl _ZdlPvj
 417              	.LVL36:
 418              	.L27:
 419              		.loc 1 244 2 is_stmt 1 view .LVU114
 420              		.loc 1 244 9 is_stmt 0 view .LVU115
 421 0334 83FC051C 		lwz 31,1308(28)
 422              		.loc 1 244 2 view .LVU116
 423 0338 2C1F0000 		cmpwi 0,31,0
 424 033c 41820018 		beq- 0,.L28
 425              		.loc 1 244 9 discriminator 1 view .LVU117
 426 0340 7FE3FB78 		mr 3,31
 427 0344 48000001 		bl _ZN10GuiTriggerD1Ev
 428              	.LVL37:
 429 0348 3880016C 		li 4,364
 430 034c 7FE3FB78 		mr 3,31
 431 0350 48000001 		bl _ZdlPvj
 432              	.LVL38:
 433              	.LBB31:
 434              		.loc 1 246 16 is_stmt 1 discriminator 1 view .LVU118
 435              	.L28:
 436              		.loc 1 246 16 is_stmt 0 discriminator 1 view .LVU119
 437 0354 3B7C0194 		addi 27,28,404
 438 0358 3B5C0238 		addi 26,28,568
 439 035c 3B3C01EC 		addi 25,28,492
 440              	.L29:
 441              	.LVL39:
 442              	.LBB32:
 443              		.loc 1 248 17 is_stmt 1 discriminator 1 view .LVU120
 444              	.LBE32:
 445              	.LBE31:
 446              	.LBE36:
 447              	.LBE41:
 448              		.loc 1 216 1 is_stmt 0 view .LVU121
 449 0360 7F5FD378 		mr 31,26
 450 0364 7F7DDB78 		mr 29,27
 451 0368 3BC0000B 		li 30,11
 452              	.LVL40:
 453              	.L36:
 454              	.LBB42:
 455              	.LBB37:
 456              	.LBB34:
 457              	.LBB33:
 458              		.loc 1 250 4 is_stmt 1 view .LVU122
 459              		.loc 1 252 5 view .LVU123
 460              		.loc 1 250 4 is_stmt 0 view .LVU124
 461 036c 893D0000 		lbz 9,0(29)
 462 0370 2C090000 		cmpwi 0,9,0
 463 0374 41820084 		beq- 0,.L31
 464              		.loc 1 252 23 view .LVU125
 465 0378 813F00B0 		lwz 9,176(31)
 466              		.loc 1 252 5 view .LVU126
 467 037c 2C090000 		cmpwi 0,9,0
 468              		.loc 1 252 23 discriminator 1 view .LVU127
 469 0380 7D234B78 		mr 3,9
 470              		.loc 1 252 5 view .LVU128
 471 0384 41820014 		beq- 0,.L32
 472              		.loc 1 252 23 discriminator 1 view .LVU129
 473 0388 81290000 		lwz 9,0(9)
 474 038c 81290004 		lwz 9,4(9)
 475 0390 7D2903A6 		mtctr 9
 476 0394 4E800421 		bctrl
 477              	.LVL41:
 478              	.L32:
 479              		.loc 1 253 5 is_stmt 1 view .LVU130
 480              		.loc 1 253 27 is_stmt 0 view .LVU131
 481 0398 813F0160 		lwz 9,352(31)
 482              		.loc 1 253 5 view .LVU132
 483 039c 2C090000 		cmpwi 0,9,0
 484              		.loc 1 253 27 discriminator 1 view .LVU133
 485 03a0 7D234B78 		mr 3,9
 486              		.loc 1 253 5 view .LVU134
 487 03a4 41820014 		beq- 0,.L33
 488              		.loc 1 253 27 discriminator 1 view .LVU135
 489 03a8 81290000 		lwz 9,0(9)
 490 03ac 81290004 		lwz 9,4(9)
 491 03b0 7D2903A6 		mtctr 9
 492 03b4 4E800421 		bctrl
 493              	.LVL42:
 494              	.L33:
 495              		.loc 1 254 5 is_stmt 1 view .LVU136
 496              		.loc 1 254 23 is_stmt 0 view .LVU137
 497 03b8 813F0210 		lwz 9,528(31)
 498              		.loc 1 254 5 view .LVU138
 499 03bc 2C090000 		cmpwi 0,9,0
 500              		.loc 1 254 23 discriminator 1 view .LVU139
 501 03c0 7D234B78 		mr 3,9
 502              		.loc 1 254 5 view .LVU140
 503 03c4 41820014 		beq- 0,.L34
 504              		.loc 1 254 23 discriminator 1 view .LVU141
 505 03c8 81290000 		lwz 9,0(9)
 506 03cc 81290004 		lwz 9,4(9)
 507 03d0 7D2903A6 		mtctr 9
 508 03d4 4E800421 		bctrl
 509              	.LVL43:
 510              	.L34:
 511              		.loc 1 255 5 is_stmt 1 view .LVU142
 512              		.loc 1 255 23 is_stmt 0 view .LVU143
 513 03d8 813F0000 		lwz 9,0(31)
 514              		.loc 1 255 5 view .LVU144
 515 03dc 2C090000 		cmpwi 0,9,0
 516              		.loc 1 255 23 discriminator 1 view .LVU145
 517 03e0 7D234B78 		mr 3,9
 518              		.loc 1 255 5 view .LVU146
 519 03e4 41820014 		beq- 0,.L31
 520              		.loc 1 255 23 discriminator 1 view .LVU147
 521 03e8 81290000 		lwz 9,0(9)
 522 03ec 81290004 		lwz 9,4(9)
 523 03f0 7D2903A6 		mtctr 9
 524 03f4 4E800421 		bctrl
 525              	.LVL44:
 526              	.L31:
 527              		.loc 1 248 3 is_stmt 1 discriminator 2 view .LVU148
 528              		.loc 1 248 17 discriminator 1 view .LVU149
 529 03f8 37DEFFFF 		addic. 30,30,-1
 530              	.LVL45:
 531              		.loc 1 248 17 is_stmt 0 discriminator 1 view .LVU150
 532 03fc 3BBD0002 		addi 29,29,2
 533 0400 3BFF0004 		addi 31,31,4
 534 0404 4082FF68 		bne+ 0,.L36
 535              	.LBE33:
 536              		.loc 1 246 2 is_stmt 1 discriminator 2 view .LVU151
 537              		.loc 1 246 16 discriminator 1 view .LVU152
 538 0408 3B7B0016 		addi 27,27,22
 539 040c 3B5A002C 		addi 26,26,44
 540 0410 7C19D840 		cmplw 0,25,27
 541 0414 4082FF4C 		bne+ 0,.L29
 542              	.LBE34:
 543              	.LBE37:
 544              	.LBE42:
 545              		.loc 1 259 1 is_stmt 0 view .LVU153
 546 0418 8001002C 		lwz 0,44(1)
 547              	.LBB43:
 548 041c 7F83E378 		mr 3,28
 549              	.LBE43:
 550 0420 8321000C 		lwz 25,12(1)
 551 0424 83410010 		lwz 26,16(1)
 552 0428 7C0803A6 		mtlr 0
 553              		.cfi_restore 65
 554 042c 83610014 		lwz 27,20(1)
 555 0430 83810018 		lwz 28,24(1)
 556              	.LVL46:
 557              		.loc 1 259 1 view .LVU154
 558 0434 83A1001C 		lwz 29,28(1)
 559 0438 83C10020 		lwz 30,32(1)
 560              	.LVL47:
 561              		.loc 1 259 1 view .LVU155
 562 043c 83E10024 		lwz 31,36(1)
 563 0440 38210028 		addi 1,1,40
 564              		.cfi_restore 31
 565              		.cfi_restore 30
 566              		.cfi_restore 29
 567              		.cfi_restore 28
 568              		.cfi_restore 27
 569              		.cfi_restore 26
 570              		.cfi_restore 25
 571              		.cfi_def_cfa_offset 0
 572              	.LBB44:
 573 0444 48000000 		b _ZN9GuiWindowD2Ev
 574              	.LVL48:
 575              		.loc 1 259 1 view .LVU156
 576              	.LBE44:
 577              		.cfi_endproc
 578              	.LFE2337:
 579              		.size	_ZN11GuiKeyboardD2Ev, .-_ZN11GuiKeyboardD2Ev
 580              		.globl _ZN11GuiKeyboardD1Ev
 581              		.set	_ZN11GuiKeyboardD1Ev,_ZN11GuiKeyboardD2Ev
 582              		.section	.text._ZN11GuiKeyboardD0Ev,"ax",@progbits
 583              		.align 2
 584              		.globl _ZN11GuiKeyboardD0Ev
 585              		.type	_ZN11GuiKeyboardD0Ev, @function
 586              	_ZN11GuiKeyboardD0Ev:
 587              	.LVL49:
 588              	.LFB2339:
 589              		.loc 1 216 1 is_stmt 1 view -0
 590              		.cfi_startproc
 591              		.loc 1 216 1 is_stmt 0 view .LVU158
 592 0000 9421FFF0 		stwu 1,-16(1)
 593              		.cfi_def_cfa_offset 16
 594 0004 7C0802A6 		mflr 0
 595 0008 93E1000C 		stw 31,12(1)
 596              		.cfi_register 65, 0
 597              		.cfi_offset 31, -4
 598 000c 7C7F1B78 		mr 31,3
 599 0010 90010014 		stw 0,20(1)
 600              		.cfi_offset 65, 4
 601              		.loc 1 259 1 view .LVU159
 602 0014 48000001 		bl _ZN11GuiKeyboardD1Ev
 603              	.LVL50:
 604              		.loc 1 259 1 view .LVU160
 605 0018 80010014 		lwz 0,20(1)
 606              		.loc 1 259 1 discriminator 1 view .LVU161
 607 001c 7FE3FB78 		mr 3,31
 608              		.loc 1 259 1 view .LVU162
 609 0020 83E1000C 		lwz 31,12(1)
 610              	.LVL51:
 611              		.loc 1 259 1 discriminator 1 view .LVU163
 612 0024 38800520 		li 4,1312
 613              		.loc 1 259 1 view .LVU164
 614 0028 7C0803A6 		mtlr 0
 615              		.cfi_restore 65
 616 002c 38210010 		addi 1,1,16
 617              		.cfi_restore 31
 618              		.cfi_def_cfa_offset 0
 619              		.loc 1 259 1 discriminator 1 view .LVU165
 620 0030 48000000 		b _ZdlPvj
 621              	.LVL52:
 622              		.loc 1 259 1 discriminator 1 view .LVU166
 623              		.cfi_endproc
 624              	.LFE2339:
 625              		.size	_ZN11GuiKeyboardD0Ev, .-_ZN11GuiKeyboardD0Ev
 626              		.section	.text._ZN11GuiKeyboard6UpdateEP10GuiTrigger,"ax",@progbits
 627              		.align 2
 628              		.globl _ZN11GuiKeyboard6UpdateEP10GuiTrigger
 629              		.type	_ZN11GuiKeyboard6UpdateEP10GuiTrigger, @function
 630              	_ZN11GuiKeyboard6UpdateEP10GuiTrigger:
 631              	.LVL53:
 632              	.LFB2340:
 633              		.loc 1 262 1 is_stmt 1 view -0
 634              		.cfi_startproc
 635              		.cfi_personality 0,__gxx_personality_v0
 636              		.cfi_lsda 0,.LLSDA2340
 637              		.loc 1 263 2 view .LVU168
 638              	.LBB61:
 639              	.LBI61:
 640              		.file 2 "C:/devkitPro/devkitPPC/powerpc-eabi/include/c++/13.1.0/bits/stl_vector.h"
 641              		.loc 2 987 7 view .LVU169
 642              	.LBB62:
 643              		.loc 2 988 66 is_stmt 0 view .LVU170
 644 0000 81030084 		lwz 8,132(3)
 645              	.LVL54:
 646              		.loc 2 988 66 view .LVU171
 647              	.LBE62:
 648              	.LBE61:
 649              		.loc 1 263 27 discriminator 1 view .LVU172
 650 0004 81230088 		lwz 9,136(3)
 651 0008 7C084800 		cmpw 0,8,9
 652 000c 4D820020 		beqlr- 0
 653              		.loc 1 263 27 discriminator 2 view .LVU173
 654 0010 81230068 		lwz 9,104(3)
 655 0014 39400000 		li 10,0
 656              		.loc 1 262 1 view .LVU174
 657 0018 9421FFB0 		stwu 1,-80(1)
 658              		.cfi_def_cfa_offset 80
 659              		.loc 1 263 27 discriminator 2 view .LVU175
 660 001c 2C090004 		cmpwi 0,9,4
 661              		.loc 1 262 1 view .LVU176
 662 0020 93810040 		stw 28,64(1)
 663              		.cfi_offset 28, -16
 664 0024 7C9C2378 		mr 28,4
 665 0028 93C10048 		stw 30,72(1)
 666              		.cfi_offset 30, -8
 667 002c 7C7E1B78 		mr 30,3
 668 0030 93E1004C 		stw 31,76(1)
 669              		.cfi_offset 31, -4
 670 0034 3BE00000 		li 31,0
 671              		.loc 1 263 27 discriminator 2 view .LVU177
 672 0038 4182045C 		beq- 0,.L209
 673              	.L204:
 674 003c 7C0802A6 		mflr 0
 675              		.cfi_register 65, 0
 676 0040 92410018 		stw 18,24(1)
 677              		.cfi_offset 18, -56
 678 0044 90010054 		stw 0,84(1)
 679              		.cfi_offset 65, 4
 680 0048 9261001C 		stw 19,28(1)
 681              		.cfi_offset 19, -52
 682 004c 92810020 		stw 20,32(1)
 683              		.cfi_offset 20, -48
 684 0050 92A10024 		stw 21,36(1)
 685              		.cfi_offset 21, -44
 686 0054 92C10028 		stw 22,40(1)
 687              		.cfi_offset 22, -40
 688 0058 92E1002C 		stw 23,44(1)
 689              		.cfi_offset 23, -36
 690 005c 93010030 		stw 24,48(1)
 691              		.cfi_offset 24, -32
 692 0060 93210034 		stw 25,52(1)
 693              		.cfi_offset 25, -28
 694 0064 93410038 		stw 26,56(1)
 695              		.cfi_offset 26, -24
 696 0068 9361003C 		stw 27,60(1)
 697              		.cfi_offset 27, -20
 698 006c 93A10044 		stw 29,68(1)
 699              		.cfi_offset 29, -12
 700              	.LVL55:
 701              	.L139:
 702              	.LBB63:
 703              	.LBB64:
 704              		.loc 1 268 3 is_stmt 1 view .LVU178
 705              		.loc 1 268 9 view .LVU179
 706              	.LBB65:
 707              	.LBI65:
 708              		.loc 2 1173 7 view .LVU180
 709              	.LBB66:
 710              	.LBI66:
 711              		.loc 2 1121 7 view .LVU181
 712              		.loc 2 1121 7 is_stmt 0 view .LVU182
 713              	.LBE66:
 714              	.LBE65:
 715              		.loc 1 268 32 discriminator 1 view .LVU183
 716 0070 554A103A 		slwi 10,10,2
 717 0074 7F84E378 		mr 4,28
 718 0078 7C68502E 		lwzx 3,8,10
 719 007c 81230000 		lwz 9,0(3)
 720 0080 81290020 		lwz 9,32(9)
 721 0084 7D2903A6 		mtctr 9
 722              	.LEHB0:
 723 0088 4E800421 		bctrl
 724              	.LVL56:
 725              	.LEHE0:
 726              	.L174:
 727              	.LBE64:
 728              		.loc 1 266 2 is_stmt 1 discriminator 2 view .LVU184
 729              	.LBB68:
 730              	.LBB69:
 731              		.loc 2 988 66 is_stmt 0 view .LVU185
 732 008c 811E0084 		lwz 8,132(30)
 733              	.LBE69:
 734              	.LBE68:
 735              		.loc 1 266 2 discriminator 2 view .LVU186
 736 0090 3BFF0001 		addi 31,31,1
 737              	.LVL57:
 738              	.LBB72:
 739              	.LBB70:
 740              		.loc 2 988 50 view .LVU187
 741 0094 813E0088 		lwz 9,136(30)
 742              	.LBE70:
 743              	.LBE72:
 744              		.loc 1 266 17 discriminator 1 view .LVU188
 745 0098 57EA063E 		rlwinm 10,31,0,0xff
 746              	.LVL58:
 747              		.loc 1 266 19 is_stmt 1 discriminator 1 view .LVU189
 748              	.LBB73:
 749              	.LBI68:
 750              		.loc 2 987 7 view .LVU190
 751              	.LBB71:
 752              		.loc 2 988 50 is_stmt 0 view .LVU191
 753 009c 7D284850 		subf 9,8,9
 754 00a0 7D291670 		srawi 9,9,2
 755              	.LBE71:
 756              	.LBE73:
 757              		.loc 1 266 19 discriminator 1 view .LVU192
 758 00a4 7C0A4840 		cmplw 0,10,9
 759 00a8 4180FFC8 		blt+ 0,.L139
 760              	.LBE63:
 761              		.loc 1 272 2 is_stmt 1 view .LVU193
 762              	.LVL59:
 763              		.loc 1 274 2 view .LVU194
 764              		.loc 1 274 23 is_stmt 0 view .LVU195
 765 00ac 807E0234 		lwz 3,564(30)
 766              	.LEHB1:
 767 00b0 48000001 		bl _ZN10GuiElement8GetStateEv
 768              	.LVL60:
 769              		.loc 1 274 2 discriminator 1 view .LVU196
 770 00b4 2C030002 		cmpwi 0,3,2
 771 00b8 4082022C 		bne- 0,.L140
 772              		.loc 1 276 3 is_stmt 1 view .LVU197
 773              		.loc 1 276 13 is_stmt 0 view .LVU198
 774 00bc 3BFE0090 		addi 31,30,144
 775              	.LVL61:
 776              		.loc 1 276 12 view .LVU199
 777 00c0 7FE3FB78 		mr 3,31
 778 00c4 48000001 		bl strlen
 779              	.LVL62:
 780              		.loc 1 276 3 discriminator 1 view .LVU200
 781 00c8 813E0190 		lwz 9,400(30)
 782 00cc 7C034840 		cmplw 0,3,9
 783 00d0 41800430 		blt- 0,.L210
 784              	.L141:
 785              		.loc 1 281 3 is_stmt 1 view .LVU201
 786 00d4 807E0234 		lwz 3,564(30)
 787              		.loc 1 281 21 is_stmt 0 view .LVU202
 788 00d8 38800001 		li 4,1
 789              	.L207:
 790              		.loc 1 287 20 view .LVU203
 791 00dc 81230000 		lwz 9,0(3)
 792 00e0 80BC0004 		lwz 5,4(28)
 793 00e4 81290010 		lwz 9,16(9)
 794 00e8 7D2903A6 		mtctr 9
 795 00ec 4E800421 		bctrl
 796              	.LVL63:
 797              	.L142:
 798              		.loc 1 302 2 is_stmt 1 view .LVU204
 799              		.loc 1 302 7 is_stmt 0 view .LVU205
 800 00f0 39200000 		li 9,0
 801 00f4 3B3E01AA 		addi 25,30,426
 802 00f8 3B5E0238 		addi 26,30,568
 803              	.LBB75:
 804              	.LBB76:
 805              	.LBB77:
 806              	.LBB78:
 807              		.loc 1 25 9 view .LVU206
 808 00fc 3EC00000 		lis 22,_ZL6tmptxt@ha
 809              	.LBE78:
 810              	.LBE77:
 811              	.LBE76:
 812              	.LBE75:
 813              		.loc 1 302 7 view .LVU207
 814 0100 B1210008 		sth 9,8(1)
 815              		.loc 1 304 2 is_stmt 1 view .LVU208
 816              		.loc 1 306 2 view .LVU209
 817              	.LVL64:
 818              	.LBB110:
 819              		.loc 1 306 16 discriminator 1 view .LVU210
 820              	.LDL1:
 821              		.loc 1 306 16 is_stmt 0 discriminator 1 view .LVU211
 822 0104 7F38CB78 		mr 24,25
 823 0108 7F55D378 		mr 21,26
 824              	.LBB105:
 825              	.LBB92:
 826              	.LBB79:
 827              		.loc 1 25 9 view .LVU212
 828 010c 3AD60000 		la 22,_ZL6tmptxt@l(22)
 829 0110 3B7E0202 		addi 27,30,514
 830              	.LBE79:
 831              	.LBE92:
 832              		.loc 1 324 16 view .LVU213
 833 0114 3AFE0090 		addi 23,30,144
 834              	.LBB93:
 835              	.LBB80:
 836              		.loc 1 26 33 view .LVU214
 837 0118 3A800000 		li 20,0
 838              	.LVL65:
 839              	.L145:
 840              		.loc 1 26 33 view .LVU215
 841              	.LBE80:
 842              	.LBE93:
 843              		.loc 1 308 17 is_stmt 1 discriminator 1 view .LVU216
 844 011c 3BF8FFEA 		addi 31,24,-22
 845              	.LBE105:
 846              	.LBE110:
 847              	.LBB111:
 848              	.LBB112:
 849              		.loc 1 27 18 is_stmt 0 view .LVU217
 850 0120 7EBDAB78 		mr 29,21
 851 0124 48000014 		b .L157
 852              	.LVL66:
 853              	.L149:
 854              		.loc 1 27 18 view .LVU218
 855              	.LBE112:
 856              	.LBE111:
 857              	.LBB115:
 858              	.LBB106:
 859              		.loc 1 308 3 is_stmt 1 discriminator 2 view .LVU219
 860              		.loc 1 308 17 discriminator 1 view .LVU220
 861 0128 3BFF0002 		addi 31,31,2
 862 012c 3BBD0004 		addi 29,29,4
 863 0130 7C1FC040 		cmplw 0,31,24
 864 0134 418202D8 		beq- 0,.L211
 865              	.L157:
 866              		.loc 1 310 4 view .LVU221
 867 0138 893F0000 		lbz 9,0(31)
 868 013c 2C090000 		cmpwi 0,9,0
 869 0140 41A2FFE8 		beq- 0,.L149
 870              		.loc 1 312 5 view .LVU222
 871              		.loc 1 322 5 view .LVU223
 872              		.loc 1 322 30 is_stmt 0 view .LVU224
 873 0144 807D0000 		lwz 3,0(29)
 874 0148 48000001 		bl _ZN10GuiElement8GetStateEv
 875              	.LVL67:
 876              		.loc 1 322 5 discriminator 1 view .LVU225
 877 014c 2C030002 		cmpwi 0,3,2
 878 0150 4082FFD8 		bne+ 0,.L149
 879              		.loc 1 324 6 is_stmt 1 view .LVU226
 880              		.loc 1 324 15 is_stmt 0 view .LVU227
 881 0154 7EE3BB78 		mr 3,23
 882              		.loc 1 324 16 view .LVU228
 883 0158 7EF3BB78 		mr 19,23
 884              		.loc 1 324 15 view .LVU229
 885 015c 48000001 		bl strlen
 886              	.LVL68:
 887              		.loc 1 324 6 discriminator 1 view .LVU230
 888 0160 813E0190 		lwz 9,400(30)
 889              		.loc 1 335 6 view .LVU231
 890 0164 825E01F4 		lwz 18,500(30)
 891              		.loc 1 324 6 discriminator 1 view .LVU232
 892 0168 7C091840 		cmplw 0,9,3
 893 016c 40810030 		ble- 0,.L155
 894              		.loc 1 326 7 is_stmt 1 view .LVU233
 895 0170 813E01EC 		lwz 9,492(30)
 896 0174 2C090000 		cmpwi 0,9,0
 897 0178 40820304 		bne- 0,.L156
 898              		.loc 1 326 16 is_stmt 0 discriminator 1 view .LVU234
 899 017c 813E01F0 		lwz 9,496(30)
 900 0180 2C090000 		cmpwi 0,9,0
 901 0184 408202F8 		bne- 0,.L156
 902              		.loc 1 332 8 is_stmt 1 view .LVU235
 903              		.loc 1 332 50 is_stmt 0 discriminator 1 view .LVU236
 904 0188 895F0000 		lbz 10,0(31)
 905              		.loc 1 332 37 discriminator 1 view .LVU237
 906 018c 7D3E1A14 		add 9,30,3
 907              	.LBB94:
 908              	.LBB81:
 909              		.loc 1 20 18 view .LVU238
 910 0190 7EE3BB78 		mr 3,23
 911              	.LBE81:
 912              	.LBE94:
 913              		.loc 1 332 37 discriminator 1 view .LVU239
 914 0194 99490090 		stb 10,144(9)
 915              		.loc 1 335 6 is_stmt 1 view .LVU240
 916              	.LVL69:
 917              	.LBB95:
 918              	.LBI77:
 919              		.loc 1 15 15 view .LVU241
 920              	.LBB82:
 921              		.loc 1 17 2 view .LVU242
 922              		.loc 1 20 18 is_stmt 0 view .LVU243
 923 0198 48000001 		bl strlen
 924              	.LVL70:
 925              	.L155:
 926              		.loc 1 20 2 is_stmt 1 view .LVU244
 927              		.loc 1 22 2 view .LVU245
 928 019c 2803001F 		cmplwi 0,3,31
 929 01a0 40810020 		ble- 0,.L153
 930              		.loc 1 25 2 view .LVU246
 931              		.loc 1 25 45 is_stmt 0 view .LVU247
 932 01a4 3863FFE0 		addi 3,3,-32
 933              		.loc 1 25 9 view .LVU248
 934 01a8 38A00020 		li 5,32
 935 01ac 7C971A14 		add 4,23,3
 936 01b0 7EC3B378 		mr 3,22
 937 01b4 48000001 		bl strncpy
 938              	.LVL71:
 939              		.loc 1 26 2 is_stmt 1 view .LVU249
 940              		.loc 1 26 33 is_stmt 0 view .LVU250
 941 01b8 9A96001F 		stb 20,31(22)
 942              		.loc 1 27 2 is_stmt 1 view .LVU251
 943              		.loc 1 27 18 is_stmt 0 view .LVU252
 944 01bc 7ED3B378 		mr 19,22
 945              	.L153:
 946              	.LBE82:
 947              	.LBE95:
 948              		.loc 1 335 21 discriminator 1 view .LVU253
 949 01c0 7E649B78 		mr 4,19
 950 01c4 7E439378 		mr 3,18
 951 01c8 48000001 		bl _ZN7GuiText7SetTextEPKc
 952              	.LVL72:
 953              		.loc 1 336 6 is_stmt 1 view .LVU254
 954              		.loc 1 336 17 is_stmt 0 view .LVU255
 955 01cc 807D0000 		lwz 3,0(29)
 956              		.loc 1 336 28 view .LVU256
 957 01d0 80BC0004 		lwz 5,4(28)
 958 01d4 38800001 		li 4,1
 959 01d8 81230000 		lwz 9,0(3)
 960 01dc 81290010 		lwz 9,16(9)
 961 01e0 7D2903A6 		mtctr 9
 962 01e4 4E800421 		bctrl
 963              	.LVL73:
 964              		.loc 1 338 6 is_stmt 1 view .LVU257
 965              		.loc 1 338 9 is_stmt 0 view .LVU258
 966 01e8 813E01EC 		lwz 9,492(30)
 967              		.loc 1 338 6 view .LVU259
 968 01ec 2C090000 		cmpwi 0,9,0
 969 01f0 4182FF38 		beq+ 0,.L149
 970              	.LVL74:
 971              	.L152:
 972              		.loc 1 340 7 is_stmt 1 view .LVU260
 973              		.loc 1 340 13 is_stmt 0 view .LVU261
 974 01f4 69290001 		xori 9,9,0x1
 975 01f8 913E01EC 		stw 9,492(30)
 976              		.loc 1 341 7 is_stmt 1 view .LVU262
 977              	.LVL75:
 978              		.loc 1 342 7 view .LVU263
 979              		.loc 1 342 7 is_stmt 0 view .LVU264
 980              	.LBE106:
 981              	.LBE115:
 982              		.loc 1 304 2 is_stmt 1 view .LVU265
 983              		.loc 1 306 2 view .LVU266
 984              	.LBB116:
 985              		.loc 1 306 16 discriminator 1 view .LVU267
 986              	.L166:
 987              	.LBB107:
 988              	.LBB96:
 989              	.LBB83:
 990              		.loc 1 25 9 is_stmt 0 view .LVU268
 991 01fc 3EC00000 		lis 22,_ZL6tmptxt@ha
 992 0200 7F38CB78 		mr 24,25
 993 0204 3AD60000 		la 22,_ZL6tmptxt@l(22)
 994 0208 7F55D378 		mr 21,26
 995              	.LBE83:
 996              	.LBE96:
 997              		.loc 1 324 16 view .LVU269
 998 020c 3AFE0090 		addi 23,30,144
 999              	.LBB97:
 1000              	.LBB84:
 1001              		.loc 1 26 33 view .LVU270
 1002 0210 3A800000 		li 20,0
 1003              	.LVL76:
 1004              	.L148:
 1005              		.loc 1 26 33 view .LVU271
 1006              	.LBE84:
 1007              	.LBE97:
 1008              		.loc 1 308 17 is_stmt 1 discriminator 1 view .LVU272
 1009 0214 3BF8FFEA 		addi 31,24,-22
 1010              	.LBB98:
 1011              	.LBB85:
 1012              		.loc 1 27 18 is_stmt 0 view .LVU273
 1013 0218 7EBDAB78 		mr 29,21
 1014              	.LVL77:
 1015              	.L167:
 1016              		.loc 1 27 18 view .LVU274
 1017              	.LBE85:
 1018              	.LBE98:
 1019              		.loc 1 310 4 is_stmt 1 view .LVU275
 1020              		.loc 1 310 18 is_stmt 0 view .LVU276
 1021 021c 893F0000 		lbz 9,0(31)
 1022              		.loc 1 310 4 view .LVU277
 1023 0220 552A063E 		rlwinm 10,9,0,0xff
 1024 0224 2C0A0000 		cmpwi 0,10,0
 1025 0228 4182003C 		beq- 0,.L159
 1026              		.loc 1 312 5 is_stmt 1 view .LVU278
 1027              		.loc 1 314 6 view .LVU279
 1028 022c 815E01EC 		lwz 10,492(30)
 1029 0230 2C0A0000 		cmpwi 0,10,0
 1030 0234 40820110 		bne- 0,.L160
 1031              		.loc 1 314 15 is_stmt 0 discriminator 1 view .LVU280
 1032 0238 815E01F0 		lwz 10,496(30)
 1033 023c 2C0A0000 		cmpwi 0,10,0
 1034 0240 40820104 		bne- 0,.L160
 1035              		.loc 1 319 27 view .LVU281
 1036 0244 807D0210 		lwz 3,528(29)
 1037 0248 38810008 		addi 4,1,8
 1038 024c 99210008 		stb 9,8(1)
 1039              		.loc 1 319 6 is_stmt 1 view .LVU282
 1040              		.loc 1 319 27 is_stmt 0 view .LVU283
 1041 0250 48000001 		bl _ZN7GuiText7SetTextEPKc
 1042              	.LVL78:
 1043              		.loc 1 322 5 is_stmt 1 view .LVU284
 1044              		.loc 1 322 30 is_stmt 0 view .LVU285
 1045 0254 807D0000 		lwz 3,0(29)
 1046 0258 48000001 		bl _ZN10GuiElement8GetStateEv
 1047              	.LVL79:
 1048              		.loc 1 322 5 discriminator 1 view .LVU286
 1049 025c 2C030002 		cmpwi 0,3,2
 1050 0260 41820108 		beq- 0,.L212
 1051              	.L159:
 1052              		.loc 1 308 3 is_stmt 1 discriminator 2 view .LVU287
 1053              		.loc 1 308 17 discriminator 1 view .LVU288
 1054 0264 3BFF0002 		addi 31,31,2
 1055 0268 3BBD0004 		addi 29,29,4
 1056 026c 7C1FC040 		cmplw 0,31,24
 1057 0270 4082FFAC 		bne+ 0,.L167
 1058              	.LBE107:
 1059              		.loc 1 306 2 discriminator 2 view .LVU289
 1060              		.loc 1 306 16 discriminator 1 view .LVU290
 1061 0274 3B180016 		addi 24,24,22
 1062 0278 3AB5002C 		addi 21,21,44
 1063 027c 7C18D840 		cmplw 0,24,27
 1064 0280 4082FF94 		bne+ 0,.L148
 1065              	.LBE116:
 1066              		.loc 1 349 2 view .LVU291
 1067              		.loc 1 349 19 is_stmt 0 view .LVU292
 1068 0284 7F84E378 		mr 4,28
 1069 0288 7FC3F378 		mr 3,30
 1070 028c 48000001 		bl _ZN9GuiWindow11ToggleFocusEP10GuiTrigger
 1071              	.LVL80:
 1072              		.loc 1 351 2 is_stmt 1 view .LVU293
 1073 0290 813E0008 		lwz 9,8(30)
 1074 0294 2C090000 		cmpwi 0,9,0
 1075 0298 4082019C 		bne- 0,.L213
 1076              	.LVL81:
 1077              	.L206:
 1078              		.loc 1 351 2 is_stmt 0 view .LVU294
 1079 029c 80010054 		lwz 0,84(1)
 1080 02a0 82410018 		lwz 18,24(1)
 1081              		.cfi_remember_state
 1082              		.cfi_restore 18
 1083 02a4 8261001C 		lwz 19,28(1)
 1084              		.cfi_restore 19
 1085 02a8 7C0803A6 		mtlr 0
 1086              		.cfi_restore 65
 1087 02ac 82810020 		lwz 20,32(1)
 1088              		.cfi_restore 20
 1089 02b0 82A10024 		lwz 21,36(1)
 1090              		.cfi_restore 21
 1091 02b4 82C10028 		lwz 22,40(1)
 1092              		.cfi_restore 22
 1093 02b8 82E1002C 		lwz 23,44(1)
 1094              		.cfi_restore 23
 1095 02bc 83010030 		lwz 24,48(1)
 1096              		.cfi_restore 24
 1097 02c0 83210034 		lwz 25,52(1)
 1098              		.cfi_restore 25
 1099 02c4 83410038 		lwz 26,56(1)
 1100              		.cfi_restore 26
 1101 02c8 8361003C 		lwz 27,60(1)
 1102              		.cfi_restore 27
 1103 02cc 83A10044 		lwz 29,68(1)
 1104              		.cfi_restore 29
 1105              		.loc 1 363 1 view .LVU295
 1106 02d0 83810040 		lwz 28,64(1)
 1107              	.LVL82:
 1108              		.loc 1 363 1 view .LVU296
 1109 02d4 83C10048 		lwz 30,72(1)
 1110              	.LVL83:
 1111              		.loc 1 363 1 view .LVU297
 1112 02d8 83E1004C 		lwz 31,76(1)
 1113 02dc 38210050 		addi 1,1,80
 1114              		.cfi_restore 31
 1115              		.cfi_restore 30
 1116              		.cfi_restore 28
 1117              		.cfi_def_cfa_offset 0
 1118 02e0 4E800020 		blr
 1119              	.LVL84:
 1120              	.L140:
 1121              		.cfi_restore_state
 1122              		.loc 1 283 7 is_stmt 1 view .LVU298
 1123              		.loc 1 283 27 is_stmt 0 view .LVU299
 1124 02e4 807E0228 		lwz 3,552(30)
 1125 02e8 48000001 		bl _ZN10GuiElement8GetStateEv
 1126              	.LVL85:
 1127              		.loc 1 283 7 discriminator 1 view .LVU300
 1128 02ec 2C030002 		cmpwi 0,3,2
 1129 02f0 4182022C 		beq- 0,.L214
 1130              		.loc 1 289 7 is_stmt 1 view .LVU301
 1131              		.loc 1 289 28 is_stmt 0 view .LVU302
 1132 02f4 807E0218 		lwz 3,536(30)
 1133 02f8 48000001 		bl _ZN10GuiElement8GetStateEv
 1134              	.LVL86:
 1135              		.loc 1 289 7 discriminator 1 view .LVU303
 1136 02fc 2C030002 		cmpwi 0,3,2
 1137 0300 408201C4 		bne- 0,.L146
 1138              		.loc 1 291 3 is_stmt 1 view .LVU304
 1139              		.loc 1 292 3 is_stmt 0 view .LVU305
 1140 0304 807E0218 		lwz 3,536(30)
 1141              		.loc 1 292 21 view .LVU306
 1142 0308 38800001 		li 4,1
 1143              		.loc 1 291 9 view .LVU307
 1144 030c 813E01EC 		lwz 9,492(30)
 1145              		.loc 1 292 21 view .LVU308
 1146 0310 81430000 		lwz 10,0(3)
 1147              		.loc 1 291 9 view .LVU309
 1148 0314 69290001 		xori 9,9,0x1
 1149 0318 913E01EC 		stw 9,492(30)
 1150              		.loc 1 292 3 is_stmt 1 view .LVU310
 1151              		.loc 1 292 21 is_stmt 0 view .LVU311
 1152 031c 812A0010 		lwz 9,16(10)
 1153 0320 80BC0004 		lwz 5,4(28)
 1154 0324 7D2903A6 		mtctr 9
 1155 0328 4E800421 		bctrl
 1156              	.LVL87:
 1157              	.L147:
 1158              		.loc 1 302 2 is_stmt 1 view .LVU312
 1159              		.loc 1 302 7 is_stmt 0 view .LVU313
 1160 032c 39200000 		li 9,0
 1161 0330 3B3E01AA 		addi 25,30,426
 1162 0334 B1210008 		sth 9,8(1)
 1163              		.loc 1 304 2 is_stmt 1 view .LVU314
 1164              		.loc 1 306 2 view .LVU315
 1165              	.LVL88:
 1166              	.LBB117:
 1167              		.loc 1 306 16 discriminator 1 view .LVU316
 1168 0338 3B5E0238 		addi 26,30,568
 1169 033c 3B7E0202 		addi 27,30,514
 1170 0340 4BFFFEBC 		b .L166
 1171              	.LVL89:
 1172              	.L160:
 1173              	.LBB108:
 1174              		.loc 1 315 7 view .LVU317
 1175              		.loc 1 315 27 is_stmt 0 view .LVU318
 1176 0344 893F0001 		lbz 9,1(31)
 1177              		.loc 1 319 27 view .LVU319
 1178 0348 38810008 		addi 4,1,8
 1179 034c 807D0210 		lwz 3,528(29)
 1180 0350 99210008 		stb 9,8(1)
 1181              		.loc 1 319 6 is_stmt 1 view .LVU320
 1182              		.loc 1 319 27 is_stmt 0 view .LVU321
 1183 0354 48000001 		bl _ZN7GuiText7SetTextEPKc
 1184              	.LVL90:
 1185              		.loc 1 322 5 is_stmt 1 view .LVU322
 1186              		.loc 1 322 30 is_stmt 0 view .LVU323
 1187 0358 807D0000 		lwz 3,0(29)
 1188 035c 48000001 		bl _ZN10GuiElement8GetStateEv
 1189              	.LVL91:
 1190              		.loc 1 322 5 discriminator 1 view .LVU324
 1191 0360 2C030002 		cmpwi 0,3,2
 1192 0364 4082FF00 		bne+ 0,.L159
 1193              	.L212:
 1194              		.loc 1 324 6 is_stmt 1 view .LVU325
 1195              		.loc 1 324 15 is_stmt 0 view .LVU326
 1196 0368 7EE3BB78 		mr 3,23
 1197              		.loc 1 324 16 view .LVU327
 1198 036c 7EF3BB78 		mr 19,23
 1199              		.loc 1 324 15 view .LVU328
 1200 0370 48000001 		bl strlen
 1201              	.LVL92:
 1202              		.loc 1 324 6 discriminator 1 view .LVU329
 1203 0374 813E0190 		lwz 9,400(30)
 1204              		.loc 1 335 6 view .LVU330
 1205 0378 825E01F4 		lwz 18,500(30)
 1206              		.loc 1 324 6 discriminator 1 view .LVU331
 1207 037c 7C034840 		cmplw 0,3,9
 1208 0380 40800030 		bge- 0,.L162
 1209              		.loc 1 326 7 is_stmt 1 view .LVU332
 1210 0384 813E01EC 		lwz 9,492(30)
 1211 0388 2C090000 		cmpwi 0,9,0
 1212 038c 408200D8 		bne- 0,.L163
 1213              		.loc 1 326 16 is_stmt 0 discriminator 1 view .LVU333
 1214 0390 813E01F0 		lwz 9,496(30)
 1215 0394 2C090000 		cmpwi 0,9,0
 1216 0398 408200CC 		bne- 0,.L163
 1217              		.loc 1 332 8 is_stmt 1 view .LVU334
 1218              		.loc 1 332 50 is_stmt 0 discriminator 1 view .LVU335
 1219 039c 895F0000 		lbz 10,0(31)
 1220              		.loc 1 332 37 discriminator 1 view .LVU336
 1221 03a0 7D3E1A14 		add 9,30,3
 1222              	.LBB99:
 1223              	.LBB86:
 1224              		.loc 1 20 18 view .LVU337
 1225 03a4 7EE3BB78 		mr 3,23
 1226              	.LBE86:
 1227              	.LBE99:
 1228              		.loc 1 332 37 discriminator 1 view .LVU338
 1229 03a8 99490090 		stb 10,144(9)
 1230              		.loc 1 335 6 is_stmt 1 view .LVU339
 1231              	.LVL93:
 1232              	.LBB100:
 1233              		.loc 1 15 15 view .LVU340
 1234              	.LBB87:
 1235              		.loc 1 17 2 view .LVU341
 1236              		.loc 1 20 18 is_stmt 0 view .LVU342
 1237 03ac 48000001 		bl strlen
 1238              	.LVL94:
 1239              	.L162:
 1240              		.loc 1 20 2 is_stmt 1 view .LVU343
 1241              		.loc 1 22 2 view .LVU344
 1242 03b0 2803001F 		cmplwi 0,3,31
 1243 03b4 40810020 		ble- 0,.L165
 1244              		.loc 1 25 2 view .LVU345
 1245              		.loc 1 25 45 is_stmt 0 view .LVU346
 1246 03b8 3863FFE0 		addi 3,3,-32
 1247              		.loc 1 25 9 view .LVU347
 1248 03bc 38A00020 		li 5,32
 1249 03c0 7C971A14 		add 4,23,3
 1250 03c4 7EC3B378 		mr 3,22
 1251 03c8 48000001 		bl strncpy
 1252              	.LVL95:
 1253              		.loc 1 26 2 is_stmt 1 view .LVU348
 1254              		.loc 1 26 33 is_stmt 0 view .LVU349
 1255 03cc 9A96001F 		stb 20,31(22)
 1256              		.loc 1 27 2 is_stmt 1 view .LVU350
 1257              		.loc 1 27 18 is_stmt 0 view .LVU351
 1258 03d0 7ED3B378 		mr 19,22
 1259              	.L165:
 1260              	.LBE87:
 1261              	.LBE100:
 1262              		.loc 1 335 21 discriminator 1 view .LVU352
 1263 03d4 7E649B78 		mr 4,19
 1264 03d8 7E439378 		mr 3,18
 1265 03dc 48000001 		bl _ZN7GuiText7SetTextEPKc
 1266              	.LVL96:
 1267              		.loc 1 336 6 is_stmt 1 view .LVU353
 1268              		.loc 1 336 17 is_stmt 0 view .LVU354
 1269 03e0 807D0000 		lwz 3,0(29)
 1270              		.loc 1 336 28 view .LVU355
 1271 03e4 80BC0004 		lwz 5,4(28)
 1272 03e8 38800001 		li 4,1
 1273 03ec 81230000 		lwz 9,0(3)
 1274 03f0 81290010 		lwz 9,16(9)
 1275 03f4 7D2903A6 		mtctr 9
 1276 03f8 4E800421 		bctrl
 1277              	.LVL97:
 1278              		.loc 1 338 6 is_stmt 1 view .LVU356
 1279              		.loc 1 338 9 is_stmt 0 view .LVU357
 1280 03fc 813E01EC 		lwz 9,492(30)
 1281              		.loc 1 338 6 view .LVU358
 1282 0400 2C090000 		cmpwi 0,9,0
 1283 0404 4182FE60 		beq+ 0,.L159
 1284 0408 4BFFFDEC 		b .L152
 1285              	.LVL98:
 1286              	.L211:
 1287              		.loc 1 338 6 view .LVU359
 1288              	.LBE108:
 1289              		.loc 1 306 2 is_stmt 1 discriminator 2 view .LVU360
 1290              		.loc 1 306 16 discriminator 1 view .LVU361
 1291 040c 3B180016 		addi 24,24,22
 1292 0410 3AB5002C 		addi 21,21,44
 1293 0414 7C18D840 		cmplw 0,24,27
 1294 0418 4082FD04 		bne+ 0,.L145
 1295              	.LBE117:
 1296              		.loc 1 349 2 view .LVU362
 1297              		.loc 1 349 19 is_stmt 0 view .LVU363
 1298 041c 7F84E378 		mr 4,28
 1299 0420 7FC3F378 		mr 3,30
 1300 0424 48000001 		bl _ZN9GuiWindow11ToggleFocusEP10GuiTrigger
 1301              	.LVL99:
 1302              		.loc 1 351 2 is_stmt 1 view .LVU364
 1303 0428 813E0008 		lwz 9,8(30)
 1304 042c 2C090000 		cmpwi 0,9,0
 1305 0430 4182FE6C 		beq+ 0,.L206
 1306              	.LVL100:
 1307              	.L213:
 1308              		.loc 1 354 3 view .LVU365
 1309              		.loc 1 354 14 is_stmt 0 view .LVU366
 1310 0434 7F83E378 		mr 3,28
 1311 0438 48000001 		bl _ZN10GuiTrigger5RightEv
 1312              	.LVL101:
 1313              		.loc 1 354 3 discriminator 1 view .LVU367
 1314 043c 2C030000 		cmpwi 0,3,0
 1315 0440 40820074 		bne- 0,.L215
 1316              		.loc 1 356 8 is_stmt 1 view .LVU368
 1317              		.loc 1 356 18 is_stmt 0 view .LVU369
 1318 0444 7F83E378 		mr 3,28
 1319 0448 48000001 		bl _ZN10GuiTrigger4LeftEv
 1320              	.LVL102:
 1321              		.loc 1 356 8 discriminator 1 view .LVU370
 1322 044c 2C030000 		cmpwi 0,3,0
 1323 0450 41820134 		beq- 0,.L170
 1324              		.loc 1 357 4 is_stmt 1 view .LVU371
 1325              		.loc 1 357 26 is_stmt 0 view .LVU372
 1326 0454 7FC3F378 		mr 3,30
 1327 0458 3880FFFF 		li 4,-1
 1328 045c 48000001 		bl _ZN9GuiWindow16MoveSelectionHorEi
 1329              	.LVL103:
 1330 0460 4BFFFE3C 		b .L206
 1331              	.LVL104:
 1332              	.L163:
 1333              	.LBB118:
 1334              	.LBB109:
 1335              		.loc 1 328 8 is_stmt 1 view .LVU373
 1336              		.loc 1 328 50 is_stmt 0 discriminator 1 view .LVU374
 1337 0464 893F0001 		lbz 9,1(31)
 1338              		.loc 1 328 37 discriminator 1 view .LVU375
 1339 0468 7C9E1A14 		add 4,30,3
 1340              	.LBB101:
 1341              	.LBB88:
 1342              		.loc 1 20 18 view .LVU376
 1343 046c 7EE3BB78 		mr 3,23
 1344              	.LBE88:
 1345              	.LBE101:
 1346              		.loc 1 328 37 discriminator 1 view .LVU377
 1347 0470 99240090 		stb 9,144(4)
 1348              		.loc 1 335 6 is_stmt 1 view .LVU378
 1349              	.LVL105:
 1350              	.LBB102:
 1351              		.loc 1 15 15 view .LVU379
 1352              	.LBB89:
 1353              		.loc 1 17 2 view .LVU380
 1354              		.loc 1 20 18 is_stmt 0 view .LVU381
 1355 0474 48000001 		bl strlen
 1356              	.LVL106:
 1357              		.loc 1 20 18 view .LVU382
 1358 0478 4BFFFF38 		b .L162
 1359              	.LVL107:
 1360              	.L156:
 1361              		.loc 1 20 18 view .LVU383
 1362              	.LBE89:
 1363              	.LBE102:
 1364              		.loc 1 328 8 is_stmt 1 view .LVU384
 1365              		.loc 1 328 50 is_stmt 0 discriminator 1 view .LVU385
 1366 047c 893F0001 		lbz 9,1(31)
 1367              		.loc 1 328 37 discriminator 1 view .LVU386
 1368 0480 7C9E1A14 		add 4,30,3
 1369              	.LBB103:
 1370              	.LBB90:
 1371              		.loc 1 20 18 view .LVU387
 1372 0484 7EE3BB78 		mr 3,23
 1373              	.LBE90:
 1374              	.LBE103:
 1375              		.loc 1 328 37 discriminator 1 view .LVU388
 1376 0488 99240090 		stb 9,144(4)
 1377              		.loc 1 335 6 is_stmt 1 view .LVU389
 1378              	.LVL108:
 1379              	.LBB104:
 1380              		.loc 1 15 15 view .LVU390
 1381              	.LBB91:
 1382              		.loc 1 17 2 view .LVU391
 1383              		.loc 1 20 18 is_stmt 0 view .LVU392
 1384 048c 48000001 		bl strlen
 1385              	.LVL109:
 1386              		.loc 1 20 18 view .LVU393
 1387 0490 4BFFFD0C 		b .L155
 1388              	.LVL110:
 1389              	.L209:
 1390              		.cfi_restore 18
 1391              		.cfi_restore 19
 1392              		.cfi_restore 20
 1393              		.cfi_restore 21
 1394              		.cfi_restore 22
 1395              		.cfi_restore 23
 1396              		.cfi_restore 24
 1397              		.cfi_restore 25
 1398              		.cfi_restore 26
 1399              		.cfi_restore 27
 1400              		.cfi_restore 29
 1401              		.cfi_restore 65
 1402              		.loc 1 20 18 view .LVU394
 1403              	.LBE91:
 1404              	.LBE104:
 1405              	.LBE109:
 1406              	.LBE118:
 1407              		.loc 1 263 55 discriminator 3 view .LVU395
 1408 0494 8123007C 		lwz 9,124(3)
 1409 0498 2C090000 		cmpwi 0,9,0
 1410 049c 41A2FBA0 		beq- 0,.L204
 1411              		.loc 1 363 1 view .LVU396
 1412 04a0 83810040 		lwz 28,64(1)
 1413 04a4 83C10048 		lwz 30,72(1)
 1414 04a8 83E1004C 		lwz 31,76(1)
 1415 04ac 38210050 		addi 1,1,80
 1416              		.cfi_restore 31
 1417              		.cfi_restore 30
 1418              		.cfi_restore 28
 1419              		.cfi_def_cfa_offset 0
 1420 04b0 4E800020 		blr
 1421              	.LVL111:
 1422              	.L215:
 1423              		.cfi_def_cfa_offset 80
 1424              		.cfi_offset 18, -56
 1425              		.cfi_offset 19, -52
 1426              		.cfi_offset 20, -48
 1427              		.cfi_offset 21, -44
 1428              		.cfi_offset 22, -40
 1429              		.cfi_offset 23, -36
 1430              		.cfi_offset 24, -32
 1431              		.cfi_offset 25, -28
 1432              		.cfi_offset 26, -24
 1433              		.cfi_offset 27, -20
 1434              		.cfi_offset 28, -16
 1435              		.cfi_offset 29, -12
 1436              		.cfi_offset 30, -8
 1437              		.cfi_offset 31, -4
 1438              		.cfi_offset 65, 4
 1439              		.loc 1 355 4 is_stmt 1 view .LVU397
 1440              		.loc 1 355 26 is_stmt 0 view .LVU398
 1441 04b4 7FC3F378 		mr 3,30
 1442 04b8 38800001 		li 4,1
 1443 04bc 48000001 		bl _ZN9GuiWindow16MoveSelectionHorEi
 1444              	.LVL112:
 1445 04c0 4BFFFDDC 		b .L206
 1446              	.LVL113:
 1447              	.L146:
 1448              		.loc 1 295 7 is_stmt 1 view .LVU399
 1449              		.loc 1 295 27 is_stmt 0 view .LVU400
 1450 04c4 807E0208 		lwz 3,520(30)
 1451 04c8 48000001 		bl _ZN10GuiElement8GetStateEv
 1452              	.LVL114:
 1453              		.loc 1 295 7 discriminator 1 view .LVU401
 1454 04cc 2C030002 		cmpwi 0,3,2
 1455 04d0 4082FC20 		bne+ 0,.L142
 1456              		.loc 1 297 3 is_stmt 1 view .LVU402
 1457              		.loc 1 298 3 is_stmt 0 view .LVU403
 1458 04d4 807E0208 		lwz 3,520(30)
 1459              		.loc 1 298 20 view .LVU404
 1460 04d8 38800001 		li 4,1
 1461              		.loc 1 297 8 view .LVU405
 1462 04dc 813E01F0 		lwz 9,496(30)
 1463              		.loc 1 298 20 view .LVU406
 1464 04e0 81430000 		lwz 10,0(3)
 1465              		.loc 1 297 8 view .LVU407
 1466 04e4 69290001 		xori 9,9,0x1
 1467 04e8 913E01F0 		stw 9,496(30)
 1468              		.loc 1 298 3 is_stmt 1 view .LVU408
 1469              		.loc 1 298 20 is_stmt 0 view .LVU409
 1470 04ec 812A0010 		lwz 9,16(10)
 1471 04f0 80BC0004 		lwz 5,4(28)
 1472 04f4 7D2903A6 		mtctr 9
 1473 04f8 4E800421 		bctrl
 1474              	.LVL115:
 1475 04fc 4BFFFE30 		b .L147
 1476              	.LVL116:
 1477              	.L210:
 1478              		.loc 1 278 4 is_stmt 1 view .LVU410
 1479              		.loc 1 278 33 is_stmt 0 discriminator 1 view .LVU411
 1480 0500 7C7E1A14 		add 3,30,3
 1481 0504 39200020 		li 9,32
 1482 0508 99230090 		stb 9,144(3)
 1483              		.loc 1 279 4 is_stmt 1 view .LVU412
 1484              		.loc 1 279 19 is_stmt 0 view .LVU413
 1485 050c 7FE4FB78 		mr 4,31
 1486 0510 807E01F4 		lwz 3,500(30)
 1487 0514 48000001 		bl _ZN7GuiText7SetTextEPKc
 1488              	.LVL117:
 1489 0518 4BFFFBBC 		b .L141
 1490              	.LVL118:
 1491              	.L214:
 1492              		.loc 1 285 3 is_stmt 1 view .LVU414
 1493              		.loc 1 285 20 is_stmt 0 view .LVU415
 1494 051c 3BFE0090 		addi 31,30,144
 1495              	.LVL119:
 1496              		.loc 1 285 34 discriminator 1 view .LVU416
 1497 0520 3BA00000 		li 29,0
 1498              		.loc 1 285 19 view .LVU417
 1499 0524 7FE3FB78 		mr 3,31
 1500 0528 48000001 		bl strlen
 1501              	.LVL120:
 1502              		.loc 1 285 34 discriminator 1 view .LVU418
 1503 052c 7C7E1A14 		add 3,30,3
 1504 0530 9BA3008F 		stb 29,143(3)
 1505              		.loc 1 286 3 is_stmt 1 view .LVU419
 1506              	.LBB119:
 1507              	.LBB113:
 1508              		.loc 1 20 18 is_stmt 0 view .LVU420
 1509 0534 7FE3FB78 		mr 3,31
 1510 0538 48000001 		bl strlen
 1511              	.LVL121:
 1512              	.LBE113:
 1513              	.LBE119:
 1514              		.loc 1 286 3 view .LVU421
 1515 053c 837E01F4 		lwz 27,500(30)
 1516              	.LVL122:
 1517              	.LBB120:
 1518              	.LBI111:
 1519              		.loc 1 15 15 is_stmt 1 view .LVU422
 1520              	.LBB114:
 1521              		.loc 1 17 2 view .LVU423
 1522              		.loc 1 20 2 view .LVU424
 1523              		.loc 1 22 2 view .LVU425
 1524 0540 2803001F 		cmplwi 0,3,31
 1525 0544 40810028 		ble- 0,.L144
 1526              		.loc 1 25 2 view .LVU426
 1527              		.loc 1 25 9 is_stmt 0 view .LVU427
 1528 0548 3D200000 		lis 9,_ZL6tmptxt@ha
 1529              		.loc 1 25 45 view .LVU428
 1530 054c 3883FFE0 		addi 4,3,-32
 1531              		.loc 1 25 9 view .LVU429
 1532 0550 39290000 		la 9,_ZL6tmptxt@l(9)
 1533 0554 7C9F2214 		add 4,31,4
 1534 0558 7D234B78 		mr 3,9
 1535              	.LVL123:
 1536              		.loc 1 25 9 view .LVU430
 1537 055c 38A00020 		li 5,32
 1538 0560 48000001 		bl strncpy
 1539              	.LVL124:
 1540              		.loc 1 26 2 is_stmt 1 view .LVU431
 1541              		.loc 1 26 33 is_stmt 0 view .LVU432
 1542 0564 9BA3001F 		stb 29,31(3)
 1543              		.loc 1 27 2 is_stmt 1 view .LVU433
 1544              		.loc 1 27 18 is_stmt 0 view .LVU434
 1545 0568 7C7F1B78 		mr 31,3
 1546              	.LVL125:
 1547              	.L144:
 1548              		.loc 1 27 18 view .LVU435
 1549              	.LBE114:
 1550              	.LBE120:
 1551              		.loc 1 286 18 discriminator 1 view .LVU436
 1552 056c 7FE4FB78 		mr 4,31
 1553 0570 7F63DB78 		mr 3,27
 1554 0574 48000001 		bl _ZN7GuiText7SetTextEPKc
 1555              	.LVL126:
 1556              		.loc 1 287 3 is_stmt 1 view .LVU437
 1557 0578 807E0228 		lwz 3,552(30)
 1558              		.loc 1 287 20 is_stmt 0 view .LVU438
 1559 057c 38800001 		li 4,1
 1560 0580 4BFFFB5C 		b .L207
 1561              	.LVL127:
 1562              	.L170:
 1563              		.loc 1 358 8 is_stmt 1 view .LVU439
 1564              		.loc 1 358 18 is_stmt 0 view .LVU440
 1565 0584 7F83E378 		mr 3,28
 1566 0588 48000001 		bl _ZN10GuiTrigger4DownEv
 1567              	.LVL128:
 1568              		.loc 1 358 8 discriminator 1 view .LVU441
 1569 058c 2C030000 		cmpwi 0,3,0
 1570 0590 40820024 		bne- 0,.L216
 1571              		.loc 1 360 8 is_stmt 1 view .LVU442
 1572              		.loc 1 360 16 is_stmt 0 view .LVU443
 1573 0594 7F83E378 		mr 3,28
 1574 0598 48000001 		bl _ZN10GuiTrigger2UpEv
 1575              	.LVL129:
 1576              		.loc 1 360 8 discriminator 1 view .LVU444
 1577 059c 2C030000 		cmpwi 0,3,0
 1578 05a0 4182FCFC 		beq+ 0,.L206
 1579              		.loc 1 361 4 is_stmt 1 view .LVU445
 1580              		.loc 1 361 27 is_stmt 0 view .LVU446
 1581 05a4 7FC3F378 		mr 3,30
 1582 05a8 3880FFFF 		li 4,-1
 1583 05ac 48000001 		bl _ZN9GuiWindow17MoveSelectionVertEi
 1584              	.LVL130:
 1585 05b0 4BFFFCEC 		b .L206
 1586              	.L216:
 1587              		.loc 1 359 4 is_stmt 1 view .LVU447
 1588              		.loc 1 359 27 is_stmt 0 view .LVU448
 1589 05b4 7FC3F378 		mr 3,30
 1590 05b8 38800001 		li 4,1
 1591 05bc 48000001 		bl _ZN9GuiWindow17MoveSelectionVertEi
 1592              	.LVL131:
 1593 05c0 4BFFFCDC 		b .L206
 1594              	.LVL132:
 1595              	.L177:
 1596              		.loc 1 269 3 view .LVU449
 1597 05c4 2C040001 		cmpwi 0,4,1
 1598 05c8 40820010 		bne- 0,.L217
 1599              	.LBB121:
 1600              	.LBB74:
 1601              	.LBB67:
 1602              		.loc 1 269 32 discriminator 1 view .LVU450
 1603 05cc 48000001 		bl __cxa_begin_catch
 1604              	.LVL133:
 1605              		.loc 1 269 37 discriminator 2 view .LVU451
 1606 05d0 48000001 		bl __cxa_end_catch
 1607              	.LVL134:
 1608 05d4 4BFFFAB8 		b .L174
 1609              	.L217:
 1610 05d8 48000001 		bl _Unwind_Resume
 1611              	.LVL135:
 1612              	.LEHE1:
 1613              	.LBE67:
 1614              	.LBE74:
 1615              	.LBE121:
 1616              		.cfi_endproc
 1617              	.LFE2340:
 1618              		.globl __gxx_personality_v0
 1619              		.section	.gcc_except_table._ZN11GuiKeyboard6UpdateEP10GuiTrigger,"a",@progbits
 1620              		.align 2
 1621              	.LLSDA2340:
 1622 0000 FF       		.byte	0xff
 1623 0001 00       		.byte	0
 1624 0002 15       		.uleb128 .LLSDATT2340-.LLSDATTD2340
 1625              	.LLSDATTD2340:
 1626 0003 01       		.byte	0x1
 1627 0004 0C       		.uleb128 .LLSDACSE2340-.LLSDACSB2340
 1628              	.LLSDACSB2340:
 1629 0005 8801     		.uleb128 .LEHB0-.LFB2340
 1630 0007 04       		.uleb128 .LEHE0-.LEHB0
 1631 0008 C40B     		.uleb128 .L177-.LFB2340
 1632 000a 01       		.uleb128 0x1
 1633 000b B001     		.uleb128 .LEHB1-.LFB2340
 1634 000d AC0A     		.uleb128 .LEHE1-.LEHB1
 1635 000f 00       		.uleb128 0
 1636 0010 00       		.uleb128 0
 1637              	.LLSDACSE2340:
 1638 0011 01       		.byte	0x1
 1639 0012 00       		.byte	0
 1640 0013 00       		.align 2
 1641 0014 00000000 		.long	_ZTISt9exception
 1642              	.LLSDATT2340:
 1643              		.section	.text._ZN11GuiKeyboard6UpdateEP10GuiTrigger
 1644              		.size	_ZN11GuiKeyboard6UpdateEP10GuiTrigger, .-_ZN11GuiKeyboard6UpdateEP10GuiTrigger
 1645              		.section	.rodata._ZN11GuiKeyboardC2EPcj.str1.4,"aMS",@progbits,1
 1646              		.align 2
 1647              	.LC1:
 1648 0000 4261636B 		.string	"Back"
 1648      00
 1649 0005 000000   		.align 2
 1650              	.LC2:
 1651 0008 43617073 		.string	"Caps"
 1651      00
 1652 000d 000000   		.align 2
 1653              	.LC3:
 1654 0010 53686966 		.string	"Shift"
 1654      7400
 1655              		.section	.text._ZN11GuiKeyboardC2EPcj,"ax",@progbits
 1656              		.align 2
 1657              		.globl _ZN11GuiKeyboardC2EPcj
 1658              		.type	_ZN11GuiKeyboardC2EPcj, @function
 1659              	_ZN11GuiKeyboardC2EPcj:
 1660              	.LVL136:
 1661              	.LFB2334:
 1662              		.loc 1 34 1 is_stmt 1 view -0
 1663              		.cfi_startproc
 1664              		.cfi_personality 0,__gxx_personality_v0
 1665              		.cfi_lsda 0,.LLSDA2334
 1666              		.loc 1 34 1 is_stmt 0 view .LVU453
 1667 0000 9421FF60 		stwu 1,-160(1)
 1668              		.cfi_def_cfa_offset 160
 1669 0004 7C0802A6 		mflr 0
 1670 0008 900100A4 		stw 0,164(1)
 1671 000c 93010080 		stw 24,128(1)
 1672 0010 9361008C 		stw 27,140(1)
 1673              		.cfi_offset 65, 4
 1674              		.cfi_offset 24, -32
 1675              		.cfi_offset 27, -20
 1676 0014 7C9B2378 		mr 27,4
 1677 0018 93810090 		stw 28,144(1)
 1678 001c 93A10094 		stw 29,148(1)
 1679              		.cfi_offset 28, -16
 1680              		.cfi_offset 29, -12
 1681              	.LBB128:
 1682              	.LBB129:
 1683              		.loc 1 38 8 view .LVU454
 1684 0020 3BA00000 		li 29,0
 1685              	.LBE129:
 1686              	.LBE128:
 1687              		.loc 1 34 1 view .LVU455
 1688 0024 93C10098 		stw 30,152(1)
 1689              		.cfi_offset 30, -8
 1690 0028 7C7E1B78 		mr 30,3
 1691 002c 93E1009C 		stw 31,156(1)
 1692              		.cfi_offset 31, -4
 1693 0030 7CBF2B78 		mr 31,5
 1694 0034 92A10074 		stw 21,116(1)
 1695              	.LBB151:
 1696              	.LBB144:
 1697              		.loc 1 44 10 view .LVU456
 1698 0038 3B9E0090 		addi 28,30,144
 1699              	.LBE144:
 1700              	.LBE151:
 1701              		.loc 1 34 1 view .LVU457
 1702 003c 92C10078 		stw 22,120(1)
 1703              	.LBB152:
 1704              	.LBB145:
 1705              		.loc 1 103 8 view .LVU458
 1706 0040 3B1E0194 		addi 24,30,404
 1707              	.LBE145:
 1708              	.LBE152:
 1709              		.loc 1 34 1 view .LVU459
 1710 0044 92E1007C 		stw 23,124(1)
 1711 0048 93210084 		stw 25,132(1)
 1712 004c 93410088 		stw 26,136(1)
 1713              		.cfi_offset 21, -44
 1714              		.cfi_offset 22, -40
 1715              		.cfi_offset 23, -36
 1716              		.cfi_offset 25, -28
 1717              		.cfi_offset 26, -24
 1718              	.LEHB2:
 1719              	.LBB153:
 1720              		.loc 1 34 43 view .LVU460
 1721 0050 48000001 		bl _ZN9GuiWindowC2Ev
 1722              	.LVL137:
 1723              	.LEHE2:
 1724              		.loc 1 34 43 discriminator 1 view .LVU461
 1725 0054 3D200000 		lis 9,_ZTV11GuiKeyboard+8@ha
 1726              	.LBB146:
 1727              		.loc 1 37 9 view .LVU462
 1728 0058 38C00190 		li 6,400
 1729              		.loc 1 40 13 view .LVU463
 1730 005c 38E00001 		li 7,1
 1731              		.loc 1 42 15 view .LVU464
 1732 0060 39000002 		li 8,2
 1733              		.loc 1 43 16 view .LVU465
 1734 0064 39400005 		li 10,5
 1735              	.LBE146:
 1736              		.loc 1 34 43 discriminator 1 view .LVU466
 1737 0068 39290000 		la 9,_ZTV11GuiKeyboard+8@l(9)
 1738              	.LBB147:
 1739              		.loc 1 36 8 view .LVU467
 1740 006c 38A0021C 		li 5,540
 1741              		.loc 1 37 9 view .LVU468
 1742 0070 90DE0010 		stw 6,16(30)
 1743              		.loc 1 40 13 view .LVU469
 1744 0074 98FE0070 		stb 7,112(30)
 1745              		.loc 1 44 9 view .LVU470
 1746 0078 7F64DB78 		mr 4,27
 1747              		.loc 1 42 15 view .LVU471
 1748 007c 911E0060 		stw 8,96(30)
 1749              		.loc 1 44 9 view .LVU472
 1750 0080 7F83E378 		mr 3,28
 1751              		.loc 1 43 16 view .LVU473
 1752 0084 915E0064 		stw 10,100(30)
 1753              	.LBE147:
 1754              		.loc 1 34 43 discriminator 1 view .LVU474
 1755 0088 913E0000 		stw 9,0(30)
 1756              	.LBB148:
 1757              		.loc 1 36 2 is_stmt 1 view .LVU475
 1758              		.loc 1 36 8 is_stmt 0 view .LVU476
 1759 008c 90BE000C 		stw 5,12(30)
 1760              		.loc 1 37 2 is_stmt 1 view .LVU477
 1761              		.loc 1 38 2 view .LVU478
 1762              		.loc 1 44 9 is_stmt 0 view .LVU479
 1763 0090 7FE5FB78 		mr 5,31
 1764              		.loc 1 38 8 view .LVU480
 1765 0094 93BE01EC 		stw 29,492(30)
 1766              		.loc 1 39 2 is_stmt 1 view .LVU481
 1767              		.loc 1 39 7 is_stmt 0 view .LVU482
 1768 0098 93BE01F0 		stw 29,496(30)
 1769              		.loc 1 40 2 is_stmt 1 view .LVU483
 1770              		.loc 1 41 2 view .LVU484
 1771              		.loc 1 41 8 is_stmt 0 view .LVU485
 1772 009c 93BE0008 		stw 29,8(30)
 1773              		.loc 1 42 2 is_stmt 1 view .LVU486
 1774              		.loc 1 43 2 view .LVU487
 1775              		.loc 1 44 2 view .LVU488
 1776              		.loc 1 44 9 is_stmt 0 view .LVU489
 1777 00a0 48000001 		bl strncpy
 1778              	.LVL138:
 1779              		.loc 1 45 2 is_stmt 1 view .LVU490
 1780              		.loc 1 45 17 is_stmt 0 view .LVU491
 1781 00a4 7D3EFA14 		add 9,30,31
 1782 00a8 9BA90090 		stb 29,144(9)
 1783              		.loc 1 46 2 is_stmt 1 view .LVU492
 1784              		.loc 1 48 6 is_stmt 0 view .LVU493
 1785 00ac 3C800000 		lis 4,.LANCHOR0@ha
 1786              		.loc 1 46 15 view .LVU494
 1787 00b0 93FE0190 		stw 31,400(30)
 1788              		.loc 1 48 2 is_stmt 1 view .LVU495
 1789              		.loc 1 48 6 is_stmt 0 view .LVU496
 1790 00b4 38840000 		la 4,.LANCHOR0@l(4)
 1791 00b8 38A00058 		li 5,88
 1792 00bc 38610008 		addi 3,1,8
 1793 00c0 48000001 		bl memcpy
 1794              	.LVL139:
 1795              		.loc 1 103 2 is_stmt 1 view .LVU497
 1796              		.loc 1 103 8 is_stmt 0 view .LVU498
 1797 00c4 38A00058 		li 5,88
 1798 00c8 38810008 		addi 4,1,8
 1799 00cc 7F03C378 		mr 3,24
 1800 00d0 48000001 		bl memcpy
 1801              	.LVL140:
 1802              		.loc 1 105 2 is_stmt 1 view .LVU499
 1803              		.loc 1 105 52 is_stmt 0 view .LVU500
 1804 00d4 3860000C 		li 3,12
 1805              	.LEHB3:
 1806 00d8 48000001 		bl _Znwj
 1807              	.LVL141:
 1808              	.LEHE3:
 1809              		.loc 1 105 52 discriminator 1 view .LVU501
 1810 00dc 3C800000 		lis 4,keyboard_textbox_png@ha
 1811              		.loc 1 105 52 view .LVU502
 1812 00e0 7C7D1B78 		mr 29,3
 1813              		.loc 1 105 52 discriminator 1 view .LVU503
 1814 00e4 38840000 		la 4,keyboard_textbox_png@l(4)
 1815              	.LEHB4:
 1816 00e8 48000001 		bl _ZN12GuiImageDataC1EPKh
 1817              	.LVL142:
 1818              	.LEHE4:
 1819              		.loc 1 105 13 discriminator 3 view .LVU504
 1820 00ec 93BE04F8 		stw 29,1272(30)
 1821              		.loc 1 106 2 is_stmt 1 view .LVU505
 1822              		.loc 1 106 41 is_stmt 0 view .LVU506
 1823 00f0 38600098 		li 3,152
 1824              	.LEHB5:
 1825 00f4 48000001 		bl _Znwj
 1826              	.LVL143:
 1827              	.LEHE5:
 1828              		.loc 1 106 41 discriminator 1 view .LVU507
 1829 00f8 809E04F8 		lwz 4,1272(30)
 1830              		.loc 1 106 41 view .LVU508
 1831 00fc 7C7D1B78 		mr 29,3
 1832              	.LEHB6:
 1833              		.loc 1 106 41 discriminator 1 view .LVU509
 1834 0100 48000001 		bl _ZN8GuiImageC1EP12GuiImageData
 1835              	.LVL144:
 1836              	.LEHE6:
 1837              		.loc 1 106 16 discriminator 3 view .LVU510
 1838 0104 93BE01F8 		stw 29,504(30)
 1839              		.loc 1 107 2 is_stmt 1 view .LVU511
 1840              		.loc 1 107 29 is_stmt 0 view .LVU512
 1841 0108 7FA3EB78 		mr 3,29
 1842 010c 38A00003 		li 5,3
 1843 0110 38800002 		li 4,2
 1844              	.LEHB7:
 1845 0114 48000001 		bl _ZN10GuiElement12SetAlignmentEii
 1846              	.LVL145:
 1847              		.loc 1 108 2 is_stmt 1 view .LVU513
 1848              		.loc 1 108 28 is_stmt 0 view .LVU514
 1849 0118 807E01F8 		lwz 3,504(30)
 1850 011c 38A00000 		li 5,0
 1851 0120 38800000 		li 4,0
 1852 0124 48000001 		bl _ZN10GuiElement11SetPositionEii
 1853              	.LVL146:
 1854              		.loc 1 109 2 is_stmt 1 view .LVU515
 1855              		.loc 1 109 14 is_stmt 0 view .LVU516
 1856 0128 809E01F8 		lwz 4,504(30)
 1857 012c 7FC3F378 		mr 3,30
 1858 0130 48000001 		bl _ZN9GuiWindow6AppendEP10GuiElement
 1859              	.LVL147:
 1860              		.loc 1 111 2 is_stmt 1 view .LVU517
 1861              		.loc 1 111 78 is_stmt 0 view .LVU518
 1862 0134 386000B0 		li 3,176
 1863 0138 48000001 		bl _Znwj
 1864              	.LVL148:
 1865              	.LEHE7:
 1866 013c 7C7D1B78 		mr 29,3
 1867              	.LBB130:
 1868              	.LBB131:
 1869              		.loc 1 20 18 view .LVU519
 1870 0140 7F83E378 		mr 3,28
 1871              	.LVL149:
 1872              		.loc 1 20 18 view .LVU520
 1873              	.LBE131:
 1874              	.LBI130:
 1875              		.loc 1 15 15 is_stmt 1 view .LVU521
 1876              	.LBB132:
 1877              		.loc 1 17 2 view .LVU522
 1878              		.loc 1 20 2 view .LVU523
 1879              		.loc 1 20 18 is_stmt 0 view .LVU524
 1880 0144 48000001 		bl strlen
 1881              	.LVL150:
 1882              		.loc 1 22 2 is_stmt 1 view .LVU525
 1883 0148 2803001F 		cmplwi 0,3,31
 1884 014c 4081002C 		ble- 0,.L219
 1885              		.loc 1 25 2 view .LVU526
 1886              		.loc 1 25 9 is_stmt 0 view .LVU527
 1887 0150 3D200000 		lis 9,_ZL6tmptxt@ha
 1888              		.loc 1 25 45 view .LVU528
 1889 0154 3883FFE0 		addi 4,3,-32
 1890              		.loc 1 25 9 view .LVU529
 1891 0158 39290000 		la 9,_ZL6tmptxt@l(9)
 1892 015c 7C9C2214 		add 4,28,4
 1893 0160 7D234B78 		mr 3,9
 1894              	.LVL151:
 1895              		.loc 1 25 9 view .LVU530
 1896 0164 38A00020 		li 5,32
 1897 0168 48000001 		bl strncpy
 1898              	.LVL152:
 1899              		.loc 1 26 2 is_stmt 1 view .LVU531
 1900              		.loc 1 26 33 is_stmt 0 view .LVU532
 1901 016c 39400000 		li 10,0
 1902 0170 9943001F 		stb 10,31(3)
 1903              		.loc 1 27 2 is_stmt 1 view .LVU533
 1904              		.loc 1 27 18 is_stmt 0 view .LVU534
 1905 0174 7C7C1B78 		mr 28,3
 1906              	.LVL153:
 1907              	.L219:
 1908              		.loc 1 27 18 view .LVU535
 1909              	.LBE132:
 1910              	.LBE130:
 1911              		.loc 1 111 78 discriminator 1 view .LVU536
 1912 0178 392000FF 		li 9,255
 1913 017c 7F84E378 		mr 4,28
 1914 0180 38C10068 		addi 6,1,104
 1915 0184 38A00014 		li 5,20
 1916 0188 7FA3EB78 		mr 3,29
 1917 018c 91210068 		stw 9,104(1)
 1918              	.LEHB8:
 1919 0190 48000001 		bl _ZN7GuiTextC1EPKci9_gx_color
 1920              	.LVL154:
 1921              	.LEHE8:
 1922              		.loc 1 111 9 discriminator 3 view .LVU537
 1923 0194 93BE01F4 		stw 29,500(30)
 1924              		.loc 1 112 2 is_stmt 1 view .LVU538
 1925              		.loc 1 112 22 is_stmt 0 view .LVU539
 1926 0198 7FA3EB78 		mr 3,29
 1927 019c 38A00003 		li 5,3
 1928 01a0 38800002 		li 4,2
 1929              	.LEHB9:
 1930 01a4 48000001 		bl _ZN7GuiText12SetAlignmentEii
 1931              	.LVL155:
 1932              		.loc 1 113 2 is_stmt 1 view .LVU540
 1933              		.loc 1 113 21 is_stmt 0 view .LVU541
 1934 01a8 807E01F4 		lwz 3,500(30)
 1935 01ac 38A0000D 		li 5,13
 1936 01b0 38800000 		li 4,0
 1937 01b4 48000001 		bl _ZN10GuiElement11SetPositionEii
 1938              	.LVL156:
 1939              		.loc 1 114 2 is_stmt 1 view .LVU542
 1940              		.loc 1 114 14 is_stmt 0 view .LVU543
 1941 01b8 809E01F4 		lwz 4,500(30)
 1942 01bc 7FC3F378 		mr 3,30
 1943 01c0 48000001 		bl _ZN9GuiWindow6AppendEP10GuiElement
 1944              	.LVL157:
 1945              		.loc 1 116 2 is_stmt 1 view .LVU544
 1946              		.loc 1 116 41 is_stmt 0 view .LVU545
 1947 01c4 3860000C 		li 3,12
 1948 01c8 48000001 		bl _Znwj
 1949              	.LVL158:
 1950              	.LEHE9:
 1951              		.loc 1 116 41 discriminator 1 view .LVU546
 1952 01cc 3C800000 		lis 4,keyboard_key_png@ha
 1953              		.loc 1 116 41 view .LVU547
 1954 01d0 7C7D1B78 		mr 29,3
 1955              		.loc 1 116 41 discriminator 1 view .LVU548
 1956 01d4 38840000 		la 4,keyboard_key_png@l(4)
 1957              	.LEHB10:
 1958 01d8 48000001 		bl _ZN12GuiImageDataC1EPKh
 1959              	.LVL159:
 1960              	.LEHE10:
 1961              		.loc 1 116 6 discriminator 3 view .LVU549
 1962 01dc 93BE04FC 		stw 29,1276(30)
 1963              		.loc 1 117 2 is_stmt 1 view .LVU550
 1964              		.loc 1 117 50 is_stmt 0 view .LVU551
 1965 01e0 3860000C 		li 3,12
 1966              	.LEHB11:
 1967 01e4 48000001 		bl _Znwj
 1968              	.LVL160:
 1969              	.LEHE11:
 1970              		.loc 1 117 50 discriminator 1 view .LVU552
 1971 01e8 3C800000 		lis 4,keyboard_key_over_png@ha
 1972              		.loc 1 117 50 view .LVU553
 1973 01ec 7C7D1B78 		mr 29,3
 1974              		.loc 1 117 50 discriminator 1 view .LVU554
 1975 01f0 38840000 		la 4,keyboard_key_over_png@l(4)
 1976              	.LEHB12:
 1977 01f4 48000001 		bl _ZN12GuiImageDataC1EPKh
 1978              	.LVL161:
 1979              	.LEHE12:
 1980              		.loc 1 117 10 discriminator 3 view .LVU555
 1981 01f8 93BE0500 		stw 29,1280(30)
 1982              		.loc 1 118 2 is_stmt 1 view .LVU556
 1983              		.loc 1 118 53 is_stmt 0 view .LVU557
 1984 01fc 3860000C 		li 3,12
 1985              	.LEHB13:
 1986 0200 48000001 		bl _Znwj
 1987              	.LVL162:
 1988              	.LEHE13:
 1989              		.loc 1 118 53 discriminator 1 view .LVU558
 1990 0204 3C800000 		lis 4,keyboard_mediumkey_png@ha
 1991              		.loc 1 118 53 view .LVU559
 1992 0208 7C7D1B78 		mr 29,3
 1993              		.loc 1 118 53 discriminator 1 view .LVU560
 1994 020c 38840000 		la 4,keyboard_mediumkey_png@l(4)
 1995              	.LEHB14:
 1996 0210 48000001 		bl _ZN12GuiImageDataC1EPKh
 1997              	.LVL163:
 1998              	.LEHE14:
 1999              		.loc 1 118 12 discriminator 3 view .LVU561
 2000 0214 93BE0504 		stw 29,1284(30)
 2001              		.loc 1 119 2 is_stmt 1 view .LVU562
 2002              		.loc 1 119 62 is_stmt 0 view .LVU563
 2003 0218 3860000C 		li 3,12
 2004              	.LEHB15:
 2005 021c 48000001 		bl _Znwj
 2006              	.LVL164:
 2007              	.LEHE15:
 2008              		.loc 1 119 62 discriminator 1 view .LVU564
 2009 0220 3C800000 		lis 4,keyboard_mediumkey_over_png@ha
 2010              		.loc 1 119 62 view .LVU565
 2011 0224 7C7D1B78 		mr 29,3
 2012              		.loc 1 119 62 discriminator 1 view .LVU566
 2013 0228 38840000 		la 4,keyboard_mediumkey_over_png@l(4)
 2014              	.LEHB16:
 2015 022c 48000001 		bl _ZN12GuiImageDataC1EPKh
 2016              	.LVL165:
 2017              	.LEHE16:
 2018              		.loc 1 119 16 discriminator 3 view .LVU567
 2019 0230 93BE0508 		stw 29,1288(30)
 2020              		.loc 1 120 2 is_stmt 1 view .LVU568
 2021              		.loc 1 120 51 is_stmt 0 view .LVU569
 2022 0234 3860000C 		li 3,12
 2023              	.LEHB17:
 2024 0238 48000001 		bl _Znwj
 2025              	.LVL166:
 2026              	.LEHE17:
 2027              		.loc 1 120 51 discriminator 1 view .LVU570
 2028 023c 3C800000 		lis 4,keyboard_largekey_png@ha
 2029              		.loc 1 120 51 view .LVU571
 2030 0240 7C7D1B78 		mr 29,3
 2031              		.loc 1 120 51 discriminator 1 view .LVU572
 2032 0244 38840000 		la 4,keyboard_largekey_png@l(4)
 2033              	.LEHB18:
 2034 0248 48000001 		bl _ZN12GuiImageDataC1EPKh
 2035              	.LVL167:
 2036              	.LEHE18:
 2037              		.loc 1 120 11 discriminator 3 view .LVU573
 2038 024c 93BE050C 		stw 29,1292(30)
 2039              		.loc 1 121 2 is_stmt 1 view .LVU574
 2040              		.loc 1 121 60 is_stmt 0 view .LVU575
 2041 0250 3860000C 		li 3,12
 2042              	.LEHB19:
 2043 0254 48000001 		bl _Znwj
 2044              	.LVL168:
 2045              	.LEHE19:
 2046              		.loc 1 121 60 discriminator 1 view .LVU576
 2047 0258 3C800000 		lis 4,keyboard_largekey_over_png@ha
 2048              		.loc 1 121 60 view .LVU577
 2049 025c 7C7D1B78 		mr 29,3
 2050              		.loc 1 121 60 discriminator 1 view .LVU578
 2051 0260 38840000 		la 4,keyboard_largekey_over_png@l(4)
 2052              	.LEHB20:
 2053 0264 48000001 		bl _ZN12GuiImageDataC1EPKh
 2054              	.LVL169:
 2055              	.LEHE20:
 2056              		.loc 1 121 15 discriminator 3 view .LVU579
 2057 0268 93BE0510 		stw 29,1296(30)
 2058              		.loc 1 123 2 is_stmt 1 view .LVU580
 2059              		.loc 1 123 78 is_stmt 0 view .LVU581
 2060 026c 38600018 		li 3,24
 2061              	.LEHB21:
 2062 0270 48000001 		bl _Znwj
 2063              	.LVL170:
 2064              	.LEHE21:
 2065              		.loc 1 123 78 discriminator 1 view .LVU582
 2066 0274 3C800000 		lis 4,button_over_pcm@ha
 2067 0278 38C00000 		li 6,0
 2068 027c 38840000 		la 4,button_over_pcm@l(4)
 2069 0280 38A00B3C 		li 5,2876
 2070              		.loc 1 123 78 view .LVU583
 2071 0284 7C7D1B78 		mr 29,3
 2072              	.LEHB22:
 2073              		.loc 1 123 78 discriminator 1 view .LVU584
 2074 0288 48000001 		bl _ZN8GuiSoundC1EPKhii
 2075              	.LVL171:
 2076              	.LEHE22:
 2077              		.loc 1 123 15 discriminator 3 view .LVU585
 2078 028c 93BE0514 		stw 29,1300(30)
 2079              		.loc 1 124 2 is_stmt 1 view .LVU586
 2080              		.loc 1 124 81 is_stmt 0 view .LVU587
 2081 0290 38600018 		li 3,24
 2082              	.LEHB23:
 2083 0294 48000001 		bl _Znwj
 2084              	.LVL172:
 2085              	.LEHE23:
 2086              		.loc 1 124 81 discriminator 1 view .LVU588
 2087 0298 3C800000 		lis 4,button_click_pcm@ha
 2088 029c 38C00000 		li 6,0
 2089 02a0 38840000 		la 4,button_click_pcm@l(4)
 2090 02a4 38A01C24 		li 5,7204
 2091              		.loc 1 124 81 view .LVU589
 2092 02a8 7C7D1B78 		mr 29,3
 2093              	.LEHB24:
 2094              		.loc 1 124 81 discriminator 1 view .LVU590
 2095 02ac 48000001 		bl _ZN8GuiSoundC1EPKhii
 2096              	.LVL173:
 2097              	.LEHE24:
 2098              		.loc 1 124 16 discriminator 3 view .LVU591
 2099 02b0 93BE0518 		stw 29,1304(30)
 2100              		.loc 1 125 2 is_stmt 1 view .LVU592
 2101              		.loc 1 125 14 is_stmt 0 view .LVU593
 2102 02b4 3860016C 		li 3,364
 2103              	.LEHB25:
 2104 02b8 48000001 		bl _Znwj
 2105              	.LVL174:
 2106              	.LEHE25:
 2107 02bc 7C7D1B78 		mr 29,3
 2108              	.LEHB26:
 2109              		.loc 1 125 14 discriminator 1 view .LVU594
 2110 02c0 48000001 		bl _ZN10GuiTriggerC1Ev
 2111              	.LVL175:
 2112              	.LEHE26:
 2113              		.loc 1 127 25 view .LVU595
 2114 02c4 3CA00010 		lis 5,0x10
 2115              		.loc 1 125 8 discriminator 3 view .LVU596
 2116 02c8 93BE051C 		stw 29,1308(30)
 2117              		.loc 1 127 2 is_stmt 1 view .LVU597
 2118              		.loc 1 127 25 is_stmt 0 view .LVU598
 2119 02cc 7FA3EB78 		mr 3,29
 2120 02d0 60A50008 		ori 5,5,0x8
 2121 02d4 38C00100 		li 6,256
 2122 02d8 3880FFFF 		li 4,-1
 2123              	.LEHB27:
 2124 02dc 48000001 		bl _ZN10GuiTrigger16SetSimpleTriggerEijt
 2125              	.LVL176:
 2126              		.loc 1 129 2 is_stmt 1 view .LVU599
 2127              		.loc 1 129 37 is_stmt 0 view .LVU600
 2128 02e0 38600098 		li 3,152
 2129 02e4 48000001 		bl _Znwj
 2130              	.LVL177:
 2131              	.LEHE27:
 2132              		.loc 1 129 37 discriminator 1 view .LVU601
 2133 02e8 809E0504 		lwz 4,1284(30)
 2134              		.loc 1 129 37 view .LVU602
 2135 02ec 7C7D1B78 		mr 29,3
 2136              	.LEHB28:
 2137              		.loc 1 129 37 discriminator 1 view .LVU603
 2138 02f0 48000001 		bl _ZN8GuiImageC1EP12GuiImageData
 2139              	.LVL178:
 2140              	.LEHE28:
 2141              		.loc 1 129 13 discriminator 3 view .LVU604
 2142 02f4 93BE0220 		stw 29,544(30)
 2143              		.loc 1 130 2 is_stmt 1 view .LVU605
 2144              		.loc 1 130 45 is_stmt 0 view .LVU606
 2145 02f8 38600098 		li 3,152
 2146              	.LEHB29:
 2147 02fc 48000001 		bl _Znwj
 2148              	.LVL179:
 2149              	.LEHE29:
 2150              		.loc 1 130 45 discriminator 1 view .LVU607
 2151 0300 809E0508 		lwz 4,1288(30)
 2152              		.loc 1 130 45 view .LVU608
 2153 0304 7C7D1B78 		mr 29,3
 2154              	.LEHB30:
 2155              		.loc 1 130 45 discriminator 1 view .LVU609
 2156 0308 48000001 		bl _ZN8GuiImageC1EP12GuiImageData
 2157              	.LVL180:
 2158              	.LEHE30:
 2159              		.loc 1 130 17 discriminator 3 view .LVU610
 2160 030c 93BE0224 		stw 29,548(30)
 2161              		.loc 1 131 2 is_stmt 1 view .LVU611
 2162              		.loc 1 131 64 is_stmt 0 view .LVU612
 2163 0310 386000B0 		li 3,176
 2164              	.LEHB31:
 2165 0314 48000001 		bl _Znwj
 2166              	.LVL181:
 2167              	.LEHE31:
 2168              		.loc 1 131 64 discriminator 1 view .LVU613
 2169 0318 3C800000 		lis 4,.LC1@ha
 2170 031c 392000FF 		li 9,255
 2171 0320 38840000 		la 4,.LC1@l(4)
 2172 0324 38C10068 		addi 6,1,104
 2173 0328 38A00014 		li 5,20
 2174 032c 91210068 		stw 9,104(1)
 2175              		.loc 1 131 64 view .LVU614
 2176 0330 7C7D1B78 		mr 29,3
 2177              	.LEHB32:
 2178              		.loc 1 131 64 discriminator 1 view .LVU615
 2179 0334 48000001 		bl _ZN7GuiTextC1EPKci9_gx_color
 2180              	.LVL182:
 2181              	.LEHE32:
 2182              		.loc 1 131 14 discriminator 3 view .LVU616
 2183 0338 93BE021C 		stw 29,540(30)
 2184              		.loc 1 132 2 is_stmt 1 view .LVU617
 2185              		.loc 1 132 71 is_stmt 0 view .LVU618
 2186 033c 386000E0 		li 3,224
 2187              	.LEHB33:
 2188 0340 48000001 		bl _Znwj
 2189              	.LVL183:
 2190              	.LEHE33:
 2191 0344 7C7D1B78 		mr 29,3
 2192              		.loc 1 132 71 discriminator 1 view .LVU619
 2193 0348 807E0504 		lwz 3,1284(30)
 2194              	.LEHB34:
 2195 034c 48000001 		bl _ZN12GuiImageData8GetWidthEv
 2196              	.LVL184:
 2197 0350 7C7F1B78 		mr 31,3
 2198              	.LVL185:
 2199              		.loc 1 132 71 discriminator 3 view .LVU620
 2200 0354 807E0504 		lwz 3,1284(30)
 2201 0358 48000001 		bl _ZN12GuiImageData9GetHeightEv
 2202              	.LVL186:
 2203 035c 7C651B78 		mr 5,3
 2204              		.loc 1 132 71 discriminator 5 view .LVU621
 2205 0360 7FE4FB78 		mr 4,31
 2206 0364 7FA3EB78 		mr 3,29
 2207 0368 48000001 		bl _ZN9GuiButtonC1Eii
 2208              	.LVL187:
 2209              	.LEHE34:
 2210              		.loc 1 132 10 discriminator 7 view .LVU622
 2211 036c 93BE0228 		stw 29,552(30)
 2212              		.loc 1 133 2 is_stmt 1 view .LVU623
 2213              		.loc 1 133 19 is_stmt 0 view .LVU624
 2214 0370 7FA3EB78 		mr 3,29
 2215 0374 809E0220 		lwz 4,544(30)
 2216              	.LEHB35:
 2217 0378 48000001 		bl _ZN9GuiButton8SetImageEP8GuiImage
 2218              	.LVL188:
 2219              		.loc 1 134 2 is_stmt 1 view .LVU625
 2220              		.loc 1 134 23 is_stmt 0 view .LVU626
 2221 037c 809E0224 		lwz 4,548(30)
 2222 0380 807E0228 		lwz 3,552(30)
 2223 0384 48000001 		bl _ZN9GuiButton12SetImageOverEP8GuiImage
 2224              	.LVL189:
 2225              		.loc 1 135 2 is_stmt 1 view .LVU627
 2226              		.loc 1 135 19 is_stmt 0 view .LVU628
 2227 0388 809E021C 		lwz 4,540(30)
 2228 038c 38A00000 		li 5,0
 2229 0390 807E0228 		lwz 3,552(30)
 2230 0394 48000001 		bl _ZN9GuiButton8SetLabelEP7GuiTexti
 2231              	.LVL190:
 2232              		.loc 1 136 2 is_stmt 1 view .LVU629
 2233              		.loc 1 136 23 is_stmt 0 view .LVU630
 2234 0398 809E0514 		lwz 4,1300(30)
 2235 039c 807E0228 		lwz 3,552(30)
 2236 03a0 48000001 		bl _ZN9GuiButton12SetSoundOverEP8GuiSound
 2237              	.LVL191:
 2238              		.loc 1 137 2 is_stmt 1 view .LVU631
 2239              		.loc 1 137 24 is_stmt 0 view .LVU632
 2240 03a4 809E0518 		lwz 4,1304(30)
 2241 03a8 807E0228 		lwz 3,552(30)
 2242 03ac 48000001 		bl _ZN9GuiButton13SetSoundClickEP8GuiSound
 2243              	.LVL192:
 2244              		.loc 1 138 2 is_stmt 1 view .LVU633
 2245              		.loc 1 138 21 is_stmt 0 view .LVU634
 2246 03b0 809E051C 		lwz 4,1308(30)
 2247 03b4 807E0228 		lwz 3,552(30)
 2248 03b8 48000001 		bl _ZN10GuiElement10SetTriggerEP10GuiTrigger
 2249              	.LVL193:
 2250              		.loc 1 139 2 is_stmt 1 view .LVU635
 2251              		.loc 1 139 22 is_stmt 0 view .LVU636
 2252 03bc 807E0228 		lwz 3,552(30)
 2253 03c0 38A00050 		li 5,80
 2254 03c4 388001CC 		li 4,460
 2255 03c8 48000001 		bl _ZN10GuiElement11SetPositionEii
 2256              	.LVL194:
 2257              		.loc 1 140 2 is_stmt 1 view .LVU637
 2258              		.loc 1 140 24 is_stmt 0 view .LVU638
 2259 03cc 807E0228 		lwz 3,552(30)
 2260 03d0 48000001 		bl _ZN10GuiElement13SetEffectGrowEv
 2261              	.LVL195:
 2262              		.loc 1 141 2 is_stmt 1 view .LVU639
 2263              		.loc 1 141 14 is_stmt 0 view .LVU640
 2264 03d4 809E0228 		lwz 4,552(30)
 2265 03d8 7FC3F378 		mr 3,30
 2266 03dc 48000001 		bl _ZN9GuiWindow6AppendEP10GuiElement
 2267              	.LVL196:
 2268              		.loc 1 143 2 is_stmt 1 view .LVU641
 2269              		.loc 1 143 37 is_stmt 0 view .LVU642
 2270 03e0 38600098 		li 3,152
 2271 03e4 48000001 		bl _Znwj
 2272              	.LVL197:
 2273              	.LEHE35:
 2274              		.loc 1 143 37 discriminator 1 view .LVU643
 2275 03e8 809E0504 		lwz 4,1284(30)
 2276              		.loc 1 143 37 view .LVU644
 2277 03ec 7C7D1B78 		mr 29,3
 2278              	.LEHB36:
 2279              		.loc 1 143 37 discriminator 1 view .LVU645
 2280 03f0 48000001 		bl _ZN8GuiImageC1EP12GuiImageData
 2281              	.LVL198:
 2282              	.LEHE36:
 2283              		.loc 1 143 13 discriminator 3 view .LVU646
 2284 03f4 93BE0200 		stw 29,512(30)
 2285              		.loc 1 144 2 is_stmt 1 view .LVU647
 2286              		.loc 1 144 45 is_stmt 0 view .LVU648
 2287 03f8 38600098 		li 3,152
 2288              	.LEHB37:
 2289 03fc 48000001 		bl _Znwj
 2290              	.LVL199:
 2291              	.LEHE37:
 2292              		.loc 1 144 45 discriminator 1 view .LVU649
 2293 0400 809E0508 		lwz 4,1288(30)
 2294              		.loc 1 144 45 view .LVU650
 2295 0404 7C7D1B78 		mr 29,3
 2296              	.LEHB38:
 2297              		.loc 1 144 45 discriminator 1 view .LVU651
 2298 0408 48000001 		bl _ZN8GuiImageC1EP12GuiImageData
 2299              	.LVL200:
 2300              	.LEHE38:
 2301              		.loc 1 144 17 discriminator 3 view .LVU652
 2302 040c 93BE0204 		stw 29,516(30)
 2303              		.loc 1 145 2 is_stmt 1 view .LVU653
 2304              		.loc 1 145 64 is_stmt 0 view .LVU654
 2305 0410 386000B0 		li 3,176
 2306              	.LEHB39:
 2307 0414 48000001 		bl _Znwj
 2308              	.LVL201:
 2309              	.LEHE39:
 2310              		.loc 1 145 64 discriminator 1 view .LVU655
 2311 0418 3C800000 		lis 4,.LC2@ha
 2312 041c 392000FF 		li 9,255
 2313 0420 38840000 		la 4,.LC2@l(4)
 2314 0424 38C10068 		addi 6,1,104
 2315 0428 38A00014 		li 5,20
 2316 042c 91210068 		stw 9,104(1)
 2317              		.loc 1 145 64 view .LVU656
 2318 0430 7C7D1B78 		mr 29,3
 2319              	.LEHB40:
 2320              		.loc 1 145 64 discriminator 1 view .LVU657
 2321 0434 48000001 		bl _ZN7GuiTextC1EPKci9_gx_color
 2322              	.LVL202:
 2323              	.LEHE40:
 2324              		.loc 1 145 14 discriminator 3 view .LVU658
 2325 0438 93BE01FC 		stw 29,508(30)
 2326              		.loc 1 146 2 is_stmt 1 view .LVU659
 2327              		.loc 1 146 71 is_stmt 0 view .LVU660
 2328 043c 386000E0 		li 3,224
 2329              	.LEHB41:
 2330 0440 48000001 		bl _Znwj
 2331              	.LVL203:
 2332              	.LEHE41:
 2333 0444 7C7D1B78 		mr 29,3
 2334              		.loc 1 146 71 discriminator 1 view .LVU661
 2335 0448 807E0504 		lwz 3,1284(30)
 2336              	.LEHB42:
 2337 044c 48000001 		bl _ZN12GuiImageData8GetWidthEv
 2338              	.LVL204:
 2339 0450 7C7F1B78 		mr 31,3
 2340              		.loc 1 146 71 discriminator 3 view .LVU662
 2341 0454 807E0504 		lwz 3,1284(30)
 2342 0458 48000001 		bl _ZN12GuiImageData9GetHeightEv
 2343              	.LVL205:
 2344 045c 7C651B78 		mr 5,3
 2345              		.loc 1 146 71 discriminator 5 view .LVU663
 2346 0460 7FE4FB78 		mr 4,31
 2347 0464 7FA3EB78 		mr 3,29
 2348 0468 48000001 		bl _ZN9GuiButtonC1Eii
 2349              	.LVL206:
 2350              	.LEHE42:
 2351              		.loc 1 146 10 discriminator 7 view .LVU664
 2352 046c 93BE0208 		stw 29,520(30)
 2353              		.loc 1 147 2 is_stmt 1 view .LVU665
 2354              		.loc 1 147 19 is_stmt 0 view .LVU666
 2355 0470 7FA3EB78 		mr 3,29
 2356 0474 809E0200 		lwz 4,512(30)
 2357              	.LEHB43:
 2358 0478 48000001 		bl _ZN9GuiButton8SetImageEP8GuiImage
 2359              	.LVL207:
 2360              		.loc 1 148 2 is_stmt 1 view .LVU667
 2361              		.loc 1 148 23 is_stmt 0 view .LVU668
 2362 047c 809E0204 		lwz 4,516(30)
 2363 0480 807E0208 		lwz 3,520(30)
 2364 0484 48000001 		bl _ZN9GuiButton12SetImageOverEP8GuiImage
 2365              	.LVL208:
 2366              		.loc 1 149 2 is_stmt 1 view .LVU669
 2367              		.loc 1 149 19 is_stmt 0 view .LVU670
 2368 0488 809E01FC 		lwz 4,508(30)
 2369 048c 38A00000 		li 5,0
 2370 0490 807E0208 		lwz 3,520(30)
 2371 0494 48000001 		bl _ZN9GuiButton8SetLabelEP7GuiTexti
 2372              	.LVL209:
 2373              		.loc 1 150 2 is_stmt 1 view .LVU671
 2374              		.loc 1 150 23 is_stmt 0 view .LVU672
 2375 0498 809E0514 		lwz 4,1300(30)
 2376 049c 807E0208 		lwz 3,520(30)
 2377 04a0 48000001 		bl _ZN9GuiButton12SetSoundOverEP8GuiSound
 2378              	.LVL210:
 2379              		.loc 1 151 2 is_stmt 1 view .LVU673
 2380              		.loc 1 151 24 is_stmt 0 view .LVU674
 2381 04a4 809E0518 		lwz 4,1304(30)
 2382 04a8 807E0208 		lwz 3,520(30)
 2383 04ac 48000001 		bl _ZN9GuiButton13SetSoundClickEP8GuiSound
 2384              	.LVL211:
 2385              		.loc 1 152 2 is_stmt 1 view .LVU675
 2386              		.loc 1 152 21 is_stmt 0 view .LVU676
 2387 04b0 809E051C 		lwz 4,1308(30)
 2388 04b4 807E0208 		lwz 3,520(30)
 2389 04b8 48000001 		bl _ZN10GuiElement10SetTriggerEP10GuiTrigger
 2390              	.LVL212:
 2391              		.loc 1 153 2 is_stmt 1 view .LVU677
 2392              		.loc 1 153 22 is_stmt 0 view .LVU678
 2393 04bc 807E0208 		lwz 3,520(30)
 2394 04c0 38A000A4 		li 5,164
 2395 04c4 38800000 		li 4,0
 2396 04c8 48000001 		bl _ZN10GuiElement11SetPositionEii
 2397              	.LVL213:
 2398              		.loc 1 154 2 is_stmt 1 view .LVU679
 2399              		.loc 1 154 24 is_stmt 0 view .LVU680
 2400 04cc 807E0208 		lwz 3,520(30)
 2401 04d0 48000001 		bl _ZN10GuiElement13SetEffectGrowEv
 2402              	.LVL214:
 2403              		.loc 1 155 2 is_stmt 1 view .LVU681
 2404              		.loc 1 155 14 is_stmt 0 view .LVU682
 2405 04d4 809E0208 		lwz 4,520(30)
 2406 04d8 7FC3F378 		mr 3,30
 2407 04dc 48000001 		bl _ZN9GuiWindow6AppendEP10GuiElement
 2408              	.LVL215:
 2409              		.loc 1 157 2 is_stmt 1 view .LVU683
 2410              		.loc 1 157 38 is_stmt 0 view .LVU684
 2411 04e0 38600098 		li 3,152
 2412 04e4 48000001 		bl _Znwj
 2413              	.LVL216:
 2414              	.LEHE43:
 2415              		.loc 1 157 38 discriminator 1 view .LVU685
 2416 04e8 809E0504 		lwz 4,1284(30)
 2417              		.loc 1 157 38 view .LVU686
 2418 04ec 7C7D1B78 		mr 29,3
 2419              	.LEHB44:
 2420              		.loc 1 157 38 discriminator 1 view .LVU687
 2421 04f0 48000001 		bl _ZN8GuiImageC1EP12GuiImageData
 2422              	.LVL217:
 2423              	.LEHE44:
 2424              		.loc 1 157 14 discriminator 3 view .LVU688
 2425 04f4 93BE0210 		stw 29,528(30)
 2426              		.loc 1 158 2 is_stmt 1 view .LVU689
 2427              		.loc 1 158 46 is_stmt 0 view .LVU690
 2428 04f8 38600098 		li 3,152
 2429              	.LEHB45:
 2430 04fc 48000001 		bl _Znwj
 2431              	.LVL218:
 2432              	.LEHE45:
 2433              		.loc 1 158 46 discriminator 1 view .LVU691
 2434 0500 809E0508 		lwz 4,1288(30)
 2435              		.loc 1 158 46 view .LVU692
 2436 0504 7C7D1B78 		mr 29,3
 2437              	.LEHB46:
 2438              		.loc 1 158 46 discriminator 1 view .LVU693
 2439 0508 48000001 		bl _ZN8GuiImageC1EP12GuiImageData
 2440              	.LVL219:
 2441              	.LEHE46:
 2442              		.loc 1 158 18 discriminator 3 view .LVU694
 2443 050c 93BE0214 		stw 29,532(30)
 2444              		.loc 1 159 2 is_stmt 1 view .LVU695
 2445              		.loc 1 159 66 is_stmt 0 view .LVU696
 2446 0510 386000B0 		li 3,176
 2447              	.LEHB47:
 2448 0514 48000001 		bl _Znwj
 2449              	.LVL220:
 2450              	.LEHE47:
 2451              		.loc 1 159 66 discriminator 1 view .LVU697
 2452 0518 3C800000 		lis 4,.LC3@ha
 2453 051c 392000FF 		li 9,255
 2454 0520 38840000 		la 4,.LC3@l(4)
 2455 0524 38C10068 		addi 6,1,104
 2456 0528 38A00014 		li 5,20
 2457 052c 91210068 		stw 9,104(1)
 2458              		.loc 1 159 66 view .LVU698
 2459 0530 7C7D1B78 		mr 29,3
 2460              	.LEHB48:
 2461              		.loc 1 159 66 discriminator 1 view .LVU699
 2462 0534 48000001 		bl _ZN7GuiTextC1EPKci9_gx_color
 2463              	.LVL221:
 2464              	.LEHE48:
 2465              		.loc 1 159 15 discriminator 3 view .LVU700
 2466 0538 93BE020C 		stw 29,524(30)
 2467              		.loc 1 160 2 is_stmt 1 view .LVU701
 2468              		.loc 1 160 72 is_stmt 0 view .LVU702
 2469 053c 386000E0 		li 3,224
 2470              	.LEHB49:
 2471 0540 48000001 		bl _Znwj
 2472              	.LVL222:
 2473              	.LEHE49:
 2474 0544 7C7D1B78 		mr 29,3
 2475              		.loc 1 160 72 discriminator 1 view .LVU703
 2476 0548 807E0504 		lwz 3,1284(30)
 2477              	.LEHB50:
 2478 054c 48000001 		bl _ZN12GuiImageData8GetWidthEv
 2479              	.LVL223:
 2480 0550 7C7F1B78 		mr 31,3
 2481              		.loc 1 160 72 discriminator 3 view .LVU704
 2482 0554 807E0504 		lwz 3,1284(30)
 2483 0558 48000001 		bl _ZN12GuiImageData9GetHeightEv
 2484              	.LVL224:
 2485 055c 7C651B78 		mr 5,3
 2486              		.loc 1 160 72 discriminator 5 view .LVU705
 2487 0560 7FE4FB78 		mr 4,31
 2488 0564 7FA3EB78 		mr 3,29
 2489 0568 48000001 		bl _ZN9GuiButtonC1Eii
 2490              	.LVL225:
 2491              	.LEHE50:
 2492              		.loc 1 160 11 discriminator 7 view .LVU706
 2493 056c 93BE0218 		stw 29,536(30)
 2494              		.loc 1 161 2 is_stmt 1 view .LVU707
 2495              		.loc 1 161 20 is_stmt 0 view .LVU708
 2496 0570 7FA3EB78 		mr 3,29
 2497 0574 809E0210 		lwz 4,528(30)
 2498              	.LEHB51:
 2499 0578 48000001 		bl _ZN9GuiButton8SetImageEP8GuiImage
 2500              	.LVL226:
 2501              		.loc 1 162 2 is_stmt 1 view .LVU709
 2502              		.loc 1 162 24 is_stmt 0 view .LVU710
 2503 057c 809E0214 		lwz 4,532(30)
 2504 0580 807E0218 		lwz 3,536(30)
 2505 0584 48000001 		bl _ZN9GuiButton12SetImageOverEP8GuiImage
 2506              	.LVL227:
 2507              		.loc 1 163 2 is_stmt 1 view .LVU711
 2508              		.loc 1 163 20 is_stmt 0 view .LVU712
 2509 0588 809E020C 		lwz 4,524(30)
 2510 058c 38A00000 		li 5,0
 2511 0590 807E0218 		lwz 3,536(30)
 2512 0594 48000001 		bl _ZN9GuiButton8SetLabelEP7GuiTexti
 2513              	.LVL228:
 2514              		.loc 1 164 2 is_stmt 1 view .LVU713
 2515              		.loc 1 164 24 is_stmt 0 view .LVU714
 2516 0598 809E0514 		lwz 4,1300(30)
 2517 059c 807E0218 		lwz 3,536(30)
 2518 05a0 48000001 		bl _ZN9GuiButton12SetSoundOverEP8GuiSound
 2519              	.LVL229:
 2520              		.loc 1 165 2 is_stmt 1 view .LVU715
 2521              		.loc 1 165 25 is_stmt 0 view .LVU716
 2522 05a4 809E0518 		lwz 4,1304(30)
 2523 05a8 807E0218 		lwz 3,536(30)
 2524 05ac 48000001 		bl _ZN9GuiButton13SetSoundClickEP8GuiSound
 2525              	.LVL230:
 2526              		.loc 1 166 2 is_stmt 1 view .LVU717
 2527              		.loc 1 166 22 is_stmt 0 view .LVU718
 2528 05b0 809E051C 		lwz 4,1308(30)
 2529 05b4 807E0218 		lwz 3,536(30)
 2530 05b8 48000001 		bl _ZN10GuiElement10SetTriggerEP10GuiTrigger
 2531              	.LVL231:
 2532              		.loc 1 167 2 is_stmt 1 view .LVU719
 2533              		.loc 1 167 23 is_stmt 0 view .LVU720
 2534 05bc 807E0218 		lwz 3,536(30)
 2535 05c0 38A000CE 		li 5,206
 2536 05c4 38800015 		li 4,21
 2537 05c8 48000001 		bl _ZN10GuiElement11SetPositionEii
 2538              	.LVL232:
 2539              		.loc 1 168 2 is_stmt 1 view .LVU721
 2540              		.loc 1 168 25 is_stmt 0 view .LVU722
 2541 05cc 807E0218 		lwz 3,536(30)
 2542 05d0 48000001 		bl _ZN10GuiElement13SetEffectGrowEv
 2543              	.LVL233:
 2544              		.loc 1 169 2 is_stmt 1 view .LVU723
 2545              		.loc 1 169 14 is_stmt 0 view .LVU724
 2546 05d4 809E0218 		lwz 4,536(30)
 2547 05d8 7FC3F378 		mr 3,30
 2548 05dc 48000001 		bl _ZN9GuiWindow6AppendEP10GuiElement
 2549              	.LVL234:
 2550              		.loc 1 171 2 is_stmt 1 view .LVU725
 2551              		.loc 1 171 37 is_stmt 0 view .LVU726
 2552 05e0 38600098 		li 3,152
 2553 05e4 48000001 		bl _Znwj
 2554              	.LVL235:
 2555              	.LEHE51:
 2556              		.loc 1 171 37 discriminator 1 view .LVU727
 2557 05e8 809E050C 		lwz 4,1292(30)
 2558              		.loc 1 171 37 view .LVU728
 2559 05ec 7C7D1B78 		mr 29,3
 2560              	.LEHB52:
 2561              		.loc 1 171 37 discriminator 1 view .LVU729
 2562 05f0 48000001 		bl _ZN8GuiImageC1EP12GuiImageData
 2563              	.LVL236:
 2564              	.LEHE52:
 2565              		.loc 1 171 14 discriminator 3 view .LVU730
 2566 05f4 93BE022C 		stw 29,556(30)
 2567              		.loc 1 172 2 is_stmt 1 view .LVU731
 2568              		.loc 1 172 45 is_stmt 0 view .LVU732
 2569 05f8 38600098 		li 3,152
 2570              	.LEHB53:
 2571 05fc 48000001 		bl _Znwj
 2572              	.LVL237:
 2573              	.LEHE53:
 2574              		.loc 1 172 45 discriminator 1 view .LVU733
 2575 0600 809E0510 		lwz 4,1296(30)
 2576              		.loc 1 172 45 view .LVU734
 2577 0604 7C7D1B78 		mr 29,3
 2578              	.LEHB54:
 2579              		.loc 1 172 45 discriminator 1 view .LVU735
 2580 0608 48000001 		bl _ZN8GuiImageC1EP12GuiImageData
 2581              	.LVL238:
 2582              	.LEHE54:
 2583              		.loc 1 172 18 discriminator 3 view .LVU736
 2584 060c 93BE0230 		stw 29,560(30)
 2585              		.loc 1 173 2 is_stmt 1 view .LVU737
 2586              		.loc 1 173 70 is_stmt 0 view .LVU738
 2587 0610 386000E0 		li 3,224
 2588              	.LEHB55:
 2589 0614 48000001 		bl _Znwj
 2590              	.LVL239:
 2591              	.LEHE55:
 2592 0618 7C7D1B78 		mr 29,3
 2593              		.loc 1 173 70 discriminator 1 view .LVU739
 2594 061c 807E050C 		lwz 3,1292(30)
 2595              	.LEHB56:
 2596 0620 48000001 		bl _ZN12GuiImageData8GetWidthEv
 2597              	.LVL240:
 2598 0624 7C7F1B78 		mr 31,3
 2599              		.loc 1 173 70 discriminator 3 view .LVU740
 2600 0628 807E050C 		lwz 3,1292(30)
 2601 062c 48000001 		bl _ZN12GuiImageData9GetHeightEv
 2602              	.LVL241:
 2603 0630 7C651B78 		mr 5,3
 2604              		.loc 1 173 70 discriminator 5 view .LVU741
 2605 0634 7FE4FB78 		mr 4,31
 2606 0638 7FA3EB78 		mr 3,29
 2607 063c 48000001 		bl _ZN9GuiButtonC1Eii
 2608              	.LVL242:
 2609              	.LEHE56:
 2610              		.loc 1 173 11 discriminator 7 view .LVU742
 2611 0640 93BE0234 		stw 29,564(30)
 2612              		.loc 1 174 2 is_stmt 1 view .LVU743
 2613              		.loc 1 174 20 is_stmt 0 view .LVU744
 2614 0644 7FA3EB78 		mr 3,29
 2615 0648 809E022C 		lwz 4,556(30)
 2616              	.LEHB57:
 2617 064c 48000001 		bl _ZN9GuiButton8SetImageEP8GuiImage
 2618              	.LVL243:
 2619              		.loc 1 175 2 is_stmt 1 view .LVU745
 2620              		.loc 1 175 24 is_stmt 0 view .LVU746
 2621 0650 809E0230 		lwz 4,560(30)
 2622 0654 807E0234 		lwz 3,564(30)
 2623 0658 48000001 		bl _ZN9GuiButton12SetImageOverEP8GuiImage
 2624              	.LVL244:
 2625              		.loc 1 176 2 is_stmt 1 view .LVU747
 2626              		.loc 1 176 24 is_stmt 0 view .LVU748
 2627 065c 809E0514 		lwz 4,1300(30)
 2628 0660 807E0234 		lwz 3,564(30)
 2629 0664 48000001 		bl _ZN9GuiButton12SetSoundOverEP8GuiSound
 2630              	.LVL245:
 2631              		.loc 1 177 2 is_stmt 1 view .LVU749
 2632              		.loc 1 177 25 is_stmt 0 view .LVU750
 2633 0668 809E0518 		lwz 4,1304(30)
 2634 066c 807E0234 		lwz 3,564(30)
 2635 0670 48000001 		bl _ZN9GuiButton13SetSoundClickEP8GuiSound
 2636              	.LVL246:
 2637              		.loc 1 178 2 is_stmt 1 view .LVU751
 2638              		.loc 1 178 22 is_stmt 0 view .LVU752
 2639 0674 809E051C 		lwz 4,1308(30)
 2640 0678 807E0234 		lwz 3,564(30)
 2641 067c 48000001 		bl _ZN10GuiElement10SetTriggerEP10GuiTrigger
 2642              	.LVL247:
 2643              		.loc 1 179 2 is_stmt 1 view .LVU753
 2644              		.loc 1 179 23 is_stmt 0 view .LVU754
 2645 0680 807E0234 		lwz 3,564(30)
 2646 0684 38A000F8 		li 5,248
 2647 0688 38800000 		li 4,0
 2648 068c 48000001 		bl _ZN10GuiElement11SetPositionEii
 2649              	.LVL248:
 2650              		.loc 1 180 2 is_stmt 1 view .LVU755
 2651 0690 807E0234 		lwz 3,564(30)
 2652              		.loc 1 180 24 is_stmt 0 view .LVU756
 2653 0694 38A00003 		li 5,3
 2654 0698 38800002 		li 4,2
 2655 069c 81230000 		lwz 9,0(3)
 2656 06a0 8129001C 		lwz 9,28(9)
 2657 06a4 7D2903A6 		mtctr 9
 2658 06a8 4E800421 		bctrl
 2659              	.LVL249:
 2660              		.loc 1 181 2 is_stmt 1 view .LVU757
 2661              		.loc 1 181 25 is_stmt 0 view .LVU758
 2662 06ac 807E0234 		lwz 3,564(30)
 2663 06b0 48000001 		bl _ZN10GuiElement13SetEffectGrowEv
 2664              	.LVL250:
 2665              		.loc 1 182 2 is_stmt 1 view .LVU759
 2666              		.loc 1 182 14 is_stmt 0 view .LVU760
 2667 06b4 809E0234 		lwz 4,564(30)
 2668 06b8 7FC3F378 		mr 3,30
 2669 06bc 48000001 		bl _ZN9GuiWindow6AppendEP10GuiElement
 2670              	.LVL251:
 2671              		.loc 1 184 2 is_stmt 1 view .LVU761
 2672              		.loc 1 184 7 is_stmt 0 view .LVU762
 2673 06c0 39200000 		li 9,0
 2674 06c4 3ADE0238 		addi 22,30,568
 2675 06c8 B1210060 		sth 9,96(1)
 2676              		.loc 1 186 2 is_stmt 1 view .LVU763
 2677              	.LVL252:
 2678              	.LBB134:
 2679              		.loc 1 186 16 discriminator 1 view .LVU764
 2680              	.LBE134:
 2681              		.loc 1 184 7 is_stmt 0 view .LVU765
 2682 06cc 3B4001F6 		li 26,502
 2683              	.LBB139:
 2684              	.LBB135:
 2685              		.loc 1 195 65 discriminator 1 view .LVU766
 2686 06d0 3AE000FF 		li 23,255
 2687              	.LVL253:
 2688              	.L220:
 2689              		.loc 1 188 17 is_stmt 1 discriminator 1 view .LVU767
 2690 06d4 5759083C 		slwi 25,26,1
 2691 06d8 3BBAFE32 		addi 29,26,-462
 2692 06dc 3B39FC64 		addi 25,25,-924
 2693              	.LBE135:
 2694              	.LBE139:
 2695              	.LBB140:
 2696              	.LBB133:
 2697              		.loc 1 27 18 is_stmt 0 view .LVU768
 2698 06e0 7EDFB378 		mr 31,22
 2699 06e4 7F1CC378 		mr 28,24
 2700 06e8 48000018 		b .L222
 2701              	.LVL254:
 2702              	.L221:
 2703              		.loc 1 27 18 view .LVU769
 2704              	.LBE133:
 2705              	.LBE140:
 2706              	.LBB141:
 2707              	.LBB136:
 2708              		.loc 1 188 3 is_stmt 1 discriminator 2 view .LVU770
 2709              		.loc 1 188 17 discriminator 1 view .LVU771
 2710 06ec 3BBD002A 		addi 29,29,42
 2711 06f0 3B9C0002 		addi 28,28,2
 2712 06f4 7C1DD040 		cmplw 0,29,26
 2713 06f8 3BFF0004 		addi 31,31,4
 2714 06fc 41820144 		beq- 0,.L299
 2715              	.L222:
 2716              		.loc 1 190 4 view .LVU772
 2717              		.loc 1 190 18 is_stmt 0 view .LVU773
 2718 0700 893C0000 		lbz 9,0(28)
 2719              		.loc 1 190 4 view .LVU774
 2720 0704 552A063E 		rlwinm 10,9,0,0xff
 2721 0708 2C0A0000 		cmpwi 0,10,0
 2722 070c 4182FFE0 		beq+ 0,.L221
 2723              		.loc 1 192 5 is_stmt 1 view .LVU775
 2724              		.loc 1 193 36 is_stmt 0 view .LVU776
 2725 0710 38600098 		li 3,152
 2726              		.loc 1 192 12 view .LVU777
 2727 0714 99210060 		stb 9,96(1)
 2728              		.loc 1 193 5 is_stmt 1 view .LVU778
 2729              		.loc 1 193 36 is_stmt 0 view .LVU779
 2730 0718 48000001 		bl _Znwj
 2731              	.LVL255:
 2732              	.LEHE57:
 2733              		.loc 1 193 36 discriminator 1 view .LVU780
 2734 071c 809E04FC 		lwz 4,1276(30)
 2735              		.loc 1 193 36 view .LVU781
 2736 0720 7C7B1B78 		mr 27,3
 2737              	.LEHB58:
 2738              		.loc 1 193 36 discriminator 1 view .LVU782
 2739 0724 48000001 		bl _ZN8GuiImageC1EP12GuiImageData
 2740              	.LVL256:
 2741              	.LEHE58:
 2742              		.loc 1 193 18 discriminator 3 view .LVU783
 2743 0728 937F00B0 		stw 27,176(31)
 2744              		.loc 1 194 5 is_stmt 1 view .LVU784
 2745              		.loc 1 194 44 is_stmt 0 view .LVU785
 2746 072c 38600098 		li 3,152
 2747              	.LEHB59:
 2748 0730 48000001 		bl _Znwj
 2749              	.LVL257:
 2750              	.LEHE59:
 2751              		.loc 1 194 44 discriminator 1 view .LVU786
 2752 0734 809E0500 		lwz 4,1280(30)
 2753              		.loc 1 194 44 view .LVU787
 2754 0738 7C7B1B78 		mr 27,3
 2755              	.LEHB60:
 2756              		.loc 1 194 44 discriminator 1 view .LVU788
 2757 073c 48000001 		bl _ZN8GuiImageC1EP12GuiImageData
 2758              	.LVL258:
 2759              	.LEHE60:
 2760              		.loc 1 194 22 discriminator 3 view .LVU789
 2761 0740 937F0160 		stw 27,352(31)
 2762              		.loc 1 195 5 is_stmt 1 view .LVU790
 2763              		.loc 1 195 65 is_stmt 0 view .LVU791
 2764 0744 386000B0 		li 3,176
 2765              	.LEHB61:
 2766 0748 48000001 		bl _Znwj
 2767              	.LVL259:
 2768              	.LEHE61:
 2769              		.loc 1 195 65 discriminator 1 view .LVU792
 2770 074c 38C10068 		addi 6,1,104
 2771 0750 38A00014 		li 5,20
 2772 0754 38810060 		addi 4,1,96
 2773 0758 92E10068 		stw 23,104(1)
 2774              		.loc 1 195 65 view .LVU793
 2775 075c 7C7B1B78 		mr 27,3
 2776              	.LEHB62:
 2777              		.loc 1 195 65 discriminator 1 view .LVU794
 2778 0760 48000001 		bl _ZN7GuiTextC1EPKci9_gx_color
 2779              	.LVL260:
 2780              	.LEHE62:
 2781              		.loc 1 195 18 discriminator 3 view .LVU795
 2782 0764 937F0210 		stw 27,528(31)
 2783              		.loc 1 196 5 is_stmt 1 view .LVU796
 2784              		.loc 1 196 31 is_stmt 0 view .LVU797
 2785 0768 7F63DB78 		mr 3,27
 2786 076c 38A00004 		li 5,4
 2787 0770 38800002 		li 4,2
 2788              	.LEHB63:
 2789 0774 48000001 		bl _ZN7GuiText12SetAlignmentEii
 2790              	.LVL261:
 2791              		.loc 1 197 5 is_stmt 1 view .LVU798
 2792              		.loc 1 197 30 is_stmt 0 view .LVU799
 2793 0778 807F0210 		lwz 3,528(31)
 2794 077c 38A0FFF6 		li 5,-10
 2795 0780 38800000 		li 4,0
 2796 0784 48000001 		bl _ZN10GuiElement11SetPositionEii
 2797              	.LVL262:
 2798              		.loc 1 198 5 is_stmt 1 view .LVU800
 2799              		.loc 1 198 67 is_stmt 0 view .LVU801
 2800 0788 386000E0 		li 3,224
 2801 078c 48000001 		bl _Znwj
 2802              	.LVL263:
 2803              	.LEHE63:
 2804 0790 7C7B1B78 		mr 27,3
 2805              		.loc 1 198 67 discriminator 1 view .LVU802
 2806 0794 807E04FC 		lwz 3,1276(30)
 2807              	.LEHB64:
 2808 0798 48000001 		bl _ZN12GuiImageData8GetWidthEv
 2809              	.LVL264:
 2810 079c 7C751B78 		mr 21,3
 2811              		.loc 1 198 67 discriminator 3 view .LVU803
 2812 07a0 807E04FC 		lwz 3,1276(30)
 2813 07a4 48000001 		bl _ZN12GuiImageData9GetHeightEv
 2814              	.LVL265:
 2815 07a8 7C651B78 		mr 5,3
 2816              		.loc 1 198 67 discriminator 5 view .LVU804
 2817 07ac 7EA4AB78 		mr 4,21
 2818 07b0 7F63DB78 		mr 3,27
 2819 07b4 48000001 		bl _ZN9GuiButtonC1Eii
 2820              	.LVL266:
 2821              	.LEHE64:
 2822              		.loc 1 198 18 discriminator 7 view .LVU805
 2823 07b8 937F0000 		stw 27,0(31)
 2824              		.loc 1 199 5 is_stmt 1 view .LVU806
 2825              		.loc 1 199 27 is_stmt 0 view .LVU807
 2826 07bc 7F63DB78 		mr 3,27
 2827 07c0 809F00B0 		lwz 4,176(31)
 2828              	.LEHB65:
 2829 07c4 48000001 		bl _ZN9GuiButton8SetImageEP8GuiImage
 2830              	.LVL267:
 2831              		.loc 1 200 5 is_stmt 1 view .LVU808
 2832              		.loc 1 200 31 is_stmt 0 view .LVU809
 2833 07c8 809F0160 		lwz 4,352(31)
 2834 07cc 807F0000 		lwz 3,0(31)
 2835 07d0 48000001 		bl _ZN9GuiButton12SetImageOverEP8GuiImage
 2836              	.LVL268:
 2837              		.loc 1 201 5 is_stmt 1 view .LVU810
 2838              		.loc 1 201 31 is_stmt 0 view .LVU811
 2839 07d4 809E0514 		lwz 4,1300(30)
 2840 07d8 807F0000 		lwz 3,0(31)
 2841 07dc 48000001 		bl _ZN9GuiButton12SetSoundOverEP8GuiSound
 2842              	.LVL269:
 2843              		.loc 1 202 5 is_stmt 1 view .LVU812
 2844              		.loc 1 202 32 is_stmt 0 view .LVU813
 2845 07e0 809E0518 		lwz 4,1304(30)
 2846 07e4 807F0000 		lwz 3,0(31)
 2847 07e8 48000001 		bl _ZN9GuiButton13SetSoundClickEP8GuiSound
 2848              	.LVL270:
 2849              		.loc 1 203 5 is_stmt 1 view .LVU814
 2850              		.loc 1 203 29 is_stmt 0 view .LVU815
 2851 07ec 809E051C 		lwz 4,1308(30)
 2852 07f0 807F0000 		lwz 3,0(31)
 2853 07f4 48000001 		bl _ZN10GuiElement10SetTriggerEP10GuiTrigger
 2854              	.LVL271:
 2855              		.loc 1 204 5 is_stmt 1 view .LVU816
 2856              		.loc 1 204 27 is_stmt 0 view .LVU817
 2857 07f8 809F0210 		lwz 4,528(31)
 2858 07fc 38A00000 		li 5,0
 2859 0800 807F0000 		lwz 3,0(31)
 2860 0804 48000001 		bl _ZN9GuiButton8SetLabelEP7GuiTexti
 2861              	.LVL272:
 2862              		.loc 1 205 5 is_stmt 1 view .LVU818
 2863              		.loc 1 205 30 is_stmt 0 view .LVU819
 2864 0808 807F0000 		lwz 3,0(31)
 2865 080c 7F25CB78 		mr 5,25
 2866 0810 7FA4EB78 		mr 4,29
 2867 0814 48000001 		bl _ZN10GuiElement11SetPositionEii
 2868              	.LVL273:
 2869              		.loc 1 206 5 is_stmt 1 view .LVU820
 2870              		.loc 1 206 32 is_stmt 0 view .LVU821
 2871 0818 807F0000 		lwz 3,0(31)
 2872 081c 48000001 		bl _ZN10GuiElement13SetEffectGrowEv
 2873              	.LVL274:
 2874              		.loc 1 207 5 is_stmt 1 view .LVU822
 2875              		.loc 1 207 17 is_stmt 0 view .LVU823
 2876 0820 809F0000 		lwz 4,0(31)
 2877 0824 7FC3F378 		mr 3,30
 2878 0828 48000001 		bl _ZN9GuiWindow6AppendEP10GuiElement
 2879              	.LVL275:
 2880              	.LEHE65:
 2881              		.loc 1 188 3 is_stmt 1 discriminator 2 view .LVU824
 2882              		.loc 1 188 17 discriminator 1 view .LVU825
 2883 082c 3BBD002A 		addi 29,29,42
 2884 0830 3B9C0002 		addi 28,28,2
 2885 0834 7C1DD040 		cmplw 0,29,26
 2886 0838 3BFF0004 		addi 31,31,4
 2887 083c 4082FEC4 		bne+ 0,.L222
 2888              	.L299:
 2889              		.loc 1 188 17 is_stmt 0 discriminator 1 view .LVU826
 2890              	.LBE136:
 2891              		.loc 1 186 2 is_stmt 1 discriminator 2 view .LVU827
 2892              		.loc 1 186 16 discriminator 1 view .LVU828
 2893 0840 2C1D0235 		cmpwi 0,29,565
 2894 0844 3B180016 		addi 24,24,22
 2895 0848 3AD6002C 		addi 22,22,44
 2896 084c 3B5D0015 		addi 26,29,21
 2897 0850 4082FE84 		bne+ 0,.L220
 2898              	.LBE141:
 2899              	.LBE148:
 2900              	.LBE153:
 2901              		.loc 1 211 1 is_stmt 0 view .LVU829
 2902 0854 800100A4 		lwz 0,164(1)
 2903 0858 82A10074 		lwz 21,116(1)
 2904 085c 82C10078 		lwz 22,120(1)
 2905 0860 7C0803A6 		mtlr 0
 2906              		.cfi_remember_state
 2907              		.cfi_restore 65
 2908 0864 82E1007C 		lwz 23,124(1)
 2909 0868 83010080 		lwz 24,128(1)
 2910 086c 83210084 		lwz 25,132(1)
 2911 0870 83410088 		lwz 26,136(1)
 2912 0874 8361008C 		lwz 27,140(1)
 2913 0878 83810090 		lwz 28,144(1)
 2914 087c 83A10094 		lwz 29,148(1)
 2915 0880 83C10098 		lwz 30,152(1)
 2916              	.LVL276:
 2917              		.loc 1 211 1 view .LVU830
 2918 0884 83E1009C 		lwz 31,156(1)
 2919 0888 382100A0 		addi 1,1,160
 2920              		.cfi_restore 31
 2921              		.cfi_restore 30
 2922              		.cfi_restore 29
 2923              		.cfi_restore 28
 2924              		.cfi_restore 27
 2925              		.cfi_restore 26
 2926              		.cfi_restore 25
 2927              		.cfi_restore 24
 2928              		.cfi_restore 23
 2929              		.cfi_restore 22
 2930              		.cfi_restore 21
 2931              		.cfi_def_cfa_offset 0
 2932 088c 4E800020 		blr
 2933              	.LVL277:
 2934              	.L258:
 2935              		.cfi_restore_state
 2936              	.L297:
 2937              	.LBB154:
 2938              	.LBB149:
 2939              		.loc 1 172 45 discriminator 4 view .LVU831
 2940 0890 7C7F1B78 		mr 31,3
 2941 0894 38800098 		li 4,152
 2942 0898 7FA3EB78 		mr 3,29
 2943 089c 48000001 		bl _ZdlPvj
 2944              	.LVL278:
 2945 08a0 48000014 		b .L225
 2946              	.LVL279:
 2947              	.L287:
 2948              	.LBB142:
 2949              	.LBB137:
 2950              		.loc 1 198 67 discriminator 8 view .LVU832
 2951 08a4 7C7F1B78 		mr 31,3
 2952 08a8 388000E0 		li 4,224
 2953 08ac 7F63DB78 		mr 3,27
 2954 08b0 48000001 		bl _ZdlPvj
 2955              	.LVL280:
 2956              	.L225:
 2957              		.loc 1 198 67 discriminator 8 view .LVU833
 2958              	.LBE137:
 2959              	.LBE142:
 2960              	.LBE149:
 2961              		.loc 1 211 1 view .LVU834
 2962 08b4 7FC3F378 		mr 3,30
 2963 08b8 48000001 		bl _ZN9GuiWindowD2Ev
 2964              	.LVL281:
 2965 08bc 7FE3FB78 		mr 3,31
 2966              	.LEHB66:
 2967 08c0 48000001 		bl _Unwind_Resume
 2968              	.LVL282:
 2969              	.LEHE66:
 2970              	.L286:
 2971              	.LBB150:
 2972              	.LBB143:
 2973              	.LBB138:
 2974              		.loc 1 195 65 discriminator 4 view .LVU835
 2975 08c4 7C7F1B78 		mr 31,3
 2976 08c8 388000B0 		li 4,176
 2977 08cc 7F63DB78 		mr 3,27
 2978 08d0 48000001 		bl _ZdlPvj
 2979              	.LVL283:
 2980 08d4 4BFFFFE0 		b .L225
 2981              	.L285:
 2982              	.L295:
 2983              		.loc 1 194 44 discriminator 4 view .LVU836
 2984 08d8 7C7F1B78 		mr 31,3
 2985 08dc 38800098 		li 4,152
 2986 08e0 7F63DB78 		mr 3,27
 2987 08e4 48000001 		bl _ZdlPvj
 2988              	.LVL284:
 2989 08e8 4BFFFFCC 		b .L225
 2990              	.L284:
 2991 08ec 4BFFFFEC 		b .L295
 2992              	.LVL285:
 2993              	.L282:
 2994              		.loc 1 194 44 discriminator 4 view .LVU837
 2995 08f0 4BFFFFA0 		b .L297
 2996              	.L281:
 2997 08f4 4BFFFF9C 		b .L297
 2998              	.L283:
 2999              	.L298:
 3000              	.LBE138:
 3001              	.LBE143:
 3002              		.loc 1 173 70 discriminator 8 view .LVU838
 3003 08f8 7C7F1B78 		mr 31,3
 3004 08fc 388000E0 		li 4,224
 3005 0900 7FA3EB78 		mr 3,29
 3006 0904 48000001 		bl _ZdlPvj
 3007              	.LVL286:
 3008 0908 4BFFFFAC 		b .L225
 3009              	.L280:
 3010 090c 4BFFFFEC 		b .L298
 3011              	.L279:
 3012              	.L296:
 3013              		.loc 1 159 66 discriminator 4 view .LVU839
 3014 0910 7C7F1B78 		mr 31,3
 3015 0914 388000B0 		li 4,176
 3016 0918 7FA3EB78 		mr 3,29
 3017 091c 48000001 		bl _ZdlPvj
 3018              	.LVL287:
 3019 0920 4BFFFF94 		b .L225
 3020              	.L278:
 3021              		.loc 1 159 66 discriminator 4 view .LVU840
 3022 0924 4BFFFF6C 		b .L297
 3023              	.L277:
 3024 0928 4BFFFF68 		b .L297
 3025              	.L276:
 3026 092c 4BFFFFCC 		b .L298
 3027              	.L275:
 3028 0930 4BFFFFE0 		b .L296
 3029              	.L274:
 3030 0934 4BFFFF5C 		b .L297
 3031              	.L273:
 3032 0938 4BFFFF58 		b .L297
 3033              	.L272:
 3034 093c 4BFFFFBC 		b .L298
 3035              	.LVL288:
 3036              	.L271:
 3037              		.loc 1 159 66 discriminator 4 view .LVU841
 3038 0940 4BFFFFD0 		b .L296
 3039              	.L270:
 3040 0944 4BFFFF4C 		b .L297
 3041              	.L269:
 3042 0948 4BFFFF48 		b .L297
 3043              	.L268:
 3044              		.loc 1 125 14 discriminator 4 view .LVU842
 3045 094c 7C7F1B78 		mr 31,3
 3046              	.LVL289:
 3047              		.loc 1 125 14 discriminator 4 view .LVU843
 3048 0950 3880016C 		li 4,364
 3049 0954 7FA3EB78 		mr 3,29
 3050 0958 48000001 		bl _ZdlPvj
 3051              	.LVL290:
 3052 095c 4BFFFF58 		b .L225
 3053              	.LVL291:
 3054              	.L267:
 3055              	.L294:
 3056              		.loc 1 124 81 discriminator 4 view .LVU844
 3057 0960 7C7F1B78 		mr 31,3
 3058              	.LVL292:
 3059              		.loc 1 124 81 discriminator 4 view .LVU845
 3060 0964 38800018 		li 4,24
 3061 0968 7FA3EB78 		mr 3,29
 3062 096c 48000001 		bl _ZdlPvj
 3063              	.LVL293:
 3064 0970 4BFFFF44 		b .L225
 3065              	.LVL294:
 3066              	.L266:
 3067              		.loc 1 124 81 discriminator 4 view .LVU846
 3068 0974 4BFFFFEC 		b .L294
 3069              	.L265:
 3070              	.LVL295:
 3071              	.L293:
 3072              		.loc 1 121 60 discriminator 4 view .LVU847
 3073 0978 7C7F1B78 		mr 31,3
 3074              	.LVL296:
 3075              		.loc 1 121 60 discriminator 4 view .LVU848
 3076 097c 3880000C 		li 4,12
 3077 0980 7FA3EB78 		mr 3,29
 3078 0984 48000001 		bl _ZdlPvj
 3079              	.LVL297:
 3080 0988 4BFFFF2C 		b .L225
 3081              	.LVL298:
 3082              	.L264:
 3083              		.loc 1 121 60 discriminator 4 view .LVU849
 3084 098c 4BFFFFEC 		b .L293
 3085              	.L263:
 3086 0990 4BFFFFE8 		b .L293
 3087              	.L262:
 3088 0994 4BFFFFE4 		b .L293
 3089              	.L261:
 3090 0998 4BFFFFE0 		b .L293
 3091              	.L260:
 3092 099c 4BFFFFDC 		b .L293
 3093              	.L259:
 3094              		.loc 1 121 60 discriminator 4 view .LVU850
 3095 09a0 4BFFFF70 		b .L296
 3096              	.LVL299:
 3097              	.L257:
 3098              		.loc 1 121 60 discriminator 4 view .LVU851
 3099 09a4 4BFFFFD4 		b .L293
 3100              	.LVL300:
 3101              	.L256:
 3102              		.loc 1 121 60 discriminator 4 view .LVU852
 3103              	.LBE150:
 3104              		.loc 1 211 1 view .LVU853
 3105 09a8 7C7F1B78 		mr 31,3
 3106 09ac 4BFFFF08 		b .L225
 3107              	.LBE154:
 3108              		.cfi_endproc
 3109              	.LFE2334:
 3110              		.section	.gcc_except_table._ZN11GuiKeyboardC2EPcj,"a",@progbits
 3111              	.LLSDA2334:
 3112 0000 FF       		.byte	0xff
 3113 0001 FF       		.byte	0xff
 3114 0002 01       		.byte	0x1
 3115 0003 8403     		.uleb128 .LLSDACSE2334-.LLSDACSB2334
 3116              	.LLSDACSB2334:
 3117 0005 50       		.uleb128 .LEHB2-.LFB2334
 3118 0006 04       		.uleb128 .LEHE2-.LEHB2
 3119 0007 00       		.uleb128 0
 3120 0008 00       		.uleb128 0
 3121 0009 D801     		.uleb128 .LEHB3-.LFB2334
 3122 000b 04       		.uleb128 .LEHE3-.LEHB3
 3123 000c A813     		.uleb128 .L256-.LFB2334
 3124 000e 00       		.uleb128 0
 3125 000f E801     		.uleb128 .LEHB4-.LFB2334
 3126 0011 04       		.uleb128 .LEHE4-.LEHB4
 3127 0012 A413     		.uleb128 .L257-.LFB2334
 3128 0014 00       		.uleb128 0
 3129 0015 F401     		.uleb128 .LEHB5-.LFB2334
 3130 0017 04       		.uleb128 .LEHE5-.LEHB5
 3131 0018 A813     		.uleb128 .L256-.LFB2334
 3132 001a 00       		.uleb128 0
 3133 001b 8002     		.uleb128 .LEHB6-.LFB2334
 3134 001d 04       		.uleb128 .LEHE6-.LEHB6
 3135 001e 9011     		.uleb128 .L258-.LFB2334
 3136 0020 00       		.uleb128 0
 3137 0021 9402     		.uleb128 .LEHB7-.LFB2334
 3138 0023 28       		.uleb128 .LEHE7-.LEHB7
 3139 0024 A813     		.uleb128 .L256-.LFB2334
 3140 0026 00       		.uleb128 0
 3141 0027 9003     		.uleb128 .LEHB8-.LFB2334
 3142 0029 04       		.uleb128 .LEHE8-.LEHB8
 3143 002a A013     		.uleb128 .L259-.LFB2334
 3144 002c 00       		.uleb128 0
 3145 002d A403     		.uleb128 .LEHB9-.LFB2334
 3146 002f 28       		.uleb128 .LEHE9-.LEHB9
 3147 0030 A813     		.uleb128 .L256-.LFB2334
 3148 0032 00       		.uleb128 0
 3149 0033 D803     		.uleb128 .LEHB10-.LFB2334
 3150 0035 04       		.uleb128 .LEHE10-.LEHB10
 3151 0036 9C13     		.uleb128 .L260-.LFB2334
 3152 0038 00       		.uleb128 0
 3153 0039 E403     		.uleb128 .LEHB11-.LFB2334
 3154 003b 04       		.uleb128 .LEHE11-.LEHB11
 3155 003c A813     		.uleb128 .L256-.LFB2334
 3156 003e 00       		.uleb128 0
 3157 003f F403     		.uleb128 .LEHB12-.LFB2334
 3158 0041 04       		.uleb128 .LEHE12-.LEHB12
 3159 0042 9813     		.uleb128 .L261-.LFB2334
 3160 0044 00       		.uleb128 0
 3161 0045 8004     		.uleb128 .LEHB13-.LFB2334
 3162 0047 04       		.uleb128 .LEHE13-.LEHB13
 3163 0048 A813     		.uleb128 .L256-.LFB2334
 3164 004a 00       		.uleb128 0
 3165 004b 9004     		.uleb128 .LEHB14-.LFB2334
 3166 004d 04       		.uleb128 .LEHE14-.LEHB14
 3167 004e 9413     		.uleb128 .L262-.LFB2334
 3168 0050 00       		.uleb128 0
 3169 0051 9C04     		.uleb128 .LEHB15-.LFB2334
 3170 0053 04       		.uleb128 .LEHE15-.LEHB15
 3171 0054 A813     		.uleb128 .L256-.LFB2334
 3172 0056 00       		.uleb128 0
 3173 0057 AC04     		.uleb128 .LEHB16-.LFB2334
 3174 0059 04       		.uleb128 .LEHE16-.LEHB16
 3175 005a 9013     		.uleb128 .L263-.LFB2334
 3176 005c 00       		.uleb128 0
 3177 005d B804     		.uleb128 .LEHB17-.LFB2334
 3178 005f 04       		.uleb128 .LEHE17-.LEHB17
 3179 0060 A813     		.uleb128 .L256-.LFB2334
 3180 0062 00       		.uleb128 0
 3181 0063 C804     		.uleb128 .LEHB18-.LFB2334
 3182 0065 04       		.uleb128 .LEHE18-.LEHB18
 3183 0066 8C13     		.uleb128 .L264-.LFB2334
 3184 0068 00       		.uleb128 0
 3185 0069 D404     		.uleb128 .LEHB19-.LFB2334
 3186 006b 04       		.uleb128 .LEHE19-.LEHB19
 3187 006c A813     		.uleb128 .L256-.LFB2334
 3188 006e 00       		.uleb128 0
 3189 006f E404     		.uleb128 .LEHB20-.LFB2334
 3190 0071 04       		.uleb128 .LEHE20-.LEHB20
 3191 0072 F812     		.uleb128 .L265-.LFB2334
 3192 0074 00       		.uleb128 0
 3193 0075 F004     		.uleb128 .LEHB21-.LFB2334
 3194 0077 04       		.uleb128 .LEHE21-.LEHB21
 3195 0078 A813     		.uleb128 .L256-.LFB2334
 3196 007a 00       		.uleb128 0
 3197 007b 8805     		.uleb128 .LEHB22-.LFB2334
 3198 007d 04       		.uleb128 .LEHE22-.LEHB22
 3199 007e F412     		.uleb128 .L266-.LFB2334
 3200 0080 00       		.uleb128 0
 3201 0081 9405     		.uleb128 .LEHB23-.LFB2334
 3202 0083 04       		.uleb128 .LEHE23-.LEHB23
 3203 0084 A813     		.uleb128 .L256-.LFB2334
 3204 0086 00       		.uleb128 0
 3205 0087 AC05     		.uleb128 .LEHB24-.LFB2334
 3206 0089 04       		.uleb128 .LEHE24-.LEHB24
 3207 008a E012     		.uleb128 .L267-.LFB2334
 3208 008c 00       		.uleb128 0
 3209 008d B805     		.uleb128 .LEHB25-.LFB2334
 3210 008f 04       		.uleb128 .LEHE25-.LEHB25
 3211 0090 A813     		.uleb128 .L256-.LFB2334
 3212 0092 00       		.uleb128 0
 3213 0093 C005     		.uleb128 .LEHB26-.LFB2334
 3214 0095 04       		.uleb128 .LEHE26-.LEHB26
 3215 0096 CC12     		.uleb128 .L268-.LFB2334
 3216 0098 00       		.uleb128 0
 3217 0099 DC05     		.uleb128 .LEHB27-.LFB2334
 3218 009b 0C       		.uleb128 .LEHE27-.LEHB27
 3219 009c A813     		.uleb128 .L256-.LFB2334
 3220 009e 00       		.uleb128 0
 3221 009f F005     		.uleb128 .LEHB28-.LFB2334
 3222 00a1 04       		.uleb128 .LEHE28-.LEHB28
 3223 00a2 C812     		.uleb128 .L269-.LFB2334
 3224 00a4 00       		.uleb128 0
 3225 00a5 FC05     		.uleb128 .LEHB29-.LFB2334
 3226 00a7 04       		.uleb128 .LEHE29-.LEHB29
 3227 00a8 A813     		.uleb128 .L256-.LFB2334
 3228 00aa 00       		.uleb128 0
 3229 00ab 8806     		.uleb128 .LEHB30-.LFB2334
 3230 00ad 04       		.uleb128 .LEHE30-.LEHB30
 3231 00ae C412     		.uleb128 .L270-.LFB2334
 3232 00b0 00       		.uleb128 0
 3233 00b1 9406     		.uleb128 .LEHB31-.LFB2334
 3234 00b3 04       		.uleb128 .LEHE31-.LEHB31
 3235 00b4 A813     		.uleb128 .L256-.LFB2334
 3236 00b6 00       		.uleb128 0
 3237 00b7 B406     		.uleb128 .LEHB32-.LFB2334
 3238 00b9 04       		.uleb128 .LEHE32-.LEHB32
 3239 00ba C012     		.uleb128 .L271-.LFB2334
 3240 00bc 00       		.uleb128 0
 3241 00bd C006     		.uleb128 .LEHB33-.LFB2334
 3242 00bf 04       		.uleb128 .LEHE33-.LEHB33
 3243 00c0 A813     		.uleb128 .L256-.LFB2334
 3244 00c2 00       		.uleb128 0
 3245 00c3 CC06     		.uleb128 .LEHB34-.LFB2334
 3246 00c5 20       		.uleb128 .LEHE34-.LEHB34
 3247 00c6 BC12     		.uleb128 .L272-.LFB2334
 3248 00c8 00       		.uleb128 0
 3249 00c9 F806     		.uleb128 .LEHB35-.LFB2334
 3250 00cb 70       		.uleb128 .LEHE35-.LEHB35
 3251 00cc A813     		.uleb128 .L256-.LFB2334
 3252 00ce 00       		.uleb128 0
 3253 00cf F007     		.uleb128 .LEHB36-.LFB2334
 3254 00d1 04       		.uleb128 .LEHE36-.LEHB36
 3255 00d2 B812     		.uleb128 .L273-.LFB2334
 3256 00d4 00       		.uleb128 0
 3257 00d5 FC07     		.uleb128 .LEHB37-.LFB2334
 3258 00d7 04       		.uleb128 .LEHE37-.LEHB37
 3259 00d8 A813     		.uleb128 .L256-.LFB2334
 3260 00da 00       		.uleb128 0
 3261 00db 8808     		.uleb128 .LEHB38-.LFB2334
 3262 00dd 04       		.uleb128 .LEHE38-.LEHB38
 3263 00de B412     		.uleb128 .L274-.LFB2334
 3264 00e0 00       		.uleb128 0
 3265 00e1 9408     		.uleb128 .LEHB39-.LFB2334
 3266 00e3 04       		.uleb128 .LEHE39-.LEHB39
 3267 00e4 A813     		.uleb128 .L256-.LFB2334
 3268 00e6 00       		.uleb128 0
 3269 00e7 B408     		.uleb128 .LEHB40-.LFB2334
 3270 00e9 04       		.uleb128 .LEHE40-.LEHB40
 3271 00ea B012     		.uleb128 .L275-.LFB2334
 3272 00ec 00       		.uleb128 0
 3273 00ed C008     		.uleb128 .LEHB41-.LFB2334
 3274 00ef 04       		.uleb128 .LEHE41-.LEHB41
 3275 00f0 A813     		.uleb128 .L256-.LFB2334
 3276 00f2 00       		.uleb128 0
 3277 00f3 CC08     		.uleb128 .LEHB42-.LFB2334
 3278 00f5 20       		.uleb128 .LEHE42-.LEHB42
 3279 00f6 AC12     		.uleb128 .L276-.LFB2334
 3280 00f8 00       		.uleb128 0
 3281 00f9 F808     		.uleb128 .LEHB43-.LFB2334
 3282 00fb 70       		.uleb128 .LEHE43-.LEHB43
 3283 00fc A813     		.uleb128 .L256-.LFB2334
 3284 00fe 00       		.uleb128 0
 3285 00ff F009     		.uleb128 .LEHB44-.LFB2334
 3286 0101 04       		.uleb128 .LEHE44-.LEHB44
 3287 0102 A812     		.uleb128 .L277-.LFB2334
 3288 0104 00       		.uleb128 0
 3289 0105 FC09     		.uleb128 .LEHB45-.LFB2334
 3290 0107 04       		.uleb128 .LEHE45-.LEHB45
 3291 0108 A813     		.uleb128 .L256-.LFB2334
 3292 010a 00       		.uleb128 0
 3293 010b 880A     		.uleb128 .LEHB46-.LFB2334
 3294 010d 04       		.uleb128 .LEHE46-.LEHB46
 3295 010e A412     		.uleb128 .L278-.LFB2334
 3296 0110 00       		.uleb128 0
 3297 0111 940A     		.uleb128 .LEHB47-.LFB2334
 3298 0113 04       		.uleb128 .LEHE47-.LEHB47
 3299 0114 A813     		.uleb128 .L256-.LFB2334
 3300 0116 00       		.uleb128 0
 3301 0117 B40A     		.uleb128 .LEHB48-.LFB2334
 3302 0119 04       		.uleb128 .LEHE48-.LEHB48
 3303 011a 9012     		.uleb128 .L279-.LFB2334
 3304 011c 00       		.uleb128 0
 3305 011d C00A     		.uleb128 .LEHB49-.LFB2334
 3306 011f 04       		.uleb128 .LEHE49-.LEHB49
 3307 0120 A813     		.uleb128 .L256-.LFB2334
 3308 0122 00       		.uleb128 0
 3309 0123 CC0A     		.uleb128 .LEHB50-.LFB2334
 3310 0125 20       		.uleb128 .LEHE50-.LEHB50
 3311 0126 8C12     		.uleb128 .L280-.LFB2334
 3312 0128 00       		.uleb128 0
 3313 0129 F80A     		.uleb128 .LEHB51-.LFB2334
 3314 012b 70       		.uleb128 .LEHE51-.LEHB51
 3315 012c A813     		.uleb128 .L256-.LFB2334
 3316 012e 00       		.uleb128 0
 3317 012f F00B     		.uleb128 .LEHB52-.LFB2334
 3318 0131 04       		.uleb128 .LEHE52-.LEHB52
 3319 0132 F411     		.uleb128 .L281-.LFB2334
 3320 0134 00       		.uleb128 0
 3321 0135 FC0B     		.uleb128 .LEHB53-.LFB2334
 3322 0137 04       		.uleb128 .LEHE53-.LEHB53
 3323 0138 A813     		.uleb128 .L256-.LFB2334
 3324 013a 00       		.uleb128 0
 3325 013b 880C     		.uleb128 .LEHB54-.LFB2334
 3326 013d 04       		.uleb128 .LEHE54-.LEHB54
 3327 013e F011     		.uleb128 .L282-.LFB2334
 3328 0140 00       		.uleb128 0
 3329 0141 940C     		.uleb128 .LEHB55-.LFB2334
 3330 0143 04       		.uleb128 .LEHE55-.LEHB55
 3331 0144 A813     		.uleb128 .L256-.LFB2334
 3332 0146 00       		.uleb128 0
 3333 0147 A00C     		.uleb128 .LEHB56-.LFB2334
 3334 0149 20       		.uleb128 .LEHE56-.LEHB56
 3335 014a F811     		.uleb128 .L283-.LFB2334
 3336 014c 00       		.uleb128 0
 3337 014d CC0C     		.uleb128 .LEHB57-.LFB2334
 3338 014f D001     		.uleb128 .LEHE57-.LEHB57
 3339 0151 A813     		.uleb128 .L256-.LFB2334
 3340 0153 00       		.uleb128 0
 3341 0154 A40E     		.uleb128 .LEHB58-.LFB2334
 3342 0156 04       		.uleb128 .LEHE58-.LEHB58
 3343 0157 EC11     		.uleb128 .L284-.LFB2334
 3344 0159 00       		.uleb128 0
 3345 015a B00E     		.uleb128 .LEHB59-.LFB2334
 3346 015c 04       		.uleb128 .LEHE59-.LEHB59
 3347 015d A813     		.uleb128 .L256-.LFB2334
 3348 015f 00       		.uleb128 0
 3349 0160 BC0E     		.uleb128 .LEHB60-.LFB2334
 3350 0162 04       		.uleb128 .LEHE60-.LEHB60
 3351 0163 D811     		.uleb128 .L285-.LFB2334
 3352 0165 00       		.uleb128 0
 3353 0166 C80E     		.uleb128 .LEHB61-.LFB2334
 3354 0168 04       		.uleb128 .LEHE61-.LEHB61
 3355 0169 A813     		.uleb128 .L256-.LFB2334
 3356 016b 00       		.uleb128 0
 3357 016c E00E     		.uleb128 .LEHB62-.LFB2334
 3358 016e 04       		.uleb128 .LEHE62-.LEHB62
 3359 016f C411     		.uleb128 .L286-.LFB2334
 3360 0171 00       		.uleb128 0
 3361 0172 F40E     		.uleb128 .LEHB63-.LFB2334
 3362 0174 1C       		.uleb128 .LEHE63-.LEHB63
 3363 0175 A813     		.uleb128 .L256-.LFB2334
 3364 0177 00       		.uleb128 0
 3365 0178 980F     		.uleb128 .LEHB64-.LFB2334
 3366 017a 20       		.uleb128 .LEHE64-.LEHB64
 3367 017b A411     		.uleb128 .L287-.LFB2334
 3368 017d 00       		.uleb128 0
 3369 017e C40F     		.uleb128 .LEHB65-.LFB2334
 3370 0180 68       		.uleb128 .LEHE65-.LEHB65
 3371 0181 A813     		.uleb128 .L256-.LFB2334
 3372 0183 00       		.uleb128 0
 3373 0184 C011     		.uleb128 .LEHB66-.LFB2334
 3374 0186 04       		.uleb128 .LEHE66-.LEHB66
 3375 0187 00       		.uleb128 0
 3376 0188 00       		.uleb128 0
 3377              	.LLSDACSE2334:
 3378              		.section	.text._ZN11GuiKeyboardC2EPcj
 3379              		.size	_ZN11GuiKeyboardC2EPcj, .-_ZN11GuiKeyboardC2EPcj
 3380              		.globl _ZN11GuiKeyboardC1EPcj
 3381              		.set	_ZN11GuiKeyboardC1EPcj,_ZN11GuiKeyboardC2EPcj
 3382              		.weak	_ZTS11GuiKeyboard
 3383              		.section	.rodata._ZTS11GuiKeyboard,"aG",@progbits,_ZTS11GuiKeyboard,comdat
 3384              		.align 2
 3385              		.type	_ZTS11GuiKeyboard, @object
 3386              		.size	_ZTS11GuiKeyboard, 14
 3387              	_ZTS11GuiKeyboard:
 3388 0000 31314775 		.string	"11GuiKeyboard"
 3388      694B6579 
 3388      626F6172 
 3388      6400
 3389              		.weak	_ZTI11GuiKeyboard
 3390              		.section	.rodata._ZTI11GuiKeyboard,"aG",@progbits,_ZTI11GuiKeyboard,comdat
 3391              		.align 2
 3392              		.type	_ZTI11GuiKeyboard, @object
 3393              		.size	_ZTI11GuiKeyboard, 12
 3394              	_ZTI11GuiKeyboard:
 3395 0000 00000000 		.long	_ZTVN10__cxxabiv120__si_class_type_infoE+8
 3396 0004 00000000 		.long	_ZTS11GuiKeyboard
 3397 0008 00000000 		.long	_ZTI9GuiWindow
 3398              		.weak	_ZTV11GuiKeyboard
 3399              		.section	.rodata._ZTV11GuiKeyboard,"aG",@progbits,_ZTV11GuiKeyboard,comdat
 3400              		.align 2
 3401              		.type	_ZTV11GuiKeyboard, @object
 3402              		.size	_ZTV11GuiKeyboard, 48
 3403              	_ZTV11GuiKeyboard:
 3404 0000 00000000 		.long	0
 3405 0004 00000000 		.long	_ZTI11GuiKeyboard
 3406 0008 00000000 		.long	_ZN11GuiKeyboardD1Ev
 3407 000c 00000000 		.long	_ZN11GuiKeyboardD0Ev
 3408 0010 00000000 		.long	_ZN9GuiWindow10SetVisibleEb
 3409 0014 00000000 		.long	_ZN9GuiWindow8SetFocusEi
 3410 0018 00000000 		.long	_ZN10GuiElement8SetStateEii
 3411 001c 00000000 		.long	_ZN9GuiWindow10ResetStateEv
 3412 0020 00000000 		.long	_ZN9GuiWindow11GetSelectedEv
 3413 0024 00000000 		.long	_ZN10GuiElement12SetAlignmentEii
 3414 0028 00000000 		.long	_ZN11GuiKeyboard6UpdateEP10GuiTrigger
 3415 002c 00000000 		.long	_ZN9GuiWindow4DrawEv
 3416              		.section	.bss._ZL6tmptxt,"aw",@nobits
 3417              		.align 2
 3418              		.type	_ZL6tmptxt, @object
 3419              		.size	_ZL6tmptxt, 32
 3420              	_ZL6tmptxt:
 3421 0000 00000000 		.zero	32
 3421      00000000 
 3421      00000000 
 3421      00000000 
 3421      00000000 
 3422              		.section	.rodata
 3423              		.set	.LANCHOR0,. + 0
 3424              	.LC0:
 3425 0000 31       		.byte	49
 3426 0001 21       		.byte	33
 3427 0002 32       		.byte	50
 3428 0003 40       		.byte	64
 3429 0004 33       		.byte	51
 3430 0005 23       		.byte	35
 3431 0006 34       		.byte	52
 3432 0007 24       		.byte	36
 3433 0008 35       		.byte	53
 3434 0009 25       		.byte	37
 3435 000a 36       		.byte	54
 3436 000b 5E       		.byte	94
 3437 000c 37       		.byte	55
 3438 000d 26       		.byte	38
 3439 000e 38       		.byte	56
 3440 000f 2A       		.byte	42
 3441 0010 39       		.byte	57
 3442 0011 28       		.byte	40
 3443 0012 30       		.byte	48
 3444 0013 29       		.byte	41
 3445 0014 00       		.byte	0
 3446 0015 00       		.byte	0
 3447 0016 71       		.byte	113
 3448 0017 51       		.byte	81
 3449 0018 77       		.byte	119
 3450 0019 57       		.byte	87
 3451 001a 65       		.byte	101
 3452 001b 45       		.byte	69
 3453 001c 72       		.byte	114
 3454 001d 52       		.byte	82
 3455 001e 74       		.byte	116
 3456 001f 54       		.byte	84
 3457 0020 79       		.byte	121
 3458 0021 59       		.byte	89
 3459 0022 75       		.byte	117
 3460 0023 55       		.byte	85
 3461 0024 69       		.byte	105
 3462 0025 49       		.byte	73
 3463 0026 6F       		.byte	111
 3464 0027 4F       		.byte	79
 3465 0028 70       		.byte	112
 3466 0029 50       		.byte	80
 3467 002a 2D       		.byte	45
 3468 002b 5F       		.byte	95
 3469 002c 61       		.byte	97
 3470 002d 41       		.byte	65
 3471 002e 73       		.byte	115
 3472 002f 53       		.byte	83
 3473 0030 64       		.byte	100
 3474 0031 44       		.byte	68
 3475 0032 66       		.byte	102
 3476 0033 46       		.byte	70
 3477 0034 67       		.byte	103
 3478 0035 47       		.byte	71
 3479 0036 68       		.byte	104
 3480 0037 48       		.byte	72
 3481 0038 6A       		.byte	106
 3482 0039 4A       		.byte	74
 3483 003a 6B       		.byte	107
 3484 003b 4B       		.byte	75
 3485 003c 6C       		.byte	108
 3486 003d 4C       		.byte	76
 3487 003e 3B       		.byte	59
 3488 003f 3A       		.byte	58
 3489 0040 27       		.byte	39
 3490 0041 22       		.byte	34
 3491 0042 7A       		.byte	122
 3492 0043 5A       		.byte	90
 3493 0044 78       		.byte	120
 3494 0045 58       		.byte	88
 3495 0046 63       		.byte	99
 3496 0047 43       		.byte	67
 3497 0048 76       		.byte	118
 3498 0049 56       		.byte	86
 3499 004a 62       		.byte	98
 3500 004b 42       		.byte	66
 3501 004c 6E       		.byte	110
 3502 004d 4E       		.byte	78
 3503 004e 6D       		.byte	109
 3504 004f 4D       		.byte	77
 3505 0050 2C       		.byte	44
 3506 0051 3C       		.byte	60
 3507 0052 2E       		.byte	46
 3508 0053 3E       		.byte	62
 3509 0054 2F       		.byte	47
 3510 0055 3F       		.byte	63
 3511 0056 00       		.byte	0
 3512 0057 00       		.byte	0
 3513              		.section	".text"
 3514              	.Letext0:
 3515              		.file 3 "C:/devkitPro/devkitPPC/powerpc-eabi/include/machine/_default_types.h"
 3516              		.file 4 "C:/devkitPro/devkitPPC/powerpc-eabi/include/sys/_stdint.h"
 3517              		.file 5 "C:/devkitPro/libogc/include/gctypes.h"
 3518              		.file 6 "C:/devkitPro/libogc/include/ogc/gx.h"
 3519              		.file 7 "C:/devkitPro/devkitPPC/lib/gcc/powerpc-eabi/13.1.0/include/stddef.h"
 3520              		.file 8 "C:/devkitPro/devkitPPC/powerpc-eabi/include/stdlib.h"
 3521              		.file 9 "C:/devkitPro/devkitPPC/powerpc-eabi/include/c++/13.1.0/cstdlib"
 3522              		.file 10 "C:/devkitPro/devkitPPC/powerpc-eabi/include/c++/13.1.0/bits/std_abs.h"
 3523              		.file 11 "C:/devkitPro/devkitPPC/powerpc-eabi/include/c++/13.1.0/type_traits"
 3524              		.file 12 "C:/devkitPro/devkitPPC/powerpc-eabi/include/c++/13.1.0/powerpc-eabi/bits/c++config.h"
 3525              		.file 13 "C:/devkitPro/devkitPPC/powerpc-eabi/include/c++/13.1.0/debug/debug.h"
 3526              		.file 14 "C:/devkitPro/devkitPPC/powerpc-eabi/include/c++/13.1.0/cstddef"
 3527              		.file 15 "C:/devkitPro/devkitPPC/powerpc-eabi/include/c++/13.1.0/bits/exception_ptr.h"
 3528              		.file 16 "C:/devkitPro/devkitPPC/powerpc-eabi/include/c++/13.1.0/cmath"
 3529              		.file 17 "C:/devkitPro/devkitPPC/powerpc-eabi/include/c++/13.1.0/bits/new_allocator.h"
 3530              		.file 18 "C:/devkitPro/devkitPPC/powerpc-eabi/include/c++/13.1.0/bits/allocator.h"
 3531              		.file 19 "C:/devkitPro/devkitPPC/powerpc-eabi/include/c++/13.1.0/bits/alloc_traits.h"
 3532              		.file 20 "C:/devkitPro/devkitPPC/powerpc-eabi/include/c++/13.1.0/bits/vector.tcc"
 3533              		.file 21 "C:/devkitPro/devkitPPC/powerpc-eabi/include/c++/13.1.0/bits/functexcept.h"
 3534              		.file 22 "C:/devkitPro/devkitPPC/powerpc-eabi/include/c++/13.1.0/bits/predefined_ops.h"
 3535              		.file 23 "C:/devkitPro/devkitPPC/powerpc-eabi/include/c++/13.1.0/ext/alloc_traits.h"
 3536              		.file 24 "C:/devkitPro/devkitPPC/powerpc-eabi/include/c++/13.1.0/stdlib.h"
 3537              		.file 25 "C:/devkitPro/devkitPPC/powerpc-eabi/include/math.h"
 3538              		.file 26 "C:/devkitPro/devkitPPC/powerpc-eabi/include/c++/13.1.0/math.h"
 3539              		.file 27 "C:/devkitPro/libogc/include/wiiuse/wiiuse.h"
 3540              		.file 28 "C:/devkitPro/libogc/include/wiiuse/wpad.h"
 3541              		.file 29 "F:/GameModding/MarioKartWii/Mods/Distro/RetroRewind6/dev/Launcher/RRLauncher/launcher/bu
 3542              		.file 30 "F:/GameModding/MarioKartWii/Mods/Distro/RetroRewind6/dev/Launcher/RRLauncher/launcher/bu
 3543              		.file 31 "F:/GameModding/MarioKartWii/Mods/Distro/RetroRewind6/dev/Launcher/RRLauncher/launcher/bu
 3544              		.file 32 "F:/GameModding/MarioKartWii/Mods/Distro/RetroRewind6/dev/Launcher/RRLauncher/launcher/bu
 3545              		.file 33 "F:/GameModding/MarioKartWii/Mods/Distro/RetroRewind6/dev/Launcher/RRLauncher/launcher/bu
 3546              		.file 34 "F:/GameModding/MarioKartWii/Mods/Distro/RetroRewind6/dev/Launcher/RRLauncher/launcher/bu
 3547              		.file 35 "F:/GameModding/MarioKartWii/Mods/Distro/RetroRewind6/dev/Launcher/RRLauncher/launcher/bu
 3548              		.file 36 "F:/GameModding/MarioKartWii/Mods/Distro/RetroRewind6/dev/Launcher/RRLauncher/launcher/bu
 3549              		.file 37 "F:/GameModding/MarioKartWii/Mods/Distro/RetroRewind6/dev/Launcher/RRLauncher/launcher/bu
 3550              		.file 38 "F:/GameModding/MarioKartWii/Mods/Distro/RetroRewind6/dev/Launcher/RRLauncher/launcher/bu
 3551              		.file 39 "F:/GameModding/MarioKartWii/Mods/Distro/RetroRewind6/dev/Launcher/RRLauncher/launcher/bu
 3552              		.file 40 "F:/GameModding/MarioKartWii/Mods/Distro/RetroRewind6/dev/Launcher/RRLauncher/launcher/bu
 3553              		.file 41 "F:/GameModding/MarioKartWii/Mods/Distro/RetroRewind6/dev/Launcher/RRLauncher/launcher/bu
 3554              		.file 42 "F:/GameModding/MarioKartWii/Mods/Distro/RetroRewind6/dev/Launcher/RRLauncher/launcher/bu
 3555              		.file 43 "F:/GameModding/MarioKartWii/Mods/Distro/RetroRewind6/dev/Launcher/RRLauncher/launcher/bu
 3556              		.file 44 "F:/GameModding/MarioKartWii/Mods/Distro/RetroRewind6/dev/Launcher/RRLauncher/launcher/bu
 3557              		.file 45 "F:/GameModding/MarioKartWii/Mods/Distro/RetroRewind6/dev/Launcher/RRLauncher/launcher/bu
 3558              		.file 46 "F:/GameModding/MarioKartWii/Mods/Distro/RetroRewind6/dev/Launcher/RRLauncher/launcher/bu
 3559              		.file 47 "F:/GameModding/MarioKartWii/Mods/Distro/RetroRewind6/dev/Launcher/RRLauncher/launcher/bu
 3560              		.file 48 "F:/GameModding/MarioKartWii/Mods/Distro/RetroRewind6/dev/Launcher/RRLauncher/launcher/bu
 3561              		.file 49 "F:/GameModding/MarioKartWii/Mods/Distro/RetroRewind6/dev/Launcher/RRLauncher/launcher/bu
 3562              		.file 50 "F:/GameModding/MarioKartWii/Mods/Distro/RetroRewind6/dev/Launcher/RRLauncher/launcher/bu
 3563              		.file 51 "F:/GameModding/MarioKartWii/Mods/Distro/RetroRewind6/dev/Launcher/RRLauncher/launcher/bu
 3564              		.file 52 "F:/GameModding/MarioKartWii/Mods/Distro/RetroRewind6/dev/Launcher/RRLauncher/launcher/bu
 3565              		.file 53 "F:/GameModding/MarioKartWii/Mods/Distro/RetroRewind6/dev/Launcher/RRLauncher/launcher/bu
 3566              		.file 54 "F:/GameModding/MarioKartWii/Mods/Distro/RetroRewind6/dev/Launcher/RRLauncher/launcher/bu
 3567              		.file 55 "F:/GameModding/MarioKartWii/Mods/Distro/RetroRewind6/dev/Launcher/RRLauncher/launcher/bu
 3568              		.file 56 "F:/GameModding/MarioKartWii/Mods/Distro/RetroRewind6/dev/Launcher/RRLauncher/launcher/bu
 3569              		.file 57 "F:/GameModding/MarioKartWii/Mods/Distro/RetroRewind6/dev/Launcher/RRLauncher/launcher/bu
 3570              		.file 58 "F:/GameModding/MarioKartWii/Mods/Distro/RetroRewind6/dev/Launcher/RRLauncher/launcher/bu
 3571              		.file 59 "F:/GameModding/MarioKartWii/Mods/Distro/RetroRewind6/dev/Launcher/RRLauncher/launcher/bu
 3572              		.file 60 "F:/GameModding/MarioKartWii/Mods/Distro/RetroRewind6/dev/Launcher/RRLauncher/launcher/bu
 3573              		.file 61 "F:/GameModding/MarioKartWii/Mods/Distro/RetroRewind6/dev/Launcher/RRLauncher/launcher/bu
 3574              		.file 62 "F:/GameModding/MarioKartWii/Mods/Distro/RetroRewind6/dev/Launcher/RRLauncher/launcher/bu
 3575              		.file 63 "F:/GameModding/MarioKartWii/Mods/Distro/RetroRewind6/dev/Launcher/RRLauncher/launcher/bu
 3576              		.file 64 "F:/GameModding/MarioKartWii/Mods/Distro/RetroRewind6/dev/Launcher/RRLauncher/launcher/li
 3577              		.file 65 "F:/GameModding/MarioKartWii/Mods/Distro/RetroRewind6/dev/Launcher/RRLauncher/launcher/li
 3578              		.file 66 "C:/devkitPro/devkitPPC/powerpc-eabi/include/string.h"
 3579              		.file 67 "C:/devkitPro/devkitPPC/powerpc-eabi/include/c++/13.1.0/new"
 3580              		.file 68 "C:/devkitPro/devkitPPC/powerpc-eabi/include/c++/13.1.0/bits/memory_resource.h"