   1              		.file	"gui_button.cpp"
   2              		.machine ppc
   3              		.section	".text"
   4              	.Ltext0:
   5              		.file 1 "F:/GameModding/MarioKartWii/Mods/Distro/RetroRewind6/dev/Launcher/RRLauncher/launcher/lib
   6              		.section	.text._ZN9GuiButtonD2Ev,"ax",@progbits
   7              		.align 2
   8              		.globl _ZN9GuiButtonD2Ev
   9              		.type	_ZN9GuiButtonD2Ev, @function
  10              	_ZN9GuiButtonD2Ev:
  11              	.LVL0:
  12              	.LFB2336:
  13              		.loc 1 48 1 view -0
  14              		.cfi_startproc
  15              	.LBB11:
  16              		.loc 1 48 23 is_stmt 0 view .LVU1
  17 0000 3D200000 		lis 9,_ZTV9GuiButton+8@ha
  18 0004 39290000 		la 9,_ZTV9GuiButton+8@l(9)
  19 0008 91230000 		stw 9,0(3)
  20              		.loc 1 50 1 view .LVU2
  21 000c 48000000 		b _ZN10GuiElementD2Ev
  22              	.LVL1:
  23              		.loc 1 50 1 view .LVU3
  24              	.LBE11:
  25              		.cfi_endproc
  26              	.LFE2336:
  27              		.size	_ZN9GuiButtonD2Ev, .-_ZN9GuiButtonD2Ev
  28              		.globl _ZN9GuiButtonD1Ev
  29              		.set	_ZN9GuiButtonD1Ev,_ZN9GuiButtonD2Ev
  30              		.section	.text._ZN9GuiButtonD0Ev,"ax",@progbits
  31              		.align 2
  32              		.globl _ZN9GuiButtonD0Ev
  33              		.type	_ZN9GuiButtonD0Ev, @function
  34              	_ZN9GuiButtonD0Ev:
  35              	.LVL2:
  36              	.LFB2338:
  37              		.loc 1 48 1 is_stmt 1 view -0
  38              		.cfi_startproc
  39              		.loc 1 48 1 is_stmt 0 view .LVU5
  40 0000 9421FFF0 		stwu 1,-16(1)
  41              		.cfi_def_cfa_offset 16
  42              	.LBB12:
  43              	.LBB13:
  44              		.loc 1 48 23 view .LVU6
  45 0004 3D200000 		lis 9,_ZTV9GuiButton+8@ha
  46              	.LBE13:
  47              	.LBE12:
  48              		.loc 1 48 1 view .LVU7
  49 0008 7C0802A6 		mflr 0
  50              	.LBB16:
  51              	.LBB14:
  52              		.loc 1 48 23 view .LVU8
  53 000c 39290000 		la 9,_ZTV9GuiButton+8@l(9)
  54              	.LBE14:
  55              	.LBE16:
  56              		.loc 1 48 1 view .LVU9
  57 0010 93E1000C 		stw 31,12(1)
  58              		.cfi_register 65, 0
  59              		.cfi_offset 31, -4
  60 0014 7C7F1B78 		mr 31,3
  61              	.LVL3:
  62              	.LBB17:
  63              	.LBI12:
  64              		.loc 1 48 1 is_stmt 1 view .LVU10
  65              	.LBE17:
  66 0018 90010014 		stw 0,20(1)
  67              		.cfi_offset 65, 4
  68              	.LBB18:
  69              	.LBB15:
  70              		.loc 1 48 23 is_stmt 0 view .LVU11
  71 001c 91230000 		stw 9,0(3)
  72              		.loc 1 50 1 view .LVU12
  73 0020 48000001 		bl _ZN10GuiElementD2Ev
  74              	.LVL4:
  75              		.loc 1 50 1 view .LVU13
  76              	.LBE15:
  77              	.LBE18:
  78 0024 80010014 		lwz 0,20(1)
  79              		.loc 1 50 1 discriminator 1 view .LVU14
  80 0028 7FE3FB78 		mr 3,31
  81              		.loc 1 50 1 view .LVU15
  82 002c 83E1000C 		lwz 31,12(1)
  83              	.LVL5:
  84              		.loc 1 50 1 discriminator 1 view .LVU16
  85 0030 388000E0 		li 4,224
  86              		.loc 1 50 1 view .LVU17
  87 0034 7C0803A6 		mtlr 0
  88              		.cfi_restore 65
  89 0038 38210010 		addi 1,1,16
  90              		.cfi_restore 31
  91              		.cfi_def_cfa_offset 0
  92              		.loc 1 50 1 discriminator 1 view .LVU18
  93 003c 48000000 		b _ZdlPvj
  94              	.LVL6:
  95              		.loc 1 50 1 discriminator 1 view .LVU19
  96              		.cfi_endproc
  97              	.LFE2338:
  98              		.size	_ZN9GuiButtonD0Ev, .-_ZN9GuiButtonD0Ev
  99              		.section	.text._ZN9GuiButton4DrawEv,"ax",@progbits
 100              		.align 2
 101              		.globl _ZN9GuiButton4DrawEv
 102              		.type	_ZN9GuiButton4DrawEv, @function
 103              	_ZN9GuiButton4DrawEv:
 104              	.LVL7:
 105              	.LFB2354:
 106              		.loc 1 129 1 is_stmt 1 view -0
 107              		.cfi_startproc
 108              		.loc 1 130 2 view .LVU21
 109              		.loc 1 129 1 is_stmt 0 view .LVU22
 110 0000 9421FFE8 		stwu 1,-24(1)
 111              		.cfi_def_cfa_offset 24
 112 0004 7C0802A6 		mflr 0
 113 0008 93E10014 		stw 31,20(1)
 114              		.cfi_register 65, 0
 115              		.cfi_offset 31, -4
 116 000c 7C7F1B78 		mr 31,3
 117 0010 9001001C 		stw 0,28(1)
 118              		.cfi_offset 65, 4
 119              		.loc 1 130 15 view .LVU23
 120 0014 48000001 		bl _ZN10GuiElement9IsVisibleEv
 121              	.LVL8:
 122              		.loc 1 130 2 discriminator 1 view .LVU24
 123 0018 2C030000 		cmpwi 0,3,0
 124 001c 41820114 		beq- 0,.L5
 125              		.loc 1 134 6 view .LVU25
 126 0020 813F0068 		lwz 9,104(31)
 127 0024 93A1000C 		stw 29,12(1)
 128              		.cfi_offset 29, -12
 129              		.loc 1 134 2 view .LVU26
 130 0028 552907FA 		rlwinm 9,9,0,31,29
 131 002c 93C10010 		stw 30,16(1)
 132              		.cfi_offset 30, -8
 133              		.loc 1 134 2 is_stmt 1 view .LVU27
 134 0030 2C090001 		cmpwi 0,9,1
 135 0034 418200B4 		beq- 0,.L34
 136              		.loc 1 136 7 view .LVU28
 137              		.loc 1 136 10 is_stmt 0 view .LVU29
 138 0038 807F0084 		lwz 3,132(31)
 139              		.loc 1 136 7 view .LVU30
 140 003c 2C030000 		cmpwi 0,3,0
 141 0040 41820024 		beq- 0,.L18
 142              	.L9:
 143              		.loc 1 137 3 is_stmt 1 view .LVU31
 144              		.loc 1 137 14 is_stmt 0 view .LVU32
 145 0044 81230000 		lwz 9,0(3)
 146 0048 81290024 		lwz 9,36(9)
 147 004c 7D2903A6 		mtctr 9
 148 0050 4E800421 		bctrl
 149              	.LVL9:
 150              		.loc 1 139 6 view .LVU33
 151 0054 813F0068 		lwz 9,104(31)
 152              		.loc 1 139 2 view .LVU34
 153 0058 552907FA 		rlwinm 9,9,0,31,29
 154              		.loc 1 139 2 is_stmt 1 view .LVU35
 155 005c 2C090001 		cmpwi 0,9,1
 156 0060 418200A0 		beq- 0,.L10
 157              	.L18:
 158              		.loc 1 141 7 view .LVU36
 159              		.loc 1 141 10 is_stmt 0 view .LVU37
 160 0064 807F0094 		lwz 3,148(31)
 161              		.loc 1 141 7 view .LVU38
 162 0068 2C030000 		cmpwi 0,3,0
 163 006c 4182001C 		beq- 0,.L13
 164              	.L32:
 165              		.loc 1 142 3 is_stmt 1 view .LVU39
 166              		.loc 1 142 13 is_stmt 0 view .LVU40
 167 0070 81230000 		lwz 9,0(3)
 168 0074 81290024 		lwz 9,36(9)
 169 0078 7D2903A6 		mtctr 9
 170 007c 4E800421 		bctrl
 171              	.LVL10:
 172              	.LBB19:
 173              		.loc 1 144 16 is_stmt 1 discriminator 1 view .LVU41
 174              		.loc 1 146 7 is_stmt 0 view .LVU42
 175 0080 813F0068 		lwz 9,104(31)
 176 0084 552907FA 		rlwinm 9,9,0,31,29
 177              	.LVL11:
 178              	.L13:
 179              		.loc 1 146 3 view .LVU43
 180 0088 2C090001 		cmpwi 0,9,1
 181 008c 3BDF00A4 		addi 30,31,164
 182 0090 3BBF00B0 		addi 29,31,176
 183              		.loc 1 146 3 is_stmt 1 view .LVU44
 184              		.loc 1 148 8 view .LVU45
 185              		.loc 1 149 4 view .LVU46
 186              		.loc 1 146 3 is_stmt 0 view .LVU47
 187 0094 41820040 		beq- 0,.L35
 188              	.L14:
 189              		.loc 1 148 18 view .LVU48
 190 0098 813E0000 		lwz 9,0(30)
 191              		.loc 1 148 8 view .LVU49
 192 009c 2C090000 		cmpwi 0,9,0
 193              		.loc 1 149 18 view .LVU50
 194 00a0 7D234B78 		mr 3,9
 195              		.loc 1 148 8 view .LVU51
 196 00a4 41820014 		beq- 0,.L15
 197              	.L33:
 198              		.loc 1 149 18 view .LVU52
 199 00a8 81290000 		lwz 9,0(9)
 200 00ac 81290024 		lwz 9,36(9)
 201 00b0 7D2903A6 		mtctr 9
 202 00b4 4E800421 		bctrl
 203              	.LVL12:
 204              	.L15:
 205              		.loc 1 144 2 is_stmt 1 discriminator 2 view .LVU53
 206              		.loc 1 144 16 discriminator 1 view .LVU54
 207 00b8 3BDE0004 		addi 30,30,4
 208 00bc 7C1DF040 		cmplw 0,29,30
 209 00c0 41820050 		beq- 0,.L16
 210              		.loc 1 146 7 is_stmt 0 view .LVU55
 211 00c4 813F0068 		lwz 9,104(31)
 212 00c8 552907FA 		rlwinm 9,9,0,31,29
 213              		.loc 1 146 3 is_stmt 1 view .LVU56
 214              		.loc 1 148 8 view .LVU57
 215              		.loc 1 149 4 view .LVU58
 216              		.loc 1 146 3 is_stmt 0 view .LVU59
 217 00cc 2C090001 		cmpwi 0,9,1
 218 00d0 4082FFC8 		bne+ 0,.L14
 219              	.L35:
 220              		.loc 1 147 4 is_stmt 1 view .LVU60
 221              		.loc 1 146 69 is_stmt 0 discriminator 3 view .LVU61
 222 00d4 813E000C 		lwz 9,12(30)
 223              		.loc 1 146 55 discriminator 3 view .LVU62
 224 00d8 2C090000 		cmpwi 0,9,0
 225              		.loc 1 147 22 view .LVU63
 226 00dc 7D234B78 		mr 3,9
 227              		.loc 1 146 55 discriminator 3 view .LVU64
 228 00e0 4082FFC8 		bne+ 0,.L33
 229 00e4 4BFFFFB4 		b .L14
 230              	.L34:
 231              		.loc 1 146 55 discriminator 3 view .LVU65
 232              	.LBE19:
 233              		.loc 1 134 57 discriminator 3 view .LVU66
 234 00e8 807F0088 		lwz 3,136(31)
 235              		.loc 1 134 54 discriminator 3 view .LVU67
 236 00ec 2C030000 		cmpwi 0,3,0
 237 00f0 4082FF54 		bne+ 0,.L9
 238              		.loc 1 136 7 is_stmt 1 view .LVU68
 239              		.loc 1 136 10 is_stmt 0 view .LVU69
 240 00f4 807F0084 		lwz 3,132(31)
 241              		.loc 1 136 7 view .LVU70
 242 00f8 2C030000 		cmpwi 0,3,0
 243 00fc 4082FF48 		bne+ 0,.L9
 244              	.L10:
 245              		.loc 1 139 57 discriminator 3 view .LVU71
 246 0100 807F0098 		lwz 3,152(31)
 247              		.loc 1 139 54 discriminator 3 view .LVU72
 248 0104 2C030000 		cmpwi 0,3,0
 249 0108 4082FF68 		bne+ 0,.L32
 250 010c 4BFFFF58 		b .L18
 251              	.L16:
 252              		.loc 1 152 2 is_stmt 1 view .LVU73
 253              		.loc 1 153 1 is_stmt 0 view .LVU74
 254 0110 8001001C 		lwz 0,28(1)
 255              		.loc 1 152 15 view .LVU75
 256 0114 7FE3FB78 		mr 3,31
 257 0118 83A1000C 		lwz 29,12(1)
 258              		.cfi_restore 29
 259 011c 83C10010 		lwz 30,16(1)
 260              		.cfi_restore 30
 261              		.loc 1 153 1 view .LVU76
 262 0120 7C0803A6 		mtlr 0
 263              		.cfi_restore 65
 264 0124 83E10014 		lwz 31,20(1)
 265              	.LVL13:
 266              		.loc 1 153 1 view .LVU77
 267 0128 38210018 		addi 1,1,24
 268              		.cfi_restore 31
 269              		.cfi_def_cfa_offset 0
 270              		.loc 1 152 15 view .LVU78
 271 012c 48000000 		b _ZN10GuiElement13UpdateEffectsEv
 272              	.LVL14:
 273              	.L5:
 274              		.cfi_def_cfa_offset 24
 275              		.cfi_offset 31, -4
 276              		.cfi_offset 65, 4
 277              		.loc 1 153 1 view .LVU79
 278 0130 8001001C 		lwz 0,28(1)
 279 0134 83E10014 		lwz 31,20(1)
 280              	.LVL15:
 281              		.loc 1 153 1 view .LVU80
 282 0138 38210018 		addi 1,1,24
 283              		.cfi_restore 31
 284              		.cfi_def_cfa_offset 0
 285 013c 7C0803A6 		mtlr 0
 286              		.cfi_restore 65
 287 0140 4E800020 		blr
 288              		.cfi_endproc
 289              	.LFE2354:
 290              		.size	_ZN9GuiButton4DrawEv, .-_ZN9GuiButton4DrawEv
 291              		.section	.text._ZN9GuiButton6UpdateEP10GuiTrigger,"ax",@progbits
 292              		.align 2
 293              		.globl _ZN9GuiButton6UpdateEP10GuiTrigger
 294              		.type	_ZN9GuiButton6UpdateEP10GuiTrigger, @function
 295              	_ZN9GuiButton6UpdateEP10GuiTrigger:
 296              	.LVL16:
 297              	.LFB2355:
 298              		.loc 1 156 1 is_stmt 1 view -0
 299              		.cfi_startproc
 300              		.loc 1 157 2 view .LVU82
 301 0000 81230068 		lwz 9,104(3)
 302 0004 3929FFFE 		addi 9,9,-2
 303 0008 552907FB 		rlwinm. 9,9,0,31,29
 304 000c 4D820020 		beqlr- 0
 305              		.loc 1 157 55 is_stmt 0 discriminator 2 view .LVU83
 306 0010 2C040000 		cmpwi 0,4,0
 307              		.loc 1 156 1 view .LVU84
 308 0014 9421FFC8 		stwu 1,-56(1)
 309              		.cfi_def_cfa_offset 56
 310 0018 93C10030 		stw 30,48(1)
 311              		.cfi_offset 30, -8
 312 001c 7C9E2378 		mr 30,4
 313              		.loc 1 157 55 discriminator 2 view .LVU85
 314 0020 4182022C 		beq- 0,.L36
 315 0024 93E10034 		stw 31,52(1)
 316              		.cfi_offset 31, -4
 317 0028 7C7F1B78 		mr 31,3
 318              		.loc 1 159 7 is_stmt 1 view .LVU86
 319              		.loc 1 159 10 is_stmt 0 view .LVU87
 320 002c 8063007C 		lwz 3,124(3)
 321              	.LVL17:
 322              		.loc 1 159 10 view .LVU88
 323 0030 7C0802A6 		mflr 0
 324              		.cfi_register 65, 0
 325 0034 9001003C 		stw 0,60(1)
 326              		.cfi_offset 65, 4
 327              		.loc 1 159 24 view .LVU89
 328 0038 2C030000 		cmpwi 0,3,0
 329 003c 41820010 		beq- 0,.L43
 330              		.loc 1 159 50 discriminator 1 view .LVU90
 331 0040 48000001 		bl _ZN10GuiElement8GetStateEv
 332              	.LVL18:
 333              		.loc 1 159 24 discriminator 1 view .LVU91
 334 0044 2C030004 		cmpwi 0,3,4
 335 0048 418201F8 		beq- 0,.L210
 336              	.L43:
 337              	.LBB28:
 338              	.LBB29:
 339              		.loc 1 164 8 view .LVU92
 340 004c 813E0008 		lwz 9,8(30)
 341 0050 93A1002C 		stw 29,44(1)
 342              		.cfi_offset 29, -12
 343              	.LVL19:
 344              		.loc 1 164 8 view .LVU93
 345              	.LBE29:
 346              	.LBI28:
 347              		.loc 1 155 6 is_stmt 1 view .LVU94
 348              	.LBB60:
 349              		.loc 1 164 2 view .LVU95
 350 0054 814900AC 		lwz 10,172(9)
 351 0058 2C0A0000 		cmpwi 0,10,0
 352 005c 41820010 		beq- 0,.L44
 353              		.loc 1 164 23 is_stmt 0 discriminator 1 view .LVU96
 354 0060 815E0004 		lwz 10,4(30)
 355 0064 2C0A0000 		cmpwi 0,10,0
 356 0068 408001F0 		bge- 0,.L211
 357              	.L44:
 358              		.loc 1 204 2 is_stmt 1 view .LVU97
 359              	.LBB30:
 360              		.loc 1 204 22 is_stmt 0 view .LVU98
 361 006c 7FE3FB78 		mr 3,31
 362 0070 48000001 		bl _ZN10GuiElement11IsClickableEv
 363              	.LVL20:
 364              		.loc 1 204 2 discriminator 1 view .LVU99
 365 0074 2C030000 		cmpwi 0,3,0
 366 0078 4182004C 		beq- 0,.L74
 367              	.LVL21:
 368              	.LBB31:
 369              	.LBB32:
 370              		.loc 1 209 4 is_stmt 1 view .LVU100
 371              		.loc 1 209 16 is_stmt 0 view .LVU101
 372 007c 813F0074 		lwz 9,116(31)
 373              		.loc 1 209 4 view .LVU102
 374 0080 2C090000 		cmpwi 0,9,0
 375 0084 4182001C 		beq- 0,.L59
 376              		.loc 1 209 34 discriminator 1 view .LVU103
 377 0088 81490004 		lwz 10,4(9)
 378              		.loc 1 209 18 discriminator 1 view .LVU104
 379 008c 2C0AFFFF 		cmpwi 0,10,-1
 380 0090 41820418 		beq- 0,.L62
 381              		.loc 1 209 45 discriminator 2 view .LVU105
 382 0094 811E0004 		lwz 8,4(30)
 383 0098 7C0A4000 		cmpw 0,10,8
 384 009c 4182040C 		beq- 0,.L62
 385              	.L59:
 386              		.loc 1 207 3 is_stmt 1 discriminator 2 view .LVU106
 387              	.LVL22:
 388              		.loc 1 207 17 discriminator 1 view .LVU107
 389              		.loc 1 209 4 view .LVU108
 390              		.loc 1 209 16 is_stmt 0 view .LVU109
 391 00a0 813F0078 		lwz 9,120(31)
 392              		.loc 1 209 4 view .LVU110
 393 00a4 2C090000 		cmpwi 0,9,0
 394 00a8 4182001C 		beq- 0,.L74
 395              		.loc 1 209 34 discriminator 1 view .LVU111
 396 00ac 81490004 		lwz 10,4(9)
 397              		.loc 1 209 18 discriminator 1 view .LVU112
 398 00b0 2C0AFFFF 		cmpwi 0,10,-1
 399 00b4 41820350 		beq- 0,.L65
 400              		.loc 1 209 45 discriminator 2 view .LVU113
 401 00b8 811E0004 		lwz 8,4(30)
 402 00bc 7C0A4000 		cmpw 0,10,8
 403 00c0 41820344 		beq- 0,.L65
 404              	.LVL23:
 405              	.L74:
 406              		.loc 1 209 45 discriminator 2 view .LVU114
 407              	.LBE32:
 408              	.LBE31:
 409              	.LBE30:
 410              		.loc 1 253 2 is_stmt 1 view .LVU115
 411              	.LBB39:
 412              		.loc 1 253 21 is_stmt 0 view .LVU116
 413 00c4 7FE3FB78 		mr 3,31
 414 00c8 48000001 		bl _ZN10GuiElement10IsHoldableEv
 415              	.LVL24:
 416              		.loc 1 253 2 discriminator 1 view .LVU117
 417 00cc 2C030000 		cmpwi 0,3,0
 418              		.loc 1 253 21 view .LVU118
 419 00d0 7C7D1B78 		mr 29,3
 420              		.loc 1 253 2 discriminator 1 view .LVU119
 421 00d4 41820138 		beq- 0,.L52
 422              	.LVL25:
 423              	.LBB40:
 424              	.LBB41:
 425              		.loc 1 260 4 is_stmt 1 view .LVU120
 426              		.loc 1 260 16 is_stmt 0 view .LVU121
 427 00d8 813F0074 		lwz 9,116(31)
 428              		.loc 1 260 4 view .LVU122
 429 00dc 2C090000 		cmpwi 0,9,0
 430 00e0 4182001C 		beq- 0,.L76
 431              		.loc 1 260 34 discriminator 1 view .LVU123
 432 00e4 81490004 		lwz 10,4(9)
 433              		.loc 1 260 18 discriminator 1 view .LVU124
 434 00e8 2C0AFFFF 		cmpwi 0,10,-1
 435 00ec 41820238 		beq- 0,.L209
 436              		.loc 1 260 45 discriminator 2 view .LVU125
 437 00f0 811E0004 		lwz 8,4(30)
 438 00f4 7C0A4000 		cmpw 0,10,8
 439 00f8 4182022C 		beq- 0,.L209
 440              	.L76:
 441              		.loc 1 264 26 view .LVU126
 442 00fc 3BA00000 		li 29,0
 443              	.LVL26:
 444              	.L83:
 445              		.loc 1 258 3 is_stmt 1 discriminator 2 view .LVU127
 446              		.loc 1 258 17 discriminator 1 view .LVU128
 447              		.loc 1 260 4 view .LVU129
 448              		.loc 1 260 16 is_stmt 0 view .LVU130
 449 0100 813F0078 		lwz 9,120(31)
 450              		.loc 1 260 4 view .LVU131
 451 0104 2C090000 		cmpwi 0,9,0
 452 0108 41820104 		beq- 0,.L52
 453              		.loc 1 260 34 discriminator 1 view .LVU132
 454 010c 81490004 		lwz 10,4(9)
 455              		.loc 1 260 18 discriminator 1 view .LVU133
 456 0110 2C0AFFFF 		cmpwi 0,10,-1
 457 0114 41820010 		beq- 0,.L96
 458              		.loc 1 260 45 discriminator 2 view .LVU134
 459 0118 811E0004 		lwz 8,4(30)
 460 011c 7C0A4000 		cmpw 0,10,8
 461 0120 40A200EC 		bne+ 0,.L52
 462              	.L96:
 463              		.loc 1 263 18 view .LVU135
 464 0124 811E0008 		lwz 8,8(30)
 465              		.loc 1 265 38 view .LVU136
 466 0128 80E90008 		lwz 7,8(9)
 467              		.loc 1 263 24 view .LVU137
 468 012c 81480014 		lwz 10,20(8)
 469 0130 93610024 		stw 27,36(1)
 470              		.cfi_offset 27, -20
 471              		.loc 1 272 5 view .LVU138
 472 0134 2C0A0000 		cmpwi 0,10,0
 473              		.loc 1 265 38 view .LVU139
 474 0138 8367000C 		lwz 27,12(7)
 475 013c 93410020 		stw 26,32(1)
 476              		.cfi_offset 26, -24
 477 0140 93810028 		stw 28,40(1)
 478              		.cfi_offset 28, -16
 479              		.loc 1 263 5 is_stmt 1 view .LVU140
 480              	.LVL27:
 481              		.loc 1 264 5 view .LVU141
 482              		.loc 1 265 18 is_stmt 0 view .LVU142
 483 0144 577A801E 		slwi 26,27,16
 484              		.loc 1 264 26 view .LVU143
 485 0148 8388000C 		lwz 28,12(8)
 486              	.LVL28:
 487              		.loc 1 265 5 is_stmt 1 view .LVU144
 488              		.loc 1 268 5 view .LVU145
 489              		.loc 1 269 5 view .LVU146
 490              		.loc 1 270 5 view .LVU147
 491              		.loc 1 272 5 view .LVU148
 492 014c 4182002C 		beq- 0,.L97
 493              		.loc 1 263 13 is_stmt 0 view .LVU149
 494 0150 5547801E 		slwi 7,10,16
 495              		.loc 1 273 27 view .LVU150
 496 0154 7CE7D039 		and. 7,7,26
 497 0158 40820564 		bne- 0,.L98
 498              		.loc 1 274 30 view .LVU151
 499 015c 7D4AD838 		and 10,10,27
 500              	.LVL29:
 501              		.loc 1 274 30 view .LVU152
 502 0160 554A843F 		srwi. 10,10,16
 503 0164 41820014 		beq- 0,.L97
 504              		.loc 1 275 67 view .LVU153
 505 0168 814800F8 		lwz 10,248(8)
 506 016c 394AFFFE 		addi 10,10,-2
 507              		.loc 1 275 30 view .LVU154
 508 0170 280A0001 		cmplwi 0,10,1
 509 0174 40810548 		ble- 0,.L98
 510              	.L97:
 511              		.loc 1 276 21 view .LVU155
 512 0178 A15E0160 		lhz 10,352(30)
 513 017c A0E90164 		lhz 7,356(9)
 514 0180 7D4A3838 		and 10,10,7
 515              		.loc 1 275 113 discriminator 1 view .LVU156
 516 0184 554A043E 		rlwinm 10,10,0,0xffff
 517 0188 2C0A0000 		cmpwi 0,10,0
 518 018c 40820530 		bne- 0,.L98
 519              		.loc 1 278 45 discriminator 1 view .LVU157
 520 0190 80FF0068 		lwz 7,104(31)
 521 0194 7F8AE378 		mr 10,28
 522              	.LVL30:
 523              	.L99:
 524              		.loc 1 283 5 is_stmt 1 view .LVU158
 525 0198 2C0A0000 		cmpwi 0,10,0
 526 019c 4182002C 		beq- 0,.L101
 527              		.loc 1 264 15 is_stmt 0 view .LVU159
 528 01a0 578A801E 		slwi 10,28,16
 529              		.loc 1 284 27 view .LVU160
 530 01a4 7D4AD039 		and. 10,10,26
 531 01a8 40820038 		bne- 0,.L102
 532              		.loc 1 285 32 view .LVU161
 533 01ac 7F9CD838 		and 28,28,27
 534              	.LVL31:
 535              		.loc 1 285 32 view .LVU162
 536 01b0 579C843F 		srwi. 28,28,16
 537 01b4 41820014 		beq- 0,.L101
 538              		.loc 1 286 69 view .LVU163
 539 01b8 814800F8 		lwz 10,248(8)
 540 01bc 394AFFFE 		addi 10,10,-2
 541              		.loc 1 286 32 view .LVU164
 542 01c0 280A0001 		cmplwi 0,10,1
 543 01c4 4081001C 		ble- 0,.L102
 544              	.L101:
 545              		.loc 1 287 21 view .LVU165
 546 01c8 A15E0164 		lhz 10,356(30)
 547 01cc A1090164 		lhz 8,356(9)
 548 01d0 7D4A4038 		and 10,10,8
 549              		.loc 1 286 115 discriminator 1 view .LVU166
 550 01d4 554A043E 		rlwinm 10,10,0,0xffff
 551 01d8 2C0A0000 		cmpwi 0,10,0
 552 01dc 41820010 		beq- 0,.L103
 553              	.L102:
 554              		.loc 1 289 6 is_stmt 1 view .LVU167
 555 01e0 89290000 		lbz 9,0(9)
 556 01e4 2C090001 		cmpwi 0,9,1
 557 01e8 41820534 		beq- 0,.L104
 558              	.L103:
 559              		.loc 1 293 5 view .LVU168
 560 01ec 57BD063E 		rlwinm 29,29,0,0xff
 561              		.loc 1 293 5 is_stmt 0 view .LVU169
 562 01f0 2C1D0000 		cmpwi 0,29,0
 563 01f4 40820528 		bne- 0,.L104
 564              		.loc 1 293 14 discriminator 1 view .LVU170
 565 01f8 2C070003 		cmpwi 0,7,3
 566 01fc 41820590 		beq- 0,.L212
 567              	.LVL32:
 568              	.L207:
 569              		.loc 1 293 14 discriminator 1 view .LVU171
 570 0200 83410020 		lwz 26,32(1)
 571              		.cfi_restore 26
 572              	.LVL33:
 573              		.loc 1 293 14 discriminator 1 view .LVU172
 574 0204 83610024 		lwz 27,36(1)
 575              		.cfi_restore 27
 576              	.LVL34:
 577              		.loc 1 293 14 discriminator 1 view .LVU173
 578 0208 83810028 		lwz 28,40(1)
 579              		.cfi_restore 28
 580              	.LVL35:
 581              	.L52:
 582              		.loc 1 293 14 discriminator 1 view .LVU174
 583              	.LBE41:
 584              	.LBE40:
 585              	.LBE39:
 586              		.loc 1 305 2 is_stmt 1 view .LVU175
 587              		.loc 1 305 5 is_stmt 0 view .LVU176
 588 020c 813F0080 		lwz 9,128(31)
 589              		.loc 1 305 2 view .LVU177
 590 0210 2C090000 		cmpwi 0,9,0
 591 0214 41820028 		beq- 0,.L213
 592              		.loc 1 306 3 is_stmt 1 view .LVU178
 593              		.loc 1 306 11 is_stmt 0 view .LVU179
 594 0218 8001003C 		lwz 0,60(1)
 595 021c 7FE3FB78 		mr 3,31
 596 0220 83A1002C 		lwz 29,44(1)
 597              		.cfi_remember_state
 598              		.cfi_restore 29
 599 0224 7D2903A6 		mtctr 9
 600 0228 83E10034 		lwz 31,52(1)
 601              		.cfi_restore 31
 602              	.LVL36:
 603              		.loc 1 306 11 view .LVU180
 604 022c 7C0803A6 		mtlr 0
 605              		.cfi_restore 65
 606              	.LBE60:
 607              	.LBE28:
 608              		.loc 1 307 1 view .LVU181
 609 0230 83C10030 		lwz 30,48(1)
 610              	.LVL37:
 611              		.loc 1 307 1 view .LVU182
 612 0234 38210038 		addi 1,1,56
 613              		.cfi_restore 30
 614              		.cfi_def_cfa_offset 0
 615              	.LBB63:
 616              	.LBB61:
 617              		.loc 1 306 11 view .LVU183
 618 0238 4E800420 		bctr
 619              	.LVL38:
 620              	.L213:
 621              		.cfi_restore_state
 622              		.loc 1 306 11 view .LVU184
 623 023c 83A1002C 		lwz 29,44(1)
 624              		.cfi_restore 29
 625              	.LVL39:
 626              	.L210:
 627              		.loc 1 306 11 view .LVU185
 628 0240 8001003C 		lwz 0,60(1)
 629 0244 83E10034 		lwz 31,52(1)
 630              		.cfi_restore 31
 631              	.LVL40:
 632              		.loc 1 306 11 view .LVU186
 633 0248 7C0803A6 		mtlr 0
 634              		.cfi_restore 65
 635              	.L36:
 636              	.LBE61:
 637              	.LBE63:
 638              		.loc 1 307 1 view .LVU187
 639 024c 83C10030 		lwz 30,48(1)
 640              	.LVL41:
 641              		.loc 1 307 1 view .LVU188
 642 0250 38210038 		addi 1,1,56
 643              		.cfi_restore 30
 644              		.cfi_def_cfa_offset 0
 645 0254 4E800020 		blr
 646              	.LVL42:
 647              	.L211:
 648              		.cfi_def_cfa_offset 56
 649              		.cfi_offset 29, -12
 650              		.cfi_offset 30, -8
 651              		.cfi_offset 31, -4
 652              		.cfi_offset 65, 4
 653              	.LBB64:
 654              	.LBB62:
 655              		.loc 1 166 3 is_stmt 1 view .LVU189
 656              		.loc 1 166 20 is_stmt 0 view .LVU190
 657 0258 C18900B4 		lfs 12,180(9)
 658 025c 7FE3FB78 		mr 3,31
 659 0260 C00900B0 		lfs 0,176(9)
 660 0264 39210018 		addi 9,1,24
 661 0268 FD80601E 		fctiwz 12,12
 662 026c FC00001E 		fctiwz 0,0
 663 0270 7D804FAE 		stfiwx 12,0,9
 664 0274 3921001C 		addi 9,1,28
 665 0278 7C004FAE 		stfiwx 0,0,9
 666 027c 80A10018 		lwz 5,24(1)
 667 0280 8081001C 		lwz 4,28(1)
 668 0284 48000001 		bl _ZN10GuiElement8IsInsideEii
 669              	.LVL43:
 670              		.loc 1 168 4 view .LVU191
 671 0288 813F0068 		lwz 9,104(31)
 672              		.loc 1 166 3 discriminator 1 view .LVU192
 673 028c 2C030000 		cmpwi 0,3,0
 674 0290 418202E0 		beq- 0,.L45
 675              		.loc 1 168 4 is_stmt 1 view .LVU193
 676 0294 2C090000 		cmpwi 0,9,0
 677 0298 40A2FDD4 		bne- 0,.L44
 678              		.loc 1 170 5 view .LVU194
 679              		.loc 1 170 19 is_stmt 0 view .LVU195
 680 029c 813F0000 		lwz 9,0(31)
 681 02a0 38800001 		li 4,1
 682 02a4 80BE0004 		lwz 5,4(30)
 683 02a8 7FE3FB78 		mr 3,31
 684 02ac 81290010 		lwz 9,16(9)
 685 02b0 7D2903A6 		mtctr 9
 686 02b4 4E800421 		bctrl
 687              	.LVL44:
 688              		.loc 1 172 5 is_stmt 1 view .LVU196
 689              		.loc 1 172 20 is_stmt 0 view .LVU197
 690 02b8 7FE3FB78 		mr 3,31
 691 02bc 48000001 		bl _ZN10GuiElement6RumbleEv
 692              	.LVL45:
 693              		.loc 1 172 5 discriminator 1 view .LVU198
 694 02c0 2C030000 		cmpwi 0,3,0
 695 02c4 41820020 		beq- 0,.L46
 696              		.loc 1 173 6 is_stmt 1 view .LVU199
 697              		.loc 1 173 23 is_stmt 0 view .LVU200
 698 02c8 813E0004 		lwz 9,4(30)
 699              		.loc 1 173 29 view .LVU201
 700 02cc 3D400000 		lis 10,rumbleRequest@ha
 701 02d0 394A0000 		la 10,rumbleRequest@l(10)
 702 02d4 5529103A 		slwi 9,9,2
 703 02d8 7D0A482E 		lwzx 8,10,9
 704 02dc 61080001 		ori 8,8,0x1
 705 02e0 7D0A492E 		stwx 8,10,9
 706              	.L46:
 707              		.loc 1 175 5 is_stmt 1 view .LVU202
 708              		.loc 1 175 8 is_stmt 0 view .LVU203
 709 02e4 807F00D4 		lwz 3,212(31)
 710              		.loc 1 175 5 view .LVU204
 711 02e8 2C030000 		cmpwi 0,3,0
 712 02ec 41820008 		beq- 0,.L47
 713              		.loc 1 176 6 is_stmt 1 view .LVU205
 714              		.loc 1 176 21 is_stmt 0 view .LVU206
 715 02f0 48000001 		bl _ZN8GuiSound4PlayEv
 716              	.LVL46:
 717              	.L47:
 718              		.loc 1 178 5 is_stmt 1 view .LVU207
 719              		.loc 1 178 8 is_stmt 0 view .LVU208
 720 02f4 813F0054 		lwz 9,84(31)
 721              		.loc 1 178 5 view .LVU209
 722 02f8 2C090000 		cmpwi 0,9,0
 723 02fc 41A2FD70 		beq- 0,.L44
 724              		.loc 1 178 20 discriminator 1 view .LVU210
 725 0300 815F0048 		lwz 10,72(31)
 726 0304 2C0A0000 		cmpwi 0,10,0
 727 0308 40A2FD64 		bne- 0,.L44
 728              		.loc 1 181 6 is_stmt 1 view .LVU211
 729              		.loc 1 182 19 is_stmt 0 view .LVU212
 730 030c 811F0058 		lwz 8,88(31)
 731              		.loc 1 183 19 view .LVU213
 732 0310 815F005C 		lwz 10,92(31)
 733              		.loc 1 181 14 view .LVU214
 734 0314 913F0048 		stw 9,72(31)
 735              		.loc 1 182 6 is_stmt 1 view .LVU215
 736              		.loc 1 182 19 is_stmt 0 view .LVU216
 737 0318 911F004C 		stw 8,76(31)
 738              		.loc 1 183 6 is_stmt 1 view .LVU217
 739              		.loc 1 183 19 is_stmt 0 view .LVU218
 740 031c 915F0050 		stw 10,80(31)
 741 0320 4BFFFD4C 		b .L44
 742              	.LVL47:
 743              	.L209:
 744              	.LBB52:
 745              	.LBB47:
 746              	.LBB42:
 747              		.loc 1 263 18 view .LVU219
 748 0324 811E0008 		lwz 8,8(30)
 749              		.loc 1 265 38 view .LVU220
 750 0328 80E90008 		lwz 7,8(9)
 751              		.loc 1 263 24 view .LVU221
 752 032c 81480014 		lwz 10,20(8)
 753 0330 93810028 		stw 28,40(1)
 754              		.cfi_offset 28, -16
 755              		.loc 1 263 5 is_stmt 1 view .LVU222
 756              	.LVL48:
 757              		.loc 1 264 5 view .LVU223
 758              		.loc 1 272 5 is_stmt 0 view .LVU224
 759 0334 2C0A0000 		cmpwi 0,10,0
 760              		.loc 1 265 38 view .LVU225
 761 0338 8387000C 		lwz 28,12(7)
 762 033c 93410020 		stw 26,32(1)
 763              		.cfi_offset 26, -24
 764 0340 93610024 		stw 27,36(1)
 765              		.cfi_offset 27, -20
 766              		.loc 1 265 18 view .LVU226
 767 0344 579A801E 		slwi 26,28,16
 768              		.loc 1 264 26 view .LVU227
 769 0348 8368000C 		lwz 27,12(8)
 770              	.LVL49:
 771              		.loc 1 265 5 is_stmt 1 view .LVU228
 772              		.loc 1 268 5 view .LVU229
 773              		.loc 1 269 5 view .LVU230
 774              		.loc 1 270 5 view .LVU231
 775              		.loc 1 272 5 view .LVU232
 776 034c 4182002C 		beq- 0,.L79
 777              		.loc 1 263 13 is_stmt 0 view .LVU233
 778 0350 5547801E 		slwi 7,10,16
 779              		.loc 1 273 27 view .LVU234
 780 0354 7CE7D039 		and. 7,7,26
 781 0358 40820038 		bne- 0,.L93
 782              		.loc 1 274 30 view .LVU235
 783 035c 7F8A5038 		and 10,28,10
 784              	.LVL50:
 785              		.loc 1 274 30 view .LVU236
 786 0360 554A843F 		srwi. 10,10,16
 787 0364 41820014 		beq- 0,.L79
 788              		.loc 1 275 67 view .LVU237
 789 0368 814800F8 		lwz 10,248(8)
 790 036c 394AFFFE 		addi 10,10,-2
 791              		.loc 1 275 30 view .LVU238
 792 0370 280A0001 		cmplwi 0,10,1
 793 0374 4081001C 		ble- 0,.L93
 794              	.L79:
 795              		.loc 1 276 21 view .LVU239
 796 0378 A15E0160 		lhz 10,352(30)
 797 037c A0E90164 		lhz 7,356(9)
 798 0380 7D4A3838 		and 10,10,7
 799              		.loc 1 275 113 discriminator 1 view .LVU240
 800 0384 554A043E 		rlwinm 10,10,0,0xffff
 801 0388 2C0A0000 		cmpwi 0,10,0
 802 038c 41820228 		beq- 0,.L214
 803              	.L93:
 804              		.loc 1 278 6 is_stmt 1 view .LVU241
 805 0390 88C90000 		lbz 6,0(9)
 806              		.loc 1 264 26 is_stmt 0 view .LVU242
 807 0394 7F6ADB78 		mr 10,27
 808              		.loc 1 278 45 discriminator 1 view .LVU243
 809 0398 80FF0068 		lwz 7,104(31)
 810              		.loc 1 278 6 view .LVU244
 811 039c 2C060001 		cmpwi 0,6,1
 812 03a0 41820298 		beq- 0,.L215
 813              	.LVL51:
 814              	.L90:
 815              		.loc 1 283 5 is_stmt 1 view .LVU245
 816 03a4 2C0A0000 		cmpwi 0,10,0
 817 03a8 4182002C 		beq- 0,.L81
 818              		.loc 1 264 15 is_stmt 0 view .LVU246
 819 03ac 576A801E 		slwi 10,27,16
 820              		.loc 1 284 27 view .LVU247
 821 03b0 7D4AD039 		and. 10,10,26
 822 03b4 40820198 		bne- 0,.L89
 823              		.loc 1 285 32 view .LVU248
 824 03b8 7F9CD838 		and 28,28,27
 825              	.LVL52:
 826              		.loc 1 285 32 view .LVU249
 827 03bc 579C843F 		srwi. 28,28,16
 828 03c0 41820014 		beq- 0,.L81
 829              		.loc 1 286 69 view .LVU250
 830 03c4 814800F8 		lwz 10,248(8)
 831 03c8 394AFFFE 		addi 10,10,-2
 832              		.loc 1 286 32 view .LVU251
 833 03cc 280A0001 		cmplwi 0,10,1
 834 03d0 4081017C 		ble- 0,.L89
 835              	.L81:
 836              		.loc 1 287 21 view .LVU252
 837 03d4 A1490164 		lhz 10,356(9)
 838 03d8 A11E0164 		lhz 8,356(30)
 839 03dc 7D4A4038 		and 10,10,8
 840              		.loc 1 286 115 discriminator 1 view .LVU253
 841 03e0 554A043E 		rlwinm 10,10,0,0xffff
 842 03e4 2C0A0000 		cmpwi 0,10,0
 843 03e8 40820164 		bne- 0,.L89
 844              	.L88:
 845              		.loc 1 293 5 is_stmt 1 view .LVU254
 846              		.loc 1 293 14 is_stmt 0 discriminator 1 view .LVU255
 847 03ec 2C070003 		cmpwi 0,7,3
 848 03f0 418203D0 		beq- 0,.L85
 849              	.L203:
 850 03f4 83410020 		lwz 26,32(1)
 851              		.cfi_restore 26
 852              	.LVL53:
 853              		.loc 1 293 14 discriminator 1 view .LVU256
 854 03f8 83610024 		lwz 27,36(1)
 855              		.cfi_restore 27
 856              	.LVL54:
 857              		.loc 1 293 14 discriminator 1 view .LVU257
 858 03fc 83810028 		lwz 28,40(1)
 859              		.cfi_restore 28
 860 0400 4BFFFCFC 		b .L76
 861              	.LVL55:
 862              	.L65:
 863              		.loc 1 293 14 discriminator 1 view .LVU258
 864              	.LBE42:
 865              	.LBE47:
 866              	.LBE52:
 867              	.LBB53:
 868              	.LBB36:
 869              	.LBB33:
 870              		.loc 1 212 5 is_stmt 1 view .LVU259
 871              		.loc 1 212 18 is_stmt 0 view .LVU260
 872 0404 811E0008 		lwz 8,8(30)
 873              		.loc 1 213 38 view .LVU261
 874 0408 80E90008 		lwz 7,8(9)
 875              		.loc 1 212 24 view .LVU262
 876 040c 81480014 		lwz 10,20(8)
 877              	.LVL56:
 878              		.loc 1 213 5 is_stmt 1 view .LVU263
 879              		.loc 1 213 38 is_stmt 0 view .LVU264
 880 0410 80E70014 		lwz 7,20(7)
 881              	.LVL57:
 882              		.loc 1 216 5 is_stmt 1 view .LVU265
 883              		.loc 1 217 5 view .LVU266
 884              		.loc 1 219 5 view .LVU267
 885 0414 2C0A0000 		cmpwi 0,10,0
 886 0418 41820028 		beq- 0,.L67
 887 041c 7D4A3838 		and 10,10,7
 888              	.LVL58:
 889              		.loc 1 220 27 is_stmt 0 view .LVU268
 890 0420 5547801F 		slwi. 7,10,16
 891              	.LVL59:
 892              		.loc 1 220 27 view .LVU269
 893 0424 40820034 		bne- 0,.L68
 894              		.loc 1 221 30 view .LVU270
 895 0428 554A843F 		srwi. 10,10,16
 896 042c 41820014 		beq- 0,.L67
 897              		.loc 1 222 67 view .LVU271
 898 0430 814800F8 		lwz 10,248(8)
 899 0434 394AFFFE 		addi 10,10,-2
 900              		.loc 1 222 30 view .LVU272
 901 0438 280A0001 		cmplwi 0,10,1
 902 043c 4081001C 		ble- 0,.L68
 903              	.L67:
 904              		.loc 1 223 21 view .LVU273
 905 0440 A15E0160 		lhz 10,352(30)
 906 0444 A0E90160 		lhz 7,352(9)
 907 0448 7D4A3838 		and 10,10,7
 908              		.loc 1 222 113 discriminator 1 view .LVU274
 909 044c 554A043E 		rlwinm 10,10,0,0xffff
 910 0450 2C0A0000 		cmpwi 0,10,0
 911 0454 41A2FC70 		beq- 0,.L74
 912              	.L68:
 913              		.loc 1 228 7 is_stmt 1 view .LVU275
 914 0458 815F0068 		lwz 10,104(31)
 915 045c 2C0A0001 		cmpwi 0,10,1
 916 0460 4182019C 		beq- 0,.L216
 917              		.loc 1 238 12 view .LVU276
 918 0464 89290000 		lbz 9,0(9)
 919              	.LVL60:
 920              		.loc 1 238 12 is_stmt 0 view .LVU277
 921 0468 2C090002 		cmpwi 0,9,2
 922 046c 4182001C 		beq- 0,.L208
 923              		.loc 1 242 12 is_stmt 1 view .LVU278
 924              		.loc 1 242 64 is_stmt 0 view .LVU279
 925 0470 2C090003 		cmpwi 0,9,3
 926 0474 4082FC50 		bne+ 0,.L74
 927              		.loc 1 243 33 view .LVU280
 928 0478 807F007C 		lwz 3,124(31)
 929 047c 48000001 		bl _ZN10GuiElement9IsFocusedEv
 930              	.LVL61:
 931              		.loc 1 242 64 discriminator 1 view .LVU281
 932 0480 2C030000 		cmpwi 0,3,0
 933 0484 41A2FC40 		beq- 0,.L74
 934              	.L208:
 935              		.loc 1 245 8 is_stmt 1 view .LVU282
 936              		.loc 1 245 22 is_stmt 0 view .LVU283
 937 0488 813F0000 		lwz 9,0(31)
 938 048c 38800002 		li 4,2
 939 0490 80BE0004 		lwz 5,4(30)
 940 0494 7FE3FB78 		mr 3,31
 941 0498 81290010 		lwz 9,16(9)
 942 049c 7D2903A6 		mtctr 9
 943 04a0 4E800421 		bctrl
 944              	.LVL62:
 945              		.loc 1 207 3 is_stmt 1 discriminator 2 view .LVU284
 946              		.loc 1 207 17 discriminator 1 view .LVU285
 947 04a4 4BFFFC20 		b .L74
 948              	.LVL63:
 949              	.L62:
 950              		.loc 1 212 5 view .LVU286
 951              		.loc 1 212 18 is_stmt 0 view .LVU287
 952 04a8 811E0008 		lwz 8,8(30)
 953              		.loc 1 213 38 view .LVU288
 954 04ac 80E90008 		lwz 7,8(9)
 955              		.loc 1 212 24 view .LVU289
 956 04b0 81480014 		lwz 10,20(8)
 957              	.LVL64:
 958              		.loc 1 213 5 is_stmt 1 view .LVU290
 959              		.loc 1 213 38 is_stmt 0 view .LVU291
 960 04b4 80E70014 		lwz 7,20(7)
 961              	.LVL65:
 962              		.loc 1 216 5 is_stmt 1 view .LVU292
 963              		.loc 1 217 5 view .LVU293
 964              		.loc 1 219 5 view .LVU294
 965 04b8 2C0A0000 		cmpwi 0,10,0
 966 04bc 41820028 		beq- 0,.L56
 967 04c0 7D4A3838 		and 10,10,7
 968              	.LVL66:
 969              		.loc 1 220 27 is_stmt 0 view .LVU295
 970 04c4 5547801F 		slwi. 7,10,16
 971              	.LVL67:
 972              		.loc 1 220 27 view .LVU296
 973 04c8 40820034 		bne- 0,.L61
 974              		.loc 1 221 30 view .LVU297
 975 04cc 554A843F 		srwi. 10,10,16
 976 04d0 41820014 		beq- 0,.L56
 977              		.loc 1 222 67 view .LVU298
 978 04d4 814800F8 		lwz 10,248(8)
 979 04d8 394AFFFE 		addi 10,10,-2
 980              		.loc 1 222 30 view .LVU299
 981 04dc 280A0001 		cmplwi 0,10,1
 982 04e0 4081001C 		ble- 0,.L61
 983              	.L56:
 984              		.loc 1 223 21 view .LVU300
 985 04e4 A15E0160 		lhz 10,352(30)
 986 04e8 A0E90160 		lhz 7,352(9)
 987 04ec 7D4A3838 		and 10,10,7
 988              		.loc 1 222 113 discriminator 1 view .LVU301
 989 04f0 554A043E 		rlwinm 10,10,0,0xffff
 990 04f4 2C0A0000 		cmpwi 0,10,0
 991 04f8 41A2FBA8 		beq- 0,.L59
 992              	.L61:
 993              		.loc 1 228 7 is_stmt 1 view .LVU302
 994 04fc 815F0068 		lwz 10,104(31)
 995 0500 2C0A0001 		cmpwi 0,10,1
 996 0504 418200BC 		beq- 0,.L57
 997              		.loc 1 238 12 view .LVU303
 998 0508 89290000 		lbz 9,0(9)
 999              	.LVL68:
 1000              		.loc 1 238 12 is_stmt 0 view .LVU304
 1001 050c 2C090002 		cmpwi 0,9,2
 1002 0510 4182001C 		beq- 0,.L58
 1003              		.loc 1 242 12 is_stmt 1 view .LVU305
 1004              		.loc 1 242 64 is_stmt 0 view .LVU306
 1005 0514 2C090003 		cmpwi 0,9,3
 1006 0518 4082FB88 		bne+ 0,.L59
 1007              		.loc 1 243 33 view .LVU307
 1008 051c 807F007C 		lwz 3,124(31)
 1009 0520 48000001 		bl _ZN10GuiElement9IsFocusedEv
 1010              	.LVL69:
 1011              		.loc 1 242 64 discriminator 1 view .LVU308
 1012 0524 2C030000 		cmpwi 0,3,0
 1013 0528 41A2FB78 		beq- 0,.L59
 1014              	.L58:
 1015              		.loc 1 240 8 is_stmt 1 view .LVU309
 1016              		.loc 1 240 22 is_stmt 0 view .LVU310
 1017 052c 813F0000 		lwz 9,0(31)
 1018 0530 38800002 		li 4,2
 1019 0534 80BE0004 		lwz 5,4(30)
 1020 0538 7FE3FB78 		mr 3,31
 1021 053c 81290010 		lwz 9,16(9)
 1022 0540 7D2903A6 		mtctr 9
 1023 0544 4E800421 		bctrl
 1024              	.LVL70:
 1025 0548 4BFFFB58 		b .L59
 1026              	.LVL71:
 1027              	.L89:
 1028              		.cfi_offset 26, -24
 1029              		.cfi_offset 27, -20
 1030              		.cfi_offset 28, -16
 1031              		.loc 1 240 22 view .LVU311
 1032              	.LBE33:
 1033              	.LBE36:
 1034              	.LBE53:
 1035              	.LBB54:
 1036              	.LBB48:
 1037              	.LBB43:
 1038              		.loc 1 289 6 is_stmt 1 view .LVU312
 1039 054c 89290000 		lbz 9,0(9)
 1040 0550 2C090001 		cmpwi 0,9,1
 1041 0554 4082FE98 		bne+ 0,.L88
 1042              	.LVL72:
 1043              		.loc 1 297 10 view .LVU313
 1044              		.loc 1 297 18 is_stmt 0 discriminator 1 view .LVU314
 1045 0558 2C070002 		cmpwi 0,7,2
 1046 055c 41820128 		beq- 0,.L217
 1047              	.L202:
 1048 0560 83410020 		lwz 26,32(1)
 1049              		.cfi_restore 26
 1050              	.LVL73:
 1051              		.loc 1 297 18 discriminator 1 view .LVU315
 1052 0564 83610024 		lwz 27,36(1)
 1053              		.cfi_restore 27
 1054              	.LVL74:
 1055              		.loc 1 297 18 discriminator 1 view .LVU316
 1056 0568 83810028 		lwz 28,40(1)
 1057              		.cfi_restore 28
 1058 056c 4BFFFB94 		b .L83
 1059              	.LVL75:
 1060              	.L45:
 1061              		.loc 1 297 18 discriminator 1 view .LVU317
 1062              	.LBE43:
 1063              	.LBE48:
 1064              	.LBE54:
 1065              		.loc 1 189 4 is_stmt 1 view .LVU318
 1066 0570 2C090001 		cmpwi 0,9,1
 1067 0574 418201E8 		beq- 0,.L218
 1068              	.L48:
 1069              		.loc 1 192 4 view .LVU319
 1070 0578 815F0050 		lwz 10,80(31)
 1071 057c 813F005C 		lwz 9,92(31)
 1072 0580 7C0A4800 		cmpw 0,10,9
 1073 0584 4082FAE8 		bne+ 0,.L44
 1074              		.loc 1 192 59 is_stmt 0 discriminator 1 view .LVU320
 1075 0588 815F0058 		lwz 10,88(31)
 1076              		.loc 1 192 40 discriminator 1 view .LVU321
 1077 058c 813F004C 		lwz 9,76(31)
 1078 0590 7C095000 		cmpw 0,9,10
 1079 0594 4082FAD8 		bne+ 0,.L44
 1080              		.loc 1 195 5 is_stmt 1 view .LVU322
 1081              		.loc 1 195 13 is_stmt 0 view .LVU323
 1082 0598 811F0054 		lwz 8,84(31)
 1083              		.loc 1 196 20 view .LVU324
 1084 059c 7D2900D0 		neg 9,9
 1085              		.loc 1 197 18 view .LVU325
 1086 05a0 39400064 		li 10,100
 1087              		.loc 1 196 18 view .LVU326
 1088 05a4 913F004C 		stw 9,76(31)
 1089              		.loc 1 195 13 view .LVU327
 1090 05a8 911F0048 		stw 8,72(31)
 1091              		.loc 1 196 5 is_stmt 1 view .LVU328
 1092              		.loc 1 197 5 view .LVU329
 1093              		.loc 1 197 18 is_stmt 0 view .LVU330
 1094 05ac 915F0050 		stw 10,80(31)
 1095 05b0 4BFFFABC 		b .L44
 1096              	.LVL76:
 1097              	.L214:
 1098              		.cfi_offset 26, -24
 1099              		.cfi_offset 27, -20
 1100              		.cfi_offset 28, -16
 1101              	.LBB55:
 1102              	.LBB49:
 1103              	.LBB44:
 1104              		.loc 1 278 45 discriminator 1 view .LVU331
 1105 05b4 80FF0068 		lwz 7,104(31)
 1106              		.loc 1 264 26 view .LVU332
 1107 05b8 7F6ADB78 		mr 10,27
 1108 05bc 4BFFFDE8 		b .L90
 1109              	.LVL77:
 1110              	.L57:
 1111              		.cfi_restore 26
 1112              		.cfi_restore 27
 1113              		.cfi_restore 28
 1114              		.loc 1 264 26 view .LVU333
 1115              	.LBE44:
 1116              	.LBE49:
 1117              	.LBE55:
 1118              	.LBB56:
 1119              	.LBB37:
 1120              	.LBB34:
 1121              		.loc 1 230 8 is_stmt 1 view .LVU334
 1122              		.loc 1 230 30 is_stmt 0 view .LVU335
 1123 05c0 812800AC 		lwz 9,172(8)
 1124              	.LVL78:
 1125              		.loc 1 230 30 view .LVU336
 1126 05c4 2C090000 		cmpwi 0,9,0
 1127 05c8 4082022C 		bne- 0,.L219
 1128              	.LVL79:
 1129              	.L60:
 1130              		.loc 1 232 9 is_stmt 1 view .LVU337
 1131              		.loc 1 232 23 is_stmt 0 view .LVU338
 1132 05cc 813F0000 		lwz 9,0(31)
 1133 05d0 7FE3FB78 		mr 3,31
 1134 05d4 80BE0004 		lwz 5,4(30)
 1135 05d8 38800002 		li 4,2
 1136 05dc 81290010 		lwz 9,16(9)
 1137 05e0 7D2903A6 		mtctr 9
 1138 05e4 4E800421 		bctrl
 1139              	.LVL80:
 1140              		.loc 1 234 9 is_stmt 1 view .LVU339
 1141              		.loc 1 234 12 is_stmt 0 view .LVU340
 1142 05e8 807F00DC 		lwz 3,220(31)
 1143              		.loc 1 234 9 view .LVU341
 1144 05ec 2C030000 		cmpwi 0,3,0
 1145 05f0 41A2FAB0 		beq- 0,.L59
 1146              		.loc 1 235 10 is_stmt 1 view .LVU342
 1147              		.loc 1 235 26 is_stmt 0 view .LVU343
 1148 05f4 48000001 		bl _ZN8GuiSound4PlayEv
 1149              	.LVL81:
 1150 05f8 4BFFFAA8 		b .L59
 1151              	.LVL82:
 1152              	.L216:
 1153              		.loc 1 230 8 is_stmt 1 view .LVU344
 1154              		.loc 1 230 30 is_stmt 0 view .LVU345
 1155 05fc 812800AC 		lwz 9,172(8)
 1156              	.LVL83:
 1157              		.loc 1 230 30 view .LVU346
 1158 0600 2C090000 		cmpwi 0,9,0
 1159 0604 4082022C 		bne- 0,.L70
 1160              	.LVL84:
 1161              	.L72:
 1162              		.loc 1 232 9 is_stmt 1 view .LVU347
 1163              		.loc 1 232 23 is_stmt 0 view .LVU348
 1164 0608 813F0000 		lwz 9,0(31)
 1165 060c 7FE3FB78 		mr 3,31
 1166 0610 80BE0004 		lwz 5,4(30)
 1167 0614 38800002 		li 4,2
 1168 0618 81290010 		lwz 9,16(9)
 1169 061c 7D2903A6 		mtctr 9
 1170 0620 4E800421 		bctrl
 1171              	.LVL85:
 1172              		.loc 1 234 9 is_stmt 1 view .LVU349
 1173              		.loc 1 234 12 is_stmt 0 view .LVU350
 1174 0624 807F00DC 		lwz 3,220(31)
 1175              		.loc 1 234 9 view .LVU351
 1176 0628 2C030000 		cmpwi 0,3,0
 1177 062c 41A2FA98 		beq- 0,.L74
 1178              		.loc 1 235 10 is_stmt 1 view .LVU352
 1179              		.loc 1 235 26 is_stmt 0 view .LVU353
 1180 0630 48000001 		bl _ZN8GuiSound4PlayEv
 1181              	.LVL86:
 1182 0634 4BFFFA90 		b .L74
 1183              	.LVL87:
 1184              	.L215:
 1185              		.cfi_offset 26, -24
 1186              		.cfi_offset 27, -20
 1187              		.cfi_offset 28, -16
 1188              		.loc 1 235 26 view .LVU354
 1189              	.LBE34:
 1190              	.LBE37:
 1191              	.LBE56:
 1192              	.LBB57:
 1193              	.LBB50:
 1194              	.LBB45:
 1195              		.loc 1 278 42 discriminator 1 view .LVU355
 1196 0638 2C070001 		cmpwi 0,7,1
 1197 063c 4082FD68 		bne+ 0,.L90
 1198              		.loc 1 279 11 view .LVU356
 1199 0640 80BE0004 		lwz 5,4(30)
 1200              		.loc 1 279 19 view .LVU357
 1201 0644 80DF006C 		lwz 6,108(31)
 1202              		.loc 1 278 69 discriminator 2 view .LVU358
 1203 0648 7C062800 		cmpw 0,6,5
 1204 064c 4182000C 		beq- 0,.L92
 1205              		.loc 1 279 29 view .LVU359
 1206 0650 2C06FFFF 		cmpwi 0,6,-1
 1207 0654 4082FD50 		bne+ 0,.L90
 1208              	.L92:
 1209              		.loc 1 280 7 is_stmt 1 view .LVU360
 1210              		.loc 1 280 21 is_stmt 0 view .LVU361
 1211 0658 813F0000 		lwz 9,0(31)
 1212 065c 38800002 		li 4,2
 1213 0660 7FE3FB78 		mr 3,31
 1214 0664 81290010 		lwz 9,16(9)
 1215 0668 7D2903A6 		mtctr 9
 1216 066c 4E800421 		bctrl
 1217              	.LVL88:
 1218              		.loc 1 284 10 view .LVU362
 1219 0670 811E0008 		lwz 8,8(30)
 1220              		.loc 1 287 32 view .LVU363
 1221 0674 813F0074 		lwz 9,116(31)
 1222              		.loc 1 284 16 view .LVU364
 1223 0678 8148000C 		lwz 10,12(8)
 1224              		.loc 1 293 17 discriminator 1 view .LVU365
 1225 067c 80FF0068 		lwz 7,104(31)
 1226 0680 4BFFFD24 		b .L90
 1227              	.LVL89:
 1228              	.L217:
 1229              		.loc 1 297 63 discriminator 2 view .LVU366
 1230 0684 80BE0004 		lwz 5,4(30)
 1231              		.loc 1 297 44 discriminator 2 view .LVU367
 1232 0688 813F006C 		lwz 9,108(31)
 1233 068c 7C054800 		cmpw 0,5,9
 1234 0690 4082FED0 		bne+ 0,.L202
 1235              		.loc 1 299 6 is_stmt 1 view .LVU368
 1236              		.loc 1 299 20 is_stmt 0 view .LVU369
 1237 0694 813F0000 		lwz 9,0(31)
 1238 0698 38800003 		li 4,3
 1239 069c 7FE3FB78 		mr 3,31
 1240 06a0 81290010 		lwz 9,16(9)
 1241 06a4 7D2903A6 		mtctr 9
 1242 06a8 4E800421 		bctrl
 1243              	.LVL90:
 1244 06ac 83410020 		lwz 26,32(1)
 1245              		.cfi_remember_state
 1246              		.cfi_restore 26
 1247              	.LVL91:
 1248              		.loc 1 299 20 view .LVU370
 1249 06b0 83610024 		lwz 27,36(1)
 1250              		.cfi_restore 27
 1251              	.LVL92:
 1252              		.loc 1 299 20 view .LVU371
 1253 06b4 83810028 		lwz 28,40(1)
 1254              		.cfi_restore 28
 1255 06b8 4BFFFA48 		b .L83
 1256              	.LVL93:
 1257              	.L98:
 1258              		.cfi_restore_state
 1259              		.loc 1 278 6 is_stmt 1 view .LVU372
 1260 06bc 88C90000 		lbz 6,0(9)
 1261 06c0 7F8AE378 		mr 10,28
 1262              		.loc 1 278 45 is_stmt 0 discriminator 1 view .LVU373
 1263 06c4 80FF0068 		lwz 7,104(31)
 1264              		.loc 1 278 6 view .LVU374
 1265 06c8 2C060001 		cmpwi 0,6,1
 1266 06cc 4082FACC 		bne+ 0,.L99
 1267              	.LVL94:
 1268              		.loc 1 278 42 discriminator 1 view .LVU375
 1269 06d0 2C070001 		cmpwi 0,7,1
 1270 06d4 4082FAC4 		bne+ 0,.L99
 1271              		.loc 1 279 11 view .LVU376
 1272 06d8 80BE0004 		lwz 5,4(30)
 1273              		.loc 1 279 19 view .LVU377
 1274 06dc 80DF006C 		lwz 6,108(31)
 1275              		.loc 1 278 69 discriminator 2 view .LVU378
 1276 06e0 7C053000 		cmpw 0,5,6
 1277 06e4 4182000C 		beq- 0,.L100
 1278              		.loc 1 279 29 view .LVU379
 1279 06e8 2C06FFFF 		cmpwi 0,6,-1
 1280 06ec 4082FAAC 		bne+ 0,.L99
 1281              	.L100:
 1282              		.loc 1 280 7 is_stmt 1 view .LVU380
 1283              		.loc 1 280 21 is_stmt 0 view .LVU381
 1284 06f0 813F0000 		lwz 9,0(31)
 1285 06f4 38800002 		li 4,2
 1286 06f8 7FE3FB78 		mr 3,31
 1287 06fc 81290010 		lwz 9,16(9)
 1288 0700 7D2903A6 		mtctr 9
 1289 0704 4E800421 		bctrl
 1290              	.LVL95:
 1291              		.loc 1 284 10 view .LVU382
 1292 0708 811E0008 		lwz 8,8(30)
 1293              		.loc 1 287 32 view .LVU383
 1294 070c 813F0078 		lwz 9,120(31)
 1295              		.loc 1 284 16 view .LVU384
 1296 0710 8148000C 		lwz 10,12(8)
 1297              		.loc 1 293 17 discriminator 1 view .LVU385
 1298 0714 80FF0068 		lwz 7,104(31)
 1299 0718 4BFFFA80 		b .L99
 1300              	.LVL96:
 1301              	.L104:
 1302              		.loc 1 297 10 is_stmt 1 view .LVU386
 1303              		.loc 1 297 18 is_stmt 0 discriminator 1 view .LVU387
 1304 071c 2C070002 		cmpwi 0,7,2
 1305 0720 4082FAE0 		bne+ 0,.L207
 1306              		.loc 1 297 63 discriminator 2 view .LVU388
 1307 0724 813E0004 		lwz 9,4(30)
 1308              		.loc 1 297 44 discriminator 2 view .LVU389
 1309 0728 80BF006C 		lwz 5,108(31)
 1310 072c 7C054800 		cmpw 0,5,9
 1311 0730 4082FAD0 		bne+ 0,.L207
 1312              		.loc 1 299 6 is_stmt 1 view .LVU390
 1313              		.loc 1 299 20 is_stmt 0 view .LVU391
 1314 0734 813F0000 		lwz 9,0(31)
 1315 0738 38800003 		li 4,3
 1316 073c 7FE3FB78 		mr 3,31
 1317 0740 81290010 		lwz 9,16(9)
 1318 0744 7D2903A6 		mtctr 9
 1319 0748 4E800421 		bctrl
 1320              	.LVL97:
 1321 074c 83410020 		lwz 26,32(1)
 1322              		.cfi_restore 26
 1323              	.LVL98:
 1324              		.loc 1 299 20 view .LVU392
 1325 0750 83610024 		lwz 27,36(1)
 1326              		.cfi_restore 27
 1327              	.LVL99:
 1328              		.loc 1 299 20 view .LVU393
 1329 0754 83810028 		lwz 28,40(1)
 1330              		.cfi_restore 28
 1331 0758 4BFFFAB4 		b .L52
 1332              	.LVL100:
 1333              	.L218:
 1334              		.loc 1 299 20 view .LVU394
 1335              	.LBE45:
 1336              	.LBE50:
 1337              	.LBE57:
 1338              		.loc 1 189 35 discriminator 1 view .LVU395
 1339 075c 813F006C 		lwz 9,108(31)
 1340              		.loc 1 189 31 discriminator 1 view .LVU396
 1341 0760 815E0004 		lwz 10,4(30)
 1342 0764 7C095000 		cmpw 0,9,10
 1343 0768 4182000C 		beq- 0,.L49
 1344              		.loc 1 189 56 discriminator 2 view .LVU397
 1345 076c 2C09FFFF 		cmpwi 0,9,-1
 1346 0770 4082FE08 		bne+ 0,.L48
 1347              	.L49:
 1348              		.loc 1 190 5 is_stmt 1 view .LVU398
 1349              		.loc 1 190 21 is_stmt 0 view .LVU399
 1350 0774 813F0000 		lwz 9,0(31)
 1351 0778 7FE3FB78 		mr 3,31
 1352 077c 81290014 		lwz 9,20(9)
 1353 0780 7D2903A6 		mtctr 9
 1354 0784 4E800421 		bctrl
 1355              	.LVL101:
 1356 0788 4BFFFDF0 		b .L48
 1357              	.LVL102:
 1358              	.L212:
 1359              		.cfi_offset 26, -24
 1360              		.cfi_offset 27, -20
 1361              		.cfi_offset 28, -16
 1362              	.LBB58:
 1363              	.LBB51:
 1364              	.LBB46:
 1365              		.loc 1 293 37 discriminator 2 view .LVU400
 1366 078c 813E0004 		lwz 9,4(30)
 1367 0790 815F006C 		lwz 10,108(31)
 1368 0794 7C0A4800 		cmpw 0,10,9
 1369 0798 4082FA68 		bne+ 0,.L207
 1370              		.loc 1 295 6 is_stmt 1 view .LVU401
 1371              		.loc 1 295 22 is_stmt 0 view .LVU402
 1372 079c 813F0000 		lwz 9,0(31)
 1373 07a0 7FE3FB78 		mr 3,31
 1374 07a4 81290014 		lwz 9,20(9)
 1375 07a8 7D2903A6 		mtctr 9
 1376 07ac 4E800421 		bctrl
 1377              	.LVL103:
 1378 07b0 83410020 		lwz 26,32(1)
 1379              		.cfi_remember_state
 1380              		.cfi_restore 26
 1381              	.LVL104:
 1382              		.loc 1 295 22 view .LVU403
 1383 07b4 83610024 		lwz 27,36(1)
 1384              		.cfi_restore 27
 1385              	.LVL105:
 1386              		.loc 1 295 22 view .LVU404
 1387 07b8 83810028 		lwz 28,40(1)
 1388              		.cfi_restore 28
 1389 07bc 4BFFFA50 		b .L52
 1390              	.LVL106:
 1391              	.L85:
 1392              		.cfi_restore_state
 1393              		.loc 1 293 37 discriminator 2 view .LVU405
 1394 07c0 815E0004 		lwz 10,4(30)
 1395 07c4 813F006C 		lwz 9,108(31)
 1396 07c8 7C0A4800 		cmpw 0,10,9
 1397 07cc 4082FC28 		bne+ 0,.L203
 1398              		.loc 1 295 6 is_stmt 1 view .LVU406
 1399              		.loc 1 295 22 is_stmt 0 view .LVU407
 1400 07d0 813F0000 		lwz 9,0(31)
 1401 07d4 7FE3FB78 		mr 3,31
 1402 07d8 81290014 		lwz 9,20(9)
 1403 07dc 7D2903A6 		mtctr 9
 1404 07e0 4E800421 		bctrl
 1405              	.LVL107:
 1406 07e4 83410020 		lwz 26,32(1)
 1407              		.cfi_restore 26
 1408              	.LVL108:
 1409              		.loc 1 295 22 view .LVU408
 1410 07e8 83610024 		lwz 27,36(1)
 1411              		.cfi_restore 27
 1412              	.LVL109:
 1413              		.loc 1 295 22 view .LVU409
 1414 07ec 83810028 		lwz 28,40(1)
 1415              		.cfi_restore 28
 1416 07f0 4BFFF90C 		b .L76
 1417              	.LVL110:
 1418              	.L219:
 1419              		.loc 1 295 22 view .LVU410
 1420              	.LBE46:
 1421              	.LBE51:
 1422              	.LBE58:
 1423              	.LBB59:
 1424              	.LBB38:
 1425              	.LBB35:
 1426              		.loc 1 230 47 discriminator 2 view .LVU411
 1427 07f4 C18800B4 		lfs 12,180(8)
 1428 07f8 39210010 		addi 9,1,16
 1429 07fc C00800B0 		lfs 0,176(8)
 1430 0800 7FE3FB78 		mr 3,31
 1431 0804 FD80601E 		fctiwz 12,12
 1432 0808 FC00001E 		fctiwz 0,0
 1433 080c 7D804FAE 		stfiwx 12,0,9
 1434              	.LVL111:
 1435              		.loc 1 230 47 discriminator 2 view .LVU412
 1436 0810 39210014 		addi 9,1,20
 1437 0814 7C004FAE 		stfiwx 0,0,9
 1438 0818 80A10010 		lwz 5,16(1)
 1439 081c 80810014 		lwz 4,20(1)
 1440 0820 48000001 		bl _ZN10GuiElement8IsInsideEii
 1441              	.LVL112:
 1442              		.loc 1 230 30 discriminator 1 view .LVU413
 1443 0824 2C030000 		cmpwi 0,3,0
 1444 0828 41A2F878 		beq- 0,.L59
 1445 082c 4BFFFDA0 		b .L60
 1446              	.LVL113:
 1447              	.L70:
 1448              		.loc 1 230 47 discriminator 2 view .LVU414
 1449 0830 C18800B4 		lfs 12,180(8)
 1450 0834 39210008 		addi 9,1,8
 1451 0838 C00800B0 		lfs 0,176(8)
 1452 083c 7FE3FB78 		mr 3,31
 1453 0840 FD80601E 		fctiwz 12,12
 1454 0844 FC00001E 		fctiwz 0,0
 1455 0848 7D804FAE 		stfiwx 12,0,9
 1456              	.LVL114:
 1457              		.loc 1 230 47 discriminator 2 view .LVU415
 1458 084c 3921000C 		addi 9,1,12
 1459 0850 7C004FAE 		stfiwx 0,0,9
 1460 0854 80A10008 		lwz 5,8(1)
 1461 0858 8081000C 		lwz 4,12(1)
 1462 085c 48000001 		bl _ZN10GuiElement8IsInsideEii
 1463              	.LVL115:
 1464              		.loc 1 230 30 discriminator 1 view .LVU416
 1465 0860 2C030000 		cmpwi 0,3,0
 1466 0864 40A2FDA4 		bne- 0,.L72
 1467 0868 4BFFF85C 		b .L74
 1468              	.LBE35:
 1469              	.LBE38:
 1470              	.LBE59:
 1471              	.LBE62:
 1472              	.LBE64:
 1473              		.cfi_endproc
 1474              	.LFE2355:
 1475              		.size	_ZN9GuiButton6UpdateEP10GuiTrigger, .-_ZN9GuiButton6UpdateEP10GuiTrigger
 1476              		.section	.text._ZN9GuiButtonC2Eii,"ax",@progbits
 1477              		.align 2
 1478              		.globl _ZN9GuiButtonC2Eii
 1479              		.type	_ZN9GuiButtonC2Eii, @function
 1480              	_ZN9GuiButtonC2Eii:
 1481              	.LVL116:
 1482              	.LFB2333:
 1483              		.loc 1 16 1 is_stmt 1 view -0
 1484              		.cfi_startproc
 1485              		.loc 1 16 1 is_stmt 0 view .LVU418
 1486 0000 9421FFE8 		stwu 1,-24(1)
 1487              		.cfi_def_cfa_offset 24
 1488 0004 7C0802A6 		mflr 0
 1489 0008 9001001C 		stw 0,28(1)
 1490 000c 93810008 		stw 28,8(1)
 1491              		.cfi_offset 65, 4
 1492              		.cfi_offset 28, -16
 1493 0010 7C9C2378 		mr 28,4
 1494 0014 93A1000C 		stw 29,12(1)
 1495              		.cfi_offset 29, -12
 1496 0018 7CBD2B78 		mr 29,5
 1497 001c 93C10010 		stw 30,16(1)
 1498              		.cfi_offset 30, -8
 1499              	.LBB65:
 1500              	.LBB66:
 1501              		.loc 1 20 8 view .LVU419
 1502 0020 3BC00000 		li 30,0
 1503              	.LBE66:
 1504              	.LBE65:
 1505              		.loc 1 16 1 view .LVU420
 1506 0024 93E10014 		stw 31,20(1)
 1507              		.cfi_offset 31, -4
 1508              		.loc 1 16 1 view .LVU421
 1509 0028 7C7F1B78 		mr 31,3
 1510              	.LBB75:
 1511              		.loc 1 16 34 view .LVU422
 1512 002c 48000001 		bl _ZN10GuiElementC2Ev
 1513              	.LVL117:
 1514              		.loc 1 16 34 discriminator 1 view .LVU423
 1515 0030 3D200000 		lis 9,_ZTV9GuiButton+8@ha
 1516 0034 39290000 		la 9,_ZTV9GuiButton+8@l(9)
 1517              	.LBB71:
 1518              		.loc 1 18 8 view .LVU424
 1519 0038 939F000C 		stw 28,12(31)
 1520              		.loc 1 19 9 view .LVU425
 1521 003c 93BF0010 		stw 29,16(31)
 1522              	.LBB67:
 1523              		.loc 1 31 12 view .LVU426
 1524 0040 387F00A4 		addi 3,31,164
 1525              	.LBE67:
 1526              	.LBE71:
 1527              		.loc 1 16 34 discriminator 1 view .LVU427
 1528 0044 913F0000 		stw 9,0(31)
 1529              	.LBB72:
 1530              		.loc 1 18 2 is_stmt 1 view .LVU428
 1531              		.loc 1 19 2 view .LVU429
 1532              		.loc 1 20 2 view .LVU430
 1533              	.LBB68:
 1534              		.loc 1 31 12 is_stmt 0 view .LVU431
 1535 0048 38A00030 		li 5,48
 1536              	.LBE68:
 1537              		.loc 1 20 8 view .LVU432
 1538 004c 93DF0084 		stw 30,132(31)
 1539              		.loc 1 21 2 is_stmt 1 view .LVU433
 1540              	.LBB69:
 1541              		.loc 1 31 12 is_stmt 0 view .LVU434
 1542 0050 38800000 		li 4,0
 1543              	.LBE69:
 1544              		.loc 1 21 12 view .LVU435
 1545 0054 93DF0088 		stw 30,136(31)
 1546              		.loc 1 22 2 is_stmt 1 view .LVU436
 1547              		.loc 1 22 12 is_stmt 0 view .LVU437
 1548 0058 93DF008C 		stw 30,140(31)
 1549              		.loc 1 23 2 is_stmt 1 view .LVU438
 1550              		.loc 1 23 13 is_stmt 0 view .LVU439
 1551 005c 93DF0090 		stw 30,144(31)
 1552              		.loc 1 24 2 is_stmt 1 view .LVU440
 1553              		.loc 1 24 7 is_stmt 0 view .LVU441
 1554 0060 93DF0094 		stw 30,148(31)
 1555              		.loc 1 25 2 is_stmt 1 view .LVU442
 1556              		.loc 1 25 11 is_stmt 0 view .LVU443
 1557 0064 93DF0098 		stw 30,152(31)
 1558              		.loc 1 26 2 is_stmt 1 view .LVU444
 1559              		.loc 1 26 11 is_stmt 0 view .LVU445
 1560 0068 93DF009C 		stw 30,156(31)
 1561              		.loc 1 27 2 is_stmt 1 view .LVU446
 1562              		.loc 1 27 12 is_stmt 0 view .LVU447
 1563 006c 93DF00A0 		stw 30,160(31)
 1564              		.loc 1 29 2 is_stmt 1 view .LVU448
 1565              	.LVL118:
 1566              	.LBB70:
 1567              		.loc 1 29 17 discriminator 1 view .LVU449
 1568              		.loc 1 31 12 is_stmt 0 view .LVU450
 1569 0070 48000001 		bl memset
 1570              	.LVL119:
 1571              		.loc 1 31 12 view .LVU451
 1572              	.LBE70:
 1573              		.loc 1 37 2 is_stmt 1 view .LVU452
 1574              	.LBE72:
 1575              	.LBE75:
 1576              		.loc 1 43 1 is_stmt 0 view .LVU453
 1577 0074 8001001C 		lwz 0,28(1)
 1578              	.LBB76:
 1579              	.LBB73:
 1580              		.loc 1 40 13 view .LVU454
 1581 0078 39200101 		li 9,257
 1582              		.loc 1 37 12 view .LVU455
 1583 007c 93DF00D4 		stw 30,212(31)
 1584              		.loc 1 38 2 is_stmt 1 view .LVU456
 1585              		.loc 1 38 12 is_stmt 0 view .LVU457
 1586 0080 93DF00D8 		stw 30,216(31)
 1587              		.loc 1 39 2 is_stmt 1 view .LVU458
 1588              	.LBE73:
 1589              	.LBE76:
 1590              		.loc 1 43 1 is_stmt 0 view .LVU459
 1591 0084 7C0803A6 		mtlr 0
 1592              		.cfi_restore 65
 1593              	.LBB77:
 1594              	.LBB74:
 1595              		.loc 1 39 13 view .LVU460
 1596 0088 93DF00DC 		stw 30,220(31)
 1597              		.loc 1 40 2 is_stmt 1 view .LVU461
 1598              		.loc 1 41 2 view .LVU462
 1599              		.loc 1 42 2 view .LVU463
 1600              		.loc 1 41 11 is_stmt 0 view .LVU464
 1601 008c 9BDF0072 		stb 30,114(31)
 1602              		.loc 1 40 13 view .LVU465
 1603 0090 B13F0070 		sth 9,112(31)
 1604              	.LBE74:
 1605              	.LBE77:
 1606              		.loc 1 43 1 view .LVU466
 1607 0094 83810008 		lwz 28,8(1)
 1608              	.LVL120:
 1609              		.loc 1 43 1 view .LVU467
 1610 0098 83A1000C 		lwz 29,12(1)
 1611              	.LVL121:
 1612              		.loc 1 43 1 view .LVU468
 1613 009c 83C10010 		lwz 30,16(1)
 1614 00a0 83E10014 		lwz 31,20(1)
 1615              	.LVL122:
 1616              		.loc 1 43 1 view .LVU469
 1617 00a4 38210018 		addi 1,1,24
 1618              		.cfi_restore 31
 1619              		.cfi_restore 30
 1620              		.cfi_restore 29
 1621              		.cfi_restore 28
 1622              		.cfi_def_cfa_offset 0
 1623 00a8 4E800020 		blr
 1624              		.cfi_endproc
 1625              	.LFE2333:
 1626              		.size	_ZN9GuiButtonC2Eii, .-_ZN9GuiButtonC2Eii
 1627              		.globl _ZN9GuiButtonC1Eii
 1628              		.set	_ZN9GuiButtonC1Eii,_ZN9GuiButtonC2Eii
 1629              		.section	.text._ZN9GuiButton8SetImageEP8GuiImage,"ax",@progbits
 1630              		.align 2
 1631              		.globl _ZN9GuiButton8SetImageEP8GuiImage
 1632              		.type	_ZN9GuiButton8SetImageEP8GuiImage, @function
 1633              	_ZN9GuiButton8SetImageEP8GuiImage:
 1634              	.LVL123:
 1635              	.LFB2339:
 1636              		.loc 1 53 1 is_stmt 1 view -0
 1637              		.cfi_startproc
 1638              		.loc 1 54 2 view .LVU471
 1639              		.loc 1 53 1 is_stmt 0 view .LVU472
 1640 0000 7C892378 		mr 9,4
 1641 0004 7C641B78 		mr 4,3
 1642              	.LVL124:
 1643              		.loc 1 55 2 view .LVU473
 1644 0008 2C090000 		cmpwi 0,9,0
 1645              		.loc 1 54 8 view .LVU474
 1646 000c 91230084 		stw 9,132(3)
 1647              		.loc 1 55 2 is_stmt 1 view .LVU475
 1648 0010 4D820020 		beqlr- 0
 1649              		.loc 1 55 10 discriminator 1 view .LVU476
 1650              		.loc 1 55 24 is_stmt 0 discriminator 1 view .LVU477
 1651 0014 7D234B78 		mr 3,9
 1652              	.LVL125:
 1653              		.loc 1 55 24 discriminator 1 view .LVU478
 1654 0018 48000000 		b _ZN10GuiElement9SetParentEPS_
 1655              	.LVL126:
 1656              		.loc 1 55 24 discriminator 1 view .LVU479
 1657              		.cfi_endproc
 1658              	.LFE2339:
 1659              		.size	_ZN9GuiButton8SetImageEP8GuiImage, .-_ZN9GuiButton8SetImageEP8GuiImage
 1660              		.section	.text._ZN9GuiButton12SetImageOverEP8GuiImage,"ax",@progbits
 1661              		.align 2
 1662              		.globl _ZN9GuiButton12SetImageOverEP8GuiImage
 1663              		.type	_ZN9GuiButton12SetImageOverEP8GuiImage, @function
 1664              	_ZN9GuiButton12SetImageOverEP8GuiImage:
 1665              	.LVL127:
 1666              	.LFB2340:
 1667              		.loc 1 58 1 is_stmt 1 view -0
 1668              		.cfi_startproc
 1669              		.loc 1 59 2 view .LVU481
 1670              		.loc 1 58 1 is_stmt 0 view .LVU482
 1671 0000 7C892378 		mr 9,4
 1672 0004 7C641B78 		mr 4,3
 1673              	.LVL128:
 1674              		.loc 1 60 2 view .LVU483
 1675 0008 2C090000 		cmpwi 0,9,0
 1676              		.loc 1 59 12 view .LVU484
 1677 000c 91230088 		stw 9,136(3)
 1678              		.loc 1 60 2 is_stmt 1 view .LVU485
 1679 0010 4D820020 		beqlr- 0
 1680              		.loc 1 60 10 discriminator 1 view .LVU486
 1681              		.loc 1 60 24 is_stmt 0 discriminator 1 view .LVU487
 1682 0014 7D234B78 		mr 3,9
 1683              	.LVL129:
 1684              		.loc 1 60 24 discriminator 1 view .LVU488
 1685 0018 48000000 		b _ZN10GuiElement9SetParentEPS_
 1686              	.LVL130:
 1687              		.loc 1 60 24 discriminator 1 view .LVU489
 1688              		.cfi_endproc
 1689              	.LFE2340:
 1690              		.size	_ZN9GuiButton12SetImageOverEP8GuiImage, .-_ZN9GuiButton12SetImageOverEP8GuiImage
 1691              		.section	.text._ZN9GuiButton12SetImageHoldEP8GuiImage,"ax",@progbits
 1692              		.align 2
 1693              		.globl _ZN9GuiButton12SetImageHoldEP8GuiImage
 1694              		.type	_ZN9GuiButton12SetImageHoldEP8GuiImage, @function
 1695              	_ZN9GuiButton12SetImageHoldEP8GuiImage:
 1696              	.LVL131:
 1697              	.LFB2341:
 1698              		.loc 1 63 1 is_stmt 1 view -0
 1699              		.cfi_startproc
 1700              		.loc 1 64 2 view .LVU491
 1701              		.loc 1 63 1 is_stmt 0 view .LVU492
 1702 0000 7C892378 		mr 9,4
 1703 0004 7C641B78 		mr 4,3
 1704              	.LVL132:
 1705              		.loc 1 65 2 view .LVU493
 1706 0008 2C090000 		cmpwi 0,9,0
 1707              		.loc 1 64 12 view .LVU494
 1708 000c 9123008C 		stw 9,140(3)
 1709              		.loc 1 65 2 is_stmt 1 view .LVU495
 1710 0010 4D820020 		beqlr- 0
 1711              		.loc 1 65 10 discriminator 1 view .LVU496
 1712              		.loc 1 65 24 is_stmt 0 discriminator 1 view .LVU497
 1713 0014 7D234B78 		mr 3,9
 1714              	.LVL133:
 1715              		.loc 1 65 24 discriminator 1 view .LVU498
 1716 0018 48000000 		b _ZN10GuiElement9SetParentEPS_
 1717              	.LVL134:
 1718              		.loc 1 65 24 discriminator 1 view .LVU499
 1719              		.cfi_endproc
 1720              	.LFE2341:
 1721              		.size	_ZN9GuiButton12SetImageHoldEP8GuiImage, .-_ZN9GuiButton12SetImageHoldEP8GuiImage
 1722              		.section	.text._ZN9GuiButton13SetImageClickEP8GuiImage,"ax",@progbits
 1723              		.align 2
 1724              		.globl _ZN9GuiButton13SetImageClickEP8GuiImage
 1725              		.type	_ZN9GuiButton13SetImageClickEP8GuiImage, @function
 1726              	_ZN9GuiButton13SetImageClickEP8GuiImage:
 1727              	.LVL135:
 1728              	.LFB2342:
 1729              		.loc 1 68 1 is_stmt 1 view -0
 1730              		.cfi_startproc
 1731              		.loc 1 69 2 view .LVU501
 1732              		.loc 1 68 1 is_stmt 0 view .LVU502
 1733 0000 7C892378 		mr 9,4
 1734 0004 7C641B78 		mr 4,3
 1735              	.LVL136:
 1736              		.loc 1 70 2 view .LVU503
 1737 0008 2C090000 		cmpwi 0,9,0
 1738              		.loc 1 69 13 view .LVU504
 1739 000c 91230090 		stw 9,144(3)
 1740              		.loc 1 70 2 is_stmt 1 view .LVU505
 1741 0010 4D820020 		beqlr- 0
 1742              		.loc 1 70 10 discriminator 1 view .LVU506
 1743              		.loc 1 70 24 is_stmt 0 discriminator 1 view .LVU507
 1744 0014 7D234B78 		mr 3,9
 1745              	.LVL137:
 1746              		.loc 1 70 24 discriminator 1 view .LVU508
 1747 0018 48000000 		b _ZN10GuiElement9SetParentEPS_
 1748              	.LVL138:
 1749              		.loc 1 70 24 discriminator 1 view .LVU509
 1750              		.cfi_endproc
 1751              	.LFE2342:
 1752              		.size	_ZN9GuiButton13SetImageClickEP8GuiImage, .-_ZN9GuiButton13SetImageClickEP8GuiImage
 1753              		.section	.text._ZN9GuiButton7SetIconEP8GuiImage,"ax",@progbits
 1754              		.align 2
 1755              		.globl _ZN9GuiButton7SetIconEP8GuiImage
 1756              		.type	_ZN9GuiButton7SetIconEP8GuiImage, @function
 1757              	_ZN9GuiButton7SetIconEP8GuiImage:
 1758              	.LVL139:
 1759              	.LFB2343:
 1760              		.loc 1 73 1 is_stmt 1 view -0
 1761              		.cfi_startproc
 1762              		.loc 1 74 2 view .LVU511
 1763              		.loc 1 73 1 is_stmt 0 view .LVU512
 1764 0000 7C892378 		mr 9,4
 1765 0004 7C641B78 		mr 4,3
 1766              	.LVL140:
 1767              		.loc 1 75 2 view .LVU513
 1768 0008 2C090000 		cmpwi 0,9,0
 1769              		.loc 1 74 7 view .LVU514
 1770 000c 91230094 		stw 9,148(3)
 1771              		.loc 1 75 2 is_stmt 1 view .LVU515
 1772 0010 4D820020 		beqlr- 0
 1773              		.loc 1 75 10 discriminator 1 view .LVU516
 1774              		.loc 1 75 24 is_stmt 0 discriminator 1 view .LVU517
 1775 0014 7D234B78 		mr 3,9
 1776              	.LVL141:
 1777              		.loc 1 75 24 discriminator 1 view .LVU518
 1778 0018 48000000 		b _ZN10GuiElement9SetParentEPS_
 1779              	.LVL142:
 1780              		.loc 1 75 24 discriminator 1 view .LVU519
 1781              		.cfi_endproc
 1782              	.LFE2343:
 1783              		.size	_ZN9GuiButton7SetIconEP8GuiImage, .-_ZN9GuiButton7SetIconEP8GuiImage
 1784              		.section	.text._ZN9GuiButton11SetIconOverEP8GuiImage,"ax",@progbits
 1785              		.align 2
 1786              		.globl _ZN9GuiButton11SetIconOverEP8GuiImage
 1787              		.type	_ZN9GuiButton11SetIconOverEP8GuiImage, @function
 1788              	_ZN9GuiButton11SetIconOverEP8GuiImage:
 1789              	.LVL143:
 1790              	.LFB2344:
 1791              		.loc 1 78 1 is_stmt 1 view -0
 1792              		.cfi_startproc
 1793              		.loc 1 79 2 view .LVU521
 1794              		.loc 1 78 1 is_stmt 0 view .LVU522
 1795 0000 7C892378 		mr 9,4
 1796 0004 7C641B78 		mr 4,3
 1797              	.LVL144:
 1798              		.loc 1 80 2 view .LVU523
 1799 0008 2C090000 		cmpwi 0,9,0
 1800              		.loc 1 79 11 view .LVU524
 1801 000c 91230098 		stw 9,152(3)
 1802              		.loc 1 80 2 is_stmt 1 view .LVU525
 1803 0010 4D820020 		beqlr- 0
 1804              		.loc 1 80 10 discriminator 1 view .LVU526
 1805              		.loc 1 80 24 is_stmt 0 discriminator 1 view .LVU527
 1806 0014 7D234B78 		mr 3,9
 1807              	.LVL145:
 1808              		.loc 1 80 24 discriminator 1 view .LVU528
 1809 0018 48000000 		b _ZN10GuiElement9SetParentEPS_
 1810              	.LVL146:
 1811              		.loc 1 80 24 discriminator 1 view .LVU529
 1812              		.cfi_endproc
 1813              	.LFE2344:
 1814              		.size	_ZN9GuiButton11SetIconOverEP8GuiImage, .-_ZN9GuiButton11SetIconOverEP8GuiImage
 1815              		.section	.text._ZN9GuiButton11SetIconHoldEP8GuiImage,"ax",@progbits
 1816              		.align 2
 1817              		.globl _ZN9GuiButton11SetIconHoldEP8GuiImage
 1818              		.type	_ZN9GuiButton11SetIconHoldEP8GuiImage, @function
 1819              	_ZN9GuiButton11SetIconHoldEP8GuiImage:
 1820              	.LVL147:
 1821              	.LFB2345:
 1822              		.loc 1 83 1 is_stmt 1 view -0
 1823              		.cfi_startproc
 1824              		.loc 1 84 2 view .LVU531
 1825              		.loc 1 83 1 is_stmt 0 view .LVU532
 1826 0000 7C892378 		mr 9,4
 1827 0004 7C641B78 		mr 4,3
 1828              	.LVL148:
 1829              		.loc 1 85 2 view .LVU533
 1830 0008 2C090000 		cmpwi 0,9,0
 1831              		.loc 1 84 11 view .LVU534
 1832 000c 9123009C 		stw 9,156(3)
 1833              		.loc 1 85 2 is_stmt 1 view .LVU535
 1834 0010 4D820020 		beqlr- 0
 1835              		.loc 1 85 10 discriminator 1 view .LVU536
 1836              		.loc 1 85 24 is_stmt 0 discriminator 1 view .LVU537
 1837 0014 7D234B78 		mr 3,9
 1838              	.LVL149:
 1839              		.loc 1 85 24 discriminator 1 view .LVU538
 1840 0018 48000000 		b _ZN10GuiElement9SetParentEPS_
 1841              	.LVL150:
 1842              		.loc 1 85 24 discriminator 1 view .LVU539
 1843              		.cfi_endproc
 1844              	.LFE2345:
 1845              		.size	_ZN9GuiButton11SetIconHoldEP8GuiImage, .-_ZN9GuiButton11SetIconHoldEP8GuiImage
 1846              		.section	.text._ZN9GuiButton12SetIconClickEP8GuiImage,"ax",@progbits
 1847              		.align 2
 1848              		.globl _ZN9GuiButton12SetIconClickEP8GuiImage
 1849              		.type	_ZN9GuiButton12SetIconClickEP8GuiImage, @function
 1850              	_ZN9GuiButton12SetIconClickEP8GuiImage:
 1851              	.LVL151:
 1852              	.LFB2346:
 1853              		.loc 1 88 1 is_stmt 1 view -0
 1854              		.cfi_startproc
 1855              		.loc 1 89 2 view .LVU541
 1856              		.loc 1 88 1 is_stmt 0 view .LVU542
 1857 0000 7C892378 		mr 9,4
 1858 0004 7C641B78 		mr 4,3
 1859              	.LVL152:
 1860              		.loc 1 90 2 view .LVU543
 1861 0008 2C090000 		cmpwi 0,9,0
 1862              		.loc 1 89 12 view .LVU544
 1863 000c 912300A0 		stw 9,160(3)
 1864              		.loc 1 90 2 is_stmt 1 view .LVU545
 1865 0010 4D820020 		beqlr- 0
 1866              		.loc 1 90 10 discriminator 1 view .LVU546
 1867              		.loc 1 90 24 is_stmt 0 discriminator 1 view .LVU547
 1868 0014 7D234B78 		mr 3,9
 1869              	.LVL153:
 1870              		.loc 1 90 24 discriminator 1 view .LVU548
 1871 0018 48000000 		b _ZN10GuiElement9SetParentEPS_
 1872              	.LVL154:
 1873              		.loc 1 90 24 discriminator 1 view .LVU549
 1874              		.cfi_endproc
 1875              	.LFE2346:
 1876              		.size	_ZN9GuiButton12SetIconClickEP8GuiImage, .-_ZN9GuiButton12SetIconClickEP8GuiImage
 1877              		.section	.text._ZN9GuiButton8SetLabelEP7GuiTexti,"ax",@progbits
 1878              		.align 2
 1879              		.globl _ZN9GuiButton8SetLabelEP7GuiTexti
 1880              		.type	_ZN9GuiButton8SetLabelEP7GuiTexti, @function
 1881              	_ZN9GuiButton8SetLabelEP7GuiTexti:
 1882              	.LVL155:
 1883              	.LFB2347:
 1884              		.loc 1 93 1 is_stmt 1 view -0
 1885              		.cfi_startproc
 1886              		.loc 1 94 2 view .LVU551
 1887              		.loc 1 95 2 is_stmt 0 view .LVU552
 1888 0000 2C040000 		cmpwi 0,4,0
 1889              		.loc 1 94 11 view .LVU553
 1890 0004 38A50028 		addi 5,5,40
 1891              	.LVL156:
 1892              		.loc 1 94 11 view .LVU554
 1893 0008 54A5103A 		slwi 5,5,2
 1894              	.LVL157:
 1895              		.loc 1 93 1 view .LVU555
 1896 000c 7C892378 		mr 9,4
 1897              		.loc 1 94 11 view .LVU556
 1898 0010 7CA32A14 		add 5,3,5
 1899              		.loc 1 93 1 view .LVU557
 1900 0014 7C641B78 		mr 4,3
 1901              	.LVL158:
 1902              		.loc 1 94 11 view .LVU558
 1903 0018 91250004 		stw 9,4(5)
 1904              		.loc 1 95 2 is_stmt 1 view .LVU559
 1905 001c 4D820020 		beqlr- 0
 1906              		.loc 1 95 10 discriminator 1 view .LVU560
 1907              		.loc 1 95 24 is_stmt 0 discriminator 1 view .LVU561
 1908 0020 7D234B78 		mr 3,9
 1909              	.LVL159:
 1910              		.loc 1 95 24 discriminator 1 view .LVU562
 1911 0024 48000000 		b _ZN10GuiElement9SetParentEPS_
 1912              	.LVL160:
 1913              		.loc 1 95 24 discriminator 1 view .LVU563
 1914              		.cfi_endproc
 1915              	.LFE2347:
 1916              		.size	_ZN9GuiButton8SetLabelEP7GuiTexti, .-_ZN9GuiButton8SetLabelEP7GuiTexti
 1917              		.section	.text._ZN9GuiButton12SetLabelOverEP7GuiTexti,"ax",@progbits
 1918              		.align 2
 1919              		.globl _ZN9GuiButton12SetLabelOverEP7GuiTexti
 1920              		.type	_ZN9GuiButton12SetLabelOverEP7GuiTexti, @function
 1921              	_ZN9GuiButton12SetLabelOverEP7GuiTexti:
 1922              	.LVL161:
 1923              	.LFB2348:
 1924              		.loc 1 98 1 is_stmt 1 view -0
 1925              		.cfi_startproc
 1926              		.loc 1 99 2 view .LVU565
 1927              		.loc 1 100 2 is_stmt 0 view .LVU566
 1928 0000 2C040000 		cmpwi 0,4,0
 1929              		.loc 1 99 15 view .LVU567
 1930 0004 38A5002C 		addi 5,5,44
 1931              	.LVL162:
 1932              		.loc 1 98 1 view .LVU568
 1933 0008 7C892378 		mr 9,4
 1934              		.loc 1 99 15 view .LVU569
 1935 000c 54A5103A 		slwi 5,5,2
 1936              	.LVL163:
 1937              		.loc 1 99 15 view .LVU570
 1938 0010 7D23292E 		stwx 9,3,5
 1939              		.loc 1 100 2 is_stmt 1 view .LVU571
 1940              		.loc 1 98 1 is_stmt 0 view .LVU572
 1941 0014 7C641B78 		mr 4,3
 1942              	.LVL164:
 1943              		.loc 1 100 2 view .LVU573
 1944 0018 4D820020 		beqlr- 0
 1945              		.loc 1 100 10 is_stmt 1 discriminator 1 view .LVU574
 1946              		.loc 1 100 24 is_stmt 0 discriminator 1 view .LVU575
 1947 001c 7D234B78 		mr 3,9
 1948              	.LVL165:
 1949              		.loc 1 100 24 discriminator 1 view .LVU576
 1950 0020 48000000 		b _ZN10GuiElement9SetParentEPS_
 1951              	.LVL166:
 1952              		.loc 1 100 24 discriminator 1 view .LVU577
 1953              		.cfi_endproc
 1954              	.LFE2348:
 1955              		.size	_ZN9GuiButton12SetLabelOverEP7GuiTexti, .-_ZN9GuiButton12SetLabelOverEP7GuiTexti
 1956              		.section	.text._ZN9GuiButton12SetLabelHoldEP7GuiTexti,"ax",@progbits
 1957              		.align 2
 1958              		.globl _ZN9GuiButton12SetLabelHoldEP7GuiTexti
 1959              		.type	_ZN9GuiButton12SetLabelHoldEP7GuiTexti, @function
 1960              	_ZN9GuiButton12SetLabelHoldEP7GuiTexti:
 1961              	.LVL167:
 1962              	.LFB2349:
 1963              		.loc 1 103 1 is_stmt 1 view -0
 1964              		.cfi_startproc
 1965              		.loc 1 104 2 view .LVU579
 1966              		.loc 1 105 2 is_stmt 0 view .LVU580
 1967 0000 2C040000 		cmpwi 0,4,0
 1968              		.loc 1 104 15 view .LVU581
 1969 0004 38A5002C 		addi 5,5,44
 1970              	.LVL168:
 1971              		.loc 1 104 15 view .LVU582
 1972 0008 54A5103A 		slwi 5,5,2
 1973              	.LVL169:
 1974              		.loc 1 103 1 view .LVU583
 1975 000c 7C892378 		mr 9,4
 1976              		.loc 1 104 15 view .LVU584
 1977 0010 7CA32A14 		add 5,3,5
 1978              		.loc 1 103 1 view .LVU585
 1979 0014 7C641B78 		mr 4,3
 1980              	.LVL170:
 1981              		.loc 1 104 15 view .LVU586
 1982 0018 9125000C 		stw 9,12(5)
 1983              		.loc 1 105 2 is_stmt 1 view .LVU587
 1984 001c 4D820020 		beqlr- 0
 1985              		.loc 1 105 10 discriminator 1 view .LVU588
 1986              		.loc 1 105 24 is_stmt 0 discriminator 1 view .LVU589
 1987 0020 7D234B78 		mr 3,9
 1988              	.LVL171:
 1989              		.loc 1 105 24 discriminator 1 view .LVU590
 1990 0024 48000000 		b _ZN10GuiElement9SetParentEPS_
 1991              	.LVL172:
 1992              		.loc 1 105 24 discriminator 1 view .LVU591
 1993              		.cfi_endproc
 1994              	.LFE2349:
 1995              		.size	_ZN9GuiButton12SetLabelHoldEP7GuiTexti, .-_ZN9GuiButton12SetLabelHoldEP7GuiTexti
 1996              		.section	.text._ZN9GuiButton13SetLabelClickEP7GuiTexti,"ax",@progbits
 1997              		.align 2
 1998              		.globl _ZN9GuiButton13SetLabelClickEP7GuiTexti
 1999              		.type	_ZN9GuiButton13SetLabelClickEP7GuiTexti, @function
 2000              	_ZN9GuiButton13SetLabelClickEP7GuiTexti:
 2001              	.LVL173:
 2002              	.LFB2350:
 2003              		.loc 1 108 1 is_stmt 1 view -0
 2004              		.cfi_startproc
 2005              		.loc 1 109 2 view .LVU593
 2006              		.loc 1 110 2 is_stmt 0 view .LVU594
 2007 0000 2C040000 		cmpwi 0,4,0
 2008              		.loc 1 109 16 view .LVU595
 2009 0004 38A50030 		addi 5,5,48
 2010              	.LVL174:
 2011              		.loc 1 109 16 view .LVU596
 2012 0008 54A5103A 		slwi 5,5,2
 2013              	.LVL175:
 2014              		.loc 1 108 1 view .LVU597
 2015 000c 7C892378 		mr 9,4
 2016              		.loc 1 109 16 view .LVU598
 2017 0010 7CA32A14 		add 5,3,5
 2018              		.loc 1 108 1 view .LVU599
 2019 0014 7C641B78 		mr 4,3
 2020              	.LVL176:
 2021              		.loc 1 109 16 view .LVU600
 2022 0018 91250008 		stw 9,8(5)
 2023              		.loc 1 110 2 is_stmt 1 view .LVU601
 2024 001c 4D820020 		beqlr- 0
 2025              		.loc 1 110 10 discriminator 1 view .LVU602
 2026              		.loc 1 110 24 is_stmt 0 discriminator 1 view .LVU603
 2027 0020 7D234B78 		mr 3,9
 2028              	.LVL177:
 2029              		.loc 1 110 24 discriminator 1 view .LVU604
 2030 0024 48000000 		b _ZN10GuiElement9SetParentEPS_
 2031              	.LVL178:
 2032              		.loc 1 110 24 discriminator 1 view .LVU605
 2033              		.cfi_endproc
 2034              	.LFE2350:
 2035              		.size	_ZN9GuiButton13SetLabelClickEP7GuiTexti, .-_ZN9GuiButton13SetLabelClickEP7GuiTexti
 2036              		.section	.text._ZN9GuiButton12SetSoundOverEP8GuiSound,"ax",@progbits
 2037              		.align 2
 2038              		.globl _ZN9GuiButton12SetSoundOverEP8GuiSound
 2039              		.type	_ZN9GuiButton12SetSoundOverEP8GuiSound, @function
 2040              	_ZN9GuiButton12SetSoundOverEP8GuiSound:
 2041              	.LVL179:
 2042              	.LFB2351:
 2043              		.loc 1 113 1 is_stmt 1 view -0
 2044              		.cfi_startproc
 2045              		.loc 1 114 2 view .LVU607
 2046              		.loc 1 114 12 is_stmt 0 view .LVU608
 2047 0000 908300D4 		stw 4,212(3)
 2048              		.loc 1 115 1 view .LVU609
 2049 0004 4E800020 		blr
 2050              		.cfi_endproc
 2051              	.LFE2351:
 2052              		.size	_ZN9GuiButton12SetSoundOverEP8GuiSound, .-_ZN9GuiButton12SetSoundOverEP8GuiSound
 2053              		.section	.text._ZN9GuiButton12SetSoundHoldEP8GuiSound,"ax",@progbits
 2054              		.align 2
 2055              		.globl _ZN9GuiButton12SetSoundHoldEP8GuiSound
 2056              		.type	_ZN9GuiButton12SetSoundHoldEP8GuiSound, @function
 2057              	_ZN9GuiButton12SetSoundHoldEP8GuiSound:
 2058              	.LVL180:
 2059              	.LFB2352:
 2060              		.loc 1 117 1 is_stmt 1 view -0
 2061              		.cfi_startproc
 2062              		.loc 1 118 2 view .LVU611
 2063              		.loc 1 118 12 is_stmt 0 view .LVU612
 2064 0000 908300D8 		stw 4,216(3)
 2065              		.loc 1 119 1 view .LVU613
 2066 0004 4E800020 		blr
 2067              		.cfi_endproc
 2068              	.LFE2352:
 2069              		.size	_ZN9GuiButton12SetSoundHoldEP8GuiSound, .-_ZN9GuiButton12SetSoundHoldEP8GuiSound
 2070              		.section	.text._ZN9GuiButton13SetSoundClickEP8GuiSound,"ax",@progbits
 2071              		.align 2
 2072              		.globl _ZN9GuiButton13SetSoundClickEP8GuiSound
 2073              		.type	_ZN9GuiButton13SetSoundClickEP8GuiSound, @function
 2074              	_ZN9GuiButton13SetSoundClickEP8GuiSound:
 2075              	.LVL181:
 2076              	.LFB2353:
 2077              		.loc 1 121 1 is_stmt 1 view -0
 2078              		.cfi_startproc
 2079              		.loc 1 122 2 view .LVU615
 2080              		.loc 1 122 13 is_stmt 0 view .LVU616
 2081 0000 908300DC 		stw 4,220(3)
 2082              		.loc 1 123 1 view .LVU617
 2083 0004 4E800020 		blr
 2084              		.cfi_endproc
 2085              	.LFE2353:
 2086              		.size	_ZN9GuiButton13SetSoundClickEP8GuiSound, .-_ZN9GuiButton13SetSoundClickEP8GuiSound
 2087              		.weak	_ZTS9GuiButton
 2088              		.section	.rodata._ZTS9GuiButton,"aG",@progbits,_ZTS9GuiButton,comdat
 2089              		.align 2
 2090              		.type	_ZTS9GuiButton, @object
 2091              		.size	_ZTS9GuiButton, 11
 2092              	_ZTS9GuiButton:
 2093 0000 39477569 		.string	"9GuiButton"
 2093      42757474 
 2093      6F6E00
 2094              		.weak	_ZTI9GuiButton
 2095              		.section	.rodata._ZTI9GuiButton,"aG",@progbits,_ZTI9GuiButton,comdat
 2096              		.align 2
 2097              		.type	_ZTI9GuiButton, @object
 2098              		.size	_ZTI9GuiButton, 12
 2099              	_ZTI9GuiButton:
 2100 0000 00000000 		.long	_ZTVN10__cxxabiv120__si_class_type_infoE+8
 2101 0004 00000000 		.long	_ZTS9GuiButton
 2102 0008 00000000 		.long	_ZTI10GuiElement
 2103              		.weak	_ZTV9GuiButton
 2104              		.section	.rodata._ZTV9GuiButton,"aG",@progbits,_ZTV9GuiButton,comdat
 2105              		.align 2
 2106              		.type	_ZTV9GuiButton, @object
 2107              		.size	_ZTV9GuiButton, 48
 2108              	_ZTV9GuiButton:
 2109 0000 00000000 		.long	0
 2110 0004 00000000 		.long	_ZTI9GuiButton
 2111 0008 00000000 		.long	_ZN9GuiButtonD1Ev
 2112 000c 00000000 		.long	_ZN9GuiButtonD0Ev
 2113 0010 00000000 		.long	_ZN10GuiElement10SetVisibleEb
 2114 0014 00000000 		.long	_ZN10GuiElement8SetFocusEi
 2115 0018 00000000 		.long	_ZN10GuiElement8SetStateEii
 2116 001c 00000000 		.long	_ZN10GuiElement10ResetStateEv
 2117 0020 00000000 		.long	_ZN10GuiElement11GetSelectedEv
 2118 0024 00000000 		.long	_ZN10GuiElement12SetAlignmentEii
 2119 0028 00000000 		.long	_ZN9GuiButton6UpdateEP10GuiTrigger
 2120 002c 00000000 		.long	_ZN9GuiButton4DrawEv
 2121              		.section	".text"
 2122              	.Letext0:
 2123              		.file 2 "C:/devkitPro/devkitPPC/powerpc-eabi/include/machine/_default_types.h"
 2124              		.file 3 "C:/devkitPro/devkitPPC/powerpc-eabi/include/sys/_stdint.h"
 2125              		.file 4 "C:/devkitPro/libogc/include/gctypes.h"
 2126              		.file 5 "C:/devkitPro/libogc/include/ogc/gx.h"
 2127              		.file 6 "C:/devkitPro/devkitPPC/lib/gcc/powerpc-eabi/13.1.0/include/stddef.h"
 2128              		.file 7 "C:/devkitPro/devkitPPC/powerpc-eabi/include/stdlib.h"
 2129              		.file 8 "C:/devkitPro/devkitPPC/powerpc-eabi/include/c++/13.1.0/cstdlib"
 2130              		.file 9 "C:/devkitPro/devkitPPC/powerpc-eabi/include/c++/13.1.0/bits/std_abs.h"
 2131              		.file 10 "C:/devkitPro/devkitPPC/powerpc-eabi/include/c++/13.1.0/powerpc-eabi/bits/c++config.h"
 2132              		.file 11 "C:/devkitPro/devkitPPC/powerpc-eabi/include/c++/13.1.0/type_traits"
 2133              		.file 12 "C:/devkitPro/devkitPPC/powerpc-eabi/include/c++/13.1.0/debug/debug.h"
 2134              		.file 13 "C:/devkitPro/devkitPPC/powerpc-eabi/include/c++/13.1.0/cstddef"
 2135              		.file 14 "C:/devkitPro/devkitPPC/powerpc-eabi/include/c++/13.1.0/bits/exception_ptr.h"
 2136              		.file 15 "C:/devkitPro/devkitPPC/powerpc-eabi/include/c++/13.1.0/cmath"
 2137              		.file 16 "C:/devkitPro/devkitPPC/powerpc-eabi/include/c++/13.1.0/bits/predefined_ops.h"
 2138              		.file 17 "C:/devkitPro/devkitPPC/powerpc-eabi/include/c++/13.1.0/stdlib.h"
 2139              		.file 18 "C:/devkitPro/devkitPPC/powerpc-eabi/include/math.h"
 2140              		.file 19 "C:/devkitPro/devkitPPC/powerpc-eabi/include/c++/13.1.0/math.h"
 2141              		.file 20 "C:/devkitPro/libogc/include/wiiuse/wiiuse.h"
 2142              		.file 21 "C:/devkitPro/libogc/include/wiiuse/wpad.h"
 2143              		.file 22 "F:/GameModding/MarioKartWii/Mods/Distro/RetroRewind6/dev/Launcher/RRLauncher/launcher/bu
 2144              		.file 23 "F:/GameModding/MarioKartWii/Mods/Distro/RetroRewind6/dev/Launcher/RRLauncher/launcher/bu
 2145              		.file 24 "F:/GameModding/MarioKartWii/Mods/Distro/RetroRewind6/dev/Launcher/RRLauncher/launcher/bu
 2146              		.file 25 "F:/GameModding/MarioKartWii/Mods/Distro/RetroRewind6/dev/Launcher/RRLauncher/launcher/bu
 2147              		.file 26 "F:/GameModding/MarioKartWii/Mods/Distro/RetroRewind6/dev/Launcher/RRLauncher/launcher/bu
 2148              		.file 27 "F:/GameModding/MarioKartWii/Mods/Distro/RetroRewind6/dev/Launcher/RRLauncher/launcher/bu
 2149              		.file 28 "F:/GameModding/MarioKartWii/Mods/Distro/RetroRewind6/dev/Launcher/RRLauncher/launcher/bu
 2150              		.file 29 "F:/GameModding/MarioKartWii/Mods/Distro/RetroRewind6/dev/Launcher/RRLauncher/launcher/bu
 2151              		.file 30 "F:/GameModding/MarioKartWii/Mods/Distro/RetroRewind6/dev/Launcher/RRLauncher/launcher/bu
 2152              		.file 31 "F:/GameModding/MarioKartWii/Mods/Distro/RetroRewind6/dev/Launcher/RRLauncher/launcher/bu
 2153              		.file 32 "F:/GameModding/MarioKartWii/Mods/Distro/RetroRewind6/dev/Launcher/RRLauncher/launcher/bu
 2154              		.file 33 "F:/GameModding/MarioKartWii/Mods/Distro/RetroRewind6/dev/Launcher/RRLauncher/launcher/bu
 2155              		.file 34 "F:/GameModding/MarioKartWii/Mods/Distro/RetroRewind6/dev/Launcher/RRLauncher/launcher/bu
 2156              		.file 35 "F:/GameModding/MarioKartWii/Mods/Distro/RetroRewind6/dev/Launcher/RRLauncher/launcher/bu
 2157              		.file 36 "F:/GameModding/MarioKartWii/Mods/Distro/RetroRewind6/dev/Launcher/RRLauncher/launcher/bu
 2158              		.file 37 "F:/GameModding/MarioKartWii/Mods/Distro/RetroRewind6/dev/Launcher/RRLauncher/launcher/bu
 2159              		.file 38 "F:/GameModding/MarioKartWii/Mods/Distro/RetroRewind6/dev/Launcher/RRLauncher/launcher/bu
 2160              		.file 39 "F:/GameModding/MarioKartWii/Mods/Distro/RetroRewind6/dev/Launcher/RRLauncher/launcher/bu
 2161              		.file 40 "F:/GameModding/MarioKartWii/Mods/Distro/RetroRewind6/dev/Launcher/RRLauncher/launcher/bu
 2162              		.file 41 "F:/GameModding/MarioKartWii/Mods/Distro/RetroRewind6/dev/Launcher/RRLauncher/launcher/bu
 2163              		.file 42 "F:/GameModding/MarioKartWii/Mods/Distro/RetroRewind6/dev/Launcher/RRLauncher/launcher/bu
 2164              		.file 43 "F:/GameModding/MarioKartWii/Mods/Distro/RetroRewind6/dev/Launcher/RRLauncher/launcher/bu
 2165              		.file 44 "F:/GameModding/MarioKartWii/Mods/Distro/RetroRewind6/dev/Launcher/RRLauncher/launcher/bu
 2166              		.file 45 "F:/GameModding/MarioKartWii/Mods/Distro/RetroRewind6/dev/Launcher/RRLauncher/launcher/bu
 2167              		.file 46 "F:/GameModding/MarioKartWii/Mods/Distro/RetroRewind6/dev/Launcher/RRLauncher/launcher/bu
 2168              		.file 47 "F:/GameModding/MarioKartWii/Mods/Distro/RetroRewind6/dev/Launcher/RRLauncher/launcher/bu
 2169              		.file 48 "F:/GameModding/MarioKartWii/Mods/Distro/RetroRewind6/dev/Launcher/RRLauncher/launcher/bu
 2170              		.file 49 "F:/GameModding/MarioKartWii/Mods/Distro/RetroRewind6/dev/Launcher/RRLauncher/launcher/bu
 2171              		.file 50 "F:/GameModding/MarioKartWii/Mods/Distro/RetroRewind6/dev/Launcher/RRLauncher/launcher/bu
 2172              		.file 51 "F:/GameModding/MarioKartWii/Mods/Distro/RetroRewind6/dev/Launcher/RRLauncher/launcher/bu
 2173              		.file 52 "F:/GameModding/MarioKartWii/Mods/Distro/RetroRewind6/dev/Launcher/RRLauncher/launcher/bu
 2174              		.file 53 "F:/GameModding/MarioKartWii/Mods/Distro/RetroRewind6/dev/Launcher/RRLauncher/launcher/bu
 2175              		.file 54 "F:/GameModding/MarioKartWii/Mods/Distro/RetroRewind6/dev/Launcher/RRLauncher/launcher/bu
 2176              		.file 55 "F:/GameModding/MarioKartWii/Mods/Distro/RetroRewind6/dev/Launcher/RRLauncher/launcher/bu
 2177              		.file 56 "F:/GameModding/MarioKartWii/Mods/Distro/RetroRewind6/dev/Launcher/RRLauncher/launcher/bu
 2178              		.file 57 "F:/GameModding/MarioKartWii/Mods/Distro/RetroRewind6/dev/Launcher/RRLauncher/launcher/li
 2179              		.file 58 "F:/GameModding/MarioKartWii/Mods/Distro/RetroRewind6/dev/Launcher/RRLauncher/launcher/li
 2180              		.file 59 "C:/devkitPro/devkitPPC/powerpc-eabi/include/c++/13.1.0/new"
 2181              		.file 60 "C:/devkitPro/devkitPPC/powerpc-eabi/include/c++/13.1.0/bits/memory_resource.h"
 2182              		.file 61 "F:/GameModding/MarioKartWii/Mods/Distro/RetroRewind6/dev/Launcher/RRLauncher/launcher/li