   1              		.file	"gui_imagedata.cpp"
   2              		.machine ppc
   3              		.section	".text"
   4              	.Ltext0:
   5              		.file 1 "F:/GameModding/MarioKartWii/Mods/Distro/RetroRewind6/dev/Launcher/RRLauncher/launcher/lib
   6              		.section	.text._ZN12GuiImageDataC2EPKh,"ax",@progbits
   7              		.align 2
   8              		.globl _ZN12GuiImageDataC2EPKh
   9              		.type	_ZN12GuiImageDataC2EPKh, @function
  10              	_ZN12GuiImageDataC2EPKh:
  11              	.LVL0:
  12              	.LFB2333:
  13              		.loc 1 16 1 view -0
  14              		.cfi_startproc
  15              	.LBB21:
  16              		.loc 1 18 2 view .LVU1
  17              	.LBB22:
  18              		.loc 1 22 2 is_stmt 0 view .LVU2
  19 0000 2C040000 		cmpwi 0,4,0
  20              		.loc 1 22 2 view .LVU3
  21              	.LBE22:
  22              		.loc 1 18 7 view .LVU4
  23 0004 39200000 		li 9,0
  24 0008 91230000 		stw 9,0(3)
  25              		.loc 1 19 2 is_stmt 1 view .LVU5
  26              		.loc 1 19 8 is_stmt 0 view .LVU6
  27 000c 91230008 		stw 9,8(3)
  28              		.loc 1 20 2 is_stmt 1 view .LVU7
  29              		.loc 1 20 9 is_stmt 0 view .LVU8
  30 0010 91230004 		stw 9,4(3)
  31              		.loc 1 22 2 is_stmt 1 view .LVU9
  32              	.LBB23:
  33 0014 4D820020 		beqlr- 0
  34              	.LBE23:
  35              	.LBE21:
  36              		.loc 1 16 1 is_stmt 0 view .LVU10
  37 0018 9421FFC8 		stwu 1,-56(1)
  38              		.cfi_def_cfa_offset 56
  39 001c 7C0802A6 		mflr 0
  40 0020 93E10034 		stw 31,52(1)
  41              		.cfi_register 65, 0
  42              		.cfi_offset 31, -4
  43 0024 7C7F1B78 		mr 31,3
  44              	.LVL1:
  45              	.LBB24:
  46              	.LBI24:
  47              		.loc 1 16 1 is_stmt 1 view .LVU11
  48              	.LBB25:
  49              	.LBB26:
  50              		.loc 1 24 3 view .LVU12
  51              		.loc 1 25 3 view .LVU13
  52              		.loc 1 25 42 is_stmt 0 view .LVU14
  53 0028 7C832378 		mr 3,4
  54              	.LVL2:
  55              		.loc 1 25 42 view .LVU15
  56              	.LBE26:
  57              	.LBE25:
  58              	.LBE24:
  59              		.loc 1 16 1 view .LVU16
  60 002c 93A1002C 		stw 29,44(1)
  61 0030 9001003C 		stw 0,60(1)
  62              		.cfi_offset 29, -12
  63              		.cfi_offset 65, 4
  64              	.LBB35:
  65              	.LBB33:
  66              	.LBB31:
  67              		.loc 1 25 42 view .LVU17
  68 0034 48000001 		bl PNGU_SelectImageFromBuffer
  69              	.LVL3:
  70              		.loc 1 27 3 is_stmt 1 view .LVU18
  71 0038 7C7D1B79 		mr. 29,3
  72 003c 418200A0 		beq- 0,.L1
  73              		.loc 1 30 3 view .LVU19
  74              		.loc 1 30 36 is_stmt 0 view .LVU20
  75 0040 38810008 		addi 4,1,8
  76 0044 48000001 		bl PNGU_GetImageProperties
  77              	.LVL4:
  78              		.loc 1 32 3 is_stmt 1 view .LVU21
  79              	.LBB27:
  80 0048 2C030000 		cmpwi 0,3,0
  81 004c 40820088 		bne- 0,.L5
  82              	.LBB28:
  83              		.loc 1 34 4 view .LVU22
  84              		.loc 1 34 31 is_stmt 0 view .LVU23
  85 0050 8121000C 		lwz 9,12(1)
  86 0054 93C10030 		stw 30,48(1)
  87              		.cfi_offset 30, -8
  88              		.loc 1 34 31 view .LVU24
  89 0058 83C10008 		lwz 30,8(1)
  90 005c 7FDE49D6 		mullw 30,30,9
  91              		.loc 1 35 4 view .LVU25
  92 0060 57C916FB 		rlwinm. 9,30,2,27,29
  93              		.loc 1 34 51 view .LVU26
  94 0064 57DE103A 		slwi 30,30,2
  95              	.LVL5:
  96              		.loc 1 35 4 is_stmt 1 view .LVU27
  97 0068 41820014 		beq- 0,.L6
  98              		.loc 1 35 15 discriminator 1 view .LVU28
  99              		.loc 1 35 29 is_stmt 0 discriminator 1 view .LVU29
 100 006c 7FDE2E70 		srawi 30,30,5
 101 0070 7FDE0194 		addze 30,30
 102              	.LVL6:
 103              		.loc 1 35 29 discriminator 1 view .LVU30
 104 0074 57DE2834 		slwi 30,30,5
 105              	.LVL7:
 106              		.loc 1 35 19 discriminator 1 view .LVU31
 107 0078 3BDE0020 		addi 30,30,32
 108              	.LVL8:
 109              	.L6:
 110              		.loc 1 36 4 is_stmt 1 view .LVU32
 111              		.loc 1 36 26 is_stmt 0 view .LVU33
 112 007c 7FC4F378 		mr 4,30
 113 0080 38600020 		li 3,32
 114              	.LVL9:
 115              		.loc 1 36 26 view .LVU34
 116 0084 48000001 		bl memalign
 117              	.LVL10:
 118              		.loc 1 38 4 view .LVU35
 119 0088 2C030000 		cmpwi 0,3,0
 120              		.loc 1 36 9 discriminator 1 view .LVU36
 121 008c 907F0000 		stw 3,0(31)
 122              		.loc 1 38 4 is_stmt 1 view .LVU37
 123              		.loc 1 36 26 is_stmt 0 view .LVU38
 124 0090 7C661B78 		mr 6,3
 125              		.loc 1 38 4 view .LVU39
 126 0094 41820060 		beq- 0,.L22
 127              		.loc 1 40 5 is_stmt 1 view .LVU40
 128              		.loc 1 40 33 is_stmt 0 view .LVU41
 129 0098 80A1000C 		lwz 5,12(1)
 130 009c 38E000FF 		li 7,255
 131 00a0 80810008 		lwz 4,8(1)
 132 00a4 7FA3EB78 		mr 3,29
 133 00a8 48000001 		bl PNGU_DecodeTo4x4RGBA8
 134              	.LVL11:
 135              		.loc 1 42 5 is_stmt 1 view .LVU42
 136 00ac 2C030000 		cmpwi 0,3,0
 137 00b0 4082004C 		bne- 0,.L8
 138              		.loc 1 44 6 view .LVU43
 139              		.loc 1 45 23 is_stmt 0 view .LVU44
 140 00b4 81410008 		lwz 10,8(1)
 141              		.loc 1 45 6 is_stmt 1 view .LVU45
 142              		.loc 1 46 18 is_stmt 0 view .LVU46
 143 00b8 7FC4F378 		mr 4,30
 144              		.loc 1 45 13 view .LVU47
 145 00bc 8121000C 		lwz 9,12(1)
 146 00c0 915F0008 		stw 10,8(31)
 147              		.loc 1 46 6 is_stmt 1 view .LVU48
 148              		.loc 1 45 13 is_stmt 0 view .LVU49
 149 00c4 913F0004 		stw 9,4(31)
 150              		.loc 1 46 18 view .LVU50
 151 00c8 807F0000 		lwz 3,0(31)
 152              	.LVL12:
 153              		.loc 1 46 18 view .LVU51
 154 00cc 48000001 		bl DCFlushRange
 155              	.LVL13:
 156 00d0 83C10030 		lwz 30,48(1)
 157              		.cfi_restore 30
 158              	.LVL14:
 159              	.L5:
 160              		.loc 1 46 18 view .LVU52
 161              	.LBE28:
 162              	.LBE27:
 163              		.loc 1 55 3 is_stmt 1 view .LVU53
 164              		.loc 1 55 28 is_stmt 0 view .LVU54
 165 00d4 7FA3EB78 		mr 3,29
 166 00d8 48000001 		bl PNGU_ReleaseImageContext
 167              	.LVL15:
 168              	.L1:
 169              		.loc 1 55 28 view .LVU55
 170              	.LBE31:
 171              	.LBE33:
 172              	.LBE35:
 173              		.loc 1 57 1 view .LVU56
 174 00dc 8001003C 		lwz 0,60(1)
 175 00e0 83A1002C 		lwz 29,44(1)
 176 00e4 83E10034 		lwz 31,52(1)
 177              	.LVL16:
 178              		.loc 1 57 1 view .LVU57
 179 00e8 7C0803A6 		mtlr 0
 180              		.cfi_restore 65
 181 00ec 38210038 		addi 1,1,56
 182              		.cfi_restore 31
 183              		.cfi_restore 29
 184              		.cfi_def_cfa_offset 0
 185 00f0 4E800020 		blr
 186              	.LVL17:
 187              	.L22:
 188              		.cfi_def_cfa_offset 56
 189              		.cfi_offset 29, -12
 190              		.cfi_offset 30, -8
 191              		.cfi_offset 31, -4
 192              		.cfi_offset 65, 4
 193              		.loc 1 57 1 view .LVU58
 194 00f4 83C10030 		lwz 30,48(1)
 195              		.cfi_remember_state
 196              		.cfi_restore 30
 197 00f8 4BFFFFDC 		b .L5
 198              	.LVL18:
 199              	.L8:
 200              		.cfi_restore_state
 201              	.LBB36:
 202              	.LBB34:
 203              	.LBB32:
 204              	.LBB30:
 205              	.LBB29:
 206              		.loc 1 50 6 is_stmt 1 view .LVU59
 207              		.loc 1 50 10 is_stmt 0 view .LVU60
 208 00fc 807F0000 		lwz 3,0(31)
 209              	.LVL19:
 210              		.loc 1 50 10 view .LVU61
 211 0100 48000001 		bl free
 212              	.LVL20:
 213              		.loc 1 51 6 is_stmt 1 view .LVU62
 214              		.loc 1 51 11 is_stmt 0 view .LVU63
 215 0104 39200000 		li 9,0
 216 0108 913F0000 		stw 9,0(31)
 217 010c 83C10030 		lwz 30,48(1)
 218              		.cfi_restore 30
 219 0110 4BFFFFC4 		b .L5
 220              	.LBE29:
 221              	.LBE30:
 222              	.LBE32:
 223              	.LBE34:
 224              	.LBE36:
 225              		.cfi_endproc
 226              	.LFE2333:
 227              		.size	_ZN12GuiImageDataC2EPKh, .-_ZN12GuiImageDataC2EPKh
 228              		.globl _ZN12GuiImageDataC1EPKh
 229              		.set	_ZN12GuiImageDataC1EPKh,_ZN12GuiImageDataC2EPKh
 230              		.section	.text._ZN12GuiImageDataD2Ev,"ax",@progbits
 231              		.align 2
 232              		.globl _ZN12GuiImageDataD2Ev
 233              		.type	_ZN12GuiImageDataD2Ev, @function
 234              	_ZN12GuiImageDataD2Ev:
 235              	.LVL21:
 236              	.LFB2336:
 237              		.loc 1 62 1 is_stmt 1 view -0
 238              		.cfi_startproc
 239              	.LBB37:
 240              		.loc 1 64 2 view .LVU65
 241              		.loc 1 64 6 is_stmt 0 view .LVU66
 242 0000 80630000 		lwz 3,0(3)
 243              	.LVL22:
 244              		.loc 1 64 6 view .LVU67
 245 0004 48000000 		b free
 246              	.LVL23:
 247              	.LBE37:
 248              		.cfi_endproc
 249              	.LFE2336:
 250              		.size	_ZN12GuiImageDataD2Ev, .-_ZN12GuiImageDataD2Ev
 251              		.globl _ZN12GuiImageDataD1Ev
 252              		.set	_ZN12GuiImageDataD1Ev,_ZN12GuiImageDataD2Ev
 253              		.section	.text._ZN12GuiImageData8GetImageEv,"ax",@progbits
 254              		.align 2
 255              		.globl _ZN12GuiImageData8GetImageEv
 256              		.type	_ZN12GuiImageData8GetImageEv, @function
 257              	_ZN12GuiImageData8GetImageEv:
 258              	.LVL24:
 259              	.LFB2338:
 260              		.loc 1 68 1 is_stmt 1 view -0
 261              		.cfi_startproc
 262              		.loc 1 69 2 view .LVU69
 263              		.loc 1 70 1 is_stmt 0 view .LVU70
 264 0000 80630000 		lwz 3,0(3)
 265              	.LVL25:
 266              		.loc 1 70 1 view .LVU71
 267 0004 4E800020 		blr
 268              		.cfi_endproc
 269              	.LFE2338:
 270              		.size	_ZN12GuiImageData8GetImageEv, .-_ZN12GuiImageData8GetImageEv
 271              		.section	.text._ZN12GuiImageData8GetWidthEv,"ax",@progbits
 272              		.align 2
 273              		.globl _ZN12GuiImageData8GetWidthEv
 274              		.type	_ZN12GuiImageData8GetWidthEv, @function
 275              	_ZN12GuiImageData8GetWidthEv:
 276              	.LVL26:
 277              	.LFB2339:
 278              		.loc 1 73 1 is_stmt 1 view -0
 279              		.cfi_startproc
 280              		.loc 1 74 2 view .LVU73
 281              		.loc 1 75 1 is_stmt 0 view .LVU74
 282 0000 80630008 		lwz 3,8(3)
 283              	.LVL27:
 284              		.loc 1 75 1 view .LVU75
 285 0004 4E800020 		blr
 286              		.cfi_endproc
 287              	.LFE2339:
 288              		.size	_ZN12GuiImageData8GetWidthEv, .-_ZN12GuiImageData8GetWidthEv
 289              		.section	.text._ZN12GuiImageData9GetHeightEv,"ax",@progbits
 290              		.align 2
 291              		.globl _ZN12GuiImageData9GetHeightEv
 292              		.type	_ZN12GuiImageData9GetHeightEv, @function
 293              	_ZN12GuiImageData9GetHeightEv:
 294              	.LVL28:
 295              	.LFB2340:
 296              		.loc 1 78 1 is_stmt 1 view -0
 297              		.cfi_startproc
 298              		.loc 1 79 2 view .LVU77
 299              		.loc 1 80 1 is_stmt 0 view .LVU78
 300 0000 80630004 		lwz 3,4(3)
 301              	.LVL29:
 302              		.loc 1 80 1 view .LVU79
 303 0004 4E800020 		blr
 304              		.cfi_endproc
 305              	.LFE2340:
 306              		.size	_ZN12GuiImageData9GetHeightEv, .-_ZN12GuiImageData9GetHeightEv
 307              		.section	".text"
 308              	.Letext0:
 309              		.file 2 "C:/devkitPro/devkitPPC/powerpc-eabi/include/machine/_default_types.h"
 310              		.file 3 "C:/devkitPro/devkitPPC/powerpc-eabi/include/sys/_stdint.h"
 311              		.file 4 "C:/devkitPro/libogc/include/gctypes.h"
 312              		.file 5 "C:/devkitPro/libogc/include/ogc/gx.h"
 313              		.file 6 "C:/devkitPro/devkitPPC/lib/gcc/powerpc-eabi/13.1.0/include/stddef.h"
 314              		.file 7 "C:/devkitPro/devkitPPC/powerpc-eabi/include/stdlib.h"
 315              		.file 8 "C:/devkitPro/devkitPPC/powerpc-eabi/include/c++/13.1.0/cstdlib"
 316              		.file 9 "C:/devkitPro/devkitPPC/powerpc-eabi/include/c++/13.1.0/bits/std_abs.h"
 317              		.file 10 "C:/devkitPro/devkitPPC/powerpc-eabi/include/c++/13.1.0/type_traits"
 318              		.file 11 "C:/devkitPro/devkitPPC/powerpc-eabi/include/c++/13.1.0/debug/debug.h"
 319              		.file 12 "C:/devkitPro/devkitPPC/powerpc-eabi/include/c++/13.1.0/powerpc-eabi/bits/c++config.h"
 320              		.file 13 "C:/devkitPro/devkitPPC/powerpc-eabi/include/c++/13.1.0/cstddef"
 321              		.file 14 "C:/devkitPro/devkitPPC/powerpc-eabi/include/c++/13.1.0/bits/exception_ptr.h"
 322              		.file 15 "C:/devkitPro/devkitPPC/powerpc-eabi/include/c++/13.1.0/cmath"
 323              		.file 16 "C:/devkitPro/devkitPPC/powerpc-eabi/include/c++/13.1.0/bits/predefined_ops.h"
 324              		.file 17 "C:/devkitPro/devkitPPC/powerpc-eabi/include/c++/13.1.0/stdlib.h"
 325              		.file 18 "C:/devkitPro/devkitPPC/powerpc-eabi/include/math.h"
 326              		.file 19 "C:/devkitPro/devkitPPC/powerpc-eabi/include/c++/13.1.0/math.h"
 327              		.file 20 "F:/GameModding/MarioKartWii/Mods/Distro/RetroRewind6/dev/Launcher/RRLauncher/launcher/li
 328              		.file 21 "F:/GameModding/MarioKartWii/Mods/Distro/RetroRewind6/dev/Launcher/RRLauncher/launcher/bu
 329              		.file 22 "F:/GameModding/MarioKartWii/Mods/Distro/RetroRewind6/dev/Launcher/RRLauncher/launcher/bu
 330              		.file 23 "F:/GameModding/MarioKartWii/Mods/Distro/RetroRewind6/dev/Launcher/RRLauncher/launcher/bu
 331              		.file 24 "F:/GameModding/MarioKartWii/Mods/Distro/RetroRewind6/dev/Launcher/RRLauncher/launcher/bu
 332              		.file 25 "F:/GameModding/MarioKartWii/Mods/Distro/RetroRewind6/dev/Launcher/RRLauncher/launcher/bu
 333              		.file 26 "F:/GameModding/MarioKartWii/Mods/Distro/RetroRewind6/dev/Launcher/RRLauncher/launcher/bu
 334              		.file 27 "F:/GameModding/MarioKartWii/Mods/Distro/RetroRewind6/dev/Launcher/RRLauncher/launcher/bu
 335              		.file 28 "F:/GameModding/MarioKartWii/Mods/Distro/RetroRewind6/dev/Launcher/RRLauncher/launcher/bu
 336              		.file 29 "F:/GameModding/MarioKartWii/Mods/Distro/RetroRewind6/dev/Launcher/RRLauncher/launcher/bu
 337              		.file 30 "F:/GameModding/MarioKartWii/Mods/Distro/RetroRewind6/dev/Launcher/RRLauncher/launcher/bu
 338              		.file 31 "F:/GameModding/MarioKartWii/Mods/Distro/RetroRewind6/dev/Launcher/RRLauncher/launcher/bu
 339              		.file 32 "F:/GameModding/MarioKartWii/Mods/Distro/RetroRewind6/dev/Launcher/RRLauncher/launcher/bu
 340              		.file 33 "F:/GameModding/MarioKartWii/Mods/Distro/RetroRewind6/dev/Launcher/RRLauncher/launcher/bu
 341              		.file 34 "F:/GameModding/MarioKartWii/Mods/Distro/RetroRewind6/dev/Launcher/RRLauncher/launcher/bu
 342              		.file 35 "F:/GameModding/MarioKartWii/Mods/Distro/RetroRewind6/dev/Launcher/RRLauncher/launcher/bu
 343              		.file 36 "F:/GameModding/MarioKartWii/Mods/Distro/RetroRewind6/dev/Launcher/RRLauncher/launcher/bu
 344              		.file 37 "F:/GameModding/MarioKartWii/Mods/Distro/RetroRewind6/dev/Launcher/RRLauncher/launcher/bu
 345              		.file 38 "F:/GameModding/MarioKartWii/Mods/Distro/RetroRewind6/dev/Launcher/RRLauncher/launcher/bu
 346              		.file 39 "F:/GameModding/MarioKartWii/Mods/Distro/RetroRewind6/dev/Launcher/RRLauncher/launcher/bu
 347              		.file 40 "F:/GameModding/MarioKartWii/Mods/Distro/RetroRewind6/dev/Launcher/RRLauncher/launcher/bu
 348              		.file 41 "F:/GameModding/MarioKartWii/Mods/Distro/RetroRewind6/dev/Launcher/RRLauncher/launcher/bu
 349              		.file 42 "F:/GameModding/MarioKartWii/Mods/Distro/RetroRewind6/dev/Launcher/RRLauncher/launcher/bu
 350              		.file 43 "F:/GameModding/MarioKartWii/Mods/Distro/RetroRewind6/dev/Launcher/RRLauncher/launcher/bu
 351              		.file 44 "F:/GameModding/MarioKartWii/Mods/Distro/RetroRewind6/dev/Launcher/RRLauncher/launcher/bu
 352              		.file 45 "F:/GameModding/MarioKartWii/Mods/Distro/RetroRewind6/dev/Launcher/RRLauncher/launcher/bu
 353              		.file 46 "F:/GameModding/MarioKartWii/Mods/Distro/RetroRewind6/dev/Launcher/RRLauncher/launcher/bu
 354              		.file 47 "F:/GameModding/MarioKartWii/Mods/Distro/RetroRewind6/dev/Launcher/RRLauncher/launcher/bu
 355              		.file 48 "F:/GameModding/MarioKartWii/Mods/Distro/RetroRewind6/dev/Launcher/RRLauncher/launcher/bu
 356              		.file 49 "F:/GameModding/MarioKartWii/Mods/Distro/RetroRewind6/dev/Launcher/RRLauncher/launcher/bu
 357              		.file 50 "F:/GameModding/MarioKartWii/Mods/Distro/RetroRewind6/dev/Launcher/RRLauncher/launcher/bu
 358              		.file 51 "F:/GameModding/MarioKartWii/Mods/Distro/RetroRewind6/dev/Launcher/RRLauncher/launcher/bu
 359              		.file 52 "F:/GameModding/MarioKartWii/Mods/Distro/RetroRewind6/dev/Launcher/RRLauncher/launcher/bu
 360              		.file 53 "F:/GameModding/MarioKartWii/Mods/Distro/RetroRewind6/dev/Launcher/RRLauncher/launcher/bu
 361              		.file 54 "F:/GameModding/MarioKartWii/Mods/Distro/RetroRewind6/dev/Launcher/RRLauncher/launcher/bu
 362              		.file 55 "F:/GameModding/MarioKartWii/Mods/Distro/RetroRewind6/dev/Launcher/RRLauncher/launcher/bu
 363              		.file 56 "F:/GameModding/MarioKartWii/Mods/Distro/RetroRewind6/dev/Launcher/RRLauncher/launcher/li
 364              		.file 57 "C:/devkitPro/libogc/include/ogc/cache.h"
 365              		.file 58 "C:/devkitPro/devkitPPC/powerpc-eabi/include/malloc.h"
 366              		.file 59 "C:/devkitPro/devkitPPC/powerpc-eabi/include/c++/13.1.0/bits/memory_resource.h"
 367              		.file 60 "F:/GameModding/MarioKartWii/Mods/Distro/RetroRewind6/dev/Launcher/RRLauncher/launcher/li