   1              		.file	"gui_text.cpp"
   2              		.machine ppc
   3              		.section	".text"
   4              	.Ltext0:
   5              		.file 1 "F:/GameModding/MarioKartWii/Mods/Distro/RetroRewind6/dev/Launcher/RRLauncher/launcher/lib
   6              		.section	.text._ZN7GuiText12SetAlignmentEii,"ax",@progbits
   7              		.align 2
   8              		.globl _ZN7GuiText12SetAlignmentEii
   9              		.type	_ZN7GuiText12SetAlignmentEii, @function
  10              	_ZN7GuiText12SetAlignmentEii:
  11              	.LVL0:
  12              	.LFB2357:
  13              		.loc 1 207 1 view -0
  14              		.cfi_startproc
  15              		.loc 1 208 2 view .LVU1
  16              		.loc 1 210 2 view .LVU2
  17 0000 2C040000 		cmpwi 0,4,0
  18              		.loc 1 210 2 is_stmt 0 view .LVU3
  19 0004 41820050 		beq- 0,.L4
  20 0008 2C040001 		cmpwi 0,4,1
  21 000c 40820038 		bne- 0,.L12
  22 0010 39000024 		li 8,36
  23 0014 39400044 		li 10,68
  24 0018 39200014 		li 9,20
  25              	.L2:
  26              		.loc 1 222 2 is_stmt 1 view .LVU4
  27 001c 2C050003 		cmpwi 0,5,3
  28 0020 41820014 		beq- 0,.L3
  29 0024 2C050004 		cmpwi 0,5,4
  30 0028 7D495378 		mr 9,10
  31 002c 41820008 		beq- 0,.L3
  32 0030 7D094378 		mr 9,8
  33              	.L3:
  34              		.loc 1 225 10 is_stmt 0 view .LVU5
  35 0034 B12300A8 		sth 9,168(3)
  36              		.loc 1 235 2 is_stmt 1 view .LVU6
  37              		.loc 1 235 15 is_stmt 0 view .LVU7
  38 0038 90830060 		stw 4,96(3)
  39              		.loc 1 236 2 is_stmt 1 view .LVU8
  40              		.loc 1 236 16 is_stmt 0 view .LVU9
  41 003c 90A30064 		stw 5,100(3)
  42              		.loc 1 237 1 view .LVU10
  43 0040 4E800020 		blr
  44              	.L12:
  45              		.loc 1 210 2 view .LVU11
  46 0044 39000022 		li 8,34
  47 0048 39400042 		li 10,66
  48 004c 39200012 		li 9,18
  49 0050 4BFFFFCC 		b .L2
  50              	.L4:
  51 0054 39000021 		li 8,33
  52 0058 39400041 		li 10,65
  53 005c 39200011 		li 9,17
  54 0060 4BFFFFBC 		b .L2
  55              		.cfi_endproc
  56              	.LFE2357:
  57              		.size	_ZN7GuiText12SetAlignmentEii, .-_ZN7GuiText12SetAlignmentEii
  58              		.section	.text._ZN7GuiTextD2Ev,"ax",@progbits
  59              		.align 2
  60              		.globl _ZN7GuiTextD2Ev
  61              		.type	_ZN7GuiTextD2Ev, @function
  62              	_ZN7GuiTextD2Ev:
  63              	.LVL1:
  64              	.LFB2345:
  65              		.loc 1 121 1 is_stmt 1 view -0
  66              		.cfi_startproc
  67              		.loc 1 121 1 is_stmt 0 view .LVU13
  68 0000 9421FFF0 		stwu 1,-16(1)
  69              		.cfi_def_cfa_offset 16
  70              	.LBB3:
  71              		.loc 1 121 19 view .LVU14
  72 0004 3D200000 		lis 9,_ZTV7GuiText+8@ha
  73              	.LBE3:
  74              		.loc 1 121 1 view .LVU15
  75 0008 7C0802A6 		mflr 0
  76              	.LBB4:
  77              		.loc 1 121 19 view .LVU16
  78 000c 39290000 		la 9,_ZTV7GuiText+8@l(9)
  79              	.LBE4:
  80              		.loc 1 121 1 view .LVU17
  81 0010 93E1000C 		stw 31,12(1)
  82              		.cfi_register 65, 0
  83              		.cfi_offset 31, -4
  84 0014 7C7F1B78 		mr 31,3
  85              	.LBB5:
  86              		.loc 1 123 11 view .LVU18
  87 0018 80630084 		lwz 3,132(3)
  88              	.LVL2:
  89              		.loc 1 123 11 view .LVU19
  90              	.LBE5:
  91              		.loc 1 121 1 view .LVU20
  92 001c 90010014 		stw 0,20(1)
  93              		.cfi_offset 65, 4
  94              	.LBB6:
  95              		.loc 1 123 2 view .LVU21
  96 0020 2C030000 		cmpwi 0,3,0
  97              		.loc 1 121 19 view .LVU22
  98 0024 913F0000 		stw 9,0(31)
  99              		.loc 1 123 2 is_stmt 1 view .LVU23
 100 0028 41820008 		beq- 0,.L14
 101              		.loc 1 123 11 is_stmt 0 discriminator 1 view .LVU24
 102 002c 48000001 		bl _ZdaPv
 103              	.LVL3:
 104              	.L14:
 105              		.loc 1 124 2 is_stmt 1 view .LVU25
 106              		.loc 1 124 6 is_stmt 0 view .LVU26
 107 0030 807F0094 		lwz 3,148(31)
 108 0034 48000001 		bl free
 109              	.LVL4:
 110              	.LBE6:
 111              		.loc 1 125 1 view .LVU27
 112 0038 80010014 		lwz 0,20(1)
 113              	.LBB7:
 114 003c 7FE3FB78 		mr 3,31
 115              	.LBE7:
 116 0040 83E1000C 		lwz 31,12(1)
 117              	.LVL5:
 118              		.loc 1 125 1 view .LVU28
 119 0044 7C0803A6 		mtlr 0
 120              		.cfi_restore 65
 121 0048 38210010 		addi 1,1,16
 122              		.cfi_restore 31
 123              		.cfi_def_cfa_offset 0
 124              	.LBB8:
 125 004c 48000000 		b _ZN10GuiElementD2Ev
 126              	.LVL6:
 127              		.loc 1 125 1 view .LVU29
 128              	.LBE8:
 129              		.cfi_endproc
 130              	.LFE2345:
 131              		.size	_ZN7GuiTextD2Ev, .-_ZN7GuiTextD2Ev
 132              		.globl _ZN7GuiTextD1Ev
 133              		.set	_ZN7GuiTextD1Ev,_ZN7GuiTextD2Ev
 134              		.section	.text._ZN7GuiText4DrawEv,"ax",@progbits
 135              		.align 2
 136              		.globl _ZN7GuiText4DrawEv
 137              		.type	_ZN7GuiText4DrawEv, @function
 138              	_ZN7GuiText4DrawEv:
 139              	.LVL7:
 140              	.LFB2358:
 141              		.loc 1 243 1 is_stmt 1 view -0
 142              		.cfi_startproc
 143              		.cfi_personality 0,__gxx_personality_v0
 144              		.cfi_lsda 0,.LLSDA2358
 145              		.loc 1 244 2 view .LVU31
 146 0000 81230084 		lwz 9,132(3)
 147 0004 2C090000 		cmpwi 0,9,0
 148 0008 4D820020 		beqlr- 0
 149              		.loc 1 247 2 view .LVU32
 150              		.loc 1 243 1 is_stmt 0 view .LVU33
 151 000c 9421FF30 		stwu 1,-208(1)
 152              		.cfi_def_cfa_offset 208
 153 0010 7D800026 		mfcr 12
 154 0014 7C0802A6 		mflr 0
 155 0018 93E100C4 		stw 31,196(1)
 156              		.cfi_register 65, 0
 157              		.cfi_offset 31, -12
 158 001c 7C7F1B78 		mr 31,3
 159 0020 900100D4 		stw 0,212(1)
 160 0024 91810080 		stw 12,128(1)
 161              	.LEHB0:
 162              		.cfi_offset 65, 4
 163              		.cfi_offset 70, -80
 164              		.loc 1 247 15 view .LVU34
 165 0028 48000001 		bl _ZN10GuiElement9IsVisibleEv
 166              	.LVL8:
 167              		.loc 1 247 2 discriminator 1 view .LVU35
 168 002c 2C030000 		cmpwi 0,3,0
 169 0030 40820020 		bne- 0,.L85
 170              		.loc 1 392 1 view .LVU36
 171 0034 800100D4 		lwz 0,212(1)
 172 0038 81810080 		lwz 12,128(1)
 173              		.cfi_remember_state
 174              		.cfi_register 70, 12
 175 003c 83E100C4 		lwz 31,196(1)
 176              	.LVL9:
 177              		.loc 1 392 1 view .LVU37
 178 0040 7C0803A6 		mtlr 0
 179              		.cfi_restore 65
 180 0044 7D808120 		mtcrf 8,12
 181              		.cfi_restore 70
 182 0048 382100D0 		addi 1,1,208
 183              		.cfi_restore 31
 184              		.cfi_def_cfa_offset 0
 185 004c 4E800020 		blr
 186              	.LVL10:
 187              	.L85:
 188              		.cfi_restore_state
 189              		.loc 1 250 2 is_stmt 1 view .LVU38
 190              		.loc 1 251 22 is_stmt 0 view .LVU39
 191 0050 7FE3FB78 		mr 3,31
 192 0054 932100AC 		stw 25,172(1)
 193              		.cfi_offset 25, -36
 194 0058 934100B0 		stw 26,176(1)
 195              		.cfi_offset 26, -32
 196 005c 93A100BC 		stw 29,188(1)
 197              		.cfi_offset 29, -20
 198              		.loc 1 253 20 view .LVU40
 199 0060 3FA00000 		lis 29,.LC1@ha
 200 0064 DBE100C8 		stfd 31,200(1)
 201              		.cfi_offset 63, -8
 202              		.loc 1 250 10 view .LVU41
 203 0068 833F00AA 		lwz 25,170(31)
 204              	.LVL11:
 205              		.loc 1 251 2 is_stmt 1 view .LVU42
 206 006c 938100B8 		stw 28,184(1)
 207              		.cfi_offset 28, -24
 208 0070 93C100C0 		stw 30,192(1)
 209              		.cfi_offset 30, -16
 210              		.loc 1 251 22 is_stmt 0 view .LVU43
 211 0074 48000001 		bl _ZN10GuiElement8GetAlphaEv
 212              	.LVL12:
 213              		.loc 1 253 20 view .LVU44
 214 0078 813F0088 		lwz 9,136(31)
 215 007c 3D004330 		lis 8,0x4330
 216 0080 91010058 		stw 8,88(1)
 217              		.loc 1 251 22 view .LVU45
 218 0084 7C6A1B78 		mr 10,3
 219              		.loc 1 253 20 view .LVU46
 220 0088 6D298000 		xoris 9,9,0x8000
 221 008c C01D0000 		lfs 0,.LC1@l(29)
 222 0090 9121005C 		stw 9,92(1)
 223              		.loc 1 253 29 view .LVU47
 224 0094 7FE3FB78 		mr 3,31
 225              	.LVL13:
 226              		.loc 1 251 6 discriminator 1 view .LVU48
 227 0098 5159063E 		rlwimi 25,10,0,255
 228              	.LVL14:
 229              		.loc 1 253 2 is_stmt 1 view .LVU49
 230              		.loc 1 253 20 is_stmt 0 view .LVU50
 231 009c C9810058 		lfd 12,88(1)
 232 00a0 FFEC0028 		fsub 31,12,0
 233              		.loc 1 253 29 view .LVU51
 234 00a4 48000001 		bl _ZN10GuiElement8GetScaleEv
 235              	.LVL15:
 236              		.loc 1 253 30 discriminator 1 view .LVU52
 237 00a8 39210078 		addi 9,1,120
 238              		.loc 1 253 20 view .LVU53
 239 00ac FFE0F818 		frsp 31,31
 240              	.LVL16:
 241              		.loc 1 255 2 is_stmt 1 view .LVU54
 242              		.loc 1 253 20 is_stmt 0 discriminator 1 view .LVU55
 243 00b0 EFFF0072 		fmuls 31,31,1
 244              	.LVL17:
 245              		.loc 1 253 30 discriminator 1 view .LVU56
 246 00b4 FFE0F81E 		fctiwz 31,31
 247 00b8 7FE04FAE 		stfiwx 31,0,9
 248 00bc 83410078 		lwz 26,120(1)
 249              		.loc 1 255 2 view .LVU57
 250 00c0 2C1A0064 		cmpwi 0,26,100
 251 00c4 41810280 		bgt- 0,.L86
 252              	.LVL18:
 253              		.loc 1 258 2 is_stmt 1 view .LVU58
 254              		.loc 1 258 13 is_stmt 0 view .LVU59
 255 00c8 3F800000 		lis 28,_ZL11currentSize@ha
 256              		.loc 1 258 2 view .LVU60
 257 00cc 813C0000 		lwz 9,_ZL11currentSize@l(28)
 258 00d0 7C09D000 		cmpw 0,9,26
 259 00d4 40820284 		bne- 0,.L87
 260              	.L22:
 261              		.loc 1 266 2 is_stmt 1 view .LVU61
 262              	.LBB9:
 263 00d8 813F008C 		lwz 9,140(31)
 264 00dc 2C090000 		cmpwi 0,9,0
 265 00e0 408102B0 		ble- 0,.L24
 266              	.L94:
 267              	.LBB10:
 268              		.loc 1 268 3 view .LVU62
 269              		.loc 1 268 29 is_stmt 0 view .LVU63
 270 00e4 807F0084 		lwz 3,132(31)
 271 00e8 92610094 		stw 19,148(1)
 272              		.cfi_offset 19, -60
 273 00ec 930100A8 		stw 24,168(1)
 274              		.cfi_offset 24, -40
 275 00f0 48000001 		bl wcsdup
 276              	.LVL19:
 277              		.loc 1 269 25 view .LVU64
 278 00f4 815F008C 		lwz 10,140(31)
 279 00f8 3D004330 		lis 8,0x4330
 280 00fc 91010060 		stw 8,96(1)
 281              		.loc 1 269 31 view .LVU65
 282 0100 6F498000 		xoris 9,26,0x8000
 283              		.loc 1 269 25 view .LVU66
 284 0104 6D4A8000 		xoris 10,10,0x8000
 285 0108 C19D0000 		lfs 12,.LC1@l(29)
 286 010c 91410064 		stw 10,100(1)
 287              		.loc 1 268 29 view .LVU67
 288 0110 7C781B78 		mr 24,3
 289              	.LVL20:
 290              		.loc 1 269 3 is_stmt 1 view .LVU68
 291              		.loc 1 269 31 is_stmt 0 view .LVU69
 292 0114 9121006C 		stw 9,108(1)
 293              		.loc 1 269 6 view .LVU70
 294 0118 39210074 		addi 9,1,116
 295              		.loc 1 269 25 view .LVU71
 296 011c C8010060 		lfd 0,96(1)
 297              		.loc 1 269 31 view .LVU72
 298 0120 91010068 		stw 8,104(1)
 299              		.loc 1 269 25 view .LVU73
 300 0124 FC006028 		fsub 0,0,12
 301              		.loc 1 269 31 view .LVU74
 302 0128 C9610068 		lfd 11,104(1)
 303              		.loc 1 271 3 view .LVU75
 304 012c 83BF0094 		lwz 29,148(31)
 305              		.loc 1 269 25 view .LVU76
 306 0130 FC00002A 		fadd 0,0,0
 307              		.loc 1 269 31 view .LVU77
 308 0134 FD8B6028 		fsub 12,11,12
 309              		.loc 1 271 3 view .LVU78
 310 0138 2C1D0000 		cmpwi 0,29,0
 311              		.loc 1 269 31 view .LVU79
 312 013c FC006024 		fdiv 0,0,12
 313              		.loc 1 269 6 view .LVU80
 314 0140 FC00001E 		fctiwz 0,0
 315 0144 7C004FAE 		stfiwx 0,0,9
 316 0148 83C10074 		lwz 30,116(1)
 317 014c 7FD3F378 		mr 19,30
 318              	.LVL21:
 319              		.loc 1 271 3 is_stmt 1 view .LVU81
 320 0150 41820434 		beq- 0,.L88
 321              	.LVL22:
 322              	.L25:
 323              		.loc 1 278 3 view .LVU82
 324              	.LBB11:
 325 0154 813F0098 		lwz 9,152(31)
 326 0158 2C090001 		cmpwi 0,9,1
 327 015c 41820364 		beq- 0,.L89
 328              	.LBE11:
 329              	.LBE10:
 330              	.LBE9:
 331              		.loc 1 315 8 view .LVU83
 332              	.LBB42:
 333              	.LBB38:
 334              	.LBB33:
 335              	.LBB12:
 336 0160 893F0090 		lbz 9,144(31)
 337 0164 2C090000 		cmpwi 0,9,0
 338 0168 418203A8 		beq- 0,.L36
 339              	.LBB13:
 340              		.loc 1 317 4 view .LVU84
 341              		.loc 1 318 23 is_stmt 0 view .LVU85
 342 016c 807F0084 		lwz 3,132(31)
 343              		.loc 1 317 8 view .LVU86
 344 0170 3B5A0006 		addi 26,26,6
 345              	.LVL23:
 346              		.loc 1 318 4 is_stmt 1 view .LVU87
 347 0174 92E100A4 		stw 23,164(1)
 348              		.cfi_offset 23, -44
 349              		.loc 1 318 23 is_stmt 0 view .LVU88
 350 0178 48000001 		bl wcslen
 351              	.LVL24:
 352              		.loc 1 319 4 is_stmt 1 view .LVU89
 353              		.loc 1 320 4 view .LVU90
 354              		.loc 1 321 4 view .LVU91
 355              		.loc 1 322 4 view .LVU92
 356              		.loc 1 323 4 view .LVU93
 357              		.loc 1 324 4 view .LVU94
 358              		.loc 1 326 4 view .LVU95
 359              		.loc 1 326 13 view .LVU96
 360 017c 7C771B79 		mr. 23,3
 361 0180 40810460 		ble- 0,.L82
 362 0184 92810098 		stw 20,152(1)
 363              		.cfi_offset 20, -56
 364 0188 3D202000 		lis 9,0x2000
 365              		.loc 1 329 44 is_stmt 0 view .LVU97
 366 018c 3A970001 		addi 20,23,1
 367 0190 91E10084 		stw 15,132(1)
 368              		.cfi_offset 15, -76
 369 0194 7C144840 		cmplw 0,20,9
 370 0198 92010088 		stw 16,136(1)
 371              		.cfi_offset 16, -72
 372 019c 9221008C 		stw 17,140(1)
 373              		.cfi_offset 17, -68
 374              		.loc 1 329 47 discriminator 1 view .LVU98
 375 01a0 5694103A 		slwi 20,20,2
 376 01a4 92410090 		stw 18,144(1)
 377              		.cfi_offset 18, -64
 378 01a8 92A1009C 		stw 21,156(1)
 379              		.cfi_offset 21, -52
 380 01ac 92C100A0 		stw 22,160(1)
 381              		.cfi_offset 22, -48
 382 01b0 936100B4 		stw 27,180(1)
 383              		.cfi_offset 27, -28
 384 01b4 408004DC 		bge- 0,.L90
 385              		.loc 1 344 37 discriminator 1 view .LVU99
 386 01b8 5673063E 		rlwinm 19,19,0,0xff
 387              	.LVL25:
 388              		.loc 1 323 8 view .LVU100
 389 01bc 3A20FFFF 		li 17,-1
 390              		.loc 1 322 8 view .LVU101
 391 01c0 3A00FFFF 		li 16,-1
 392              		.loc 1 321 8 view .LVU102
 393 01c4 3B600000 		li 27,0
 394              		.loc 1 320 8 view .LVU103
 395 01c8 3BC00000 		li 30,0
 396              	.LVL26:
 397              		.loc 1 319 8 view .LVU104
 398 01cc 3B800000 		li 28,0
 399 01d0 3AA10008 		addi 21,1,8
 400              		.loc 1 340 27 view .LVU105
 401 01d4 3AC00000 		li 22,0
 402              		.loc 1 356 26 view .LVU106
 403 01d8 3A57FFFF 		addi 18,23,-1
 404              	.LVL27:
 405              	.L38:
 406              		.loc 1 328 5 is_stmt 1 view .LVU107
 407 01dc 2E1C0000 		cmpwi 4,28,0
 408 01e0 40920230 		bne- 4,.L39
 409              	.LVL28:
 410              		.loc 1 329 6 view .LVU108
 411              		.loc 1 329 47 is_stmt 0 discriminator 3 view .LVU109
 412 01e4 7E83A378 		mr 3,20
 413              		.loc 1 331 20 view .LVU110
 414 01e8 57CF103A 		slwi 15,30,2
 415              		.loc 1 329 47 discriminator 3 view .LVU111
 416 01ec 48000001 		bl _Znaj
 417              	.LVL29:
 418              		.loc 1 331 20 view .LVU112
 419 01f0 815F0084 		lwz 10,132(31)
 420              		.loc 1 329 23 discriminator 4 view .LVU113
 421 01f4 5769103A 		slwi 9,27,2
 422              		.loc 1 329 47 discriminator 3 view .LVU114
 423 01f8 7C7D1B78 		mr 29,3
 424              		.loc 1 331 20 view .LVU115
 425 01fc 7D0A782E 		lwzx 8,10,15
 426              		.loc 1 329 23 discriminator 4 view .LVU116
 427 0200 7C75492E 		stwx 3,21,9
 428              		.loc 1 331 5 is_stmt 1 view .LVU117
 429              		.loc 1 332 24 is_stmt 0 view .LVU118
 430 0204 5789103A 		slwi 9,28,2
 431              		.loc 1 331 5 view .LVU119
 432 0208 2C08000A 		cmpwi 0,8,10
 433              		.loc 1 332 24 view .LVU120
 434 020c 7CFD4A14 		add 7,29,9
 435              		.loc 1 331 5 view .LVU121
 436 0210 41820224 		beq- 0,.L91
 437              	.LVL30:
 438              	.L41:
 439              		.loc 1 339 5 is_stmt 1 view .LVU122
 440              		.loc 1 339 25 is_stmt 0 view .LVU123
 441 0214 7D1D492E 		stwx 8,29,9
 442              		.loc 1 340 5 is_stmt 1 view .LVU124
 443              		.loc 1 340 27 is_stmt 0 view .LVU125
 444 0218 92C70004 		stw 22,4(7)
 445              		.loc 1 342 5 is_stmt 1 view .LVU126
 446 021c 7D2A782E 		lwzx 9,10,15
 447 0220 2C090020 		cmpwi 0,9,32
 448 0224 4182025C 		beq- 0,.L43
 449              		.loc 1 342 29 is_stmt 0 discriminator 1 view .LVU127
 450 0228 7C12F000 		cmpw 0,18,30
 451 022c 4182021C 		beq- 0,.L44
 452              		.loc 1 367 6 view .LVU128
 453 0230 3B9C0001 		addi 28,28,1
 454              	.LVL31:
 455              	.L45:
 456              		.loc 1 366 5 is_stmt 1 view .LVU129
 457              		.loc 1 366 7 is_stmt 0 view .LVU130
 458 0234 3BDE0001 		addi 30,30,1
 459              	.LVL32:
 460              		.loc 1 367 5 is_stmt 1 view .LVU131
 461              	.L42:
 462              		.loc 1 326 13 view .LVU132
 463 0238 7C17F000 		cmpw 0,23,30
 464 023c 4181FFA0 		bgt+ 0,.L38
 465              		.loc 1 370 4 view .LVU133
 466              	.LVL33:
 467              		.loc 1 372 4 view .LVU134
 468 0240 813F0064 		lwz 9,100(31)
 469              		.loc 1 370 8 is_stmt 0 view .LVU135
 470 0244 3AC00000 		li 22,0
 471              		.loc 1 372 4 view .LVU136
 472 0248 2C090005 		cmpwi 0,9,5
 473 024c 41820314 		beq- 0,.L92
 474              	.LVL34:
 475              	.L52:
 476              		.loc 1 375 4 is_stmt 1 view .LVU137
 477              		.loc 1 375 15 discriminator 1 view .LVU138
 478 0250 2C1B0000 		cmpwi 0,27,0
 479 0254 40810084 		ble- 0,.L83
 480 0258 3E800000 		lis 20,fontSystem@ha
 481 025c 3EA00000 		lis 21,_ZL11currentSize@ha
 482 0260 3A940000 		la 20,fontSystem@l(20)
 483 0264 3AB50000 		la 21,_ZL11currentSize@l(21)
 484 0268 3AE10004 		addi 23,1,4
 485              	.LVL35:
 486              		.loc 1 377 66 is_stmt 0 discriminator 2 view .LVU139
 487 026c 3BC00000 		li 30,0
 488              	.LVL36:
 489              	.L54:
 490              		.loc 1 377 5 is_stmt 1 view .LVU140
 491              		.loc 1 377 27 is_stmt 0 view .LVU141
 492 0270 81350000 		lwz 9,0(21)
 493              		.loc 1 377 46 view .LVU142
 494 0274 7FE3FB78 		mr 3,31
 495              		.loc 1 377 27 view .LVU143
 496 0278 5529103A 		slwi 9,9,2
 497 027c 7E74482E 		lwzx 19,20,9
 498              		.loc 1 377 46 view .LVU144
 499 0280 48000001 		bl _ZN10GuiElement7GetLeftEv
 500              	.LVL37:
 501 0284 7C7D1B78 		mr 29,3
 502              		.loc 1 377 56 discriminator 1 view .LVU145
 503 0288 7FE3FB78 		mr 3,31
 504 028c 48000001 		bl _ZN10GuiElement6GetTopEv
 505              	.LVL38:
 506              		.loc 1 377 38 discriminator 2 view .LVU146
 507 0290 87970004 		lwzu 28,4(23)
 508              		.loc 1 377 66 discriminator 2 view .LVU147
 509 0294 7CA3F214 		add 5,3,30
 510              		.loc 1 377 38 discriminator 2 view .LVU148
 511 0298 A11F00A8 		lhz 8,168(31)
 512              		.loc 1 377 66 discriminator 2 view .LVU149
 513 029c 7CA5B214 		add 5,5,22
 514              		.loc 1 377 38 discriminator 2 view .LVU150
 515 02a0 7FA40734 		extsh 4,29
 516 02a4 7CA50734 		extsh 5,5
 517 02a8 7E639B78 		mr 3,19
 518 02ac 7F86E378 		mr 6,28
 519 02b0 38E10070 		addi 7,1,112
 520 02b4 93210070 		stw 25,112(1)
 521 02b8 48000001 		bl _ZN10FreeTypeGX8drawTextEssPw9_gx_colort
 522              	.LVL39:
 523              		.loc 1 378 5 is_stmt 1 view .LVU151
 524 02bc 2C1C0000 		cmpwi 0,28,0
 525 02c0 4182000C 		beq- 0,.L53
 526              		.loc 1 378 23 is_stmt 0 discriminator 1 view .LVU152
 527 02c4 7F83E378 		mr 3,28
 528 02c8 48000001 		bl _ZdaPv
 529              	.LVL40:
 530              	.L53:
 531              		.loc 1 375 4 is_stmt 1 discriminator 2 view .LVU153
 532              		.loc 1 375 15 discriminator 1 view .LVU154
 533 02cc 377BFFFF 		addic. 27,27,-1
 534 02d0 7FDED214 		add 30,30,26
 535 02d4 4082FF9C 		bne+ 0,.L54
 536              	.LVL41:
 537              	.L83:
 538              		.loc 1 375 15 is_stmt 0 discriminator 1 view .LVU155
 539 02d8 81E10084 		lwz 15,132(1)
 540              		.cfi_restore 15
 541 02dc 82010088 		lwz 16,136(1)
 542              		.cfi_restore 16
 543              	.LVL42:
 544              		.loc 1 375 15 discriminator 1 view .LVU156
 545 02e0 8221008C 		lwz 17,140(1)
 546              		.cfi_restore 17
 547              	.LVL43:
 548              		.loc 1 375 15 discriminator 1 view .LVU157
 549 02e4 82410090 		lwz 18,144(1)
 550              		.cfi_restore 18
 551              	.LVL44:
 552              		.loc 1 375 15 discriminator 1 view .LVU158
 553 02e8 82810098 		lwz 20,152(1)
 554              		.cfi_restore 20
 555 02ec 82A1009C 		lwz 21,156(1)
 556              		.cfi_restore 21
 557 02f0 82C100A0 		lwz 22,160(1)
 558              		.cfi_restore 22
 559              	.LVL45:
 560              		.loc 1 375 15 discriminator 1 view .LVU159
 561 02f4 82E100A4 		lwz 23,164(1)
 562              		.cfi_restore 23
 563 02f8 836100B4 		lwz 27,180(1)
 564              		.cfi_restore 27
 565              	.LVL46:
 566              	.L35:
 567              		.loc 1 375 15 discriminator 1 view .LVU160
 568              	.LBE13:
 569              	.LBE12:
 570              	.LBE33:
 571              		.loc 1 385 3 is_stmt 1 view .LVU161
 572              		.loc 1 385 7 is_stmt 0 view .LVU162
 573 02fc 7F03C378 		mr 3,24
 574 0300 48000001 		bl free
 575              	.LVL47:
 576              	.LBE38:
 577              	.LBE42:
 578              		.loc 1 392 1 view .LVU163
 579 0304 81810080 		lwz 12,128(1)
 580              		.cfi_register 70, 12
 581 0308 800100D4 		lwz 0,212(1)
 582              		.loc 1 391 15 view .LVU164
 583 030c 7FE3FB78 		mr 3,31
 584              	.LBB43:
 585 0310 82610094 		lwz 19,148(1)
 586              		.cfi_restore 19
 587              	.LBE43:
 588              		.loc 1 392 1 view .LVU165
 589 0314 7D808120 		mtcrf 8,12
 590              		.cfi_restore 70
 591              	.LBB44:
 592 0318 830100A8 		lwz 24,168(1)
 593              		.cfi_restore 24
 594              	.LVL48:
 595              		.loc 1 392 1 view .LVU166
 596              	.LBE44:
 597              		.loc 1 391 2 is_stmt 1 view .LVU167
 598              		.loc 1 392 1 is_stmt 0 view .LVU168
 599 031c 7C0803A6 		mtlr 0
 600              		.cfi_restore 65
 601              		.loc 1 391 15 view .LVU169
 602 0320 CBE100C8 		lfd 31,200(1)
 603              		.cfi_restore 63
 604 0324 832100AC 		lwz 25,172(1)
 605              		.cfi_restore 25
 606              	.LVL49:
 607              		.loc 1 391 15 view .LVU170
 608 0328 834100B0 		lwz 26,176(1)
 609              		.cfi_restore 26
 610 032c 838100B8 		lwz 28,184(1)
 611              		.cfi_restore 28
 612 0330 83A100BC 		lwz 29,188(1)
 613              		.cfi_restore 29
 614 0334 83C100C0 		lwz 30,192(1)
 615              		.cfi_restore 30
 616              		.loc 1 392 1 view .LVU171
 617 0338 83E100C4 		lwz 31,196(1)
 618              	.LVL50:
 619              		.loc 1 392 1 view .LVU172
 620 033c 382100D0 		addi 1,1,208
 621              		.cfi_restore 31
 622              		.cfi_def_cfa_offset 0
 623              		.loc 1 391 15 view .LVU173
 624 0340 48000000 		b _ZN10GuiElement13UpdateEffectsEv
 625              	.LVL51:
 626              	.L86:
 627              		.cfi_def_cfa_offset 208
 628              		.cfi_offset 25, -36
 629              		.cfi_offset 26, -32
 630              		.cfi_offset 28, -24
 631              		.cfi_offset 29, -20
 632              		.cfi_offset 30, -16
 633              		.cfi_offset 31, -12
 634              		.cfi_offset 63, -8
 635              		.cfi_offset 65, 4
 636              		.cfi_offset 70, -80
 637              		.loc 1 258 13 view .LVU174
 638 0344 3F800000 		lis 28,_ZL11currentSize@ha
 639              		.loc 1 255 2 view .LVU175
 640 0348 3B400064 		li 26,100
 641              	.LVL52:
 642              		.loc 1 258 2 is_stmt 1 view .LVU176
 643 034c 813C0000 		lwz 9,_ZL11currentSize@l(28)
 644 0350 7C09D000 		cmpw 0,9,26
 645 0354 41A2FD84 		beq- 0,.L22
 646              	.L87:
 647              		.loc 1 261 25 is_stmt 0 view .LVU177
 648 0358 3FC00000 		lis 30,fontSystem@ha
 649 035c 936100B4 		stw 27,180(1)
 650              		.cfi_offset 27, -28
 651              		.loc 1 260 3 is_stmt 1 view .LVU178
 652              		.loc 1 260 17 is_stmt 0 view .LVU179
 653 0360 7F43D378 		mr 3,26
 654              		.loc 1 261 25 view .LVU180
 655 0364 575B103A 		slwi 27,26,2
 656 0368 3BDE0000 		la 30,fontSystem@l(30)
 657              		.loc 1 260 17 view .LVU181
 658 036c 48000001 		bl _Z14ChangeFontSizej
 659              	.LVL53:
 660              		.loc 1 261 3 is_stmt 1 view .LVU182
 661 0370 7D3ED82E 		lwzx 9,30,27
 662 0374 2C090000 		cmpwi 0,9,0
 663 0378 4182023C 		beq- 0,.L93
 664              	.L23:
 665              		.loc 1 263 3 view .LVU183
 666              	.LBB45:
 667              		.loc 1 266 2 is_stmt 0 view .LVU184
 668 037c 813F008C 		lwz 9,140(31)
 669              	.LBE45:
 670              		.loc 1 263 15 view .LVU185
 671 0380 935C0000 		stw 26,_ZL11currentSize@l(28)
 672              	.LBB46:
 673              		.loc 1 266 2 view .LVU186
 674 0384 2C090000 		cmpwi 0,9,0
 675              	.LBE46:
 676              		.loc 1 263 15 view .LVU187
 677 0388 836100B4 		lwz 27,180(1)
 678              		.cfi_restore 27
 679              		.loc 1 266 2 is_stmt 1 view .LVU188
 680              	.LBB47:
 681 038c 4181FD58 		bgt+ 0,.L94
 682              	.L24:
 683              		.loc 1 389 3 view .LVU189
 684              		.loc 1 389 25 is_stmt 0 view .LVU190
 685 0390 3D400000 		lis 10,fontSystem@ha
 686 0394 575A103A 		slwi 26,26,2
 687              	.LVL54:
 688              		.loc 1 389 25 view .LVU191
 689 0398 394A0000 		la 10,fontSystem@l(10)
 690              		.loc 1 389 44 view .LVU192
 691 039c 7FE3FB78 		mr 3,31
 692              		.loc 1 389 25 view .LVU193
 693 03a0 7FAAD02E 		lwzx 29,10,26
 694              		.loc 1 389 44 view .LVU194
 695 03a4 48000001 		bl _ZN10GuiElement7GetLeftEv
 696              	.LVL55:
 697 03a8 7C7E1B78 		mr 30,3
 698              		.loc 1 389 54 discriminator 1 view .LVU195
 699 03ac 7FE3FB78 		mr 3,31
 700 03b0 48000001 		bl _ZN10GuiElement6GetTopEv
 701              	.LVL56:
 702              		.loc 1 389 36 discriminator 2 view .LVU196
 703 03b4 A11F00A8 		lhz 8,168(31)
 704 03b8 80DF0084 		lwz 6,132(31)
 705              		.loc 1 389 54 discriminator 1 view .LVU197
 706 03bc 7C651B78 		mr 5,3
 707              		.loc 1 389 36 discriminator 2 view .LVU198
 708 03c0 7FC40734 		extsh 4,30
 709 03c4 7FA3EB78 		mr 3,29
 710 03c8 38E10070 		addi 7,1,112
 711 03cc 7CA50734 		extsh 5,5
 712              	.LVL57:
 713              		.loc 1 389 36 discriminator 2 view .LVU199
 714 03d0 93210070 		stw 25,112(1)
 715 03d4 48000001 		bl _ZN10FreeTypeGX8drawTextEssPw9_gx_colort
 716              	.LVL58:
 717              	.LBE47:
 718              		.loc 1 391 2 is_stmt 1 view .LVU200
 719              		.loc 1 392 1 is_stmt 0 view .LVU201
 720 03d8 81810080 		lwz 12,128(1)
 721              		.cfi_register 70, 12
 722              		.loc 1 391 15 view .LVU202
 723 03dc 7FE3FB78 		mr 3,31
 724              		.loc 1 392 1 view .LVU203
 725 03e0 800100D4 		lwz 0,212(1)
 726              		.loc 1 391 15 view .LVU204
 727 03e4 CBE100C8 		lfd 31,200(1)
 728              		.cfi_restore 63
 729              		.loc 1 392 1 view .LVU205
 730 03e8 7D808120 		mtcrf 8,12
 731              		.cfi_restore 70
 732              		.loc 1 391 15 view .LVU206
 733 03ec 832100AC 		lwz 25,172(1)
 734              		.cfi_restore 25
 735              	.LVL59:
 736              		.loc 1 392 1 view .LVU207
 737 03f0 7C0803A6 		mtlr 0
 738              		.cfi_restore 65
 739              		.loc 1 391 15 view .LVU208
 740 03f4 834100B0 		lwz 26,176(1)
 741              		.cfi_restore 26
 742 03f8 838100B8 		lwz 28,184(1)
 743              		.cfi_restore 28
 744 03fc 83A100BC 		lwz 29,188(1)
 745              		.cfi_restore 29
 746 0400 83C100C0 		lwz 30,192(1)
 747              		.cfi_restore 30
 748              		.loc 1 392 1 view .LVU209
 749 0404 83E100C4 		lwz 31,196(1)
 750              	.LVL60:
 751              		.loc 1 392 1 view .LVU210
 752 0408 382100D0 		addi 1,1,208
 753              		.cfi_restore 31
 754              		.cfi_def_cfa_offset 0
 755              		.loc 1 391 15 view .LVU211
 756 040c 48000000 		b _ZN10GuiElement13UpdateEffectsEv
 757              	.LVL61:
 758              	.L39:
 759              		.cfi_def_cfa_offset 208
 760              		.cfi_offset 15, -76
 761              		.cfi_offset 16, -72
 762              		.cfi_offset 17, -68
 763              		.cfi_offset 18, -64
 764              		.cfi_offset 19, -60
 765              		.cfi_offset 20, -56
 766              		.cfi_offset 21, -52
 767              		.cfi_offset 22, -48
 768              		.cfi_offset 23, -44
 769              		.cfi_offset 24, -40
 770              		.cfi_offset 25, -36
 771              		.cfi_offset 26, -32
 772              		.cfi_offset 27, -28
 773              		.cfi_offset 28, -24
 774              		.cfi_offset 29, -20
 775              		.cfi_offset 30, -16
 776              		.cfi_offset 31, -12
 777              		.cfi_offset 63, -8
 778              		.cfi_offset 65, 4
 779              		.cfi_offset 70, -80
 780              	.LBB48:
 781              	.LBB39:
 782              	.LBB34:
 783              	.LBB17:
 784              	.LBB14:
 785              		.loc 1 331 20 view .LVU212
 786 0410 815F0084 		lwz 10,132(31)
 787 0414 57CF103A 		slwi 15,30,2
 788              		.loc 1 332 21 view .LVU213
 789 0418 5769103A 		slwi 9,27,2
 790              		.loc 1 331 20 view .LVU214
 791 041c 7D0A782E 		lwzx 8,10,15
 792              		.loc 1 332 21 view .LVU215
 793 0420 7FB5482E 		lwzx 29,21,9
 794              		.loc 1 331 5 is_stmt 1 view .LVU216
 795              		.loc 1 332 24 is_stmt 0 view .LVU217
 796 0424 5789103A 		slwi 9,28,2
 797              		.loc 1 331 5 view .LVU218
 798 0428 2C08000A 		cmpwi 0,8,10
 799              		.loc 1 332 24 view .LVU219
 800 042c 7CFD4A14 		add 7,29,9
 801              		.loc 1 331 5 view .LVU220
 802 0430 4082FDE4 		bne+ 0,.L41
 803              	.LVL62:
 804              	.L91:
 805              		.loc 1 332 6 is_stmt 1 view .LVU221
 806              		.loc 1 332 26 is_stmt 0 view .LVU222
 807 0434 7EDD492E 		stwx 22,29,9
 808              		.loc 1 333 6 is_stmt 1 view .LVU223
 809              	.LVL63:
 810              		.loc 1 334 6 view .LVU224
 811              		.loc 1 334 13 is_stmt 0 view .LVU225
 812 0438 3B7B0001 		addi 27,27,1
 813              	.LVL64:
 814              		.loc 1 335 6 is_stmt 1 view .LVU226
 815              		.loc 1 335 8 is_stmt 0 view .LVU227
 816 043c 3BDE0001 		addi 30,30,1
 817              	.LVL65:
 818              		.loc 1 336 6 is_stmt 1 view .LVU228
 819              		.loc 1 333 8 is_stmt 0 view .LVU229
 820 0440 3B800000 		li 28,0
 821              		.loc 1 336 6 view .LVU230
 822 0444 4BFFFDF4 		b .L42
 823              	.LVL66:
 824              	.L44:
 825              		.loc 1 344 6 is_stmt 1 view .LVU231
 826              		.loc 1 344 15 is_stmt 0 view .LVU232
 827 0448 7FA3EB78 		mr 3,29
 828 044c 48000001 		bl wcslen
 829              	.LVL67:
 830              		.loc 1 344 6 discriminator 1 view .LVU233
 831 0450 7C039840 		cmplw 0,3,19
 832 0454 41800128 		blt- 0,.L58
 833              	.L57:
 834              		.loc 1 346 7 is_stmt 1 view .LVU234
 835 0458 2C100000 		cmpwi 0,16,0
 836 045c 41800018 		blt- 0,.L47
 837              		.loc 1 348 8 view .LVU235
 838              		.loc 1 348 41 is_stmt 0 view .LVU236
 839 0460 5631103A 		slwi 17,17,2
 840              	.LVL68:
 841              		.loc 1 349 11 view .LVU237
 842 0464 7E1E8378 		mr 30,16
 843              	.LVL69:
 844              		.loc 1 348 41 view .LVU238
 845 0468 7EDD892E 		stwx 22,29,17
 846              		.loc 1 349 8 is_stmt 1 view .LVU239
 847              	.LVL70:
 848              		.loc 1 350 8 view .LVU240
 849              		.loc 1 351 8 view .LVU241
 850              		.loc 1 350 18 is_stmt 0 view .LVU242
 851 046c 3A00FFFF 		li 16,-1
 852              		.loc 1 351 23 view .LVU243
 853 0470 3A20FFFF 		li 17,-1
 854              	.LVL71:
 855              	.L47:
 856              		.loc 1 353 7 is_stmt 1 view .LVU244
 857              		.loc 1 353 14 is_stmt 0 view .LVU245
 858 0474 3B7B0001 		addi 27,27,1
 859              	.LVL72:
 860              		.loc 1 354 7 is_stmt 1 view .LVU246
 861              		.loc 1 361 5 view .LVU247
 862 0478 3B800000 		li 28,0
 863 047c 4BFFFDB8 		b .L45
 864              	.LVL73:
 865              	.L43:
 866              		.loc 1 344 6 view .LVU248
 867              		.loc 1 344 15 is_stmt 0 view .LVU249
 868 0480 7FA3EB78 		mr 3,29
 869 0484 48000001 		bl wcslen
 870              	.LVL74:
 871              		.loc 1 344 6 discriminator 1 view .LVU250
 872 0488 7C039840 		cmplw 0,3,19
 873 048c 40A0FFCC 		bge- 0,.L57
 874              		.loc 1 356 11 is_stmt 1 view .LVU251
 875 0490 7C12F000 		cmpw 0,18,30
 876 0494 418200E8 		beq- 0,.L58
 877              	.L49:
 878              	.LVL75:
 879              		.loc 1 361 5 view .LVU252
 880              		.loc 1 361 19 is_stmt 0 view .LVU253
 881 0498 815F0084 		lwz 10,132(31)
 882              		.loc 1 367 6 view .LVU254
 883 049c 393C0001 		addi 9,28,1
 884              		.loc 1 361 5 view .LVU255
 885 04a0 7D4A782E 		lwzx 10,10,15
 886 04a4 2C0A0020 		cmpwi 0,10,32
 887 04a8 40820010 		bne- 0,.L84
 888              		.loc 1 361 29 discriminator 1 view .LVU256
 889 04ac 4190000C 		blt- 4,.L84
 890              		.loc 1 364 21 view .LVU257
 891 04b0 7F91E378 		mr 17,28
 892              	.LVL76:
 893              		.loc 1 363 16 view .LVU258
 894 04b4 7FD0F378 		mr 16,30
 895              	.LVL77:
 896              	.L84:
 897              		.loc 1 363 16 view .LVU259
 898 04b8 7D3C4B78 		mr 28,9
 899              	.LVL78:
 900              		.loc 1 363 16 view .LVU260
 901 04bc 4BFFFD78 		b .L45
 902              	.LVL79:
 903              	.L89:
 904              		.cfi_restore 15
 905              		.cfi_restore 16
 906              		.cfi_restore 17
 907              		.cfi_restore 18
 908              		.cfi_restore 20
 909              		.cfi_restore 21
 910              		.cfi_restore 22
 911              		.cfi_restore 23
 912              		.cfi_restore 27
 913              		.loc 1 363 16 view .LVU261
 914              	.LBE14:
 915              	.LBE17:
 916              	.LBB18:
 917              		.loc 1 280 4 is_stmt 1 view .LVU262
 918              		.loc 1 280 24 is_stmt 0 view .LVU263
 919 04c0 807F0084 		lwz 3,132(31)
 920              	.LBB19:
 921              		.loc 1 282 17 view .LVU264
 922 04c4 57DE063E 		rlwinm 30,30,0,0xff
 923              	.LBE19:
 924              		.loc 1 280 24 view .LVU265
 925 04c8 48000001 		bl wcslen
 926              	.LVL80:
 927              		.loc 1 282 4 is_stmt 1 view .LVU266
 928              	.LBB24:
 929 04cc 7C1E1800 		cmpw 0,30,3
 930 04d0 408000DC 		bge- 0,.L30
 931              		.loc 1 282 40 is_stmt 0 discriminator 1 view .LVU267
 932 04d4 3D200000 		lis 9,FrameTimer@ha
 933 04d8 815F00A4 		lwz 10,164(31)
 934 04dc 81290000 		lwz 9,FrameTimer@l(9)
 935 04e0 7C895396 		divwu 4,9,10
 936 04e4 7C8451D6 		mullw 4,4,10
 937              		.loc 1 282 25 discriminator 1 view .LVU268
 938 04e8 7C844851 		subf. 4,4,9
 939 04ec 408200C0 		bne- 0,.L30
 940              	.LBE24:
 941              	.LBE18:
 942              	.LBE34:
 943              	.LBE39:
 944              	.LBE48:
 945              		.loc 1 284 5 is_stmt 1 view .LVU269
 946              	.LBB49:
 947              	.LBB40:
 948              	.LBB35:
 949              	.LBB28:
 950              	.LBB25:
 951              	.LBB20:
 952              		.loc 1 284 8 is_stmt 0 view .LVU270
 953 04f0 813F00A0 		lwz 9,160(31)
 954              		.loc 1 284 5 view .LVU271
 955 04f4 2C090000 		cmpwi 0,9,0
 956 04f8 418200F0 		beq- 0,.L31
 957              		.loc 1 286 6 is_stmt 1 view .LVU272
 958              		.loc 1 286 28 is_stmt 0 view .LVU273
 959 04fc 3929FFFF 		addi 9,9,-1
 960              	.LBE20:
 961              	.LBE25:
 962              		.loc 1 312 7 view .LVU274
 963 0500 807F0094 		lwz 3,148(31)
 964              	.LVL81:
 965              	.LBB26:
 966              	.LBB22:
 967              		.loc 1 286 28 view .LVU275
 968 0504 913F00A0 		stw 9,160(31)
 969              	.L29:
 970              	.LBE22:
 971              	.LBE26:
 972              		.loc 1 312 4 is_stmt 1 view .LVU276
 973 0508 2C030000 		cmpwi 0,3,0
 974 050c 41A2FDF0 		beq- 0,.L35
 975              	.LVL82:
 976              	.L36:
 977              		.loc 1 312 4 is_stmt 0 view .LVU277
 978              	.LBE28:
 979              	.LBB29:
 980              		.loc 1 383 4 is_stmt 1 view .LVU278
 981              		.loc 1 383 26 is_stmt 0 view .LVU279
 982 0510 813C0000 		lwz 9,_ZL11currentSize@l(28)
 983 0514 3D400000 		lis 10,fontSystem@ha
 984 0518 394A0000 		la 10,fontSystem@l(10)
 985              		.loc 1 383 45 view .LVU280
 986 051c 7FE3FB78 		mr 3,31
 987              		.loc 1 383 26 view .LVU281
 988 0520 5529103A 		slwi 9,9,2
 989 0524 7FAA482E 		lwzx 29,10,9
 990              		.loc 1 383 45 view .LVU282
 991 0528 48000001 		bl _ZN10GuiElement7GetLeftEv
 992              	.LVL83:
 993 052c 7C7E1B78 		mr 30,3
 994              		.loc 1 383 55 discriminator 1 view .LVU283
 995 0530 7FE3FB78 		mr 3,31
 996 0534 48000001 		bl _ZN10GuiElement6GetTopEv
 997              	.LVL84:
 998              		.loc 1 383 37 discriminator 2 view .LVU284
 999 0538 A11F00A8 		lhz 8,168(31)
 1000 053c 80DF0094 		lwz 6,148(31)
 1001              		.loc 1 383 55 discriminator 1 view .LVU285
 1002 0540 7C651B78 		mr 5,3
 1003              		.loc 1 383 37 discriminator 2 view .LVU286
 1004 0544 7FC40734 		extsh 4,30
 1005 0548 7FA3EB78 		mr 3,29
 1006 054c 7CA50734 		extsh 5,5
 1007 0550 38E10070 		addi 7,1,112
 1008              	.LVL85:
 1009              		.loc 1 383 37 discriminator 2 view .LVU287
 1010 0554 93210070 		stw 25,112(1)
 1011 0558 48000001 		bl _ZN10FreeTypeGX8drawTextEssPw9_gx_colort
 1012              	.LVL86:
 1013 055c 4BFFFDA0 		b .L35
 1014              	.LVL87:
 1015              	.L92:
 1016              		.cfi_offset 15, -76
 1017              		.cfi_offset 16, -72
 1018              		.cfi_offset 17, -68
 1019              		.cfi_offset 18, -64
 1020              		.cfi_offset 20, -56
 1021              		.cfi_offset 21, -52
 1022              		.cfi_offset 22, -48
 1023              		.cfi_offset 23, -44
 1024              		.cfi_offset 27, -28
 1025              	.LBB15:
 1026              		.loc 1 373 5 is_stmt 1 view .LVU288
 1027              		.loc 1 373 27 is_stmt 0 view .LVU289
 1028 0560 7EDBD1D6 		mullw 22,27,26
 1029              		.loc 1 373 51 view .LVU290
 1030 0564 7F490E70 		srawi 9,26,1
 1031 0568 7D290194 		addze 9,9
 1032              		.loc 1 373 36 view .LVU291
 1033 056c 7ED60E70 		srawi 22,22,1
 1034 0570 7ED60194 		addze 22,22
 1035              		.loc 1 373 13 view .LVU292
 1036 0574 7ED64850 		subf 22,22,9
 1037              	.LVL88:
 1038              		.loc 1 373 13 view .LVU293
 1039 0578 4BFFFCD8 		b .L52
 1040              	.LVL89:
 1041              	.L58:
 1042              		.loc 1 358 7 is_stmt 1 view .LVU294
 1043              		.loc 1 358 14 is_stmt 0 view .LVU295
 1044 057c 3B7B0001 		addi 27,27,1
 1045              	.LVL90:
 1046              		.loc 1 358 14 view .LVU296
 1047 0580 4BFFFF18 		b .L49
 1048              	.LVL91:
 1049              	.L88:
 1050              		.cfi_restore 15
 1051              		.cfi_restore 16
 1052              		.cfi_restore 17
 1053              		.cfi_restore 18
 1054              		.cfi_restore 20
 1055              		.cfi_restore 21
 1056              		.cfi_restore 22
 1057              		.cfi_restore 23
 1058              		.cfi_restore 27
 1059              		.loc 1 358 14 view .LVU297
 1060              	.LBE15:
 1061              	.LBE29:
 1062              	.LBE35:
 1063              		.loc 1 273 4 is_stmt 1 view .LVU298
 1064              		.loc 1 273 13 is_stmt 0 view .LVU299
 1065 0584 48000001 		bl wcslen
 1066              	.LVL92:
 1067              		.loc 1 273 25 discriminator 1 view .LVU300
 1068 0588 57C9063E 		rlwinm 9,30,0,0xff
 1069              		.loc 1 273 4 discriminator 1 view .LVU301
 1070 058c 7C034840 		cmplw 0,3,9
 1071 0590 4081000C 		ble- 0,.L26
 1072              		.loc 1 274 5 is_stmt 1 view .LVU302
 1073              		.loc 1 274 22 is_stmt 0 view .LVU303
 1074 0594 5529103A 		slwi 9,9,2
 1075 0598 7FB8492E 		stwx 29,24,9
 1076              	.L26:
 1077              		.loc 1 275 4 is_stmt 1 view .LVU304
 1078              		.loc 1 275 20 is_stmt 0 view .LVU305
 1079 059c 7F03C378 		mr 3,24
 1080 05a0 48000001 		bl wcsdup
 1081              	.LVL93:
 1082              		.loc 1 275 12 discriminator 1 view .LVU306
 1083 05a4 907F0094 		stw 3,148(31)
 1084 05a8 4BFFFBAC 		b .L25
 1085              	.LVL94:
 1086              	.L30:
 1087              	.LBB36:
 1088              	.LBB30:
 1089              		.loc 1 312 7 view .LVU307
 1090 05ac 807F0094 		lwz 3,148(31)
 1091              	.LVL95:
 1092              		.loc 1 312 7 view .LVU308
 1093 05b0 4BFFFF58 		b .L29
 1094              	.LVL96:
 1095              	.L93:
 1096              		.cfi_restore 19
 1097              		.cfi_restore 24
 1098              		.cfi_offset 27, -28
 1099              		.loc 1 312 7 view .LVU309
 1100              	.LBE30:
 1101              	.LBE36:
 1102              	.LBE40:
 1103              	.LBE49:
 1104              		.loc 1 262 48 view .LVU310
 1105 05b4 38600024 		li 3,36
 1106 05b8 930100A8 		stw 24,168(1)
 1107              		.cfi_offset 24, -40
 1108              		.loc 1 262 4 is_stmt 1 view .LVU311
 1109              		.loc 1 262 48 is_stmt 0 view .LVU312
 1110 05bc 48000001 		bl _Znwj
 1111              	.LVL97:
 1112              	.LEHE0:
 1113              		.loc 1 262 48 discriminator 1 view .LVU313
 1114 05c0 7F44D378 		mr 4,26
 1115 05c4 38C00001 		li 6,1
 1116 05c8 38A00006 		li 5,6
 1117              		.loc 1 262 48 view .LVU314
 1118 05cc 7C781B78 		mr 24,3
 1119              	.LEHB1:
 1120              		.loc 1 262 48 discriminator 1 view .LVU315
 1121 05d0 48000001 		bl _ZN10FreeTypeGXC1Ejhh
 1122              	.LVL98:
 1123              	.LEHE1:
 1124              		.loc 1 262 24 discriminator 3 view .LVU316
 1125 05d4 7F1ED92E 		stwx 24,30,27
 1126 05d8 830100A8 		lwz 24,168(1)
 1127              		.cfi_restore 24
 1128 05dc 4BFFFDA0 		b .L23
 1129              	.LVL99:
 1130              	.L82:
 1131              		.cfi_offset 19, -60
 1132              		.cfi_offset 23, -44
 1133              		.cfi_offset 24, -40
 1134              		.cfi_restore 27
 1135              		.loc 1 262 24 discriminator 3 view .LVU317
 1136 05e0 82E100A4 		lwz 23,164(1)
 1137              		.cfi_restore 23
 1138 05e4 4BFFFD18 		b .L35
 1139              	.LVL100:
 1140              	.L31:
 1141              	.LBB50:
 1142              	.LBB41:
 1143              	.LBB37:
 1144              	.LBB31:
 1145              	.LBB27:
 1146              	.LBB23:
 1147              	.LBB21:
 1148              		.loc 1 290 6 is_stmt 1 view .LVU318
 1149              		.loc 1 290 19 is_stmt 0 view .LVU319
 1150 05e8 813F009C 		lwz 9,156(31)
 1151 05ec 39290001 		addi 9,9,1
 1152              		.loc 1 291 6 is_stmt 1 view .LVU320
 1153 05f0 7C091800 		cmpw 0,9,3
 1154 05f4 4080005C 		bge- 0,.L32
 1155              		.loc 1 290 19 is_stmt 0 view .LVU321
 1156 05f8 913F009C 		stw 9,156(31)
 1157              		.loc 1 297 46 view .LVU322
 1158 05fc 5524103A 		slwi 4,9,2
 1159              	.L33:
 1160              		.loc 1 297 6 is_stmt 1 view .LVU323
 1161              		.loc 1 297 23 is_stmt 0 view .LVU324
 1162 0600 813F0084 		lwz 9,132(31)
 1163              		.loc 1 297 13 view .LVU325
 1164 0604 38BEFFFF 		addi 5,30,-1
 1165 0608 7F03C378 		mr 3,24
 1166              	.LVL101:
 1167              		.loc 1 297 13 view .LVU326
 1168 060c 7C892214 		add 4,9,4
 1169 0610 48000001 		bl wcsncpy
 1170              	.LVL102:
 1171              		.loc 1 298 6 is_stmt 1 view .LVU327
 1172              		.loc 1 298 23 is_stmt 0 view .LVU328
 1173 0614 57C9103A 		slwi 9,30,2
 1174              		.loc 1 298 25 view .LVU329
 1175 0618 3929FFFC 		addi 9,9,-4
 1176 061c 39400000 		li 10,0
 1177 0620 7D58492E 		stwx 10,24,9
 1178              		.loc 1 300 6 is_stmt 1 view .LVU330
 1179              		.loc 1 300 25 is_stmt 0 view .LVU331
 1180 0624 7F03C378 		mr 3,24
 1181 0628 48000001 		bl wcslen
 1182              	.LVL103:
 1183              		.loc 1 302 6 is_stmt 1 view .LVU332
 1184              		.loc 1 302 15 is_stmt 0 view .LVU333
 1185 062c 39230002 		addi 9,3,2
 1186              		.loc 1 302 6 view .LVU334
 1187 0630 7C1E4800 		cmpw 0,30,9
 1188 0634 4181002C 		bgt- 0,.L95
 1189              	.LVL104:
 1190              	.L34:
 1191              		.loc 1 308 6 is_stmt 1 view .LVU335
 1192              		.loc 1 308 10 is_stmt 0 view .LVU336
 1193 0638 807F0094 		lwz 3,148(31)
 1194 063c 48000001 		bl free
 1195              	.LVL105:
 1196              		.loc 1 309 6 is_stmt 1 view .LVU337
 1197              		.loc 1 309 22 is_stmt 0 view .LVU338
 1198 0640 7F03C378 		mr 3,24
 1199              	.LEHB2:
 1200 0644 48000001 		bl wcsdup
 1201              	.LVL106:
 1202              		.loc 1 309 14 discriminator 1 view .LVU339
 1203 0648 907F0094 		stw 3,148(31)
 1204 064c 4BFFFEBC 		b .L29
 1205              	.LVL107:
 1206              	.L32:
 1207              		.loc 1 293 7 is_stmt 1 view .LVU340
 1208              		.loc 1 294 30 is_stmt 0 view .LVU341
 1209 0650 39200006 		li 9,6
 1210              		.loc 1 293 21 view .LVU342
 1211 0654 909F009C 		stw 4,156(31)
 1212              		.loc 1 294 7 is_stmt 1 view .LVU343
 1213              		.loc 1 294 30 is_stmt 0 view .LVU344
 1214 0658 913F00A0 		stw 9,160(31)
 1215 065c 4BFFFFA4 		b .L33
 1216              	.LVL108:
 1217              	.L95:
 1218              		.loc 1 304 7 is_stmt 1 view .LVU345
 1219              		.loc 1 304 21 is_stmt 0 view .LVU346
 1220 0660 546A103A 		slwi 10,3,2
 1221              		.loc 1 304 23 view .LVU347
 1222 0664 39000020 		li 8,32
 1223 0668 7F09C378 		mr 9,24
 1224              		.loc 1 306 53 view .LVU348
 1225 066c 7CA3F050 		subf 5,3,30
 1226              		.loc 1 304 23 view .LVU349
 1227 0670 7D09516E 		stwux 8,9,10
 1228              		.loc 1 305 7 is_stmt 1 view .LVU350
 1229              		.loc 1 306 32 is_stmt 0 view .LVU351
 1230 0674 386A0008 		addi 3,10,8
 1231              	.LVL109:
 1232              		.loc 1 306 14 view .LVU352
 1233 0678 809F0084 		lwz 4,132(31)
 1234 067c 38A5FFFE 		addi 5,5,-2
 1235              		.loc 1 305 25 view .LVU353
 1236 0680 91090004 		stw 8,4(9)
 1237              		.loc 1 306 7 is_stmt 1 view .LVU354
 1238              		.loc 1 306 14 is_stmt 0 view .LVU355
 1239 0684 7C781A14 		add 3,24,3
 1240 0688 48000001 		bl wcsncat
 1241              	.LVL110:
 1242 068c 4BFFFFAC 		b .L34
 1243              	.LVL111:
 1244              	.L90:
 1245              		.cfi_offset 15, -76
 1246              		.cfi_offset 16, -72
 1247              		.cfi_offset 17, -68
 1248              		.cfi_offset 18, -64
 1249              		.cfi_offset 20, -56
 1250              		.cfi_offset 21, -52
 1251              		.cfi_offset 22, -48
 1252              		.cfi_offset 23, -44
 1253              		.cfi_offset 27, -28
 1254              		.loc 1 306 14 view .LVU356
 1255              	.LBE21:
 1256              	.LBE23:
 1257              	.LBE27:
 1258              	.LBE31:
 1259              	.LBB32:
 1260              	.LBB16:
 1261              		.loc 1 328 5 is_stmt 1 view .LVU357
 1262              		.loc 1 329 6 view .LVU358
 1263              		.loc 1 329 47 is_stmt 0 discriminator 2 view .LVU359
 1264 0690 48000001 		bl __cxa_throw_bad_array_new_length
 1265              	.LVL112:
 1266              	.L63:
 1267              		.cfi_restore 15
 1268              		.cfi_restore 16
 1269              		.cfi_restore 17
 1270              		.cfi_restore 18
 1271              		.cfi_restore 19
 1272              		.cfi_restore 20
 1273              		.cfi_restore 21
 1274              		.cfi_restore 22
 1275              		.cfi_restore 23
 1276              		.loc 1 329 47 discriminator 2 view .LVU360
 1277              	.LBE16:
 1278              	.LBE32:
 1279              	.LBE37:
 1280              	.LBE41:
 1281              	.LBE50:
 1282              		.loc 1 262 48 discriminator 4 view .LVU361
 1283 0694 7C7F1B78 		mr 31,3
 1284              	.LVL113:
 1285              		.loc 1 262 48 discriminator 4 view .LVU362
 1286 0698 38800024 		li 4,36
 1287 069c 7F03C378 		mr 3,24
 1288 06a0 91E10084 		stw 15,132(1)
 1289              		.cfi_offset 15, -76
 1290 06a4 92010088 		stw 16,136(1)
 1291              		.cfi_offset 16, -72
 1292 06a8 9221008C 		stw 17,140(1)
 1293              		.cfi_offset 17, -68
 1294 06ac 92410090 		stw 18,144(1)
 1295              		.cfi_offset 18, -64
 1296 06b0 92610094 		stw 19,148(1)
 1297              		.cfi_offset 19, -60
 1298 06b4 92810098 		stw 20,152(1)
 1299              		.cfi_offset 20, -56
 1300 06b8 92A1009C 		stw 21,156(1)
 1301              		.cfi_offset 21, -52
 1302 06bc 92C100A0 		stw 22,160(1)
 1303              		.cfi_offset 22, -48
 1304 06c0 92E100A4 		stw 23,164(1)
 1305              		.cfi_offset 23, -44
 1306              		.loc 1 262 48 discriminator 4 view .LVU363
 1307 06c4 48000001 		bl _ZdlPvj
 1308              	.LVL114:
 1309 06c8 7FE3FB78 		mr 3,31
 1310 06cc 48000001 		bl _Unwind_Resume
 1311              	.LVL115:
 1312              	.LEHE2:
 1313              		.cfi_endproc
 1314              	.LFE2358:
 1315              		.globl __gxx_personality_v0
 1316              		.section	.gcc_except_table._ZN7GuiText4DrawEv,"a",@progbits
 1317              	.LLSDA2358:
 1318 0000 FF       		.byte	0xff
 1319 0001 FF       		.byte	0xff
 1320 0002 01       		.byte	0x1
 1321 0003 11       		.uleb128 .LLSDACSE2358-.LLSDACSB2358
 1322              	.LLSDACSB2358:
 1323 0004 28       		.uleb128 .LEHB0-.LFB2358
 1324 0005 980B     		.uleb128 .LEHE0-.LEHB0
 1325 0007 00       		.uleb128 0
 1326 0008 00       		.uleb128 0
 1327 0009 D00B     		.uleb128 .LEHB1-.LFB2358
 1328 000b 04       		.uleb128 .LEHE1-.LEHB1
 1329 000c 940D     		.uleb128 .L63-.LFB2358
 1330 000e 00       		.uleb128 0
 1331 000f C40C     		.uleb128 .LEHB2-.LFB2358
 1332 0011 8C01     		.uleb128 .LEHE2-.LEHB2
 1333 0013 00       		.uleb128 0
 1334 0014 00       		.uleb128 0
 1335              	.LLSDACSE2358:
 1336              		.section	.text._ZN7GuiText4DrawEv
 1337              		.size	_ZN7GuiText4DrawEv, .-_ZN7GuiText4DrawEv
 1338              		.section	.text._ZN7GuiTextD0Ev,"ax",@progbits
 1339              		.align 2
 1340              		.globl _ZN7GuiTextD0Ev
 1341              		.type	_ZN7GuiTextD0Ev, @function
 1342              	_ZN7GuiTextD0Ev:
 1343              	.LVL116:
 1344              	.LFB2347:
 1345              		.loc 1 121 1 is_stmt 1 view -0
 1346              		.cfi_startproc
 1347              		.loc 1 121 1 is_stmt 0 view .LVU365
 1348 0000 9421FFF0 		stwu 1,-16(1)
 1349              		.cfi_def_cfa_offset 16
 1350              	.LBB54:
 1351              	.LBB55:
 1352              		.loc 1 121 19 view .LVU366
 1353 0004 3D200000 		lis 9,_ZTV7GuiText+8@ha
 1354              	.LBE55:
 1355              	.LBE54:
 1356              		.loc 1 121 1 view .LVU367
 1357 0008 7C0802A6 		mflr 0
 1358              	.LBB59:
 1359              	.LBB56:
 1360              		.loc 1 121 19 view .LVU368
 1361 000c 39290000 		la 9,_ZTV7GuiText+8@l(9)
 1362              	.LBE56:
 1363              	.LBE59:
 1364              		.loc 1 121 1 view .LVU369
 1365 0010 93E1000C 		stw 31,12(1)
 1366              		.cfi_register 65, 0
 1367              		.cfi_offset 31, -4
 1368 0014 7C7F1B78 		mr 31,3
 1369              	.LVL117:
 1370              	.LBB60:
 1371              	.LBI54:
 1372              		.loc 1 121 1 is_stmt 1 view .LVU370
 1373              	.LBB57:
 1374              		.loc 1 123 11 is_stmt 0 view .LVU371
 1375 0018 80630084 		lwz 3,132(3)
 1376              	.LVL118:
 1377              		.loc 1 123 11 view .LVU372
 1378              	.LBE57:
 1379              	.LBE60:
 1380              		.loc 1 121 1 view .LVU373
 1381 001c 90010014 		stw 0,20(1)
 1382              		.cfi_offset 65, 4
 1383              	.LBB61:
 1384              	.LBB58:
 1385              		.loc 1 123 2 view .LVU374
 1386 0020 2C030000 		cmpwi 0,3,0
 1387              		.loc 1 121 19 view .LVU375
 1388 0024 913F0000 		stw 9,0(31)
 1389              		.loc 1 123 2 is_stmt 1 view .LVU376
 1390 0028 41820008 		beq- 0,.L97
 1391              		.loc 1 123 11 is_stmt 0 discriminator 1 view .LVU377
 1392 002c 48000001 		bl _ZdaPv
 1393              	.LVL119:
 1394              	.L97:
 1395              		.loc 1 124 2 is_stmt 1 view .LVU378
 1396              		.loc 1 124 6 is_stmt 0 view .LVU379
 1397 0030 807F0094 		lwz 3,148(31)
 1398 0034 48000001 		bl free
 1399              	.LVL120:
 1400              		.loc 1 125 1 view .LVU380
 1401 0038 7FE3FB78 		mr 3,31
 1402 003c 48000001 		bl _ZN10GuiElementD2Ev
 1403              	.LVL121:
 1404              		.loc 1 125 1 view .LVU381
 1405              	.LBE58:
 1406              	.LBE61:
 1407 0040 80010014 		lwz 0,20(1)
 1408              		.loc 1 125 1 discriminator 1 view .LVU382
 1409 0044 7FE3FB78 		mr 3,31
 1410              		.loc 1 125 1 view .LVU383
 1411 0048 83E1000C 		lwz 31,12(1)
 1412              	.LVL122:
 1413              		.loc 1 125 1 discriminator 1 view .LVU384
 1414 004c 388000B0 		li 4,176
 1415              		.loc 1 125 1 view .LVU385
 1416 0050 7C0803A6 		mtlr 0
 1417              		.cfi_restore 65
 1418 0054 38210010 		addi 1,1,16
 1419              		.cfi_restore 31
 1420              		.cfi_def_cfa_offset 0
 1421              		.loc 1 125 1 discriminator 1 view .LVU386
 1422 0058 48000000 		b _ZdlPvj
 1423              	.LVL123:
 1424              		.loc 1 125 1 discriminator 1 view .LVU387
 1425              		.cfi_endproc
 1426              	.LFE2347:
 1427              		.size	_ZN7GuiTextD0Ev, .-_ZN7GuiTextD0Ev
 1428              		.section	.text._ZN7GuiTextC2EPKci9_gx_color,"ax",@progbits
 1429              		.align 2
 1430              		.globl _ZN7GuiTextC2EPKci9_gx_color
 1431              		.type	_ZN7GuiTextC2EPKci9_gx_color, @function
 1432              	_ZN7GuiTextC2EPKci9_gx_color:
 1433              	.LVL124:
 1434              	.LFB2333:
 1435              		.loc 1 27 1 is_stmt 1 view -0
 1436              		.cfi_startproc
 1437              		.cfi_personality 0,__gxx_personality_v0
 1438              		.cfi_lsda 0,.LLSDA2333
 1439              		.loc 1 27 1 is_stmt 0 view .LVU389
 1440 0000 9421FFE8 		stwu 1,-24(1)
 1441              		.cfi_def_cfa_offset 24
 1442 0004 7C0802A6 		mflr 0
 1443 0008 93C10010 		stw 30,16(1)
 1444              		.cfi_register 65, 0
 1445              		.cfi_offset 30, -8
 1446 000c 7C9E2378 		mr 30,4
 1447 0010 93810008 		stw 28,8(1)
 1448 0014 93A1000C 		stw 29,12(1)
 1449              		.cfi_offset 28, -16
 1450              		.cfi_offset 29, -12
 1451 0018 7CBD2B78 		mr 29,5
 1452 001c 83860000 		lwz 28,0(6)
 1453              	.LVL125:
 1454              		.loc 1 27 1 view .LVU390
 1455 0020 93E10014 		stw 31,20(1)
 1456              		.cfi_offset 31, -4
 1457 0024 7C7F1B78 		mr 31,3
 1458 0028 9001001C 		stw 0,28(1)
 1459              		.cfi_offset 65, 4
 1460              	.LEHB3:
 1461              	.LBB62:
 1462              		.loc 1 27 50 view .LVU391
 1463 002c 48000001 		bl _ZN10GuiElementC2Ev
 1464              	.LVL126:
 1465              	.LEHE3:
 1466              		.loc 1 45 2 view .LVU392
 1467 0030 2C1E0000 		cmpwi 0,30,0
 1468              		.loc 1 27 50 discriminator 1 view .LVU393
 1469 0034 3D400000 		lis 10,_ZTV7GuiText+8@ha
 1470              		.loc 1 29 11 view .LVU394
 1471 0038 39200000 		li 9,0
 1472              		.loc 1 32 12 view .LVU395
 1473 003c 5783063E 		rlwinm 3,28,0,0xff
 1474              	.LVL127:
 1475              		.loc 1 27 50 discriminator 1 view .LVU396
 1476 0040 394A0000 		la 10,_ZTV7GuiText+8@l(10)
 1477              		.loc 1 33 8 view .LVU397
 1478 0044 38800022 		li 4,34
 1479              		.loc 1 39 25 view .LVU398
 1480 0048 38A00006 		li 5,6
 1481              		.loc 1 40 18 view .LVU399
 1482 004c 38C00008 		li 6,8
 1483              		.loc 1 42 15 view .LVU400
 1484 0050 38E00002 		li 7,2
 1485              		.loc 1 43 16 view .LVU401
 1486 0054 39000005 		li 8,5
 1487              		.loc 1 30 7 view .LVU402
 1488 0058 93BF0088 		stw 29,136(31)
 1489              		.loc 1 31 8 view .LVU403
 1490 005c 939F00AA 		stw 28,170(31)
 1491              		.loc 1 32 12 view .LVU404
 1492 0060 907F0034 		stw 3,52(31)
 1493              		.loc 1 27 50 discriminator 1 view .LVU405
 1494 0064 915F0000 		stw 10,0(31)
 1495              		.loc 1 29 2 is_stmt 1 view .LVU406
 1496              		.loc 1 33 8 is_stmt 0 view .LVU407
 1497 0068 B09F00A8 		sth 4,168(31)
 1498              		.loc 1 39 25 view .LVU408
 1499 006c 90BF00A0 		stw 5,160(31)
 1500              		.loc 1 40 18 view .LVU409
 1501 0070 90DF00A4 		stw 6,164(31)
 1502              		.loc 1 42 15 view .LVU410
 1503 0074 90FF0060 		stw 7,96(31)
 1504              		.loc 1 43 16 view .LVU411
 1505 0078 911F0064 		stw 8,100(31)
 1506              		.loc 1 29 11 view .LVU412
 1507 007c 913F0084 		stw 9,132(31)
 1508              		.loc 1 30 2 is_stmt 1 view .LVU413
 1509              		.loc 1 31 2 view .LVU414
 1510              		.loc 1 32 2 view .LVU415
 1511              		.loc 1 33 2 view .LVU416
 1512              		.loc 1 34 2 view .LVU417
 1513              		.loc 1 34 11 is_stmt 0 view .LVU418
 1514 0080 913F008C 		stw 9,140(31)
 1515              		.loc 1 35 2 is_stmt 1 view .LVU419
 1516              		.loc 1 35 7 is_stmt 0 view .LVU420
 1517 0084 993F0090 		stb 9,144(31)
 1518              		.loc 1 36 2 is_stmt 1 view .LVU421
 1519              		.loc 1 36 10 is_stmt 0 view .LVU422
 1520 0088 913F0094 		stw 9,148(31)
 1521              		.loc 1 37 2 is_stmt 1 view .LVU423
 1522              		.loc 1 37 13 is_stmt 0 view .LVU424
 1523 008c 913F0098 		stw 9,152(31)
 1524              		.loc 1 38 2 is_stmt 1 view .LVU425
 1525              		.loc 1 38 16 is_stmt 0 view .LVU426
 1526 0090 913F009C 		stw 9,156(31)
 1527              		.loc 1 39 2 is_stmt 1 view .LVU427
 1528              		.loc 1 40 2 view .LVU428
 1529              		.loc 1 42 2 view .LVU429
 1530              		.loc 1 43 2 view .LVU430
 1531              		.loc 1 45 2 view .LVU431
 1532 0094 41820010 		beq- 0,.L102
 1533              		.loc 1 45 7 is_stmt 0 discriminator 1 view .LVU432
 1534 0098 893E0000 		lbz 9,0(30)
 1535 009c 2C090000 		cmpwi 0,9,0
 1536 00a0 40820024 		bne- 0,.L113
 1537              	.L102:
 1538              	.LBE62:
 1539              		.loc 1 47 1 view .LVU433
 1540 00a4 8001001C 		lwz 0,28(1)
 1541 00a8 83810008 		lwz 28,8(1)
 1542              		.loc 1 47 1 view .LVU434
 1543 00ac 83A1000C 		lwz 29,12(1)
 1544              	.LVL128:
 1545              		.loc 1 47 1 view .LVU435
 1546 00b0 7C0803A6 		mtlr 0
 1547              		.cfi_remember_state
 1548              		.cfi_restore 65
 1549 00b4 83C10010 		lwz 30,16(1)
 1550              	.LVL129:
 1551              		.loc 1 47 1 view .LVU436
 1552 00b8 83E10014 		lwz 31,20(1)
 1553              	.LVL130:
 1554              		.loc 1 47 1 view .LVU437
 1555 00bc 38210018 		addi 1,1,24
 1556              		.cfi_restore 31
 1557              		.cfi_restore 30
 1558              		.cfi_restore 29
 1559              		.cfi_restore 28
 1560              		.cfi_def_cfa_offset 0
 1561 00c0 4E800020 		blr
 1562              	.LVL131:
 1563              	.L113:
 1564              		.cfi_restore_state
 1565              	.LBB63:
 1566              		.loc 1 46 3 is_stmt 1 view .LVU438
 1567              		.loc 1 46 28 is_stmt 0 view .LVU439
 1568 00c4 7FC3F378 		mr 3,30
 1569              	.LVL132:
 1570              	.LEHB4:
 1571              		.loc 1 46 28 view .LVU440
 1572 00c8 48000001 		bl _Z14charToWideCharPKc
 1573              	.LVL133:
 1574              	.LEHE4:
 1575              	.LBE63:
 1576              		.loc 1 47 1 view .LVU441
 1577 00cc 8001001C 		lwz 0,28(1)
 1578              	.LBB64:
 1579              		.loc 1 46 12 discriminator 1 view .LVU442
 1580 00d0 907F0084 		stw 3,132(31)
 1581              	.LBE64:
 1582              		.loc 1 47 1 view .LVU443
 1583 00d4 83810008 		lwz 28,8(1)
 1584              	.LVL134:
 1585              		.loc 1 47 1 view .LVU444
 1586 00d8 7C0803A6 		mtlr 0
 1587              		.cfi_remember_state
 1588              		.cfi_restore 65
 1589 00dc 83A1000C 		lwz 29,12(1)
 1590              	.LVL135:
 1591              		.loc 1 47 1 view .LVU445
 1592 00e0 83C10010 		lwz 30,16(1)
 1593              	.LVL136:
 1594              		.loc 1 47 1 view .LVU446
 1595 00e4 83E10014 		lwz 31,20(1)
 1596              	.LVL137:
 1597              		.loc 1 47 1 view .LVU447
 1598 00e8 38210018 		addi 1,1,24
 1599              		.cfi_restore 31
 1600              		.cfi_restore 30
 1601              		.cfi_restore 29
 1602              		.cfi_restore 28
 1603              		.cfi_def_cfa_offset 0
 1604 00ec 4E800020 		blr
 1605              	.LVL138:
 1606              	.L105:
 1607              		.cfi_restore_state
 1608              	.LBB65:
 1609              		.loc 1 47 1 view .LVU448
 1610 00f0 7C691B78 		mr 9,3
 1611 00f4 7FE3FB78 		mr 3,31
 1612 00f8 7D3F4B78 		mr 31,9
 1613              	.LVL139:
 1614              		.loc 1 47 1 view .LVU449
 1615 00fc 48000001 		bl _ZN10GuiElementD2Ev
 1616              	.LVL140:
 1617              		.loc 1 47 1 view .LVU450
 1618 0100 7FE3FB78 		mr 3,31
 1619              	.LEHB5:
 1620 0104 48000001 		bl _Unwind_Resume
 1621              	.LVL141:
 1622              	.LEHE5:
 1623              	.LBE65:
 1624              		.cfi_endproc
 1625              	.LFE2333:
 1626              		.section	.gcc_except_table._ZN7GuiTextC2EPKci9_gx_color,"a",@progbits
 1627              	.LLSDA2333:
 1628 0000 FF       		.byte	0xff
 1629 0001 FF       		.byte	0xff
 1630 0002 01       		.byte	0x1
 1631 0003 0F       		.uleb128 .LLSDACSE2333-.LLSDACSB2333
 1632              	.LLSDACSB2333:
 1633 0004 2C       		.uleb128 .LEHB3-.LFB2333
 1634 0005 04       		.uleb128 .LEHE3-.LEHB3
 1635 0006 00       		.uleb128 0
 1636 0007 00       		.uleb128 0
 1637 0008 C801     		.uleb128 .LEHB4-.LFB2333
 1638 000a 04       		.uleb128 .LEHE4-.LEHB4
 1639 000b F001     		.uleb128 .L105-.LFB2333
 1640 000d 00       		.uleb128 0
 1641 000e 8402     		.uleb128 .LEHB5-.LFB2333
 1642 0010 04       		.uleb128 .LEHE5-.LEHB5
 1643 0011 00       		.uleb128 0
 1644 0012 00       		.uleb128 0
 1645              	.LLSDACSE2333:
 1646              		.section	.text._ZN7GuiTextC2EPKci9_gx_color
 1647              		.size	_ZN7GuiTextC2EPKci9_gx_color, .-_ZN7GuiTextC2EPKci9_gx_color
 1648              		.globl _ZN7GuiTextC1EPKci9_gx_color
 1649              		.set	_ZN7GuiTextC1EPKci9_gx_color,_ZN7GuiTextC2EPKci9_gx_color
 1650              		.section	.text._ZN7GuiTextC2EPKsi9_gx_color,"ax",@progbits
 1651              		.align 2
 1652              		.globl _ZN7GuiTextC2EPKsi9_gx_color
 1653              		.type	_ZN7GuiTextC2EPKsi9_gx_color, @function
 1654              	_ZN7GuiTextC2EPKsi9_gx_color:
 1655              	.LVL142:
 1656              	.LFB2336:
 1657              		.loc 1 49 1 is_stmt 1 view -0
 1658              		.cfi_startproc
 1659              		.cfi_personality 0,__gxx_personality_v0
 1660              		.cfi_lsda 0,.LLSDA2336
 1661              		.loc 1 49 1 is_stmt 0 view .LVU452
 1662 0000 9421FFE8 		stwu 1,-24(1)
 1663              		.cfi_def_cfa_offset 24
 1664 0004 7C0802A6 		mflr 0
 1665 0008 93C10010 		stw 30,16(1)
 1666              		.cfi_register 65, 0
 1667              		.cfi_offset 30, -8
 1668 000c 7C9E2378 		mr 30,4
 1669 0010 93810008 		stw 28,8(1)
 1670 0014 93A1000C 		stw 29,12(1)
 1671              		.cfi_offset 28, -16
 1672              		.cfi_offset 29, -12
 1673 0018 7CBD2B78 		mr 29,5
 1674 001c 83860000 		lwz 28,0(6)
 1675              	.LVL143:
 1676              		.loc 1 49 1 view .LVU453
 1677 0020 93E10014 		stw 31,20(1)
 1678              		.cfi_offset 31, -4
 1679 0024 7C7F1B78 		mr 31,3
 1680 0028 9001001C 		stw 0,28(1)
 1681              		.cfi_offset 65, 4
 1682              	.LEHB6:
 1683              	.LBB66:
 1684              		.loc 1 49 49 view .LVU454
 1685 002c 48000001 		bl _ZN10GuiElementC2Ev
 1686              	.LVL144:
 1687              	.LEHE6:
 1688              		.loc 1 67 2 view .LVU455
 1689 0030 2C1E0000 		cmpwi 0,30,0
 1690              		.loc 1 49 49 discriminator 1 view .LVU456
 1691 0034 3D400000 		lis 10,_ZTV7GuiText+8@ha
 1692              		.loc 1 51 11 view .LVU457
 1693 0038 39200000 		li 9,0
 1694              		.loc 1 54 12 view .LVU458
 1695 003c 5783063E 		rlwinm 3,28,0,0xff
 1696              	.LVL145:
 1697              		.loc 1 49 49 discriminator 1 view .LVU459
 1698 0040 394A0000 		la 10,_ZTV7GuiText+8@l(10)
 1699              		.loc 1 55 8 view .LVU460
 1700 0044 38800022 		li 4,34
 1701              		.loc 1 61 25 view .LVU461
 1702 0048 38A00006 		li 5,6
 1703              		.loc 1 62 18 view .LVU462
 1704 004c 38C00008 		li 6,8
 1705              		.loc 1 64 15 view .LVU463
 1706 0050 38E00002 		li 7,2
 1707              		.loc 1 65 16 view .LVU464
 1708 0054 39000005 		li 8,5
 1709              		.loc 1 52 7 view .LVU465
 1710 0058 93BF0088 		stw 29,136(31)
 1711              		.loc 1 53 8 view .LVU466
 1712 005c 939F00AA 		stw 28,170(31)
 1713              		.loc 1 54 12 view .LVU467
 1714 0060 907F0034 		stw 3,52(31)
 1715              		.loc 1 49 49 discriminator 1 view .LVU468
 1716 0064 915F0000 		stw 10,0(31)
 1717              		.loc 1 51 2 is_stmt 1 view .LVU469
 1718              		.loc 1 55 8 is_stmt 0 view .LVU470
 1719 0068 B09F00A8 		sth 4,168(31)
 1720              		.loc 1 61 25 view .LVU471
 1721 006c 90BF00A0 		stw 5,160(31)
 1722              		.loc 1 62 18 view .LVU472
 1723 0070 90DF00A4 		stw 6,164(31)
 1724              		.loc 1 64 15 view .LVU473
 1725 0074 90FF0060 		stw 7,96(31)
 1726              		.loc 1 65 16 view .LVU474
 1727 0078 911F0064 		stw 8,100(31)
 1728              		.loc 1 51 11 view .LVU475
 1729 007c 913F0084 		stw 9,132(31)
 1730              		.loc 1 52 2 is_stmt 1 view .LVU476
 1731              		.loc 1 53 2 view .LVU477
 1732              		.loc 1 54 2 view .LVU478
 1733              		.loc 1 55 2 view .LVU479
 1734              		.loc 1 56 2 view .LVU480
 1735              		.loc 1 56 11 is_stmt 0 view .LVU481
 1736 0080 913F008C 		stw 9,140(31)
 1737              		.loc 1 57 2 is_stmt 1 view .LVU482
 1738              		.loc 1 57 7 is_stmt 0 view .LVU483
 1739 0084 993F0090 		stb 9,144(31)
 1740              		.loc 1 58 2 is_stmt 1 view .LVU484
 1741              		.loc 1 58 10 is_stmt 0 view .LVU485
 1742 0088 913F0094 		stw 9,148(31)
 1743              		.loc 1 59 2 is_stmt 1 view .LVU486
 1744              		.loc 1 59 13 is_stmt 0 view .LVU487
 1745 008c 913F0098 		stw 9,152(31)
 1746              		.loc 1 60 2 is_stmt 1 view .LVU488
 1747              		.loc 1 60 16 is_stmt 0 view .LVU489
 1748 0090 913F009C 		stw 9,156(31)
 1749              		.loc 1 61 2 is_stmt 1 view .LVU490
 1750              		.loc 1 62 2 view .LVU491
 1751              		.loc 1 64 2 view .LVU492
 1752              		.loc 1 65 2 view .LVU493
 1753              		.loc 1 67 2 view .LVU494
 1754 0094 41820010 		beq- 0,.L114
 1755              		.loc 1 67 7 is_stmt 0 discriminator 1 view .LVU495
 1756 0098 A93E0000 		lha 9,0(30)
 1757 009c 2C090000 		cmpwi 0,9,0
 1758 00a0 40820024 		bne- 0,.L125
 1759              	.L114:
 1760              	.LBE66:
 1761              		.loc 1 69 1 view .LVU496
 1762 00a4 8001001C 		lwz 0,28(1)
 1763 00a8 83810008 		lwz 28,8(1)
 1764              		.loc 1 69 1 view .LVU497
 1765 00ac 83A1000C 		lwz 29,12(1)
 1766              	.LVL146:
 1767              		.loc 1 69 1 view .LVU498
 1768 00b0 7C0803A6 		mtlr 0
 1769              		.cfi_remember_state
 1770              		.cfi_restore 65
 1771 00b4 83C10010 		lwz 30,16(1)
 1772              	.LVL147:
 1773              		.loc 1 69 1 view .LVU499
 1774 00b8 83E10014 		lwz 31,20(1)
 1775              	.LVL148:
 1776              		.loc 1 69 1 view .LVU500
 1777 00bc 38210018 		addi 1,1,24
 1778              		.cfi_restore 31
 1779              		.cfi_restore 30
 1780              		.cfi_restore 29
 1781              		.cfi_restore 28
 1782              		.cfi_def_cfa_offset 0
 1783 00c0 4E800020 		blr
 1784              	.LVL149:
 1785              	.L125:
 1786              		.cfi_restore_state
 1787              	.LBB67:
 1788              		.loc 1 68 3 is_stmt 1 view .LVU501
 1789              		.loc 1 68 29 is_stmt 0 view .LVU502
 1790 00c4 7FC3F378 		mr 3,30
 1791              	.LVL150:
 1792              	.LEHB7:
 1793              		.loc 1 68 29 view .LVU503
 1794 00c8 48000001 		bl _Z15shortToWideCharPKs
 1795              	.LVL151:
 1796              	.LEHE7:
 1797              	.LBE67:
 1798              		.loc 1 69 1 view .LVU504
 1799 00cc 8001001C 		lwz 0,28(1)
 1800              	.LBB68:
 1801              		.loc 1 68 12 discriminator 1 view .LVU505
 1802 00d0 907F0084 		stw 3,132(31)
 1803              	.LBE68:
 1804              		.loc 1 69 1 view .LVU506
 1805 00d4 83810008 		lwz 28,8(1)
 1806              	.LVL152:
 1807              		.loc 1 69 1 view .LVU507
 1808 00d8 7C0803A6 		mtlr 0
 1809              		.cfi_remember_state
 1810              		.cfi_restore 65
 1811 00dc 83A1000C 		lwz 29,12(1)
 1812              	.LVL153:
 1813              		.loc 1 69 1 view .LVU508
 1814 00e0 83C10010 		lwz 30,16(1)
 1815              	.LVL154:
 1816              		.loc 1 69 1 view .LVU509
 1817 00e4 83E10014 		lwz 31,20(1)
 1818              	.LVL155:
 1819              		.loc 1 69 1 view .LVU510
 1820 00e8 38210018 		addi 1,1,24
 1821              		.cfi_restore 31
 1822              		.cfi_restore 30
 1823              		.cfi_restore 29
 1824              		.cfi_restore 28
 1825              		.cfi_def_cfa_offset 0
 1826 00ec 4E800020 		blr
 1827              	.LVL156:
 1828              	.L117:
 1829              		.cfi_restore_state
 1830              	.LBB69:
 1831              		.loc 1 69 1 view .LVU511
 1832 00f0 7C691B78 		mr 9,3
 1833 00f4 7FE3FB78 		mr 3,31
 1834 00f8 7D3F4B78 		mr 31,9
 1835              	.LVL157:
 1836              		.loc 1 69 1 view .LVU512
 1837 00fc 48000001 		bl _ZN10GuiElementD2Ev
 1838              	.LVL158:
 1839              		.loc 1 69 1 view .LVU513
 1840 0100 7FE3FB78 		mr 3,31
 1841              	.LEHB8:
 1842 0104 48000001 		bl _Unwind_Resume
 1843              	.LVL159:
 1844              	.LEHE8:
 1845              	.LBE69:
 1846              		.cfi_endproc
 1847              	.LFE2336:
 1848              		.section	.gcc_except_table._ZN7GuiTextC2EPKsi9_gx_color,"a",@progbits
 1849              	.LLSDA2336:
 1850 0000 FF       		.byte	0xff
 1851 0001 FF       		.byte	0xff
 1852 0002 01       		.byte	0x1
 1853 0003 0F       		.uleb128 .LLSDACSE2336-.LLSDACSB2336
 1854              	.LLSDACSB2336:
 1855 0004 2C       		.uleb128 .LEHB6-.LFB2336
 1856 0005 04       		.uleb128 .LEHE6-.LEHB6
 1857 0006 00       		.uleb128 0
 1858 0007 00       		.uleb128 0
 1859 0008 C801     		.uleb128 .LEHB7-.LFB2336
 1860 000a 04       		.uleb128 .LEHE7-.LEHB7
 1861 000b F001     		.uleb128 .L117-.LFB2336
 1862 000d 00       		.uleb128 0
 1863 000e 8402     		.uleb128 .LEHB8-.LFB2336
 1864 0010 04       		.uleb128 .LEHE8-.LEHB8
 1865 0011 00       		.uleb128 0
 1866 0012 00       		.uleb128 0
 1867              	.LLSDACSE2336:
 1868              		.section	.text._ZN7GuiTextC2EPKsi9_gx_color
 1869              		.size	_ZN7GuiTextC2EPKsi9_gx_color, .-_ZN7GuiTextC2EPKsi9_gx_color
 1870              		.globl _ZN7GuiTextC1EPKsi9_gx_color
 1871              		.set	_ZN7GuiTextC1EPKsi9_gx_color,_ZN7GuiTextC2EPKsi9_gx_color
 1872              		.section	.text._ZN7GuiTextC2EPKc,"ax",@progbits
 1873              		.align 2
 1874              		.globl _ZN7GuiTextC2EPKc
 1875              		.type	_ZN7GuiTextC2EPKc, @function
 1876              	_ZN7GuiTextC2EPKc:
 1877              	.LVL160:
 1878              	.LFB2339:
 1879              		.loc 1 74 1 is_stmt 1 view -0
 1880              		.cfi_startproc
 1881              		.cfi_personality 0,__gxx_personality_v0
 1882              		.cfi_lsda 0,.LLSDA2339
 1883              		.loc 1 74 1 is_stmt 0 view .LVU515
 1884 0000 9421FFF0 		stwu 1,-16(1)
 1885              		.cfi_def_cfa_offset 16
 1886 0004 7C0802A6 		mflr 0
 1887 0008 93C10008 		stw 30,8(1)
 1888              		.cfi_register 65, 0
 1889              		.cfi_offset 30, -8
 1890 000c 7C9E2378 		mr 30,4
 1891 0010 90010014 		stw 0,20(1)
 1892 0014 93E1000C 		stw 31,12(1)
 1893              		.cfi_offset 65, 4
 1894              		.cfi_offset 31, -4
 1895              		.loc 1 74 1 view .LVU516
 1896 0018 7C7F1B78 		mr 31,3
 1897              	.LEHB9:
 1898              	.LBB70:
 1899              		.loc 1 74 32 view .LVU517
 1900 001c 48000001 		bl _ZN10GuiElementC2Ev
 1901              	.LVL161:
 1902              	.LEHE9:
 1903              		.loc 1 78 8 view .LVU518
 1904 0020 3D400000 		lis 10,_ZL11presetColor@ha
 1905              		.loc 1 92 2 view .LVU519
 1906 0024 2C1E0000 		cmpwi 0,30,0
 1907              		.loc 1 78 8 view .LVU520
 1908 0028 388A0000 		la 4,_ZL11presetColor@l(10)
 1909              		.loc 1 77 7 view .LVU521
 1910 002c 3C600000 		lis 3,_ZL10presetSize@ha
 1911              		.loc 1 80 8 view .LVU522
 1912 0030 3CA00000 		lis 5,_ZL11presetStyle@ha
 1913              		.loc 1 81 11 view .LVU523
 1914 0034 3CC00000 		lis 6,_ZL14presetMaxWidth@ha
 1915              		.loc 1 90 16 view .LVU524
 1916 0038 3CE00000 		lis 7,_ZL19presetAlignmentVert@ha
 1917              		.loc 1 89 15 view .LVU525
 1918 003c 3D000000 		lis 8,_ZL18presetAlignmentHor@ha
 1919              		.loc 1 74 32 discriminator 1 view .LVU526
 1920 0040 3D200000 		lis 9,_ZTV7GuiText+8@ha
 1921              		.loc 1 77 7 view .LVU527
 1922 0044 80030000 		lwz 0,_ZL10presetSize@l(3)
 1923              		.loc 1 74 32 discriminator 1 view .LVU528
 1924 0048 39290000 		la 9,_ZTV7GuiText+8@l(9)
 1925              		.loc 1 78 8 view .LVU529
 1926 004c 816A0000 		lwz 11,_ZL11presetColor@l(10)
 1927              		.loc 1 79 22 view .LVU530
 1928 0050 88640003 		lbz 3,3(4)
 1929              		.loc 1 90 16 view .LVU531
 1930 0054 81470000 		lwz 10,_ZL19presetAlignmentVert@l(7)
 1931              		.loc 1 87 18 view .LVU532
 1932 0058 38E00008 		li 7,8
 1933              		.loc 1 80 8 view .LVU533
 1934 005c A0850000 		lhz 4,_ZL11presetStyle@l(5)
 1935              		.loc 1 89 15 view .LVU534
 1936 0060 81080000 		lwz 8,_ZL18presetAlignmentHor@l(8)
 1937              		.loc 1 81 11 view .LVU535
 1938 0064 80A60000 		lwz 5,_ZL14presetMaxWidth@l(6)
 1939              		.loc 1 86 25 view .LVU536
 1940 0068 38C00006 		li 6,6
 1941              		.loc 1 74 32 discriminator 1 view .LVU537
 1942 006c 913F0000 		stw 9,0(31)
 1943              		.loc 1 76 2 is_stmt 1 view .LVU538
 1944              		.loc 1 76 11 is_stmt 0 view .LVU539
 1945 0070 39200000 		li 9,0
 1946              		.loc 1 77 7 view .LVU540
 1947 0074 901F0088 		stw 0,136(31)
 1948              		.loc 1 78 8 view .LVU541
 1949 0078 917F00AA 		stw 11,170(31)
 1950              		.loc 1 79 22 view .LVU542
 1951 007c 907F0034 		stw 3,52(31)
 1952              		.loc 1 80 8 view .LVU543
 1953 0080 B09F00A8 		sth 4,168(31)
 1954              		.loc 1 81 11 view .LVU544
 1955 0084 90BF008C 		stw 5,140(31)
 1956              		.loc 1 86 25 view .LVU545
 1957 0088 90DF00A0 		stw 6,160(31)
 1958              		.loc 1 87 18 view .LVU546
 1959 008c 90FF00A4 		stw 7,164(31)
 1960              		.loc 1 89 15 view .LVU547
 1961 0090 911F0060 		stw 8,96(31)
 1962              		.loc 1 90 16 view .LVU548
 1963 0094 915F0064 		stw 10,100(31)
 1964              		.loc 1 76 11 view .LVU549
 1965 0098 913F0084 		stw 9,132(31)
 1966              		.loc 1 77 2 is_stmt 1 view .LVU550
 1967              		.loc 1 78 2 view .LVU551
 1968              		.loc 1 79 2 view .LVU552
 1969              		.loc 1 80 2 view .LVU553
 1970              		.loc 1 81 2 view .LVU554
 1971              		.loc 1 82 2 view .LVU555
 1972              		.loc 1 82 7 is_stmt 0 view .LVU556
 1973 009c 993F0090 		stb 9,144(31)
 1974              		.loc 1 83 2 is_stmt 1 view .LVU557
 1975              		.loc 1 83 10 is_stmt 0 view .LVU558
 1976 00a0 913F0094 		stw 9,148(31)
 1977              		.loc 1 84 2 is_stmt 1 view .LVU559
 1978              		.loc 1 84 13 is_stmt 0 view .LVU560
 1979 00a4 913F0098 		stw 9,152(31)
 1980              		.loc 1 85 2 is_stmt 1 view .LVU561
 1981              		.loc 1 85 16 is_stmt 0 view .LVU562
 1982 00a8 913F009C 		stw 9,156(31)
 1983              		.loc 1 86 2 is_stmt 1 view .LVU563
 1984              		.loc 1 87 2 view .LVU564
 1985              		.loc 1 89 2 view .LVU565
 1986              		.loc 1 90 2 view .LVU566
 1987              		.loc 1 92 2 view .LVU567
 1988 00ac 41820010 		beq- 0,.L126
 1989              		.loc 1 92 7 is_stmt 0 discriminator 1 view .LVU568
 1990 00b0 893E0000 		lbz 9,0(30)
 1991 00b4 2C090000 		cmpwi 0,9,0
 1992 00b8 4082001C 		bne- 0,.L137
 1993              	.L126:
 1994              	.LBE70:
 1995              		.loc 1 94 1 view .LVU569
 1996 00bc 80010014 		lwz 0,20(1)
 1997 00c0 83C10008 		lwz 30,8(1)
 1998              	.LVL162:
 1999              		.loc 1 94 1 view .LVU570
 2000 00c4 83E1000C 		lwz 31,12(1)
 2001              	.LVL163:
 2002              		.loc 1 94 1 view .LVU571
 2003 00c8 7C0803A6 		mtlr 0
 2004              		.cfi_remember_state
 2005              		.cfi_restore 65
 2006 00cc 38210010 		addi 1,1,16
 2007              		.cfi_restore 31
 2008              		.cfi_restore 30
 2009              		.cfi_def_cfa_offset 0
 2010 00d0 4E800020 		blr
 2011              	.LVL164:
 2012              	.L137:
 2013              		.cfi_restore_state
 2014              	.LBB71:
 2015              		.loc 1 93 3 is_stmt 1 view .LVU572
 2016              		.loc 1 93 28 is_stmt 0 view .LVU573
 2017 00d4 7FC3F378 		mr 3,30
 2018              	.LEHB10:
 2019 00d8 48000001 		bl _Z14charToWideCharPKc
 2020              	.LVL165:
 2021              	.LEHE10:
 2022              	.LBE71:
 2023              		.loc 1 94 1 view .LVU574
 2024 00dc 80010014 		lwz 0,20(1)
 2025              	.LBB72:
 2026              		.loc 1 93 12 discriminator 1 view .LVU575
 2027 00e0 907F0084 		stw 3,132(31)
 2028              	.LBE72:
 2029              		.loc 1 94 1 view .LVU576
 2030 00e4 83C10008 		lwz 30,8(1)
 2031              	.LVL166:
 2032              		.loc 1 94 1 view .LVU577
 2033 00e8 7C0803A6 		mtlr 0
 2034              		.cfi_remember_state
 2035              		.cfi_restore 65
 2036 00ec 83E1000C 		lwz 31,12(1)
 2037              	.LVL167:
 2038              		.loc 1 94 1 view .LVU578
 2039 00f0 38210010 		addi 1,1,16
 2040              		.cfi_restore 31
 2041              		.cfi_restore 30
 2042              		.cfi_def_cfa_offset 0
 2043 00f4 4E800020 		blr
 2044              	.LVL168:
 2045              	.L129:
 2046              		.cfi_restore_state
 2047              	.LBB73:
 2048              		.loc 1 94 1 view .LVU579
 2049 00f8 7C691B78 		mr 9,3
 2050 00fc 7FE3FB78 		mr 3,31
 2051 0100 7D3F4B78 		mr 31,9
 2052              	.LVL169:
 2053              		.loc 1 94 1 view .LVU580
 2054 0104 48000001 		bl _ZN10GuiElementD2Ev
 2055              	.LVL170:
 2056              		.loc 1 94 1 view .LVU581
 2057 0108 7FE3FB78 		mr 3,31
 2058              	.LEHB11:
 2059 010c 48000001 		bl _Unwind_Resume
 2060              	.LVL171:
 2061              	.LEHE11:
 2062              	.LBE73:
 2063              		.cfi_endproc
 2064              	.LFE2339:
 2065              		.section	.gcc_except_table._ZN7GuiTextC2EPKc,"a",@progbits
 2066              	.LLSDA2339:
 2067 0000 FF       		.byte	0xff
 2068 0001 FF       		.byte	0xff
 2069 0002 01       		.byte	0x1
 2070 0003 0F       		.uleb128 .LLSDACSE2339-.LLSDACSB2339
 2071              	.LLSDACSB2339:
 2072 0004 1C       		.uleb128 .LEHB9-.LFB2339
 2073 0005 04       		.uleb128 .LEHE9-.LEHB9
 2074 0006 00       		.uleb128 0
 2075 0007 00       		.uleb128 0
 2076 0008 D801     		.uleb128 .LEHB10-.LFB2339
 2077 000a 04       		.uleb128 .LEHE10-.LEHB10
 2078 000b F801     		.uleb128 .L129-.LFB2339
 2079 000d 00       		.uleb128 0
 2080 000e 8C02     		.uleb128 .LEHB11-.LFB2339
 2081 0010 04       		.uleb128 .LEHE11-.LEHB11
 2082 0011 00       		.uleb128 0
 2083 0012 00       		.uleb128 0
 2084              	.LLSDACSE2339:
 2085              		.section	.text._ZN7GuiTextC2EPKc
 2086              		.size	_ZN7GuiTextC2EPKc, .-_ZN7GuiTextC2EPKc
 2087              		.globl _ZN7GuiTextC1EPKc
 2088              		.set	_ZN7GuiTextC1EPKc,_ZN7GuiTextC2EPKc
 2089              		.section	.text._ZN7GuiTextC2EPKs,"ax",@progbits
 2090              		.align 2
 2091              		.globl _ZN7GuiTextC2EPKs
 2092              		.type	_ZN7GuiTextC2EPKs, @function
 2093              	_ZN7GuiTextC2EPKs:
 2094              	.LVL172:
 2095              	.LFB2342:
 2096              		.loc 1 96 1 is_stmt 1 view -0
 2097              		.cfi_startproc
 2098              		.cfi_personality 0,__gxx_personality_v0
 2099              		.cfi_lsda 0,.LLSDA2342
 2100              		.loc 1 96 1 is_stmt 0 view .LVU583
 2101 0000 9421FFF0 		stwu 1,-16(1)
 2102              		.cfi_def_cfa_offset 16
 2103 0004 7C0802A6 		mflr 0
 2104 0008 93C10008 		stw 30,8(1)
 2105              		.cfi_register 65, 0
 2106              		.cfi_offset 30, -8
 2107 000c 7C9E2378 		mr 30,4
 2108 0010 90010014 		stw 0,20(1)
 2109 0014 93E1000C 		stw 31,12(1)
 2110              		.cfi_offset 65, 4
 2111              		.cfi_offset 31, -4
 2112              		.loc 1 96 1 view .LVU584
 2113 0018 7C7F1B78 		mr 31,3
 2114              	.LEHB12:
 2115              	.LBB74:
 2116              		.loc 1 96 31 view .LVU585
 2117 001c 48000001 		bl _ZN10GuiElementC2Ev
 2118              	.LVL173:
 2119              	.LEHE12:
 2120              		.loc 1 100 8 view .LVU586
 2121 0020 3D400000 		lis 10,_ZL11presetColor@ha
 2122              		.loc 1 114 2 view .LVU587
 2123 0024 2C1E0000 		cmpwi 0,30,0
 2124              		.loc 1 100 8 view .LVU588
 2125 0028 388A0000 		la 4,_ZL11presetColor@l(10)
 2126              		.loc 1 99 7 view .LVU589
 2127 002c 3C600000 		lis 3,_ZL10presetSize@ha
 2128              		.loc 1 102 8 view .LVU590
 2129 0030 3CA00000 		lis 5,_ZL11presetStyle@ha
 2130              		.loc 1 103 11 view .LVU591
 2131 0034 3CC00000 		lis 6,_ZL14presetMaxWidth@ha
 2132              		.loc 1 112 16 view .LVU592
 2133 0038 3CE00000 		lis 7,_ZL19presetAlignmentVert@ha
 2134              		.loc 1 111 15 view .LVU593
 2135 003c 3D000000 		lis 8,_ZL18presetAlignmentHor@ha
 2136              		.loc 1 96 31 discriminator 1 view .LVU594
 2137 0040 3D200000 		lis 9,_ZTV7GuiText+8@ha
 2138              		.loc 1 99 7 view .LVU595
 2139 0044 80030000 		lwz 0,_ZL10presetSize@l(3)
 2140              		.loc 1 96 31 discriminator 1 view .LVU596
 2141 0048 39290000 		la 9,_ZTV7GuiText+8@l(9)
 2142              		.loc 1 100 8 view .LVU597
 2143 004c 816A0000 		lwz 11,_ZL11presetColor@l(10)
 2144              		.loc 1 101 22 view .LVU598
 2145 0050 88640003 		lbz 3,3(4)
 2146              		.loc 1 112 16 view .LVU599
 2147 0054 81470000 		lwz 10,_ZL19presetAlignmentVert@l(7)
 2148              		.loc 1 109 18 view .LVU600
 2149 0058 38E00008 		li 7,8
 2150              		.loc 1 102 8 view .LVU601
 2151 005c A0850000 		lhz 4,_ZL11presetStyle@l(5)
 2152              		.loc 1 111 15 view .LVU602
 2153 0060 81080000 		lwz 8,_ZL18presetAlignmentHor@l(8)
 2154              		.loc 1 103 11 view .LVU603
 2155 0064 80A60000 		lwz 5,_ZL14presetMaxWidth@l(6)
 2156              		.loc 1 108 25 view .LVU604
 2157 0068 38C00006 		li 6,6
 2158              		.loc 1 96 31 discriminator 1 view .LVU605
 2159 006c 913F0000 		stw 9,0(31)
 2160              		.loc 1 98 2 is_stmt 1 view .LVU606
 2161              		.loc 1 98 11 is_stmt 0 view .LVU607
 2162 0070 39200000 		li 9,0
 2163              		.loc 1 99 7 view .LVU608
 2164 0074 901F0088 		stw 0,136(31)
 2165              		.loc 1 100 8 view .LVU609
 2166 0078 917F00AA 		stw 11,170(31)
 2167              		.loc 1 101 22 view .LVU610
 2168 007c 907F0034 		stw 3,52(31)
 2169              		.loc 1 102 8 view .LVU611
 2170 0080 B09F00A8 		sth 4,168(31)
 2171              		.loc 1 103 11 view .LVU612
 2172 0084 90BF008C 		stw 5,140(31)
 2173              		.loc 1 108 25 view .LVU613
 2174 0088 90DF00A0 		stw 6,160(31)
 2175              		.loc 1 109 18 view .LVU614
 2176 008c 90FF00A4 		stw 7,164(31)
 2177              		.loc 1 111 15 view .LVU615
 2178 0090 911F0060 		stw 8,96(31)
 2179              		.loc 1 112 16 view .LVU616
 2180 0094 915F0064 		stw 10,100(31)
 2181              		.loc 1 98 11 view .LVU617
 2182 0098 913F0084 		stw 9,132(31)
 2183              		.loc 1 99 2 is_stmt 1 view .LVU618
 2184              		.loc 1 100 2 view .LVU619
 2185              		.loc 1 101 2 view .LVU620
 2186              		.loc 1 102 2 view .LVU621
 2187              		.loc 1 103 2 view .LVU622
 2188              		.loc 1 104 2 view .LVU623
 2189              		.loc 1 104 7 is_stmt 0 view .LVU624
 2190 009c 993F0090 		stb 9,144(31)
 2191              		.loc 1 105 2 is_stmt 1 view .LVU625
 2192              		.loc 1 105 10 is_stmt 0 view .LVU626
 2193 00a0 913F0094 		stw 9,148(31)
 2194              		.loc 1 106 2 is_stmt 1 view .LVU627
 2195              		.loc 1 106 13 is_stmt 0 view .LVU628
 2196 00a4 913F0098 		stw 9,152(31)
 2197              		.loc 1 107 2 is_stmt 1 view .LVU629
 2198              		.loc 1 107 16 is_stmt 0 view .LVU630
 2199 00a8 913F009C 		stw 9,156(31)
 2200              		.loc 1 108 2 is_stmt 1 view .LVU631
 2201              		.loc 1 109 2 view .LVU632
 2202              		.loc 1 111 2 view .LVU633
 2203              		.loc 1 112 2 view .LVU634
 2204              		.loc 1 114 2 view .LVU635
 2205 00ac 41820010 		beq- 0,.L138
 2206              		.loc 1 114 7 is_stmt 0 discriminator 1 view .LVU636
 2207 00b0 A93E0000 		lha 9,0(30)
 2208 00b4 2C090000 		cmpwi 0,9,0
 2209 00b8 4082001C 		bne- 0,.L149
 2210              	.L138:
 2211              	.LBE74:
 2212              		.loc 1 116 1 view .LVU637
 2213 00bc 80010014 		lwz 0,20(1)
 2214 00c0 83C10008 		lwz 30,8(1)
 2215              	.LVL174:
 2216              		.loc 1 116 1 view .LVU638
 2217 00c4 83E1000C 		lwz 31,12(1)
 2218              	.LVL175:
 2219              		.loc 1 116 1 view .LVU639
 2220 00c8 7C0803A6 		mtlr 0
 2221              		.cfi_remember_state
 2222              		.cfi_restore 65
 2223 00cc 38210010 		addi 1,1,16
 2224              		.cfi_restore 31
 2225              		.cfi_restore 30
 2226              		.cfi_def_cfa_offset 0
 2227 00d0 4E800020 		blr
 2228              	.LVL176:
 2229              	.L149:
 2230              		.cfi_restore_state
 2231              	.LBB75:
 2232              		.loc 1 115 3 is_stmt 1 view .LVU640
 2233              		.loc 1 115 29 is_stmt 0 view .LVU641
 2234 00d4 7FC3F378 		mr 3,30
 2235              	.LEHB13:
 2236 00d8 48000001 		bl _Z15shortToWideCharPKs
 2237              	.LVL177:
 2238              	.LEHE13:
 2239              	.LBE75:
 2240              		.loc 1 116 1 view .LVU642
 2241 00dc 80010014 		lwz 0,20(1)
 2242              	.LBB76:
 2243              		.loc 1 115 12 discriminator 1 view .LVU643
 2244 00e0 907F0084 		stw 3,132(31)
 2245              	.LBE76:
 2246              		.loc 1 116 1 view .LVU644
 2247 00e4 83C10008 		lwz 30,8(1)
 2248              	.LVL178:
 2249              		.loc 1 116 1 view .LVU645
 2250 00e8 7C0803A6 		mtlr 0
 2251              		.cfi_remember_state
 2252              		.cfi_restore 65
 2253 00ec 83E1000C 		lwz 31,12(1)
 2254              	.LVL179:
 2255              		.loc 1 116 1 view .LVU646
 2256 00f0 38210010 		addi 1,1,16
 2257              		.cfi_restore 31
 2258              		.cfi_restore 30
 2259              		.cfi_def_cfa_offset 0
 2260 00f4 4E800020 		blr
 2261              	.LVL180:
 2262              	.L141:
 2263              		.cfi_restore_state
 2264              	.LBB77:
 2265              		.loc 1 116 1 view .LVU647
 2266 00f8 7C691B78 		mr 9,3
 2267 00fc 7FE3FB78 		mr 3,31
 2268 0100 7D3F4B78 		mr 31,9
 2269              	.LVL181:
 2270              		.loc 1 116 1 view .LVU648
 2271 0104 48000001 		bl _ZN10GuiElementD2Ev
 2272              	.LVL182:
 2273              		.loc 1 116 1 view .LVU649
 2274 0108 7FE3FB78 		mr 3,31
 2275              	.LEHB14:
 2276 010c 48000001 		bl _Unwind_Resume
 2277              	.LVL183:
 2278              	.LEHE14:
 2279              	.LBE77:
 2280              		.cfi_endproc
 2281              	.LFE2342:
 2282              		.section	.gcc_except_table._ZN7GuiTextC2EPKs,"a",@progbits
 2283              	.LLSDA2342:
 2284 0000 FF       		.byte	0xff
 2285 0001 FF       		.byte	0xff
 2286 0002 01       		.byte	0x1
 2287 0003 0F       		.uleb128 .LLSDACSE2342-.LLSDACSB2342
 2288              	.LLSDACSB2342:
 2289 0004 1C       		.uleb128 .LEHB12-.LFB2342
 2290 0005 04       		.uleb128 .LEHE12-.LEHB12
 2291 0006 00       		.uleb128 0
 2292 0007 00       		.uleb128 0
 2293 0008 D801     		.uleb128 .LEHB13-.LFB2342
 2294 000a 04       		.uleb128 .LEHE13-.LEHB13
 2295 000b F801     		.uleb128 .L141-.LFB2342
 2296 000d 00       		.uleb128 0
 2297 000e 8C02     		.uleb128 .LEHB14-.LFB2342
 2298 0010 04       		.uleb128 .LEHE14-.LEHB14
 2299 0011 00       		.uleb128 0
 2300 0012 00       		.uleb128 0
 2301              	.LLSDACSE2342:
 2302              		.section	.text._ZN7GuiTextC2EPKs
 2303              		.size	_ZN7GuiTextC2EPKs, .-_ZN7GuiTextC2EPKs
 2304              		.globl _ZN7GuiTextC1EPKs
 2305              		.set	_ZN7GuiTextC1EPKs,_ZN7GuiTextC2EPKs
 2306              		.section	.text._ZN7GuiText7SetTextEPKc,"ax",@progbits
 2307              		.align 2
 2308              		.globl _ZN7GuiText7SetTextEPKc
 2309              		.type	_ZN7GuiText7SetTextEPKc, @function
 2310              	_ZN7GuiText7SetTextEPKc:
 2311              	.LVL184:
 2312              	.LFB2348:
 2313              		.loc 1 128 1 is_stmt 1 view -0
 2314              		.cfi_startproc
 2315              		.loc 1 129 2 view .LVU651
 2316              		.loc 1 128 1 is_stmt 0 view .LVU652
 2317 0000 9421FFF0 		stwu 1,-16(1)
 2318              		.cfi_def_cfa_offset 16
 2319 0004 7C0802A6 		mflr 0
 2320 0008 93E1000C 		stw 31,12(1)
 2321              		.cfi_register 65, 0
 2322              		.cfi_offset 31, -4
 2323 000c 7C7F1B78 		mr 31,3
 2324              		.loc 1 129 11 view .LVU653
 2325 0010 80630084 		lwz 3,132(3)
 2326              	.LVL185:
 2327              		.loc 1 128 1 view .LVU654
 2328 0014 93C10008 		stw 30,8(1)
 2329              		.cfi_offset 30, -8
 2330 0018 7C9E2378 		mr 30,4
 2331              		.loc 1 129 2 view .LVU655
 2332 001c 2C030000 		cmpwi 0,3,0
 2333              		.loc 1 128 1 view .LVU656
 2334 0020 90010014 		stw 0,20(1)
 2335              		.cfi_offset 65, 4
 2336              		.loc 1 129 2 view .LVU657
 2337 0024 41820008 		beq- 0,.L151
 2338              		.loc 1 129 11 discriminator 1 view .LVU658
 2339 0028 48000001 		bl _ZdaPv
 2340              	.LVL186:
 2341              	.L151:
 2342              		.loc 1 130 2 is_stmt 1 view .LVU659
 2343              		.loc 1 130 6 is_stmt 0 view .LVU660
 2344 002c 807F0094 		lwz 3,148(31)
 2345 0030 48000001 		bl free
 2346              	.LVL187:
 2347              		.loc 1 132 2 is_stmt 1 view .LVU661
 2348              		.loc 1 137 2 is_stmt 0 view .LVU662
 2349 0034 2C1E0000 		cmpwi 0,30,0
 2350              		.loc 1 132 11 view .LVU663
 2351 0038 39200000 		li 9,0
 2352              		.loc 1 135 25 view .LVU664
 2353 003c 39400006 		li 10,6
 2354 0040 915F00A0 		stw 10,160(31)
 2355              		.loc 1 132 11 view .LVU665
 2356 0044 913F0084 		stw 9,132(31)
 2357              		.loc 1 133 2 is_stmt 1 view .LVU666
 2358              		.loc 1 133 10 is_stmt 0 view .LVU667
 2359 0048 913F0094 		stw 9,148(31)
 2360              		.loc 1 134 2 is_stmt 1 view .LVU668
 2361              		.loc 1 134 16 is_stmt 0 view .LVU669
 2362 004c 913F009C 		stw 9,156(31)
 2363              		.loc 1 135 2 is_stmt 1 view .LVU670
 2364              		.loc 1 137 2 view .LVU671
 2365 0050 41820010 		beq- 0,.L150
 2366              		.loc 1 138 3 view .LVU672
 2367              		.loc 1 138 28 is_stmt 0 view .LVU673
 2368 0054 7FC3F378 		mr 3,30
 2369 0058 48000001 		bl _Z14charToWideCharPKc
 2370              	.LVL188:
 2371              		.loc 1 138 12 discriminator 1 view .LVU674
 2372 005c 907F0084 		stw 3,132(31)
 2373              	.L150:
 2374              		.loc 1 139 1 view .LVU675
 2375 0060 80010014 		lwz 0,20(1)
 2376 0064 83C10008 		lwz 30,8(1)
 2377              	.LVL189:
 2378              		.loc 1 139 1 view .LVU676
 2379 0068 83E1000C 		lwz 31,12(1)
 2380              	.LVL190:
 2381              		.loc 1 139 1 view .LVU677
 2382 006c 7C0803A6 		mtlr 0
 2383              		.cfi_restore 65
 2384 0070 38210010 		addi 1,1,16
 2385              		.cfi_restore 31
 2386              		.cfi_restore 30
 2387              		.cfi_def_cfa_offset 0
 2388 0074 4E800020 		blr
 2389              		.cfi_endproc
 2390              	.LFE2348:
 2391              		.size	_ZN7GuiText7SetTextEPKc, .-_ZN7GuiText7SetTextEPKc
 2392              		.section	.text._ZN7GuiText7SetTextEPKs,"ax",@progbits
 2393              		.align 2
 2394              		.globl _ZN7GuiText7SetTextEPKs
 2395              		.type	_ZN7GuiText7SetTextEPKs, @function
 2396              	_ZN7GuiText7SetTextEPKs:
 2397              	.LVL191:
 2398              	.LFB2349:
 2399              		.loc 1 142 1 is_stmt 1 view -0
 2400              		.cfi_startproc
 2401              		.loc 1 143 2 view .LVU679
 2402              		.loc 1 142 1 is_stmt 0 view .LVU680
 2403 0000 9421FFF0 		stwu 1,-16(1)
 2404              		.cfi_def_cfa_offset 16
 2405 0004 7C0802A6 		mflr 0
 2406 0008 93E1000C 		stw 31,12(1)
 2407              		.cfi_register 65, 0
 2408              		.cfi_offset 31, -4
 2409 000c 7C7F1B78 		mr 31,3
 2410              		.loc 1 143 11 view .LVU681
 2411 0010 80630084 		lwz 3,132(3)
 2412              	.LVL192:
 2413              		.loc 1 142 1 view .LVU682
 2414 0014 93C10008 		stw 30,8(1)
 2415              		.cfi_offset 30, -8
 2416 0018 7C9E2378 		mr 30,4
 2417              		.loc 1 143 2 view .LVU683
 2418 001c 2C030000 		cmpwi 0,3,0
 2419              		.loc 1 142 1 view .LVU684
 2420 0020 90010014 		stw 0,20(1)
 2421              		.cfi_offset 65, 4
 2422              		.loc 1 143 2 view .LVU685
 2423 0024 41820008 		beq- 0,.L161
 2424              		.loc 1 143 11 discriminator 1 view .LVU686
 2425 0028 48000001 		bl _ZdaPv
 2426              	.LVL193:
 2427              	.L161:
 2428              		.loc 1 144 2 is_stmt 1 view .LVU687
 2429              		.loc 1 144 6 is_stmt 0 view .LVU688
 2430 002c 807F0094 		lwz 3,148(31)
 2431 0030 48000001 		bl free
 2432              	.LVL194:
 2433              		.loc 1 146 2 is_stmt 1 view .LVU689
 2434              		.loc 1 151 2 is_stmt 0 view .LVU690
 2435 0034 2C1E0000 		cmpwi 0,30,0
 2436              		.loc 1 146 11 view .LVU691
 2437 0038 39200000 		li 9,0
 2438              		.loc 1 149 25 view .LVU692
 2439 003c 39400006 		li 10,6
 2440 0040 915F00A0 		stw 10,160(31)
 2441              		.loc 1 146 11 view .LVU693
 2442 0044 913F0084 		stw 9,132(31)
 2443              		.loc 1 147 2 is_stmt 1 view .LVU694
 2444              		.loc 1 147 10 is_stmt 0 view .LVU695
 2445 0048 913F0094 		stw 9,148(31)
 2446              		.loc 1 148 2 is_stmt 1 view .LVU696
 2447              		.loc 1 148 16 is_stmt 0 view .LVU697
 2448 004c 913F009C 		stw 9,156(31)
 2449              		.loc 1 149 2 is_stmt 1 view .LVU698
 2450              		.loc 1 151 2 view .LVU699
 2451 0050 41820010 		beq- 0,.L160
 2452              		.loc 1 152 3 view .LVU700
 2453              		.loc 1 152 29 is_stmt 0 view .LVU701
 2454 0054 7FC3F378 		mr 3,30
 2455 0058 48000001 		bl _Z15shortToWideCharPKs
 2456              	.LVL195:
 2457              		.loc 1 152 12 discriminator 1 view .LVU702
 2458 005c 907F0084 		stw 3,132(31)
 2459              	.L160:
 2460              		.loc 1 153 1 view .LVU703
 2461 0060 80010014 		lwz 0,20(1)
 2462 0064 83C10008 		lwz 30,8(1)
 2463              	.LVL196:
 2464              		.loc 1 153 1 view .LVU704
 2465 0068 83E1000C 		lwz 31,12(1)
 2466              	.LVL197:
 2467              		.loc 1 153 1 view .LVU705
 2468 006c 7C0803A6 		mtlr 0
 2469              		.cfi_restore 65
 2470 0070 38210010 		addi 1,1,16
 2471              		.cfi_restore 31
 2472              		.cfi_restore 30
 2473              		.cfi_def_cfa_offset 0
 2474 0074 4E800020 		blr
 2475              		.cfi_endproc
 2476              	.LFE2349:
 2477              		.size	_ZN7GuiText7SetTextEPKs, .-_ZN7GuiText7SetTextEPKs
 2478              		.section	.text._ZN7GuiText10SetPresetsEi9_gx_coloritii,"ax",@progbits
 2479              		.align 2
 2480              		.globl _ZN7GuiText10SetPresetsEi9_gx_coloritii
 2481              		.type	_ZN7GuiText10SetPresetsEi9_gx_coloritii, @function
 2482              	_ZN7GuiText10SetPresetsEi9_gx_coloritii:
 2483              	.LVL198:
 2484              	.LFB2350:
 2485              		.loc 1 156 1 is_stmt 1 view -0
 2486              		.cfi_startproc
 2487              		.loc 1 157 2 view .LVU707
 2488              		.loc 1 156 1 is_stmt 0 view .LVU708
 2489 0000 80050000 		lwz 0,0(5)
 2490              	.LVL199:
 2491              		.loc 1 158 14 view .LVU709
 2492 0004 3D400000 		lis 10,_ZL11presetColor@ha
 2493              		.loc 1 157 13 view .LVU710
 2494 0008 3D800000 		lis 12,_ZL10presetSize@ha
 2495              		.loc 1 159 14 view .LVU711
 2496 000c 3D600000 		lis 11,_ZL11presetStyle@ha
 2497              		.loc 1 158 14 view .LVU712
 2498 0010 900A0000 		stw 0,_ZL11presetColor@l(10)
 2499              		.loc 1 160 17 view .LVU713
 2500 0014 3C600000 		lis 3,_ZL14presetMaxWidth@ha
 2501              	.LVL200:
 2502              		.loc 1 161 21 view .LVU714
 2503 0018 3CA00000 		lis 5,_ZL18presetAlignmentHor@ha
 2504              		.loc 1 162 22 view .LVU715
 2505 001c 3D400000 		lis 10,_ZL19presetAlignmentVert@ha
 2506              		.loc 1 157 13 view .LVU716
 2507 0020 908C0000 		stw 4,_ZL10presetSize@l(12)
 2508              		.loc 1 158 2 is_stmt 1 view .LVU717
 2509              		.loc 1 159 2 view .LVU718
 2510              		.loc 1 159 14 is_stmt 0 view .LVU719
 2511 0024 B0EB0000 		sth 7,_ZL11presetStyle@l(11)
 2512              		.loc 1 160 2 is_stmt 1 view .LVU720
 2513              		.loc 1 160 17 is_stmt 0 view .LVU721
 2514 0028 90C30000 		stw 6,_ZL14presetMaxWidth@l(3)
 2515              		.loc 1 161 2 is_stmt 1 view .LVU722
 2516              		.loc 1 161 21 is_stmt 0 view .LVU723
 2517 002c 91050000 		stw 8,_ZL18presetAlignmentHor@l(5)
 2518              		.loc 1 162 2 is_stmt 1 view .LVU724
 2519              		.loc 1 162 22 is_stmt 0 view .LVU725
 2520 0030 912A0000 		stw 9,_ZL19presetAlignmentVert@l(10)
 2521              		.loc 1 163 1 view .LVU726
 2522 0034 4E800020 		blr
 2523              		.cfi_endproc
 2524              	.LFE2350:
 2525              		.size	_ZN7GuiText10SetPresetsEi9_gx_coloritii, .-_ZN7GuiText10SetPresetsEi9_gx_coloritii
 2526              		.section	.text._ZN7GuiText11SetFontSizeEi,"ax",@progbits
 2527              		.align 2
 2528              		.globl _ZN7GuiText11SetFontSizeEi
 2529              		.type	_ZN7GuiText11SetFontSizeEi, @function
 2530              	_ZN7GuiText11SetFontSizeEi:
 2531              	.LVL201:
 2532              	.LFB2351:
 2533              		.loc 1 166 1 is_stmt 1 view -0
 2534              		.cfi_startproc
 2535              		.loc 1 167 2 view .LVU728
 2536              		.loc 1 167 7 is_stmt 0 view .LVU729
 2537 0000 90830088 		stw 4,136(3)
 2538              		.loc 1 168 1 view .LVU730
 2539 0004 4E800020 		blr
 2540              		.cfi_endproc
 2541              	.LFE2351:
 2542              		.size	_ZN7GuiText11SetFontSizeEi, .-_ZN7GuiText11SetFontSizeEi
 2543              		.section	.text._ZN7GuiText11SetMaxWidthEi,"ax",@progbits
 2544              		.align 2
 2545              		.globl _ZN7GuiText11SetMaxWidthEi
 2546              		.type	_ZN7GuiText11SetMaxWidthEi, @function
 2547              	_ZN7GuiText11SetMaxWidthEi:
 2548              	.LVL202:
 2549              	.LFB2352:
 2550              		.loc 1 171 1 is_stmt 1 view -0
 2551              		.cfi_startproc
 2552              		.loc 1 172 2 view .LVU732
 2553              		.loc 1 172 11 is_stmt 0 view .LVU733
 2554 0000 9083008C 		stw 4,140(3)
 2555              		.loc 1 173 1 view .LVU734
 2556 0004 4E800020 		blr
 2557              		.cfi_endproc
 2558              	.LFE2352:
 2559              		.size	_ZN7GuiText11SetMaxWidthEi, .-_ZN7GuiText11SetMaxWidthEi
 2560              		.section	.text._ZN7GuiText7SetWrapEbi,"ax",@progbits
 2561              		.align 2
 2562              		.globl _ZN7GuiText7SetWrapEbi
 2563              		.type	_ZN7GuiText7SetWrapEbi, @function
 2564              	_ZN7GuiText7SetWrapEbi:
 2565              	.LVL203:
 2566              	.LFB2353:
 2567              		.loc 1 176 1 is_stmt 1 view -0
 2568              		.cfi_startproc
 2569              		.loc 1 177 2 view .LVU736
 2570              		.loc 1 177 7 is_stmt 0 view .LVU737
 2571 0000 98830090 		stb 4,144(3)
 2572              		.loc 1 178 2 is_stmt 1 view .LVU738
 2573              		.loc 1 178 11 is_stmt 0 view .LVU739
 2574 0004 90A3008C 		stw 5,140(3)
 2575              		.loc 1 179 1 view .LVU740
 2576 0008 4E800020 		blr
 2577              		.cfi_endproc
 2578              	.LFE2353:
 2579              		.size	_ZN7GuiText7SetWrapEbi, .-_ZN7GuiText7SetWrapEbi
 2580              		.section	.text._ZN7GuiText9SetScrollEi,"ax",@progbits
 2581              		.align 2
 2582              		.globl _ZN7GuiText9SetScrollEi
 2583              		.type	_ZN7GuiText9SetScrollEi, @function
 2584              	_ZN7GuiText9SetScrollEi:
 2585              	.LVL204:
 2586              	.LFB2354:
 2587              		.loc 1 182 1 is_stmt 1 view -0
 2588              		.cfi_startproc
 2589              		.loc 1 183 2 view .LVU742
 2590 0000 81230098 		lwz 9,152(3)
 2591 0004 7C092000 		cmpw 0,9,4
 2592 0008 4D820020 		beqlr- 0
 2593              		.loc 1 186 2 view .LVU743
 2594              		.loc 1 182 1 is_stmt 0 view .LVU744
 2595 000c 9421FFF0 		stwu 1,-16(1)
 2596              		.cfi_def_cfa_offset 16
 2597 0010 7C0802A6 		mflr 0
 2598 0014 93E1000C 		stw 31,12(1)
 2599              		.cfi_register 65, 0
 2600              		.cfi_offset 31, -4
 2601 0018 7C7F1B78 		mr 31,3
 2602              		.loc 1 186 6 view .LVU745
 2603 001c 80630094 		lwz 3,148(3)
 2604              	.LVL205:
 2605              		.loc 1 182 1 view .LVU746
 2606 0020 93C10008 		stw 30,8(1)
 2607              		.cfi_offset 30, -8
 2608 0024 7C9E2378 		mr 30,4
 2609 0028 90010014 		stw 0,20(1)
 2610              		.cfi_offset 65, 4
 2611              		.loc 1 186 6 view .LVU747
 2612 002c 48000001 		bl free
 2613              	.LVL206:
 2614              		.loc 1 187 2 is_stmt 1 view .LVU748
 2615              		.loc 1 193 1 is_stmt 0 view .LVU749
 2616 0030 80010014 		lwz 0,20(1)
 2617              		.loc 1 187 10 view .LVU750
 2618 0034 39200000 		li 9,0
 2619              		.loc 1 191 25 view .LVU751
 2620 0038 39000006 		li 8,6
 2621              		.loc 1 192 18 view .LVU752
 2622 003c 39400008 		li 10,8
 2623              		.loc 1 189 13 view .LVU753
 2624 0040 93DF0098 		stw 30,152(31)
 2625              		.loc 1 193 1 view .LVU754
 2626 0044 7C0803A6 		mtlr 0
 2627              		.cfi_restore 65
 2628              		.loc 1 191 25 view .LVU755
 2629 0048 911F00A0 		stw 8,160(31)
 2630              		.loc 1 192 18 view .LVU756
 2631 004c 915F00A4 		stw 10,164(31)
 2632              		.loc 1 187 10 view .LVU757
 2633 0050 913F0094 		stw 9,148(31)
 2634              		.loc 1 189 2 is_stmt 1 view .LVU758
 2635              		.loc 1 190 2 view .LVU759
 2636              		.loc 1 190 16 is_stmt 0 view .LVU760
 2637 0054 913F009C 		stw 9,156(31)
 2638              		.loc 1 191 2 is_stmt 1 view .LVU761
 2639              		.loc 1 192 2 view .LVU762
 2640              		.loc 1 193 1 is_stmt 0 view .LVU763
 2641 0058 83C10008 		lwz 30,8(1)
 2642              	.LVL207:
 2643              		.loc 1 193 1 view .LVU764
 2644 005c 83E1000C 		lwz 31,12(1)
 2645              	.LVL208:
 2646              		.loc 1 193 1 view .LVU765
 2647 0060 38210010 		addi 1,1,16
 2648              		.cfi_restore 31
 2649              		.cfi_restore 30
 2650              		.cfi_def_cfa_offset 0
 2651 0064 4E800020 		blr
 2652              		.cfi_endproc
 2653              	.LFE2354:
 2654              		.size	_ZN7GuiText9SetScrollEi, .-_ZN7GuiText9SetScrollEi
 2655              		.section	.text._ZN7GuiText8SetColorE9_gx_color,"ax",@progbits
 2656              		.align 2
 2657              		.globl _ZN7GuiText8SetColorE9_gx_color
 2658              		.type	_ZN7GuiText8SetColorE9_gx_color, @function
 2659              	_ZN7GuiText8SetColorE9_gx_color:
 2660              	.LVL209:
 2661              	.LFB2355:
 2662              		.loc 1 196 1 is_stmt 1 view -0
 2663              		.cfi_startproc
 2664              		.loc 1 197 2 view .LVU767
 2665              		.loc 1 196 1 is_stmt 0 view .LVU768
 2666 0000 81240000 		lwz 9,0(4)
 2667              	.LVL210:
 2668              		.loc 1 198 12 view .LVU769
 2669 0004 552A063E 		rlwinm 10,9,0,0xff
 2670              	.LVL211:
 2671              		.loc 1 197 8 view .LVU770
 2672 0008 912300AA 		stw 9,170(3)
 2673              		.loc 1 198 2 is_stmt 1 view .LVU771
 2674              		.loc 1 198 12 is_stmt 0 view .LVU772
 2675 000c 91430034 		stw 10,52(3)
 2676              		.loc 1 199 1 view .LVU773
 2677 0010 4E800020 		blr
 2678              		.cfi_endproc
 2679              	.LFE2355:
 2680              		.size	_ZN7GuiText8SetColorE9_gx_color, .-_ZN7GuiText8SetColorE9_gx_color
 2681              		.section	.text._ZN7GuiText8SetStyleEt,"ax",@progbits
 2682              		.align 2
 2683              		.globl _ZN7GuiText8SetStyleEt
 2684              		.type	_ZN7GuiText8SetStyleEt, @function
 2685              	_ZN7GuiText8SetStyleEt:
 2686              	.LVL212:
 2687              	.LFB2356:
 2688              		.loc 1 202 1 is_stmt 1 view -0
 2689              		.cfi_startproc
 2690              		.loc 1 203 2 view .LVU775
 2691              		.loc 1 203 8 is_stmt 0 view .LVU776
 2692 0000 B08300A8 		sth 4,168(3)
 2693              		.loc 1 204 1 view .LVU777
 2694 0004 4E800020 		blr
 2695              		.cfi_endproc
 2696              	.LFE2356:
 2697              		.size	_ZN7GuiText8SetStyleEt, .-_ZN7GuiText8SetStyleEt
 2698              		.weak	_ZTS7GuiText
 2699              		.section	.rodata._ZTS7GuiText,"aG",@progbits,_ZTS7GuiText,comdat
 2700              		.align 2
 2701              		.type	_ZTS7GuiText, @object
 2702              		.size	_ZTS7GuiText, 9
 2703              	_ZTS7GuiText:
 2704 0000 37477569 		.string	"7GuiText"
 2704      54657874 
 2704      00
 2705              		.weak	_ZTI7GuiText
 2706              		.section	.rodata._ZTI7GuiText,"aG",@progbits,_ZTI7GuiText,comdat
 2707              		.align 2
 2708              		.type	_ZTI7GuiText, @object
 2709              		.size	_ZTI7GuiText, 12
 2710              	_ZTI7GuiText:
 2711 0000 00000000 		.long	_ZTVN10__cxxabiv120__si_class_type_infoE+8
 2712 0004 00000000 		.long	_ZTS7GuiText
 2713 0008 00000000 		.long	_ZTI10GuiElement
 2714              		.weak	_ZTV7GuiText
 2715              		.section	.rodata._ZTV7GuiText,"aG",@progbits,_ZTV7GuiText,comdat
 2716              		.align 2
 2717              		.type	_ZTV7GuiText, @object
 2718              		.size	_ZTV7GuiText, 48
 2719              	_ZTV7GuiText:
 2720 0000 00000000 		.long	0
 2721 0004 00000000 		.long	_ZTI7GuiText
 2722 0008 00000000 		.long	_ZN7GuiTextD1Ev
 2723 000c 00000000 		.long	_ZN7GuiTextD0Ev
 2724 0010 00000000 		.long	_ZN10GuiElement10SetVisibleEb
 2725 0014 00000000 		.long	_ZN10GuiElement8SetFocusEi
 2726 0018 00000000 		.long	_ZN10GuiElement8SetStateEii
 2727 001c 00000000 		.long	_ZN10GuiElement10ResetStateEv
 2728 0020 00000000 		.long	_ZN10GuiElement11GetSelectedEv
 2729 0024 00000000 		.long	_ZN7GuiText12SetAlignmentEii
 2730 0028 00000000 		.long	_ZN10GuiElement6UpdateEP10GuiTrigger
 2731 002c 00000000 		.long	_ZN7GuiText4DrawEv
 2732              		.section	.data._ZL11presetColor,"aw"
 2733              		.type	_ZL11presetColor, @object
 2734              		.size	_ZL11presetColor, 4
 2735              	_ZL11presetColor:
 2736 0000 FF       		.byte	-1
 2737 0001 FF       		.byte	-1
 2738 0002 FF       		.byte	-1
 2739 0003 FF       		.byte	-1
 2740              		.section	.bss._ZL11presetStyle,"aw",@nobits
 2741              		.align 1
 2742              		.type	_ZL11presetStyle, @object
 2743              		.size	_ZL11presetStyle, 2
 2744              	_ZL11presetStyle:
 2745 0000 0000     		.zero	2
 2746              		.section	.bss._ZL19presetAlignmentVert,"aw",@nobits
 2747              		.align 2
 2748              		.type	_ZL19presetAlignmentVert, @object
 2749              		.size	_ZL19presetAlignmentVert, 4
 2750              	_ZL19presetAlignmentVert:
 2751 0000 00000000 		.zero	4
 2752              		.section	.bss._ZL18presetAlignmentHor,"aw",@nobits
 2753              		.align 2
 2754              		.type	_ZL18presetAlignmentHor, @object
 2755              		.size	_ZL18presetAlignmentHor, 4
 2756              	_ZL18presetAlignmentHor:
 2757 0000 00000000 		.zero	4
 2758              		.section	.bss._ZL14presetMaxWidth,"aw",@nobits
 2759              		.align 2
 2760              		.type	_ZL14presetMaxWidth, @object
 2761              		.size	_ZL14presetMaxWidth, 4
 2762              	_ZL14presetMaxWidth:
 2763 0000 00000000 		.zero	4
 2764              		.section	.bss._ZL10presetSize,"aw",@nobits
 2765              		.align 2
 2766              		.type	_ZL10presetSize, @object
 2767              		.size	_ZL10presetSize, 4
 2768              	_ZL10presetSize:
 2769 0000 00000000 		.zero	4
 2770              		.section	.bss._ZL11currentSize,"aw",@nobits
 2771              		.align 2
 2772              		.type	_ZL11currentSize, @object
 2773              		.size	_ZL11currentSize, 4
 2774              	_ZL11currentSize:
 2775 0000 00000000 		.zero	4
 2776              		.section	.rodata.cst4,"aM",@progbits,4
 2777              		.align 2
 2778              	.LC1:
 2779 0000 59800004 		.long	1501560836
 2780              		.section	".text"
 2781              	.Letext0:
 2782              		.file 2 "C:/devkitPro/devkitPPC/powerpc-eabi/include/machine/_default_types.h"
 2783              		.file 3 "C:/devkitPro/devkitPPC/powerpc-eabi/include/sys/_stdint.h"
 2784              		.file 4 "C:/devkitPro/libogc/include/gctypes.h"
 2785              		.file 5 "C:/devkitPro/libogc/include/ogc/gx.h"
 2786              		.file 6 "C:/devkitPro/devkitPPC/lib/gcc/powerpc-eabi/13.1.0/include/stddef.h"
 2787              		.file 7 "C:/devkitPro/devkitPPC/powerpc-eabi/include/stdlib.h"
 2788              		.file 8 "C:/devkitPro/devkitPPC/powerpc-eabi/include/c++/13.1.0/cstdlib"
 2789              		.file 9 "C:/devkitPro/devkitPPC/powerpc-eabi/include/c++/13.1.0/bits/std_abs.h"
 2790              		.file 10 "C:/devkitPro/devkitPPC/powerpc-eabi/include/c++/13.1.0/type_traits"
 2791              		.file 11 "C:/devkitPro/devkitPPC/powerpc-eabi/include/c++/13.1.0/powerpc-eabi/bits/c++config.h"
 2792              		.file 12 "C:/devkitPro/devkitPPC/powerpc-eabi/include/c++/13.1.0/debug/debug.h"
 2793              		.file 13 "C:/devkitPro/devkitPPC/powerpc-eabi/include/c++/13.1.0/cstddef"
 2794              		.file 14 "C:/devkitPro/devkitPPC/powerpc-eabi/include/c++/13.1.0/bits/exception_ptr.h"
 2795              		.file 15 "C:/devkitPro/devkitPPC/powerpc-eabi/include/c++/13.1.0/cmath"
 2796              		.file 16 "C:/devkitPro/devkitPPC/powerpc-eabi/include/c++/13.1.0/bits/stl_tree.h"
 2797              		.file 17 "C:/devkitPro/devkitPPC/powerpc-eabi/include/c++/13.1.0/bits/stl_pair.h"
 2798              		.file 18 "C:/devkitPro/devkitPPC/powerpc-eabi/include/c++/13.1.0/bits/new_allocator.h"
 2799              		.file 19 "C:/devkitPro/devkitPPC/powerpc-eabi/include/c++/13.1.0/bits/allocator.h"
 2800              		.file 20 "C:/devkitPro/devkitPPC/powerpc-eabi/include/c++/13.1.0/bits/alloc_traits.h"
 2801              		.file 21 "C:/devkitPro/devkitPPC/powerpc-eabi/include/c++/13.1.0/bits/stl_function.h"
 2802              		.file 22 "C:/devkitPro/devkitPPC/powerpc-eabi/include/c++/13.1.0/bits/stl_map.h"
 2803              		.file 23 "C:/devkitPro/devkitPPC/powerpc-eabi/include/c++/13.1.0/bits/predefined_ops.h"
 2804              		.file 24 "C:/devkitPro/devkitPPC/powerpc-eabi/include/c++/13.1.0/ext/alloc_traits.h"
 2805              		.file 25 "C:/devkitPro/devkitPPC/powerpc-eabi/include/c++/13.1.0/stdlib.h"
 2806              		.file 26 "C:/devkitPro/devkitPPC/powerpc-eabi/include/math.h"
 2807              		.file 27 "C:/devkitPro/devkitPPC/powerpc-eabi/include/c++/13.1.0/math.h"
 2808              		.file 28 "C:/devkitPro/libogc/include/wiiuse/wiiuse.h"
 2809              		.file 29 "C:/devkitPro/libogc/include/wiiuse/wpad.h"
 2810              		.file 30 "C:/devkitPro/portlibs/ppc/include/freetype2/freetype/ftimage.h"
 2811              		.file 31 "C:/devkitPro/portlibs/ppc/include/freetype2/freetype/fttypes.h"
 2812              		.file 32 "F:/GameModding/MarioKartWii/Mods/Distro/RetroRewind6/dev/Launcher/RRLauncher/launcher/li
 2813              		.file 33 "F:/GameModding/MarioKartWii/Mods/Distro/RetroRewind6/dev/Launcher/RRLauncher/launcher/li
 2814              		.file 34 "F:/GameModding/MarioKartWii/Mods/Distro/RetroRewind6/dev/Launcher/RRLauncher/launcher/bu
 2815              		.file 35 "F:/GameModding/MarioKartWii/Mods/Distro/RetroRewind6/dev/Launcher/RRLauncher/launcher/bu
 2816              		.file 36 "F:/GameModding/MarioKartWii/Mods/Distro/RetroRewind6/dev/Launcher/RRLauncher/launcher/bu
 2817              		.file 37 "F:/GameModding/MarioKartWii/Mods/Distro/RetroRewind6/dev/Launcher/RRLauncher/launcher/bu
 2818              		.file 38 "F:/GameModding/MarioKartWii/Mods/Distro/RetroRewind6/dev/Launcher/RRLauncher/launcher/bu
 2819              		.file 39 "F:/GameModding/MarioKartWii/Mods/Distro/RetroRewind6/dev/Launcher/RRLauncher/launcher/bu
 2820              		.file 40 "F:/GameModding/MarioKartWii/Mods/Distro/RetroRewind6/dev/Launcher/RRLauncher/launcher/bu
 2821              		.file 41 "F:/GameModding/MarioKartWii/Mods/Distro/RetroRewind6/dev/Launcher/RRLauncher/launcher/bu
 2822              		.file 42 "F:/GameModding/MarioKartWii/Mods/Distro/RetroRewind6/dev/Launcher/RRLauncher/launcher/bu
 2823              		.file 43 "F:/GameModding/MarioKartWii/Mods/Distro/RetroRewind6/dev/Launcher/RRLauncher/launcher/bu
 2824              		.file 44 "F:/GameModding/MarioKartWii/Mods/Distro/RetroRewind6/dev/Launcher/RRLauncher/launcher/bu
 2825              		.file 45 "F:/GameModding/MarioKartWii/Mods/Distro/RetroRewind6/dev/Launcher/RRLauncher/launcher/bu
 2826              		.file 46 "F:/GameModding/MarioKartWii/Mods/Distro/RetroRewind6/dev/Launcher/RRLauncher/launcher/bu
 2827              		.file 47 "F:/GameModding/MarioKartWii/Mods/Distro/RetroRewind6/dev/Launcher/RRLauncher/launcher/bu
 2828              		.file 48 "F:/GameModding/MarioKartWii/Mods/Distro/RetroRewind6/dev/Launcher/RRLauncher/launcher/bu
 2829              		.file 49 "F:/GameModding/MarioKartWii/Mods/Distro/RetroRewind6/dev/Launcher/RRLauncher/launcher/bu
 2830              		.file 50 "F:/GameModding/MarioKartWii/Mods/Distro/RetroRewind6/dev/Launcher/RRLauncher/launcher/bu
 2831              		.file 51 "F:/GameModding/MarioKartWii/Mods/Distro/RetroRewind6/dev/Launcher/RRLauncher/launcher/bu
 2832              		.file 52 "F:/GameModding/MarioKartWii/Mods/Distro/RetroRewind6/dev/Launcher/RRLauncher/launcher/bu
 2833              		.file 53 "F:/GameModding/MarioKartWii/Mods/Distro/RetroRewind6/dev/Launcher/RRLauncher/launcher/bu
 2834              		.file 54 "F:/GameModding/MarioKartWii/Mods/Distro/RetroRewind6/dev/Launcher/RRLauncher/launcher/bu
 2835              		.file 55 "F:/GameModding/MarioKartWii/Mods/Distro/RetroRewind6/dev/Launcher/RRLauncher/launcher/bu
 2836              		.file 56 "F:/GameModding/MarioKartWii/Mods/Distro/RetroRewind6/dev/Launcher/RRLauncher/launcher/bu
 2837              		.file 57 "F:/GameModding/MarioKartWii/Mods/Distro/RetroRewind6/dev/Launcher/RRLauncher/launcher/bu
 2838              		.file 58 "F:/GameModding/MarioKartWii/Mods/Distro/RetroRewind6/dev/Launcher/RRLauncher/launcher/bu
 2839              		.file 59 "F:/GameModding/MarioKartWii/Mods/Distro/RetroRewind6/dev/Launcher/RRLauncher/launcher/bu
 2840              		.file 60 "F:/GameModding/MarioKartWii/Mods/Distro/RetroRewind6/dev/Launcher/RRLauncher/launcher/bu
 2841              		.file 61 "F:/GameModding/MarioKartWii/Mods/Distro/RetroRewind6/dev/Launcher/RRLauncher/launcher/bu
 2842              		.file 62 "F:/GameModding/MarioKartWii/Mods/Distro/RetroRewind6/dev/Launcher/RRLauncher/launcher/bu
 2843              		.file 63 "F:/GameModding/MarioKartWii/Mods/Distro/RetroRewind6/dev/Launcher/RRLauncher/launcher/bu
 2844              		.file 64 "F:/GameModding/MarioKartWii/Mods/Distro/RetroRewind6/dev/Launcher/RRLauncher/launcher/bu
 2845              		.file 65 "F:/GameModding/MarioKartWii/Mods/Distro/RetroRewind6/dev/Launcher/RRLauncher/launcher/bu
 2846              		.file 66 "F:/GameModding/MarioKartWii/Mods/Distro/RetroRewind6/dev/Launcher/RRLauncher/launcher/bu
 2847              		.file 67 "F:/GameModding/MarioKartWii/Mods/Distro/RetroRewind6/dev/Launcher/RRLauncher/launcher/bu
 2848              		.file 68 "F:/GameModding/MarioKartWii/Mods/Distro/RetroRewind6/dev/Launcher/RRLauncher/launcher/bu
 2849              		.file 69 "F:/GameModding/MarioKartWii/Mods/Distro/RetroRewind6/dev/Launcher/RRLauncher/launcher/li
 2850              		.file 70 "C:/devkitPro/devkitPPC/powerpc-eabi/include/c++/13.1.0/new"
 2851              		.file 71 "C:/devkitPro/devkitPPC/powerpc-eabi/include/wchar.h"
 2852              		.file 72 "C:/devkitPro/devkitPPC/powerpc-eabi/include/c++/13.1.0/bits/memory_resource.h"