   1              		.file	"gui_filebrowser.cpp"
   2              		.machine ppc
   3              		.section	".text"
   4              	.Ltext0:
   5              		.file 1 "F:/GameModding/MarioKartWii/Mods/Distro/RetroRewind6/dev/Launcher/RRLauncher/launcher/lib
   6              		.section	.text._ZN14GuiFileBrowser10ResetStateEv,"ax",@progbits
   7              		.align 2
   8              		.globl _ZN14GuiFileBrowser10ResetStateEv
   9              		.type	_ZN14GuiFileBrowser10ResetStateEv, @function
  10              	_ZN14GuiFileBrowser10ResetStateEv:
  11              	.LVL0:
  12              	.LFB2340:
  13              		.loc 1 175 1 view -0
  14              		.cfi_startproc
  15              		.loc 1 176 2 view .LVU1
  16              		.loc 1 175 1 is_stmt 0 view .LVU2
  17 0000 9421FFF0 		stwu 1,-16(1)
  18              		.cfi_def_cfa_offset 16
  19              		.loc 1 176 8 view .LVU3
  20 0004 39200000 		li 9,0
  21              		.loc 1 175 1 view .LVU4
  22 0008 7C0802A6 		mflr 0
  23              		.loc 1 177 12 view .LVU5
  24 000c 3940FFFF 		li 10,-1
  25              		.loc 1 175 1 view .LVU6
  26 0010 93C10008 		stw 30,8(1)
  27              		.cfi_register 65, 0
  28              		.cfi_offset 30, -8
  29              		.loc 1 178 15 view .LVU7
  30 0014 3BC00008 		li 30,8
  31              		.loc 1 175 1 view .LVU8
  32 0018 93E1000C 		stw 31,12(1)
  33              		.cfi_offset 31, -4
  34 001c 3BE30080 		addi 31,3,128
  35 0020 90010014 		stw 0,20(1)
  36              		.cfi_offset 65, 4
  37              		.loc 1 177 12 view .LVU9
  38 0024 9143006C 		stw 10,108(3)
  39              		.loc 1 176 8 view .LVU10
  40 0028 91230068 		stw 9,104(3)
  41              		.loc 1 177 2 is_stmt 1 view .LVU11
  42              		.loc 1 178 2 view .LVU12
  43              		.loc 1 178 15 is_stmt 0 view .LVU13
  44 002c 912300A4 		stw 9,164(3)
  45              		.loc 1 180 2 is_stmt 1 view .LVU14
  46              	.LVL1:
  47              	.LBB5:
  48              		.loc 1 180 16 discriminator 1 view .LVU15
  49              	.L2:
  50              		.loc 1 182 3 view .LVU16
  51              		.loc 1 182 13 is_stmt 0 view .LVU17
  52 0030 807F0004 		lwz 3,4(31)
  53              		.loc 1 180 16 discriminator 1 view .LVU18
  54 0034 3BDEFFFF 		addi 30,30,-1
  55              	.LVL2:
  56              		.loc 1 182 13 view .LVU19
  57 0038 3BFF0008 		addi 31,31,8
  58              		.loc 1 182 26 view .LVU20
  59 003c 81230000 		lwz 9,0(3)
  60 0040 81290014 		lwz 9,20(9)
  61 0044 7D2903A6 		mtctr 9
  62 0048 4E800421 		bctrl
  63              	.LVL3:
  64              		.loc 1 180 2 is_stmt 1 discriminator 3 view .LVU21
  65              		.loc 1 180 16 discriminator 1 view .LVU22
  66              		.loc 1 182 3 view .LVU23
  67              		.loc 1 182 13 is_stmt 0 view .LVU24
  68 004c 807F0000 		lwz 3,0(31)
  69              		.loc 1 182 26 view .LVU25
  70 0050 81230000 		lwz 9,0(3)
  71 0054 81290014 		lwz 9,20(9)
  72 0058 7D2903A6 		mtctr 9
  73 005c 4E800421 		bctrl
  74              	.LVL4:
  75              		.loc 1 180 2 is_stmt 1 discriminator 3 view .LVU26
  76              		.loc 1 180 16 discriminator 1 view .LVU27
  77 0060 37DEFFFF 		addic. 30,30,-1
  78 0064 4082FFCC 		bne+ 0,.L2
  79              	.LBE5:
  80              		.loc 1 184 1 is_stmt 0 view .LVU28
  81 0068 80010014 		lwz 0,20(1)
  82 006c 83C10008 		lwz 30,8(1)
  83 0070 83E1000C 		lwz 31,12(1)
  84 0074 7C0803A6 		mtlr 0
  85              		.cfi_restore 65
  86 0078 38210010 		addi 1,1,16
  87              		.cfi_restore 31
  88              		.cfi_restore 30
  89              		.cfi_def_cfa_offset 0
  90 007c 4E800020 		blr
  91              		.cfi_endproc
  92              	.LFE2340:
  93              		.size	_ZN14GuiFileBrowser10ResetStateEv, .-_ZN14GuiFileBrowser10ResetStateEv
  94              		.section	.text._ZN14GuiFileBrowserD2Ev,"ax",@progbits
  95              		.align 2
  96              		.globl _ZN14GuiFileBrowserD2Ev
  97              		.type	_ZN14GuiFileBrowserD2Ev, @function
  98              	_ZN14GuiFileBrowserD2Ev:
  99              	.LVL5:
 100              	.LFB2336:
 101              		.loc 1 123 1 is_stmt 1 view -0
 102              		.cfi_startproc
 103              		.loc 1 123 1 is_stmt 0 view .LVU30
 104 0000 9421FFE8 		stwu 1,-24(1)
 105              		.cfi_def_cfa_offset 24
 106              	.LBB6:
 107              		.loc 1 123 33 view .LVU31
 108 0004 3D200000 		lis 9,_ZTV14GuiFileBrowser+8@ha
 109              	.LBE6:
 110              		.loc 1 123 1 view .LVU32
 111 0008 7C0802A6 		mflr 0
 112              	.LBB13:
 113              		.loc 1 123 33 view .LVU33
 114 000c 39290000 		la 9,_ZTV14GuiFileBrowser+8@l(9)
 115              	.LBE13:
 116              		.loc 1 123 1 view .LVU34
 117 0010 93C10010 		stw 30,16(1)
 118              		.cfi_register 65, 0
 119              		.cfi_offset 30, -8
 120 0014 7C7E1B78 		mr 30,3
 121              	.LBB14:
 122              	.LBB7:
 123              		.loc 1 125 9 view .LVU35
 124 0018 80630110 		lwz 3,272(3)
 125              	.LVL6:
 126              		.loc 1 125 9 view .LVU36
 127              	.LBE7:
 128              	.LBE14:
 129              		.loc 1 123 1 view .LVU37
 130 001c 9001001C 		stw 0,28(1)
 131              	.LBB15:
 132              	.LBB10:
 133              		.loc 1 125 2 view .LVU38
 134 0020 2C030000 		cmpwi 0,3,0
 135              	.LBE10:
 136              	.LBE15:
 137              		.loc 1 123 1 view .LVU39
 138 0024 93A1000C 		stw 29,12(1)
 139 0028 93E10014 		stw 31,20(1)
 140              		.cfi_offset 65, 4
 141              		.cfi_offset 29, -12
 142              		.cfi_offset 31, -4
 143              	.LBB16:
 144              		.loc 1 123 33 view .LVU40
 145 002c 913E0000 		stw 9,0(30)
 146              	.LBB11:
 147              		.loc 1 125 2 is_stmt 1 view .LVU41
 148 0030 41820014 		beq- 0,.L8
 149              		.loc 1 125 9 is_stmt 0 discriminator 1 view .LVU42
 150 0034 81230000 		lwz 9,0(3)
 151 0038 81290004 		lwz 9,4(9)
 152 003c 7D2903A6 		mtctr 9
 153 0040 4E800421 		bctrl
 154              	.LVL7:
 155              	.L8:
 156              		.loc 1 126 2 is_stmt 1 view .LVU43
 157              		.loc 1 126 9 is_stmt 0 view .LVU44
 158 0044 807E0114 		lwz 3,276(30)
 159              		.loc 1 126 2 view .LVU45
 160 0048 2C030000 		cmpwi 0,3,0
 161 004c 41820014 		beq- 0,.L9
 162              		.loc 1 126 9 discriminator 1 view .LVU46
 163 0050 81230000 		lwz 9,0(3)
 164 0054 81290004 		lwz 9,4(9)
 165 0058 7D2903A6 		mtctr 9
 166 005c 4E800421 		bctrl
 167              	.LVL8:
 168              	.L9:
 169              		.loc 1 127 2 is_stmt 1 view .LVU47
 170              		.loc 1 127 9 is_stmt 0 view .LVU48
 171 0060 807E0118 		lwz 3,280(30)
 172              		.loc 1 127 2 view .LVU49
 173 0064 2C030000 		cmpwi 0,3,0
 174 0068 41820014 		beq- 0,.L10
 175              		.loc 1 127 9 discriminator 1 view .LVU50
 176 006c 81230000 		lwz 9,0(3)
 177 0070 81290004 		lwz 9,4(9)
 178 0074 7D2903A6 		mtctr 9
 179 0078 4E800421 		bctrl
 180              	.LVL9:
 181              	.L10:
 182              		.loc 1 129 2 is_stmt 1 view .LVU51
 183              		.loc 1 129 9 is_stmt 0 view .LVU52
 184 007c 807E011C 		lwz 3,284(30)
 185              		.loc 1 129 2 view .LVU53
 186 0080 2C030000 		cmpwi 0,3,0
 187 0084 41820014 		beq- 0,.L11
 188              		.loc 1 129 9 discriminator 1 view .LVU54
 189 0088 81230000 		lwz 9,0(3)
 190 008c 81290004 		lwz 9,4(9)
 191 0090 7D2903A6 		mtctr 9
 192 0094 4E800421 		bctrl
 193              	.LVL10:
 194              	.L11:
 195              		.loc 1 130 2 is_stmt 1 view .LVU55
 196              		.loc 1 130 9 is_stmt 0 view .LVU56
 197 0098 807E0120 		lwz 3,288(30)
 198              		.loc 1 130 2 view .LVU57
 199 009c 2C030000 		cmpwi 0,3,0
 200 00a0 41820014 		beq- 0,.L12
 201              		.loc 1 130 9 discriminator 1 view .LVU58
 202 00a4 81230000 		lwz 9,0(3)
 203 00a8 81290004 		lwz 9,4(9)
 204 00ac 7D2903A6 		mtctr 9
 205 00b0 4E800421 		bctrl
 206              	.LVL11:
 207              	.L12:
 208              		.loc 1 131 2 is_stmt 1 view .LVU59
 209              		.loc 1 131 9 is_stmt 0 view .LVU60
 210 00b4 807E0124 		lwz 3,292(30)
 211              		.loc 1 131 2 view .LVU61
 212 00b8 2C030000 		cmpwi 0,3,0
 213 00bc 41820014 		beq- 0,.L13
 214              		.loc 1 131 9 discriminator 1 view .LVU62
 215 00c0 81230000 		lwz 9,0(3)
 216 00c4 81290004 		lwz 9,4(9)
 217 00c8 7D2903A6 		mtctr 9
 218 00cc 4E800421 		bctrl
 219              	.LVL12:
 220              	.L13:
 221              		.loc 1 132 2 is_stmt 1 view .LVU63
 222              		.loc 1 132 9 is_stmt 0 view .LVU64
 223 00d0 807E0128 		lwz 3,296(30)
 224              		.loc 1 132 2 view .LVU65
 225 00d4 2C030000 		cmpwi 0,3,0
 226 00d8 41820014 		beq- 0,.L14
 227              		.loc 1 132 9 discriminator 1 view .LVU66
 228 00dc 81230000 		lwz 9,0(3)
 229 00e0 81290004 		lwz 9,4(9)
 230 00e4 7D2903A6 		mtctr 9
 231 00e8 4E800421 		bctrl
 232              	.LVL13:
 233              	.L14:
 234              		.loc 1 133 2 is_stmt 1 view .LVU67
 235              		.loc 1 133 9 is_stmt 0 view .LVU68
 236 00ec 807E012C 		lwz 3,300(30)
 237              		.loc 1 133 2 view .LVU69
 238 00f0 2C030000 		cmpwi 0,3,0
 239 00f4 41820014 		beq- 0,.L15
 240              		.loc 1 133 9 discriminator 1 view .LVU70
 241 00f8 81230000 		lwz 9,0(3)
 242 00fc 81290004 		lwz 9,4(9)
 243 0100 7D2903A6 		mtctr 9
 244 0104 4E800421 		bctrl
 245              	.LVL14:
 246              	.L15:
 247              		.loc 1 134 2 is_stmt 1 view .LVU71
 248              		.loc 1 134 9 is_stmt 0 view .LVU72
 249 0108 807E0130 		lwz 3,304(30)
 250              		.loc 1 134 2 view .LVU73
 251 010c 2C030000 		cmpwi 0,3,0
 252 0110 41820014 		beq- 0,.L16
 253              		.loc 1 134 9 discriminator 1 view .LVU74
 254 0114 81230000 		lwz 9,0(3)
 255 0118 81290004 		lwz 9,4(9)
 256 011c 7D2903A6 		mtctr 9
 257 0120 4E800421 		bctrl
 258              	.LVL15:
 259              	.L16:
 260              		.loc 1 135 2 is_stmt 1 view .LVU75
 261              		.loc 1 135 9 is_stmt 0 view .LVU76
 262 0124 807E0134 		lwz 3,308(30)
 263              		.loc 1 135 2 view .LVU77
 264 0128 2C030000 		cmpwi 0,3,0
 265 012c 41820014 		beq- 0,.L17
 266              		.loc 1 135 9 discriminator 1 view .LVU78
 267 0130 81230000 		lwz 9,0(3)
 268 0134 81290004 		lwz 9,4(9)
 269 0138 7D2903A6 		mtctr 9
 270 013c 4E800421 		bctrl
 271              	.LVL16:
 272              	.L17:
 273              		.loc 1 136 2 is_stmt 1 view .LVU79
 274              		.loc 1 136 9 is_stmt 0 view .LVU80
 275 0140 807E0138 		lwz 3,312(30)
 276              		.loc 1 136 2 view .LVU81
 277 0144 2C030000 		cmpwi 0,3,0
 278 0148 41820014 		beq- 0,.L18
 279              		.loc 1 136 9 discriminator 1 view .LVU82
 280 014c 81230000 		lwz 9,0(3)
 281 0150 81290004 		lwz 9,4(9)
 282 0154 7D2903A6 		mtctr 9
 283 0158 4E800421 		bctrl
 284              	.LVL17:
 285              	.L18:
 286              		.loc 1 138 2 is_stmt 1 view .LVU83
 287              		.loc 1 138 9 is_stmt 0 view .LVU84
 288 015c 83FE013C 		lwz 31,316(30)
 289              		.loc 1 138 2 view .LVU85
 290 0160 2C1F0000 		cmpwi 0,31,0
 291 0164 41820018 		beq- 0,.L19
 292              		.loc 1 138 9 discriminator 1 view .LVU86
 293 0168 7FE3FB78 		mr 3,31
 294 016c 48000001 		bl _ZN12GuiImageDataD1Ev
 295              	.LVL18:
 296 0170 3880000C 		li 4,12
 297 0174 7FE3FB78 		mr 3,31
 298 0178 48000001 		bl _ZdlPvj
 299              	.LVL19:
 300              	.L19:
 301              		.loc 1 139 2 is_stmt 1 view .LVU87
 302              		.loc 1 139 9 is_stmt 0 view .LVU88
 303 017c 83FE0140 		lwz 31,320(30)
 304              		.loc 1 139 2 view .LVU89
 305 0180 2C1F0000 		cmpwi 0,31,0
 306 0184 41820018 		beq- 0,.L20
 307              		.loc 1 139 9 discriminator 1 view .LVU90
 308 0188 7FE3FB78 		mr 3,31
 309 018c 48000001 		bl _ZN12GuiImageDataD1Ev
 310              	.LVL20:
 311 0190 3880000C 		li 4,12
 312 0194 7FE3FB78 		mr 3,31
 313 0198 48000001 		bl _ZdlPvj
 314              	.LVL21:
 315              	.L20:
 316              		.loc 1 140 2 is_stmt 1 view .LVU91
 317              		.loc 1 140 9 is_stmt 0 view .LVU92
 318 019c 83FE0144 		lwz 31,324(30)
 319              		.loc 1 140 2 view .LVU93
 320 01a0 2C1F0000 		cmpwi 0,31,0
 321 01a4 41820018 		beq- 0,.L21
 322              		.loc 1 140 9 discriminator 1 view .LVU94
 323 01a8 7FE3FB78 		mr 3,31
 324 01ac 48000001 		bl _ZN12GuiImageDataD1Ev
 325              	.LVL22:
 326 01b0 3880000C 		li 4,12
 327 01b4 7FE3FB78 		mr 3,31
 328 01b8 48000001 		bl _ZdlPvj
 329              	.LVL23:
 330              	.L21:
 331              		.loc 1 141 2 is_stmt 1 view .LVU95
 332              		.loc 1 141 9 is_stmt 0 view .LVU96
 333 01bc 83FE0148 		lwz 31,328(30)
 334              		.loc 1 141 2 view .LVU97
 335 01c0 2C1F0000 		cmpwi 0,31,0
 336 01c4 41820018 		beq- 0,.L22
 337              		.loc 1 141 9 discriminator 1 view .LVU98
 338 01c8 7FE3FB78 		mr 3,31
 339 01cc 48000001 		bl _ZN12GuiImageDataD1Ev
 340              	.LVL24:
 341 01d0 3880000C 		li 4,12
 342 01d4 7FE3FB78 		mr 3,31
 343 01d8 48000001 		bl _ZdlPvj
 344              	.LVL25:
 345              	.L22:
 346              		.loc 1 142 2 is_stmt 1 view .LVU99
 347              		.loc 1 142 9 is_stmt 0 view .LVU100
 348 01dc 83FE014C 		lwz 31,332(30)
 349              		.loc 1 142 2 view .LVU101
 350 01e0 2C1F0000 		cmpwi 0,31,0
 351 01e4 41820018 		beq- 0,.L23
 352              		.loc 1 142 9 discriminator 1 view .LVU102
 353 01e8 7FE3FB78 		mr 3,31
 354 01ec 48000001 		bl _ZN12GuiImageDataD1Ev
 355              	.LVL26:
 356 01f0 3880000C 		li 4,12
 357 01f4 7FE3FB78 		mr 3,31
 358 01f8 48000001 		bl _ZdlPvj
 359              	.LVL27:
 360              	.L23:
 361              		.loc 1 143 2 is_stmt 1 view .LVU103
 362              		.loc 1 143 9 is_stmt 0 view .LVU104
 363 01fc 83FE0150 		lwz 31,336(30)
 364              		.loc 1 143 2 view .LVU105
 365 0200 2C1F0000 		cmpwi 0,31,0
 366 0204 41820018 		beq- 0,.L24
 367              		.loc 1 143 9 discriminator 1 view .LVU106
 368 0208 7FE3FB78 		mr 3,31
 369 020c 48000001 		bl _ZN12GuiImageDataD1Ev
 370              	.LVL28:
 371 0210 3880000C 		li 4,12
 372 0214 7FE3FB78 		mr 3,31
 373 0218 48000001 		bl _ZdlPvj
 374              	.LVL29:
 375              	.L24:
 376              		.loc 1 144 2 is_stmt 1 view .LVU107
 377              		.loc 1 144 9 is_stmt 0 view .LVU108
 378 021c 83FE0154 		lwz 31,340(30)
 379              		.loc 1 144 2 view .LVU109
 380 0220 2C1F0000 		cmpwi 0,31,0
 381 0224 41820018 		beq- 0,.L25
 382              		.loc 1 144 9 discriminator 1 view .LVU110
 383 0228 7FE3FB78 		mr 3,31
 384 022c 48000001 		bl _ZN12GuiImageDataD1Ev
 385              	.LVL30:
 386 0230 3880000C 		li 4,12
 387 0234 7FE3FB78 		mr 3,31
 388 0238 48000001 		bl _ZdlPvj
 389              	.LVL31:
 390              	.L25:
 391              		.loc 1 145 2 is_stmt 1 view .LVU111
 392              		.loc 1 145 9 is_stmt 0 view .LVU112
 393 023c 83FE0158 		lwz 31,344(30)
 394              		.loc 1 145 2 view .LVU113
 395 0240 2C1F0000 		cmpwi 0,31,0
 396 0244 41820018 		beq- 0,.L26
 397              		.loc 1 145 9 discriminator 1 view .LVU114
 398 0248 7FE3FB78 		mr 3,31
 399 024c 48000001 		bl _ZN12GuiImageDataD1Ev
 400              	.LVL32:
 401 0250 3880000C 		li 4,12
 402 0254 7FE3FB78 		mr 3,31
 403 0258 48000001 		bl _ZdlPvj
 404              	.LVL33:
 405              	.L26:
 406              		.loc 1 146 2 is_stmt 1 view .LVU115
 407              		.loc 1 146 9 is_stmt 0 view .LVU116
 408 025c 83FE015C 		lwz 31,348(30)
 409              		.loc 1 146 2 view .LVU117
 410 0260 2C1F0000 		cmpwi 0,31,0
 411 0264 41820018 		beq- 0,.L27
 412              		.loc 1 146 9 discriminator 1 view .LVU118
 413 0268 7FE3FB78 		mr 3,31
 414 026c 48000001 		bl _ZN12GuiImageDataD1Ev
 415              	.LVL34:
 416 0270 3880000C 		li 4,12
 417 0274 7FE3FB78 		mr 3,31
 418 0278 48000001 		bl _ZdlPvj
 419              	.LVL35:
 420              	.L27:
 421              		.loc 1 147 2 is_stmt 1 view .LVU119
 422              		.loc 1 147 9 is_stmt 0 view .LVU120
 423 027c 83FE0160 		lwz 31,352(30)
 424              		.loc 1 147 2 view .LVU121
 425 0280 2C1F0000 		cmpwi 0,31,0
 426 0284 41820018 		beq- 0,.L28
 427              		.loc 1 147 9 discriminator 1 view .LVU122
 428 0288 7FE3FB78 		mr 3,31
 429 028c 48000001 		bl _ZN12GuiImageDataD1Ev
 430              	.LVL36:
 431 0290 3880000C 		li 4,12
 432 0294 7FE3FB78 		mr 3,31
 433 0298 48000001 		bl _ZdlPvj
 434              	.LVL37:
 435              	.L28:
 436              		.loc 1 149 2 is_stmt 1 view .LVU123
 437              		.loc 1 149 9 is_stmt 0 view .LVU124
 438 029c 83FE0164 		lwz 31,356(30)
 439              		.loc 1 149 2 view .LVU125
 440 02a0 2C1F0000 		cmpwi 0,31,0
 441 02a4 41820018 		beq- 0,.L29
 442              		.loc 1 149 9 discriminator 1 view .LVU126
 443 02a8 7FE3FB78 		mr 3,31
 444 02ac 48000001 		bl _ZN8GuiSoundD1Ev
 445              	.LVL38:
 446 02b0 38800018 		li 4,24
 447 02b4 7FE3FB78 		mr 3,31
 448 02b8 48000001 		bl _ZdlPvj
 449              	.LVL39:
 450              	.L29:
 451              		.loc 1 150 2 is_stmt 1 view .LVU127
 452              		.loc 1 150 9 is_stmt 0 view .LVU128
 453 02bc 83FE0168 		lwz 31,360(30)
 454              		.loc 1 150 2 view .LVU129
 455 02c0 2C1F0000 		cmpwi 0,31,0
 456 02c4 41820018 		beq- 0,.L30
 457              		.loc 1 150 9 discriminator 1 view .LVU130
 458 02c8 7FE3FB78 		mr 3,31
 459 02cc 48000001 		bl _ZN8GuiSoundD1Ev
 460              	.LVL40:
 461 02d0 38800018 		li 4,24
 462 02d4 7FE3FB78 		mr 3,31
 463 02d8 48000001 		bl _ZdlPvj
 464              	.LVL41:
 465              	.L30:
 466              		.loc 1 151 2 is_stmt 1 view .LVU131
 467              		.loc 1 151 9 is_stmt 0 view .LVU132
 468 02dc 83FE0170 		lwz 31,368(30)
 469              		.loc 1 151 2 view .LVU133
 470 02e0 2C1F0000 		cmpwi 0,31,0
 471 02e4 41820018 		beq- 0,.L31
 472              		.loc 1 151 9 discriminator 1 view .LVU134
 473 02e8 7FE3FB78 		mr 3,31
 474 02ec 48000001 		bl _ZN10GuiTriggerD1Ev
 475              	.LVL42:
 476 02f0 3880016C 		li 4,364
 477 02f4 7FE3FB78 		mr 3,31
 478 02f8 48000001 		bl _ZdlPvj
 479              	.LVL43:
 480              	.L31:
 481              		.loc 1 152 2 is_stmt 1 view .LVU135
 482              		.loc 1 152 9 is_stmt 0 view .LVU136
 483 02fc 83FE016C 		lwz 31,364(30)
 484              		.loc 1 152 2 view .LVU137
 485 0300 2C1F0000 		cmpwi 0,31,0
 486 0304 41820018 		beq- 0,.L32
 487              		.loc 1 152 9 discriminator 1 view .LVU138
 488 0308 7FE3FB78 		mr 3,31
 489 030c 48000001 		bl _ZN10GuiTriggerD1Ev
 490              	.LVL44:
 491 0310 3880016C 		li 4,364
 492 0314 7FE3FB78 		mr 3,31
 493 0318 48000001 		bl _ZdlPvj
 494              	.LVL45:
 495              	.LBB8:
 496              		.loc 1 154 16 is_stmt 1 discriminator 1 view .LVU139
 497              	.L32:
 498              		.loc 1 154 16 is_stmt 0 discriminator 1 view .LVU140
 499 031c 3BFE0080 		addi 31,30,128
 500              	.LBE8:
 501              	.LBE11:
 502              	.LBE16:
 503              		.loc 1 123 1 view .LVU141
 504 0320 3BA00008 		li 29,8
 505              	.L37:
 506              	.LVL46:
 507              	.LBB17:
 508              	.LBB12:
 509              	.LBB9:
 510              		.loc 1 156 3 is_stmt 1 view .LVU142
 511              		.loc 1 156 24 is_stmt 0 view .LVU143
 512 0324 813F0030 		lwz 9,48(31)
 513              		.loc 1 156 3 view .LVU144
 514 0328 2C090000 		cmpwi 0,9,0
 515              		.loc 1 156 24 discriminator 1 view .LVU145
 516 032c 7D234B78 		mr 3,9
 517              		.loc 1 156 3 view .LVU146
 518 0330 41820014 		beq- 0,.L33
 519              		.loc 1 156 24 discriminator 1 view .LVU147
 520 0334 81290000 		lwz 9,0(9)
 521 0338 81290004 		lwz 9,4(9)
 522 033c 7D2903A6 		mtctr 9
 523 0340 4E800421 		bctrl
 524              	.LVL47:
 525              	.L33:
 526              		.loc 1 157 3 is_stmt 1 view .LVU148
 527              		.loc 1 157 20 is_stmt 0 view .LVU149
 528 0344 853F0004 		lwzu 9,4(31)
 529              		.loc 1 157 3 view .LVU150
 530 0348 2C090000 		cmpwi 0,9,0
 531              		.loc 1 157 20 discriminator 1 view .LVU151
 532 034c 7D234B78 		mr 3,9
 533              		.loc 1 157 3 view .LVU152
 534 0350 41820014 		beq- 0,.L34
 535              		.loc 1 157 20 discriminator 1 view .LVU153
 536 0354 81290000 		lwz 9,0(9)
 537 0358 81290004 		lwz 9,4(9)
 538 035c 7D2903A6 		mtctr 9
 539 0360 4E800421 		bctrl
 540              	.LVL48:
 541              	.L34:
 542              		.loc 1 158 3 is_stmt 1 view .LVU154
 543              		.loc 1 158 22 is_stmt 0 view .LVU155
 544 0364 813F004C 		lwz 9,76(31)
 545              		.loc 1 158 3 view .LVU156
 546 0368 2C090000 		cmpwi 0,9,0
 547              		.loc 1 158 22 discriminator 1 view .LVU157
 548 036c 7D234B78 		mr 3,9
 549              		.loc 1 158 3 view .LVU158
 550 0370 41820014 		beq- 0,.L35
 551              		.loc 1 158 22 discriminator 1 view .LVU159
 552 0374 81290000 		lwz 9,0(9)
 553 0378 81290004 		lwz 9,4(9)
 554 037c 7D2903A6 		mtctr 9
 555 0380 4E800421 		bctrl
 556              	.LVL49:
 557              	.L35:
 558              		.loc 1 159 3 is_stmt 1 view .LVU160
 559              		.loc 1 159 26 is_stmt 0 view .LVU161
 560 0384 813F006C 		lwz 9,108(31)
 561              		.loc 1 159 3 view .LVU162
 562 0388 2C090000 		cmpwi 0,9,0
 563              		.loc 1 159 26 discriminator 1 view .LVU163
 564 038c 7D234B78 		mr 3,9
 565              		.loc 1 159 3 view .LVU164
 566 0390 41820014 		beq- 0,.L36
 567              		.loc 1 159 26 discriminator 1 view .LVU165
 568 0394 81290000 		lwz 9,0(9)
 569 0398 81290004 		lwz 9,4(9)
 570 039c 7D2903A6 		mtctr 9
 571 03a0 4E800421 		bctrl
 572              	.LVL50:
 573              	.L36:
 574              		.loc 1 154 2 is_stmt 1 discriminator 2 view .LVU166
 575              		.loc 1 154 16 discriminator 1 view .LVU167
 576 03a4 37BDFFFF 		addic. 29,29,-1
 577              	.LVL51:
 578              		.loc 1 154 16 is_stmt 0 discriminator 1 view .LVU168
 579 03a8 4082FF7C 		bne+ 0,.L37
 580              	.LBE9:
 581              	.LBE12:
 582              	.LBE17:
 583              		.loc 1 161 1 view .LVU169
 584 03ac 8001001C 		lwz 0,28(1)
 585              	.LBB18:
 586 03b0 7FC3F378 		mr 3,30
 587              	.LBE18:
 588 03b4 83A1000C 		lwz 29,12(1)
 589              	.LVL52:
 590              		.loc 1 161 1 view .LVU170
 591 03b8 83C10010 		lwz 30,16(1)
 592              	.LVL53:
 593              		.loc 1 161 1 view .LVU171
 594 03bc 7C0803A6 		mtlr 0
 595              		.cfi_restore 65
 596 03c0 83E10014 		lwz 31,20(1)
 597 03c4 38210018 		addi 1,1,24
 598              		.cfi_restore 31
 599              		.cfi_restore 30
 600              		.cfi_restore 29
 601              		.cfi_def_cfa_offset 0
 602              	.LBB19:
 603 03c8 48000000 		b _ZN10GuiElementD2Ev
 604              	.LVL54:
 605              		.loc 1 161 1 view .LVU172
 606              	.LBE19:
 607              		.cfi_endproc
 608              	.LFE2336:
 609              		.size	_ZN14GuiFileBrowserD2Ev, .-_ZN14GuiFileBrowserD2Ev
 610              		.globl _ZN14GuiFileBrowserD1Ev
 611              		.set	_ZN14GuiFileBrowserD1Ev,_ZN14GuiFileBrowserD2Ev
 612              		.section	.text._ZN14GuiFileBrowserD0Ev,"ax",@progbits
 613              		.align 2
 614              		.globl _ZN14GuiFileBrowserD0Ev
 615              		.type	_ZN14GuiFileBrowserD0Ev, @function
 616              	_ZN14GuiFileBrowserD0Ev:
 617              	.LVL55:
 618              	.LFB2338:
 619              		.loc 1 123 1 is_stmt 1 view -0
 620              		.cfi_startproc
 621              		.loc 1 123 1 is_stmt 0 view .LVU174
 622 0000 9421FFF0 		stwu 1,-16(1)
 623              		.cfi_def_cfa_offset 16
 624 0004 7C0802A6 		mflr 0
 625 0008 93E1000C 		stw 31,12(1)
 626              		.cfi_register 65, 0
 627              		.cfi_offset 31, -4
 628 000c 7C7F1B78 		mr 31,3
 629 0010 90010014 		stw 0,20(1)
 630              		.cfi_offset 65, 4
 631              		.loc 1 161 1 view .LVU175
 632 0014 48000001 		bl _ZN14GuiFileBrowserD1Ev
 633              	.LVL56:
 634              		.loc 1 161 1 view .LVU176
 635 0018 80010014 		lwz 0,20(1)
 636              		.loc 1 161 1 discriminator 1 view .LVU177
 637 001c 7FE3FB78 		mr 3,31
 638              		.loc 1 161 1 view .LVU178
 639 0020 83E1000C 		lwz 31,12(1)
 640              	.LVL57:
 641              		.loc 1 161 1 discriminator 1 view .LVU179
 642 0024 38800174 		li 4,372
 643              		.loc 1 161 1 view .LVU180
 644 0028 7C0803A6 		mtlr 0
 645              		.cfi_restore 65
 646 002c 38210010 		addi 1,1,16
 647              		.cfi_restore 31
 648              		.cfi_def_cfa_offset 0
 649              		.loc 1 161 1 discriminator 1 view .LVU181
 650 0030 48000000 		b _ZdlPvj
 651              	.LVL58:
 652              		.loc 1 161 1 discriminator 1 view .LVU182
 653              		.cfi_endproc
 654              	.LFE2338:
 655              		.size	_ZN14GuiFileBrowserD0Ev, .-_ZN14GuiFileBrowserD0Ev
 656              		.section	.text._ZN14GuiFileBrowser4DrawEv,"ax",@progbits
 657              		.align 2
 658              		.globl _ZN14GuiFileBrowser4DrawEv
 659              		.type	_ZN14GuiFileBrowser4DrawEv, @function
 660              	_ZN14GuiFileBrowser4DrawEv:
 661              	.LVL59:
 662              	.LFB2342:
 663              		.loc 1 195 1 is_stmt 1 view -0
 664              		.cfi_startproc
 665              		.loc 1 196 2 view .LVU184
 666              		.loc 1 195 1 is_stmt 0 view .LVU185
 667 0000 9421FFE8 		stwu 1,-24(1)
 668              		.cfi_def_cfa_offset 24
 669 0004 7C0802A6 		mflr 0
 670 0008 93A1000C 		stw 29,12(1)
 671              		.cfi_register 65, 0
 672              		.cfi_offset 29, -12
 673 000c 7C7D1B78 		mr 29,3
 674 0010 9001001C 		stw 0,28(1)
 675              		.cfi_offset 65, 4
 676              		.loc 1 196 21 view .LVU186
 677 0014 48000001 		bl _ZN10GuiElement9IsVisibleEv
 678              	.LVL60:
 679              		.loc 1 196 2 discriminator 1 view .LVU187
 680 0018 2C030000 		cmpwi 0,3,0
 681 001c 418200D0 		beq- 0,.L129
 682              		.loc 1 199 2 view .LVU188
 683 0020 807D011C 		lwz 3,284(29)
 684 0024 93C10010 		stw 30,16(1)
 685              		.cfi_offset 30, -8
 686              		.loc 1 199 26 view .LVU189
 687 0028 3BC00008 		li 30,8
 688 002c 81230000 		lwz 9,0(3)
 689 0030 93E10014 		stw 31,20(1)
 690              		.cfi_offset 31, -4
 691              		.loc 1 199 2 is_stmt 1 view .LVU190
 692 0034 3BFD0080 		addi 31,29,128
 693              		.loc 1 199 26 is_stmt 0 view .LVU191
 694 0038 81290024 		lwz 9,36(9)
 695 003c 7D2903A6 		mtctr 9
 696 0040 4E800421 		bctrl
 697              	.LVL61:
 698              		.loc 1 201 2 is_stmt 1 view .LVU192
 699              	.LBB20:
 700              		.loc 1 201 16 discriminator 1 view .LVU193
 701              	.L131:
 702              		.loc 1 203 3 view .LVU194
 703              		.loc 1 203 13 is_stmt 0 view .LVU195
 704 0044 807F0004 		lwz 3,4(31)
 705              		.loc 1 201 16 discriminator 1 view .LVU196
 706 0048 3BDEFFFF 		addi 30,30,-1
 707              	.LVL62:
 708              		.loc 1 203 13 view .LVU197
 709 004c 3BFF0008 		addi 31,31,8
 710              		.loc 1 203 20 view .LVU198
 711 0050 81230000 		lwz 9,0(3)
 712 0054 81290024 		lwz 9,36(9)
 713 0058 7D2903A6 		mtctr 9
 714 005c 4E800421 		bctrl
 715              	.LVL63:
 716              		.loc 1 201 2 is_stmt 1 discriminator 3 view .LVU199
 717              		.loc 1 201 16 discriminator 1 view .LVU200
 718              		.loc 1 203 3 view .LVU201
 719              		.loc 1 203 13 is_stmt 0 view .LVU202
 720 0060 807F0000 		lwz 3,0(31)
 721              		.loc 1 203 20 view .LVU203
 722 0064 81230000 		lwz 9,0(3)
 723 0068 81290024 		lwz 9,36(9)
 724 006c 7D2903A6 		mtctr 9
 725 0070 4E800421 		bctrl
 726              	.LVL64:
 727              		.loc 1 201 2 is_stmt 1 discriminator 3 view .LVU204
 728              		.loc 1 201 16 discriminator 1 view .LVU205
 729 0074 37DEFFFF 		addic. 30,30,-1
 730 0078 4082FFCC 		bne+ 0,.L131
 731              	.LBE20:
 732              		.loc 1 206 2 view .LVU206
 733 007c 807D0120 		lwz 3,288(29)
 734              		.loc 1 206 20 is_stmt 0 view .LVU207
 735 0080 81230000 		lwz 9,0(3)
 736 0084 81290024 		lwz 9,36(9)
 737 0088 7D2903A6 		mtctr 9
 738 008c 4E800421 		bctrl
 739              	.LVL65:
 740              		.loc 1 207 2 is_stmt 1 view .LVU208
 741 0090 807D0110 		lwz 3,272(29)
 742              		.loc 1 207 18 is_stmt 0 view .LVU209
 743 0094 81230000 		lwz 9,0(3)
 744 0098 81290024 		lwz 9,36(9)
 745 009c 7D2903A6 		mtctr 9
 746 00a0 4E800421 		bctrl
 747              	.LVL66:
 748              		.loc 1 208 2 is_stmt 1 view .LVU210
 749 00a4 807D0114 		lwz 3,276(29)
 750              		.loc 1 208 20 is_stmt 0 view .LVU211
 751 00a8 81230000 		lwz 9,0(3)
 752 00ac 81290024 		lwz 9,36(9)
 753 00b0 7D2903A6 		mtctr 9
 754 00b4 4E800421 		bctrl
 755              	.LVL67:
 756              		.loc 1 209 2 is_stmt 1 view .LVU212
 757 00b8 807D0118 		lwz 3,280(29)
 758              		.loc 1 209 23 is_stmt 0 view .LVU213
 759 00bc 81230000 		lwz 9,0(3)
 760 00c0 81290024 		lwz 9,36(9)
 761 00c4 7D2903A6 		mtctr 9
 762 00c8 4E800421 		bctrl
 763              	.LVL68:
 764              		.loc 1 211 2 is_stmt 1 view .LVU214
 765              		.loc 1 212 1 is_stmt 0 view .LVU215
 766 00cc 8001001C 		lwz 0,28(1)
 767              		.loc 1 211 21 view .LVU216
 768 00d0 83C10010 		lwz 30,16(1)
 769              		.cfi_restore 30
 770 00d4 7FA3EB78 		mr 3,29
 771 00d8 83E10014 		lwz 31,20(1)
 772              		.cfi_restore 31
 773              		.loc 1 212 1 view .LVU217
 774 00dc 7C0803A6 		mtlr 0
 775              		.cfi_restore 65
 776 00e0 83A1000C 		lwz 29,12(1)
 777              	.LVL69:
 778              		.loc 1 212 1 view .LVU218
 779 00e4 38210018 		addi 1,1,24
 780              		.cfi_restore 29
 781              		.cfi_def_cfa_offset 0
 782              		.loc 1 211 21 view .LVU219
 783 00e8 48000000 		b _ZN10GuiElement13UpdateEffectsEv
 784              	.LVL70:
 785              	.L129:
 786              		.cfi_def_cfa_offset 24
 787              		.cfi_offset 29, -12
 788              		.cfi_offset 65, 4
 789              		.loc 1 212 1 view .LVU220
 790 00ec 8001001C 		lwz 0,28(1)
 791 00f0 83A1000C 		lwz 29,12(1)
 792              	.LVL71:
 793              		.loc 1 212 1 view .LVU221
 794 00f4 38210018 		addi 1,1,24
 795              		.cfi_restore 29
 796              		.cfi_def_cfa_offset 0
 797 00f8 7C0803A6 		mtlr 0
 798              		.cfi_restore 65
 799 00fc 4E800020 		blr
 800              		.cfi_endproc
 801              	.LFE2342:
 802              		.size	_ZN14GuiFileBrowser4DrawEv, .-_ZN14GuiFileBrowser4DrawEv
 803              		.section	.text._ZN14GuiFileBrowser8SetFocusEi,"ax",@progbits
 804              		.align 2
 805              		.globl _ZN14GuiFileBrowser8SetFocusEi
 806              		.type	_ZN14GuiFileBrowser8SetFocusEi, @function
 807              	_ZN14GuiFileBrowser8SetFocusEi:
 808              	.LVL72:
 809              	.LFB2339:
 810              		.loc 1 164 1 is_stmt 1 view -0
 811              		.cfi_startproc
 812              		.loc 1 165 2 view .LVU223
 813              		.loc 1 164 1 is_stmt 0 view .LVU224
 814 0000 9421FFE8 		stwu 1,-24(1)
 815              		.cfi_def_cfa_offset 24
 816 0004 7C0802A6 		mflr 0
 817 0008 93810008 		stw 28,8(1)
 818              		.cfi_register 65, 0
 819              		.cfi_offset 28, -16
 820 000c 7C9C2378 		mr 28,4
 821 0010 93A1000C 		stw 29,12(1)
 822              		.cfi_offset 29, -12
 823 0014 7C7D1B78 		mr 29,3
 824 0018 93C10010 		stw 30,16(1)
 825              		.cfi_offset 30, -8
 826              		.loc 1 165 8 view .LVU225
 827 001c 3BC00008 		li 30,8
 828              		.loc 1 164 1 view .LVU226
 829 0020 93E10014 		stw 31,20(1)
 830              		.cfi_offset 31, -4
 831 0024 3BE30080 		addi 31,3,128
 832 0028 9001001C 		stw 0,28(1)
 833              		.cfi_offset 65, 4
 834              		.loc 1 165 8 view .LVU227
 835 002c 90830008 		stw 4,8(3)
 836              		.loc 1 167 2 is_stmt 1 view .LVU228
 837              	.LVL73:
 838              	.LBB25:
 839              		.loc 1 167 16 discriminator 1 view .LVU229
 840              	.L136:
 841              		.loc 1 168 3 view .LVU230
 842              		.loc 1 168 13 is_stmt 0 view .LVU231
 843 0030 807F0004 		lwz 3,4(31)
 844              		.loc 1 167 16 discriminator 1 view .LVU232
 845 0034 3BDEFFFF 		addi 30,30,-1
 846              	.LVL74:
 847              		.loc 1 168 13 view .LVU233
 848 0038 3BFF0008 		addi 31,31,8
 849              		.loc 1 168 26 view .LVU234
 850 003c 81230000 		lwz 9,0(3)
 851 0040 81290014 		lwz 9,20(9)
 852 0044 7D2903A6 		mtctr 9
 853 0048 4E800421 		bctrl
 854              	.LVL75:
 855              		.loc 1 167 2 is_stmt 1 discriminator 3 view .LVU235
 856              		.loc 1 167 16 discriminator 1 view .LVU236
 857              		.loc 1 168 3 view .LVU237
 858              		.loc 1 168 13 is_stmt 0 view .LVU238
 859 004c 807F0000 		lwz 3,0(31)
 860              		.loc 1 168 26 view .LVU239
 861 0050 81230000 		lwz 9,0(3)
 862 0054 81290014 		lwz 9,20(9)
 863 0058 7D2903A6 		mtctr 9
 864 005c 4E800421 		bctrl
 865              	.LVL76:
 866              		.loc 1 167 2 is_stmt 1 discriminator 3 view .LVU240
 867              		.loc 1 167 16 discriminator 1 view .LVU241
 868 0060 37DEFFFF 		addic. 30,30,-1
 869 0064 4082FFCC 		bne+ 0,.L136
 870              	.LBE25:
 871              		.loc 1 170 2 view .LVU242
 872 0068 2C1C0001 		cmpwi 0,28,1
 873 006c 41820024 		beq- 0,.L141
 874              		.loc 1 172 1 is_stmt 0 view .LVU243
 875 0070 8001001C 		lwz 0,28(1)
 876 0074 83810008 		lwz 28,8(1)
 877              	.LVL77:
 878              		.loc 1 172 1 view .LVU244
 879 0078 83A1000C 		lwz 29,12(1)
 880              	.LVL78:
 881              		.loc 1 172 1 view .LVU245
 882 007c 7C0803A6 		mtlr 0
 883              		.cfi_remember_state
 884              		.cfi_restore 65
 885 0080 83C10010 		lwz 30,16(1)
 886 0084 83E10014 		lwz 31,20(1)
 887 0088 38210018 		addi 1,1,24
 888              		.cfi_restore 31
 889              		.cfi_restore 30
 890              		.cfi_restore 29
 891              		.cfi_restore 28
 892              		.cfi_def_cfa_offset 0
 893 008c 4E800020 		blr
 894              	.LVL79:
 895              	.L141:
 896              		.cfi_restore_state
 897              	.LBB26:
 898              	.LBI26:
 899              		.loc 1 163 6 is_stmt 1 view .LVU246
 900              	.LBB27:
 901              		.loc 1 171 3 view .LVU247
 902              		.loc 1 171 24 is_stmt 0 view .LVU248
 903 0090 813D00A4 		lwz 9,164(29)
 904              		.loc 1 171 35 view .LVU249
 905 0094 38A0FFFF 		li 5,-1
 906              	.LBE27:
 907              	.LBE26:
 908              		.loc 1 172 1 view .LVU250
 909 0098 8001001C 		lwz 0,28(1)
 910              	.LBB34:
 911              	.LBB28:
 912              		.loc 1 171 35 view .LVU251
 913 009c 38800001 		li 4,1
 914              		.loc 1 171 24 view .LVU252
 915 00a0 39290020 		addi 9,9,32
 916              	.LBE28:
 917              	.LBE34:
 918              		.loc 1 172 1 view .LVU253
 919 00a4 83810008 		lwz 28,8(1)
 920              	.LVL80:
 921              	.LBB35:
 922              	.LBB29:
 923              		.loc 1 171 24 view .LVU254
 924 00a8 5529103A 		slwi 9,9,2
 925              	.LBE29:
 926              	.LBE35:
 927              		.loc 1 172 1 view .LVU255
 928 00ac 83C10010 		lwz 30,16(1)
 929              	.LBB36:
 930              	.LBB30:
 931              		.loc 1 171 24 view .LVU256
 932 00b0 7FBD4A14 		add 29,29,9
 933              	.LVL81:
 934              		.loc 1 171 24 view .LVU257
 935              	.LBE30:
 936              	.LBE36:
 937              		.loc 1 172 1 view .LVU258
 938 00b4 83E10014 		lwz 31,20(1)
 939              	.LBB37:
 940              	.LBB31:
 941              		.loc 1 171 24 view .LVU259
 942 00b8 807D0004 		lwz 3,4(29)
 943              	.LBE31:
 944              	.LBE37:
 945              		.loc 1 172 1 view .LVU260
 946 00bc 7C0803A6 		mtlr 0
 947              		.cfi_restore 65
 948 00c0 83A1000C 		lwz 29,12(1)
 949              	.LBB38:
 950              	.LBB32:
 951              		.loc 1 171 35 view .LVU261
 952 00c4 81230000 		lwz 9,0(3)
 953 00c8 81290010 		lwz 9,16(9)
 954              	.LBE32:
 955              	.LBE38:
 956              		.loc 1 172 1 view .LVU262
 957 00cc 38210018 		addi 1,1,24
 958              		.cfi_restore 31
 959              		.cfi_restore 30
 960              		.cfi_restore 29
 961              		.cfi_restore 28
 962              		.cfi_def_cfa_offset 0
 963              	.LBB39:
 964              	.LBB33:
 965              		.loc 1 171 35 view .LVU263
 966 00d0 7D2903A6 		mtctr 9
 967 00d4 4E800420 		bctr
 968              	.LVL82:
 969              	.LBE33:
 970              	.LBE39:
 971              		.cfi_endproc
 972              	.LFE2339:
 973              		.size	_ZN14GuiFileBrowser8SetFocusEi, .-_ZN14GuiFileBrowser8SetFocusEi
 974              		.section	.text._ZN14GuiFileBrowser6UpdateEP10GuiTrigger,"ax",@progbits
 975              		.align 2
 976              		.globl _ZN14GuiFileBrowser6UpdateEP10GuiTrigger
 977              		.type	_ZN14GuiFileBrowser6UpdateEP10GuiTrigger, @function
 978              	_ZN14GuiFileBrowser6UpdateEP10GuiTrigger:
 979              	.LVL83:
 980              	.LFB2343:
 981              		.loc 1 215 1 is_stmt 1 view -0
 982              		.cfi_startproc
 983              		.loc 1 216 2 view .LVU265
 984 0000 81230068 		lwz 9,104(3)
 985 0004 2C090004 		cmpwi 0,9,4
 986 0008 4D820020 		beqlr- 0
 987              		.loc 1 216 29 is_stmt 0 discriminator 1 view .LVU266
 988 000c 2C040000 		cmpwi 0,4,0
 989              		.loc 1 215 1 view .LVU267
 990 0010 9421FF88 		stwu 1,-120(1)
 991              		.cfi_def_cfa_offset 120
 992 0014 93810060 		stw 28,96(1)
 993              		.cfi_offset 28, -24
 994 0018 7C9C2378 		mr 28,4
 995              		.loc 1 216 29 discriminator 1 view .LVU268
 996 001c 418204B4 		beq- 0,.L142
 997              	.LVL84:
 998              	.LBB44:
 999              	.LBI44:
 1000              		.loc 1 214 6 is_stmt 1 view .LVU269
 1001              	.LBB45:
 1002              		.loc 1 219 2 view .LVU270
 1003              		.loc 1 220 2 view .LVU271
 1004              		.loc 1 222 2 view .LVU272
 1005 0020 93C10068 		stw 30,104(1)
 1006              		.cfi_offset 30, -16
 1007 0024 7C7E1B78 		mr 30,3
 1008 0028 80630110 		lwz 3,272(3)
 1009              	.LVL85:
 1010              		.loc 1 222 2 is_stmt 0 view .LVU273
 1011 002c 7C0802A6 		mflr 0
 1012              		.cfi_register 65, 0
 1013 0030 9001007C 		stw 0,124(1)
 1014              		.cfi_offset 65, 4
 1015              		.loc 1 222 20 view .LVU274
 1016 0034 81230000 		lwz 9,0(3)
 1017 0038 93010050 		stw 24,80(1)
 1018              		.cfi_offset 24, -40
 1019 003c 81290020 		lwz 9,32(9)
 1020 0040 93210054 		stw 25,84(1)
 1021              		.cfi_offset 25, -36
 1022 0044 7D2903A6 		mtctr 9
 1023 0048 93410058 		stw 26,88(1)
 1024              		.cfi_offset 26, -32
 1025 004c 9361005C 		stw 27,92(1)
 1026              		.cfi_offset 27, -28
 1027 0050 93A10064 		stw 29,100(1)
 1028              		.cfi_offset 29, -20
 1029 0054 93E1006C 		stw 31,108(1)
 1030              		.cfi_offset 31, -12
 1031 0058 4E800421 		bctrl
 1032              	.LVL86:
 1033              		.loc 1 223 2 is_stmt 1 view .LVU275
 1034 005c 807E0114 		lwz 3,276(30)
 1035              		.loc 1 223 22 is_stmt 0 view .LVU276
 1036 0060 7F84E378 		mr 4,28
 1037 0064 81230000 		lwz 9,0(3)
 1038 0068 81290020 		lwz 9,32(9)
 1039 006c 7D2903A6 		mtctr 9
 1040 0070 4E800421 		bctrl
 1041              	.LVL87:
 1042              		.loc 1 224 2 is_stmt 1 view .LVU277
 1043 0074 807E0118 		lwz 3,280(30)
 1044              		.loc 1 224 25 is_stmt 0 view .LVU278
 1045 0078 7F84E378 		mr 4,28
 1046 007c 81230000 		lwz 9,0(3)
 1047 0080 81290020 		lwz 9,32(9)
 1048 0084 7D2903A6 		mtctr 9
 1049 0088 4E800421 		bctrl
 1050              	.LVL88:
 1051              		.loc 1 227 2 is_stmt 1 view .LVU279
 1052              		.loc 1 227 30 is_stmt 0 view .LVU280
 1053 008c 807E0118 		lwz 3,280(30)
 1054 0090 48000001 		bl _ZN10GuiElement8GetStateEv
 1055              	.LVL89:
 1056              		.loc 1 229 21 view .LVU281
 1057 0094 2C030003 		cmpwi 0,3,3
 1058 0098 41820544 		beq- 0,.L146
 1059 009c 3F600000 		lis 27,browser@ha
 1060 00a0 3B7B0000 		la 27,browser@l(27)
 1061              	.L148:
 1062              		.loc 1 220 6 view .LVU282
 1063 00a4 3B200000 		li 25,0
 1064              	.LVL90:
 1065              	.L147:
 1066              		.loc 1 255 2 is_stmt 1 view .LVU283
 1067              		.loc 1 255 27 is_stmt 0 view .LVU284
 1068 00a8 807E0114 		lwz 3,276(30)
 1069 00ac 48000001 		bl _ZN10GuiElement8GetStateEv
 1070              	.LVL91:
 1071              		.loc 1 255 44 discriminator 1 view .LVU285
 1072 00b0 2C030003 		cmpwi 0,3,3
 1073 00b4 4182022C 		beq- 0,.L152
 1074              	.L156:
 1075              		.loc 1 261 7 is_stmt 1 view .LVU286
 1076              		.loc 1 261 30 is_stmt 0 view .LVU287
 1077 00b8 807E0110 		lwz 3,272(30)
 1078 00bc 48000001 		bl _ZN10GuiElement8GetStateEv
 1079              	.LVL92:
 1080              		.loc 1 261 47 discriminator 1 view .LVU288
 1081 00c0 2C030003 		cmpwi 0,3,3
 1082 00c4 418204E0 		beq- 0,.L227
 1083              	.L157:
 1084              		.loc 1 269 2 is_stmt 1 view .LVU289
 1085 00c8 813E0008 		lwz 9,8(30)
 1086 00cc 2C090000 		cmpwi 0,9,0
 1087 00d0 408201C8 		bne- 0,.L158
 1088              	.L222:
 1089              	.LVL93:
 1090              	.LBB46:
 1091              		.loc 1 329 16 discriminator 1 view .LVU290
 1092              	.LBB47:
 1093              		.loc 1 331 6 is_stmt 0 view .LVU291
 1094 00d4 887E00AC 		lbz 3,172(30)
 1095              		.loc 1 331 43 discriminator 1 view .LVU292
 1096 00d8 811B0400 		lwz 8,1024(27)
 1097              	.LVL94:
 1098              	.L159:
 1099              		.loc 1 331 43 discriminator 1 view .LVU293
 1100 00dc 3BFE0080 		addi 31,30,128
 1101              	.LBE47:
 1102              	.LBE46:
 1103              		.loc 1 220 6 view .LVU294
 1104 00e0 3BA00000 		li 29,0
 1105              	.LBB57:
 1106              	.LBB48:
 1107              		.loc 1 340 61 view .LVU295
 1108 00e4 3F400000 		lis 26,browserList@ha
 1109 00e8 480000A8 		b .L193
 1110              	.LVL95:
 1111              	.L231:
 1112              		.loc 1 360 48 discriminator 1 view .LVU296
 1113 00ec 48000001 		bl _ZN10GuiElement8GetStateEv
 1114              	.LVL96:
 1115              		.loc 1 360 24 discriminator 1 view .LVU297
 1116 00f0 2C030001 		cmpwi 0,3,1
 1117 00f4 4182037C 		beq- 0,.L182
 1118              		.loc 1 362 8 is_stmt 1 view .LVU298
 1119              		.loc 1 362 38 is_stmt 0 view .LVU299
 1120 00f8 813E0008 		lwz 9,8(30)
 1121 00fc 2C090000 		cmpwi 0,9,0
 1122 0100 41820140 		beq- 0,.L226
 1123              		.loc 1 362 17 discriminator 1 view .LVU300
 1124 0104 813E00A4 		lwz 9,164(30)
 1125 0108 807F0004 		lwz 3,4(31)
 1126 010c 7C09E800 		cmpw 0,9,29
 1127 0110 418200F8 		beq- 0,.L196
 1128              	.L184:
 1129              		.loc 1 365 3 is_stmt 1 view .LVU301
 1130              		.loc 1 367 9 is_stmt 0 view .LVU302
 1131 0114 813C0008 		lwz 9,8(28)
 1132              		.loc 1 365 7 view .LVU303
 1133 0118 831C0004 		lwz 24,4(28)
 1134              	.LVL97:
 1135              		.loc 1 367 3 is_stmt 1 view .LVU304
 1136              		.loc 1 367 24 is_stmt 0 view .LVU305
 1137 011c 814900AC 		lwz 10,172(9)
 1138 0120 2C0A0000 		cmpwi 0,10,0
 1139 0124 40820134 		bne- 0,.L228
 1140              	.L187:
 1141              		.loc 1 370 3 is_stmt 1 view .LVU306
 1142              		.loc 1 370 13 is_stmt 0 view .LVU307
 1143 0128 847F0004 		lwzu 3,4(31)
 1144              		.loc 1 370 22 view .LVU308
 1145 012c 7F84E378 		mr 4,28
 1146 0130 81230000 		lwz 9,0(3)
 1147 0134 81290020 		lwz 9,32(9)
 1148 0138 7D2903A6 		mtctr 9
 1149 013c 4E800421 		bctrl
 1150              	.LVL98:
 1151              		.loc 1 371 3 is_stmt 1 view .LVU309
 1152              		.loc 1 371 11 is_stmt 0 view .LVU310
 1153 0140 931C0004 		stw 24,4(28)
 1154              		.loc 1 373 3 is_stmt 1 view .LVU311
 1155              		.loc 1 373 27 is_stmt 0 view .LVU312
 1156 0144 807F0000 		lwz 3,0(31)
 1157 0148 48000001 		bl _ZN10GuiElement8GetStateEv
 1158              	.LVL99:
 1159              		.loc 1 373 3 discriminator 1 view .LVU313
 1160 014c 2C030001 		cmpwi 0,3,1
 1161 0150 40A20014 		bne+ 0,.L189
 1162              		.loc 1 375 4 is_stmt 1 view .LVU314
 1163              		.loc 1 375 17 is_stmt 0 view .LVU315
 1164 0154 93BE00A4 		stw 29,164(30)
 1165              		.loc 1 376 4 is_stmt 1 view .LVU316
 1166              		.loc 1 376 41 is_stmt 0 view .LVU317
 1167 0158 813B0408 		lwz 9,1032(27)
 1168 015c 7D29EA14 		add 9,9,29
 1169              		.loc 1 376 21 view .LVU318
 1170 0160 913B0404 		stw 9,1028(27)
 1171              	.L189:
 1172              		.loc 1 379 3 is_stmt 1 view .LVU319
 1173 0164 813E00A4 		lwz 9,164(30)
 1174              		.loc 1 380 18 is_stmt 0 view .LVU320
 1175 0168 807F002C 		lwz 3,44(31)
 1176              		.loc 1 379 3 view .LVU321
 1177 016c 7C09E800 		cmpw 0,9,29
 1178 0170 418201E0 		beq- 0,.L229
 1179              		.loc 1 382 4 is_stmt 1 view .LVU322
 1180              		.loc 1 382 30 is_stmt 0 view .LVU323
 1181 0174 38800000 		li 4,0
 1182              	.LBE48:
 1183              		.loc 1 329 2 discriminator 2 view .LVU324
 1184 0178 3BBD0001 		addi 29,29,1
 1185              	.LVL100:
 1186              	.LBB49:
 1187              		.loc 1 382 30 view .LVU325
 1188 017c 48000001 		bl _ZN7GuiText9SetScrollEi
 1189              	.LVL101:
 1190              	.LBE49:
 1191              		.loc 1 329 2 is_stmt 1 discriminator 2 view .LVU326
 1192              		.loc 1 329 16 discriminator 1 view .LVU327
 1193 0180 2C1D0008 		cmpwi 0,29,8
 1194 0184 418201E0 		beq- 0,.L192
 1195              	.L191:
 1196              	.LBB50:
 1197              		.loc 1 331 6 is_stmt 0 view .LVU328
 1198 0188 887E00AC 		lbz 3,172(30)
 1199              	.LBE50:
 1200              	.LBE57:
 1201              		.loc 1 392 69 view .LVU329
 1202 018c 811B0400 		lwz 8,1024(27)
 1203              	.LVL102:
 1204              	.L193:
 1205              	.LBB58:
 1206              	.LBB51:
 1207              		.loc 1 331 3 is_stmt 1 view .LVU330
 1208 0190 5463063E 		rlwinm 3,3,0,0xff
 1209 0194 2C030000 		cmpwi 0,3,0
 1210 0198 40820010 		bne- 0,.L176
 1211              		.loc 1 331 18 is_stmt 0 discriminator 1 view .LVU331
 1212 019c 813E00A8 		lwz 9,168(30)
 1213 01a0 7C094000 		cmpw 0,9,8
 1214 01a4 41820048 		beq- 0,.L177
 1215              	.L176:
 1216              		.loc 1 333 4 is_stmt 1 view .LVU332
 1217              		.loc 1 333 24 is_stmt 0 view .LVU333
 1218 01a8 813B0408 		lwz 9,1032(27)
 1219              		.loc 1 335 18 view .LVU334
 1220 01ac 807F0004 		lwz 3,4(31)
 1221              		.loc 1 333 24 view .LVU335
 1222 01b0 7D3D4A14 		add 9,29,9
 1223              		.loc 1 333 4 view .LVU336
 1224 01b4 7C094000 		cmpw 0,9,8
 1225 01b8 41800218 		blt- 0,.L230
 1226              		.loc 1 355 5 is_stmt 1 view .LVU337
 1227              		.loc 1 355 28 is_stmt 0 view .LVU338
 1228 01bc 81230000 		lwz 9,0(3)
 1229 01c0 38800000 		li 4,0
 1230 01c4 81290008 		lwz 9,8(9)
 1231 01c8 7D2903A6 		mtctr 9
 1232 01cc 4E800421 		bctrl
 1233              	.LVL103:
 1234              		.loc 1 356 5 is_stmt 1 view .LVU339
 1235              		.loc 1 356 15 is_stmt 0 view .LVU340
 1236 01d0 807F0004 		lwz 3,4(31)
 1237              		.loc 1 356 26 view .LVU341
 1238 01d4 38A0FFFF 		li 5,-1
 1239 01d8 38800004 		li 4,4
 1240 01dc 81230000 		lwz 9,0(3)
 1241 01e0 81290010 		lwz 9,16(9)
 1242 01e4 7D2903A6 		mtctr 9
 1243 01e8 4E800421 		bctrl
 1244              	.LVL104:
 1245              	.L177:
 1246              		.loc 1 360 3 is_stmt 1 view .LVU342
 1247              		.loc 1 360 24 is_stmt 0 view .LVU343
 1248 01ec 813E00A4 		lwz 9,164(30)
 1249              		.loc 1 360 37 discriminator 1 view .LVU344
 1250 01f0 807F0004 		lwz 3,4(31)
 1251              		.loc 1 360 24 view .LVU345
 1252 01f4 7C09E800 		cmpw 0,9,29
 1253 01f8 40A2FEF4 		bne- 0,.L231
 1254              		.loc 1 362 8 is_stmt 1 view .LVU346
 1255              		.loc 1 362 38 is_stmt 0 view .LVU347
 1256 01fc 813E0008 		lwz 9,8(30)
 1257 0200 2C090000 		cmpwi 0,9,0
 1258 0204 4182FF10 		beq+ 0,.L184
 1259              	.L196:
 1260              		.loc 1 362 62 discriminator 3 view .LVU348
 1261 0208 48000001 		bl _ZN10GuiElement8GetStateEv
 1262              	.LVL105:
 1263              		.loc 1 362 38 discriminator 1 view .LVU349
 1264 020c 2C030000 		cmpwi 0,3,0
 1265 0210 40820030 		bne- 0,.L226
 1266              		.loc 1 363 4 is_stmt 1 view .LVU350
 1267              		.loc 1 363 25 is_stmt 0 view .LVU351
 1268 0214 813E00A4 		lwz 9,164(30)
 1269              		.loc 1 363 36 view .LVU352
 1270 0218 38800001 		li 4,1
 1271 021c 80BC0004 		lwz 5,4(28)
 1272              		.loc 1 363 25 view .LVU353
 1273 0220 39290020 		addi 9,9,32
 1274 0224 5529103A 		slwi 9,9,2
 1275 0228 7D3E4A14 		add 9,30,9
 1276 022c 80690004 		lwz 3,4(9)
 1277              		.loc 1 363 36 view .LVU354
 1278 0230 81230000 		lwz 9,0(3)
 1279 0234 81290010 		lwz 9,16(9)
 1280 0238 7D2903A6 		mtctr 9
 1281 023c 4E800421 		bctrl
 1282              	.LVL106:
 1283              	.L226:
 1284              		.loc 1 367 9 view .LVU355
 1285 0240 813C0008 		lwz 9,8(28)
 1286 0244 807F0004 		lwz 3,4(31)
 1287              		.loc 1 365 3 is_stmt 1 view .LVU356
 1288              		.loc 1 367 24 is_stmt 0 view .LVU357
 1289 0248 814900AC 		lwz 10,172(9)
 1290              		.loc 1 365 7 view .LVU358
 1291 024c 831C0004 		lwz 24,4(28)
 1292              	.LVL107:
 1293              		.loc 1 367 3 is_stmt 1 view .LVU359
 1294              		.loc 1 367 24 is_stmt 0 view .LVU360
 1295 0250 2C0A0000 		cmpwi 0,10,0
 1296 0254 4182FED4 		beq+ 0,.L187
 1297              	.L228:
 1298              		.loc 1 367 49 discriminator 1 view .LVU361
 1299 0258 C18900B4 		lfs 12,180(9)
 1300 025c C00900B0 		lfs 0,176(9)
 1301 0260 3921003C 		addi 9,1,60
 1302 0264 FD80601E 		fctiwz 12,12
 1303 0268 FC00001E 		fctiwz 0,0
 1304 026c 7D804FAE 		stfiwx 12,0,9
 1305 0270 39210040 		addi 9,1,64
 1306 0274 7C004FAE 		stfiwx 0,0,9
 1307 0278 80A1003C 		lwz 5,60(1)
 1308 027c 80810040 		lwz 4,64(1)
 1309 0280 48000001 		bl _ZN10GuiElement8IsInsideEii
 1310              	.LVL108:
 1311              		.loc 1 367 24 discriminator 1 view .LVU362
 1312 0284 2C030000 		cmpwi 0,3,0
 1313 0288 40A2FEA0 		bne- 0,.L187
 1314              		.loc 1 368 4 is_stmt 1 view .LVU363
 1315              		.loc 1 368 12 is_stmt 0 view .LVU364
 1316 028c 3920FFFF 		li 9,-1
 1317 0290 913C0004 		stw 9,4(28)
 1318 0294 4BFFFE94 		b .L187
 1319              	.LVL109:
 1320              	.L158:
 1321              		.loc 1 368 12 view .LVU365
 1322              	.LBE51:
 1323              	.LBE58:
 1324              		.loc 1 275 2 is_stmt 1 view .LVU366
 1325              		.loc 1 275 13 is_stmt 0 view .LVU367
 1326 0298 7F83E378 		mr 3,28
 1327 029c 48000001 		bl _ZN10GuiTrigger5RightEv
 1328              	.LVL110:
 1329              		.loc 1 275 2 discriminator 1 view .LVU368
 1330 02a0 2C030000 		cmpwi 0,3,0
 1331 02a4 41820084 		beq- 0,.L160
 1332              		.loc 1 277 3 is_stmt 1 view .LVU369
 1333              		.loc 1 277 14 is_stmt 0 view .LVU370
 1334 02a8 813B0408 		lwz 9,1032(27)
 1335              		.loc 1 277 34 view .LVU371
 1336 02ac 811B0400 		lwz 8,1024(27)
 1337              		.loc 1 277 3 view .LVU372
 1338 02b0 7C094000 		cmpw 0,9,8
 1339 02b4 40800094 		bge- 0,.L223
 1340              		.loc 1 277 45 discriminator 1 view .LVU373
 1341 02b8 2C080008 		cmpwi 0,8,8
 1342 02bc 4081008C 		ble- 0,.L223
 1343              		.loc 1 279 4 is_stmt 1 view .LVU374
 1344              		.loc 1 280 4 view .LVU375
 1345              		.loc 1 280 24 is_stmt 0 view .LVU376
 1346 02c0 39490010 		addi 10,9,16
 1347              		.loc 1 281 43 view .LVU377
 1348 02c4 38E8FFF8 		addi 7,8,-8
 1349              		.loc 1 280 4 view .LVU378
 1350 02c8 7C085000 		cmpw 0,8,10
 1351 02cc 4181047C 		bgt- 0,.L232
 1352              	.L224:
 1353              		.loc 1 303 17 view .LVU379
 1354 02d0 39200001 		li 9,1
 1355              		.loc 1 302 22 view .LVU380
 1356 02d4 90FB0408 		stw 7,1032(27)
 1357              		.loc 1 303 5 is_stmt 1 view .LVU381
 1358              		.loc 1 303 17 is_stmt 0 view .LVU382
 1359 02d8 993E00AC 		stb 9,172(30)
 1360              	.LVL111:
 1361              	.LBB59:
 1362              		.loc 1 329 16 is_stmt 1 discriminator 1 view .LVU383
 1363 02dc 4BFFFE00 		b .L159
 1364              	.LVL112:
 1365              	.L152:
 1366              		.loc 1 329 16 is_stmt 0 discriminator 1 view .LVU384
 1367              	.LBE59:
 1368              		.loc 1 255 73 discriminator 1 view .LVU385
 1369 02e0 807E0114 		lwz 3,276(30)
 1370 02e4 48000001 		bl _ZN10GuiElement12GetStateChanEv
 1371              	.LVL113:
 1372              		.loc 1 255 44 discriminator 1 view .LVU386
 1373 02e8 813C0004 		lwz 9,4(28)
 1374 02ec 7C034800 		cmpw 0,3,9
 1375 02f0 4082FDC8 		bne+ 0,.L156
 1376              		.loc 1 257 3 is_stmt 1 view .LVU387
 1377              		.loc 1 257 6 is_stmt 0 view .LVU388
 1378 02f4 815C0008 		lwz 10,8(28)
 1379              		.loc 1 258 22 view .LVU389
 1380 02f8 7FC3F378 		mr 3,30
 1381              		.loc 1 257 19 view .LVU390
 1382 02fc 812A000C 		lwz 9,12(10)
 1383 0300 61290400 		ori 9,9,0x400
 1384 0304 912A000C 		stw 9,12(10)
 1385              		.loc 1 258 3 is_stmt 1 view .LVU391
 1386              		.loc 1 258 22 is_stmt 0 view .LVU392
 1387 0308 48000001 		bl _ZN10GuiElement9IsFocusedEv
 1388              	.LVL114:
 1389              		.loc 1 258 3 discriminator 1 view .LVU393
 1390 030c 2C030000 		cmpwi 0,3,0
 1391 0310 4082FDB8 		bne+ 0,.L157
 1392              	.L221:
 1393              		.loc 1 265 4 is_stmt 1 view .LVU394
 1394              		.loc 1 265 33 is_stmt 0 view .LVU395
 1395 0314 7FC3F378 		mr 3,30
 1396 0318 48000001 		bl _ZN10GuiElement9GetParentEv
 1397              	.LVL115:
 1398              		.loc 1 265 49 discriminator 1 view .LVU396
 1399 031c 7FC4F378 		mr 4,30
 1400 0320 48000001 		bl _ZN9GuiWindow11ChangeFocusEP10GuiElement
 1401              	.LVL116:
 1402 0324 4BFFFDA4 		b .L157
 1403              	.L160:
 1404              		.loc 1 285 7 is_stmt 1 view .LVU397
 1405              		.loc 1 285 17 is_stmt 0 view .LVU398
 1406 0328 7F83E378 		mr 3,28
 1407 032c 48000001 		bl _ZN10GuiTrigger4LeftEv
 1408              	.LVL117:
 1409              		.loc 1 285 7 discriminator 1 view .LVU399
 1410 0330 2C030000 		cmpwi 0,3,0
 1411 0334 4182041C 		beq- 0,.L165
 1412              		.loc 1 287 3 is_stmt 1 view .LVU400
 1413              		.loc 1 287 14 is_stmt 0 view .LVU401
 1414 0338 813B0408 		lwz 9,1032(27)
 1415              	.LBB60:
 1416              	.LBB52:
 1417              		.loc 1 331 43 discriminator 1 view .LVU402
 1418 033c 811B0400 		lwz 8,1024(27)
 1419              	.LBE52:
 1420              	.LBE60:
 1421              		.loc 1 287 3 view .LVU403
 1422 0340 2C090000 		cmpwi 0,9,0
 1423 0344 41A103E4 		bgt+ 0,.L166
 1424              	.L223:
 1425              	.LBB61:
 1426              	.LBB53:
 1427              		.loc 1 331 6 view .LVU404
 1428 0348 887E00AC 		lbz 3,172(30)
 1429 034c 4BFFFD90 		b .L159
 1430              	.LVL118:
 1431              	.L229:
 1432              		.loc 1 380 4 is_stmt 1 view .LVU405
 1433              		.loc 1 380 30 is_stmt 0 view .LVU406
 1434 0350 38800001 		li 4,1
 1435              	.LBE53:
 1436              		.loc 1 329 2 discriminator 2 view .LVU407
 1437 0354 3BBD0001 		addi 29,29,1
 1438              	.LVL119:
 1439              	.LBB54:
 1440              		.loc 1 380 30 view .LVU408
 1441 0358 48000001 		bl _ZN7GuiText9SetScrollEi
 1442              	.LVL120:
 1443              	.LBE54:
 1444              		.loc 1 329 2 is_stmt 1 discriminator 2 view .LVU409
 1445              		.loc 1 329 16 discriminator 1 view .LVU410
 1446 035c 2C1D0008 		cmpwi 0,29,8
 1447 0360 4082FE28 		bne+ 0,.L191
 1448              	.L192:
 1449              		.loc 1 329 16 is_stmt 0 discriminator 1 view .LVU411
 1450              	.LBE61:
 1451              		.loc 1 386 2 is_stmt 1 view .LVU412
 1452 0364 2C190000 		cmpwi 0,25,0
 1453              		.loc 1 400 30 is_stmt 0 view .LVU413
 1454 0368 38B90024 		addi 5,25,36
 1455              		.loc 1 386 2 view .LVU414
 1456 036c 40810170 		ble- 0,.L233
 1457              	.LVL121:
 1458              	.L195:
 1459              		.loc 1 400 2 is_stmt 1 view .LVU415
 1460              		.loc 1 400 30 is_stmt 0 view .LVU416
 1461 0370 807E0118 		lwz 3,280(30)
 1462 0374 38800000 		li 4,0
 1463 0378 48000001 		bl _ZN10GuiElement11SetPositionEii
 1464              	.LVL122:
 1465              		.loc 1 402 2 is_stmt 1 view .LVU417
 1466              		.loc 1 405 5 is_stmt 0 view .LVU418
 1467 037c 813E0080 		lwz 9,128(30)
 1468              		.loc 1 403 23 view .LVU419
 1469 0380 815B0400 		lwz 10,1024(27)
 1470              		.loc 1 402 14 view .LVU420
 1471 0384 39000000 		li 8,0
 1472              		.loc 1 405 2 view .LVU421
 1473 0388 2C090000 		cmpwi 0,9,0
 1474              		.loc 1 402 14 view .LVU422
 1475 038c 991E00AC 		stb 8,172(30)
 1476              		.loc 1 403 2 is_stmt 1 view .LVU423
 1477              		.loc 1 403 13 is_stmt 0 view .LVU424
 1478 0390 915E00A8 		stw 10,168(30)
 1479              		.loc 1 405 2 is_stmt 1 view .LVU425
 1480 0394 41820118 		beq- 0,.L220
 1481              		.loc 1 406 3 view .LVU426
 1482              		.loc 1 406 11 is_stmt 0 view .LVU427
 1483 0398 8001007C 		lwz 0,124(1)
 1484 039c 7FC3F378 		mr 3,30
 1485 03a0 83010050 		lwz 24,80(1)
 1486              		.cfi_remember_state
 1487              		.cfi_restore 24
 1488              	.LVL123:
 1489              		.loc 1 406 11 view .LVU428
 1490 03a4 7D2903A6 		mtctr 9
 1491 03a8 83210054 		lwz 25,84(1)
 1492              		.cfi_restore 25
 1493              	.LVL124:
 1494              		.loc 1 406 11 view .LVU429
 1495 03ac 7C0803A6 		mtlr 0
 1496              		.cfi_restore 65
 1497 03b0 83410058 		lwz 26,88(1)
 1498              		.cfi_restore 26
 1499 03b4 8361005C 		lwz 27,92(1)
 1500              		.cfi_restore 27
 1501 03b8 83A10064 		lwz 29,100(1)
 1502              		.cfi_restore 29
 1503              	.LVL125:
 1504              		.loc 1 406 11 view .LVU430
 1505 03bc 83C10068 		lwz 30,104(1)
 1506              		.cfi_restore 30
 1507              	.LVL126:
 1508              		.loc 1 406 11 view .LVU431
 1509 03c0 83E1006C 		lwz 31,108(1)
 1510              		.cfi_restore 31
 1511              	.LBE45:
 1512              	.LBE44:
 1513              		.loc 1 407 1 view .LVU432
 1514 03c4 83810060 		lwz 28,96(1)
 1515              	.LVL127:
 1516              		.loc 1 407 1 view .LVU433
 1517 03c8 38210078 		addi 1,1,120
 1518              		.cfi_restore 28
 1519              		.cfi_def_cfa_offset 0
 1520              	.LBB68:
 1521              	.LBB66:
 1522              		.loc 1 406 11 view .LVU434
 1523 03cc 4E800420 		bctr
 1524              	.LVL128:
 1525              	.L230:
 1526              		.cfi_restore_state
 1527              	.LBB62:
 1528              	.LBB55:
 1529              		.loc 1 335 5 is_stmt 1 view .LVU435
 1530              		.loc 1 335 29 is_stmt 0 view .LVU436
 1531 03d0 48000001 		bl _ZN10GuiElement8GetStateEv
 1532              	.LVL129:
 1533              		.loc 1 335 5 discriminator 1 view .LVU437
 1534 03d4 2C030004 		cmpwi 0,3,4
 1535 03d8 40A20020 		bne+ 0,.L179
 1536              		.loc 1 336 6 is_stmt 1 view .LVU438
 1537              		.loc 1 336 16 is_stmt 0 view .LVU439
 1538 03dc 807F0004 		lwz 3,4(31)
 1539              		.loc 1 336 27 view .LVU440
 1540 03e0 38A0FFFF 		li 5,-1
 1541 03e4 38800000 		li 4,0
 1542 03e8 81230000 		lwz 9,0(3)
 1543 03ec 81290010 		lwz 9,16(9)
 1544 03f0 7D2903A6 		mtctr 9
 1545 03f4 4E800421 		bctrl
 1546              	.LVL130:
 1547              	.L179:
 1548              		.loc 1 338 5 is_stmt 1 view .LVU441
 1549              		.loc 1 338 15 is_stmt 0 view .LVU442
 1550 03f8 807F0004 		lwz 3,4(31)
 1551              		.loc 1 338 28 view .LVU443
 1552 03fc 38800001 		li 4,1
 1553 0400 81230000 		lwz 9,0(3)
 1554 0404 81290008 		lwz 9,8(9)
 1555 0408 7D2903A6 		mtctr 9
 1556 040c 4E800421 		bctrl
 1557              	.LVL131:
 1558              		.loc 1 340 5 is_stmt 1 view .LVU444
 1559              		.loc 1 340 59 is_stmt 0 view .LVU445
 1560 0410 813B0408 		lwz 9,1032(27)
 1561              		.loc 1 340 61 view .LVU446
 1562 0414 809A0000 		lwz 4,browserList@l(26)
 1563              		.loc 1 340 59 view .LVU447
 1564 0418 7D3D4A14 		add 9,29,9
 1565              		.loc 1 340 29 view .LVU448
 1566 041c 807F0030 		lwz 3,48(31)
 1567              		.loc 1 340 61 view .LVU449
 1568 0420 1D290140 		mulli 9,9,320
 1569 0424 7C844A14 		add 4,4,9
 1570              		.loc 1 340 29 view .LVU450
 1571 0428 3884010D 		addi 4,4,269
 1572 042c 48000001 		bl _ZN7GuiText7SetTextEPKc
 1573              	.LVL132:
 1574              		.loc 1 342 5 is_stmt 1 view .LVU451
 1575              		.loc 1 342 39 is_stmt 0 view .LVU452
 1576 0430 813B0408 		lwz 9,1032(27)
 1577              		.loc 1 342 41 view .LVU453
 1578 0434 815A0000 		lwz 10,browserList@l(26)
 1579              		.loc 1 342 39 view .LVU454
 1580 0438 7D3D4A14 		add 9,29,9
 1581              		.loc 1 342 41 view .LVU455
 1582 043c 1D290140 		mulli 9,9,320
 1583 0440 7D4A4A14 		add 10,10,9
 1584              		.loc 1 342 5 view .LVU456
 1585 0444 892A000C 		lbz 9,12(10)
 1586 0448 2C090000 		cmpwi 0,9,0
 1587 044c 41820040 		beq- 0,.L180
 1588              		.loc 1 344 6 is_stmt 1 view .LVU457
 1589              		.loc 1 344 26 is_stmt 0 view .LVU458
 1590 0450 809F0070 		lwz 4,112(31)
 1591 0454 807F0004 		lwz 3,4(31)
 1592 0458 48000001 		bl _ZN9GuiButton7SetIconEP8GuiImage
 1593              	.LVL133:
 1594              		.loc 1 345 6 is_stmt 1 view .LVU459
 1595              		.loc 1 345 34 is_stmt 0 view .LVU460
 1596 045c 807F0030 		lwz 3,48(31)
 1597 0460 38A00000 		li 5,0
 1598 0464 3880001E 		li 4,30
 1599 0468 48000001 		bl _ZN10GuiElement11SetPositionEii
 1600              	.LVL134:
 1601 046c 4BFFFD80 		b .L177
 1602              	.L182:
 1603              		.loc 1 361 4 is_stmt 1 view .LVU461
 1604              		.loc 1 361 14 is_stmt 0 view .LVU462
 1605 0470 807F0004 		lwz 3,4(31)
 1606              		.loc 1 361 27 view .LVU463
 1607 0474 81230000 		lwz 9,0(3)
 1608 0478 81290014 		lwz 9,20(9)
 1609 047c 7D2903A6 		mtctr 9
 1610 0480 4E800421 		bctrl
 1611              	.LVL135:
 1612 0484 807F0004 		lwz 3,4(31)
 1613 0488 4BFFFC8C 		b .L184
 1614              	.L180:
 1615              		.loc 1 349 6 is_stmt 1 view .LVU464
 1616              		.loc 1 349 26 is_stmt 0 view .LVU465
 1617 048c 807F0004 		lwz 3,4(31)
 1618 0490 38800000 		li 4,0
 1619 0494 48000001 		bl _ZN9GuiButton7SetIconEP8GuiImage
 1620              	.LVL136:
 1621              		.loc 1 350 6 is_stmt 1 view .LVU466
 1622              		.loc 1 350 34 is_stmt 0 view .LVU467
 1623 0498 807F0030 		lwz 3,48(31)
 1624 049c 38A00000 		li 5,0
 1625 04a0 3880000A 		li 4,10
 1626 04a4 48000001 		bl _ZN10GuiElement11SetPositionEii
 1627              	.LVL137:
 1628 04a8 4BFFFD44 		b .L177
 1629              	.LVL138:
 1630              	.L220:
 1631              		.loc 1 350 34 view .LVU468
 1632 04ac 8001007C 		lwz 0,124(1)
 1633 04b0 83010050 		lwz 24,80(1)
 1634              		.cfi_restore 24
 1635              	.LVL139:
 1636              		.loc 1 350 34 view .LVU469
 1637 04b4 83210054 		lwz 25,84(1)
 1638              		.cfi_restore 25
 1639              	.LVL140:
 1640              		.loc 1 350 34 view .LVU470
 1641 04b8 7C0803A6 		mtlr 0
 1642              		.cfi_restore 65
 1643 04bc 83410058 		lwz 26,88(1)
 1644              		.cfi_restore 26
 1645 04c0 8361005C 		lwz 27,92(1)
 1646              		.cfi_restore 27
 1647 04c4 83A10064 		lwz 29,100(1)
 1648              		.cfi_restore 29
 1649              	.LVL141:
 1650              		.loc 1 350 34 view .LVU471
 1651 04c8 83C10068 		lwz 30,104(1)
 1652              		.cfi_restore 30
 1653              	.LVL142:
 1654              		.loc 1 350 34 view .LVU472
 1655 04cc 83E1006C 		lwz 31,108(1)
 1656              		.cfi_restore 31
 1657              	.LVL143:
 1658              	.L142:
 1659              		.loc 1 350 34 view .LVU473
 1660              	.LBE55:
 1661              	.LBE62:
 1662              	.LBE66:
 1663              	.LBE68:
 1664              		.loc 1 407 1 view .LVU474
 1665 04d0 83810060 		lwz 28,96(1)
 1666              	.LVL144:
 1667              		.loc 1 407 1 view .LVU475
 1668 04d4 38210078 		addi 1,1,120
 1669              		.cfi_restore 28
 1670              		.cfi_def_cfa_offset 0
 1671 04d8 4E800020 		blr
 1672              	.LVL145:
 1673              	.L233:
 1674              		.cfi_def_cfa_offset 120
 1675              		.cfi_offset 24, -40
 1676              		.cfi_offset 25, -36
 1677              		.cfi_offset 26, -32
 1678              		.cfi_offset 27, -28
 1679              		.cfi_offset 28, -24
 1680              		.cfi_offset 29, -20
 1681              		.cfi_offset 30, -16
 1682              		.cfi_offset 31, -12
 1683              		.cfi_offset 65, 4
 1684              	.LBB69:
 1685              	.LBB67:
 1686              		.loc 1 392 3 is_stmt 1 view .LVU476
 1687              		.loc 1 392 27 is_stmt 0 view .LVU477
 1688 04dc 813B0408 		lwz 9,1032(27)
 1689              		.loc 1 392 37 view .LVU478
 1690 04e0 3D404330 		lis 10,0x4330
 1691 04e4 91410020 		stw 10,32(1)
 1692 04e8 3CE00000 		lis 7,.LC2@ha
 1693 04ec 6D288000 		xoris 8,9,0x8000
 1694 04f0 C1670000 		lfs 11,.LC2@l(7)
 1695 04f4 91010024 		stw 8,36(1)
 1696              		.loc 1 394 23 view .LVU479
 1697 04f8 3D000000 		lis 8,.LC6@ha
 1698 04fc C1880000 		lfs 12,.LC6@l(8)
 1699              		.loc 1 394 3 view .LVU480
 1700 0500 3D000000 		lis 8,.LC8@ha
 1701              		.loc 1 392 37 view .LVU481
 1702 0504 C8010020 		lfd 0,32(1)
 1703 0508 38A00024 		li 5,36
 1704              		.loc 1 394 3 view .LVU482
 1705 050c C1480000 		lfs 10,.LC8@l(8)
 1706              		.loc 1 392 37 view .LVU483
 1707 0510 FC005828 		fsub 0,0,11
 1708              	.LVL146:
 1709              		.loc 1 394 3 is_stmt 1 view .LVU484
 1710              		.loc 1 394 23 is_stmt 0 view .LVU485
 1711 0514 FD800332 		fmul 12,0,12
 1712              		.loc 1 394 3 view .LVU486
 1713 0518 FC0C5000 		fcmpu 0,12,10
 1714 051c 41A0FE54 		blt- 0,.L195
 1715              		.loc 1 392 58 view .LVU487
 1716 0520 811B0400 		lwz 8,1024(27)
 1717              		.loc 1 396 29 view .LVU488
 1718 0524 39290008 		addi 9,9,8
 1719              		.loc 1 396 44 view .LVU489
 1720 0528 6D298000 		xoris 9,9,0x8000
 1721              		.loc 1 392 58 view .LVU490
 1722 052c 91410028 		stw 10,40(1)
 1723 0530 6D088000 		xoris 8,8,0x8000
 1724              		.loc 1 396 44 view .LVU491
 1725 0534 91210034 		stw 9,52(1)
 1726 0538 91410030 		stw 10,48(1)
 1727 053c 3D200000 		lis 9,.LC10@ha
 1728              		.loc 1 392 58 view .LVU492
 1729 0540 9101002C 		stw 8,44(1)
 1730 0544 38A000A6 		li 5,166
 1731              		.loc 1 396 44 view .LVU493
 1732 0548 C9810030 		lfd 12,48(1)
 1733              		.loc 1 392 58 view .LVU494
 1734 054c C9210028 		lfd 9,40(1)
 1735              		.loc 1 396 44 view .LVU495
 1736 0550 FD8C5828 		fsub 12,12,11
 1737 0554 C1490000 		lfs 10,.LC10@l(9)
 1738              		.loc 1 392 58 view .LVU496
 1739 0558 FD695828 		fsub 11,9,11
 1740              		.loc 1 396 8 is_stmt 1 view .LVU497
 1741              		.loc 1 396 44 is_stmt 0 view .LVU498
 1742 055c FD8C02B2 		fmul 12,12,10
 1743              		.loc 1 396 88 view .LVU499
 1744 0560 FD4B02B2 		fmul 10,11,10
 1745              		.loc 1 396 8 view .LVU500
 1746 0564 FC0C5000 		fcmpu 0,12,10
 1747 0568 4C411382 		cror 2,1,2
 1748 056c 41A2FE04 		beq- 0,.L195
 1749              		.loc 1 392 37 view .LVU501
 1750 0570 3D400000 		lis 10,.LC12@ha
 1751              		.loc 1 392 17 view .LVU502
 1752 0574 3D200000 		lis 9,.LC4@ha
 1753              		.loc 1 392 37 view .LVU503
 1754 0578 C14A0000 		lfs 10,.LC12@l(10)
 1755              		.loc 1 392 17 view .LVU504
 1756 057c C1890000 		lfs 12,.LC4@l(9)
 1757              		.loc 1 392 12 view .LVU505
 1758 0580 39210038 		addi 9,1,56
 1759              		.loc 1 392 37 view .LVU506
 1760 0584 FC00502A 		fadd 0,0,10
 1761              	.LVL147:
 1762              		.loc 1 392 17 view .LVU507
 1763 0588 FC000332 		fmul 0,0,12
 1764              	.LVL148:
 1765              		.loc 1 392 58 view .LVU508
 1766 058c FC005824 		fdiv 0,0,11
 1767              		.loc 1 392 12 view .LVU509
 1768 0590 FC00001E 		fctiwz 0,0
 1769 0594 7C004FAE 		stfiwx 0,0,9
 1770 0598 80A10038 		lwz 5,56(1)
 1771              		.loc 1 400 30 view .LVU510
 1772 059c 38A50024 		addi 5,5,36
 1773 05a0 4BFFFDD0 		b .L195
 1774              	.LVL149:
 1775              	.L227:
 1776              		.loc 1 261 74 discriminator 1 view .LVU511
 1777 05a4 807E0110 		lwz 3,272(30)
 1778 05a8 48000001 		bl _ZN10GuiElement12GetStateChanEv
 1779              	.LVL150:
 1780              		.loc 1 261 47 discriminator 1 view .LVU512
 1781 05ac 813C0004 		lwz 9,4(28)
 1782 05b0 7C034800 		cmpw 0,3,9
 1783 05b4 4082FB14 		bne+ 0,.L157
 1784              		.loc 1 263 3 is_stmt 1 view .LVU513
 1785              		.loc 1 263 6 is_stmt 0 view .LVU514
 1786 05b8 815C0008 		lwz 10,8(28)
 1787              		.loc 1 264 22 view .LVU515
 1788 05bc 7FC3F378 		mr 3,30
 1789              		.loc 1 263 19 view .LVU516
 1790 05c0 812A000C 		lwz 9,12(10)
 1791 05c4 61290800 		ori 9,9,0x800
 1792 05c8 912A000C 		stw 9,12(10)
 1793              		.loc 1 264 3 is_stmt 1 view .LVU517
 1794              		.loc 1 264 22 is_stmt 0 view .LVU518
 1795 05cc 48000001 		bl _ZN10GuiElement9IsFocusedEv
 1796              	.LVL151:
 1797              		.loc 1 264 3 discriminator 1 view .LVU519
 1798 05d0 2C030000 		cmpwi 0,3,0
 1799 05d4 4082FAF4 		bne+ 0,.L157
 1800 05d8 4BFFFD3C 		b .L221
 1801              	.LVL152:
 1802              	.L146:
 1803              		.loc 1 228 32 view .LVU520
 1804 05dc 807E0118 		lwz 3,280(30)
 1805 05e0 3F600000 		lis 27,browser@ha
 1806 05e4 3B7B0000 		la 27,browser@l(27)
 1807 05e8 48000001 		bl _ZN10GuiElement12GetStateChanEv
 1808              	.LVL153:
 1809              		.loc 1 227 47 view .LVU521
 1810 05ec 813C0004 		lwz 9,4(28)
 1811 05f0 7C034800 		cmpw 0,3,9
 1812 05f4 4082FAB0 		bne+ 0,.L148
 1813              		.loc 1 229 15 view .LVU522
 1814 05f8 813C0008 		lwz 9,8(28)
 1815              		.loc 1 228 46 view .LVU523
 1816 05fc 812900AC 		lwz 9,172(9)
 1817 0600 2C090000 		cmpwi 0,9,0
 1818 0604 41A2FAA0 		beq- 0,.L148
 1819              		.loc 1 229 21 discriminator 3 view .LVU524
 1820 0608 813B0400 		lwz 9,1024(27)
 1821 060c 2C090008 		cmpwi 0,9,8
 1822 0610 4081FA94 		ble+ 0,.L148
 1823              		.loc 1 233 3 is_stmt 1 view .LVU525
 1824              		.loc 1 233 31 is_stmt 0 view .LVU526
 1825 0614 807E0118 		lwz 3,280(30)
 1826 0618 38A00000 		li 5,0
 1827 061c 38800000 		li 4,0
 1828 0620 DBE10070 		stfd 31,112(1)
 1829              		.cfi_offset 63, -8
 1830              		.loc 1 233 31 view .LVU527
 1831 0624 48000001 		bl _ZN10GuiElement11SetPositionEii
 1832              	.LVL154:
 1833              		.loc 1 234 3 is_stmt 1 view .LVU528
 1834              		.loc 1 234 33 is_stmt 0 view .LVU529
 1835 0628 813C0008 		lwz 9,8(28)
 1836              		.loc 1 234 35 view .LVU530
 1837 062c 3D400000 		lis 10,.LC0@ha
 1838              		.loc 1 234 65 view .LVU531
 1839 0630 807E0118 		lwz 3,280(30)
 1840              		.loc 1 234 35 view .LVU532
 1841 0634 C18A0000 		lfs 12,.LC0@l(10)
 1842              		.loc 1 234 40 discriminator 1 view .LVU533
 1843 0638 3FE00000 		lis 31,.LC2@ha
 1844              		.loc 1 234 35 view .LVU534
 1845 063c C00900B4 		lfs 0,180(9)
 1846 0640 EFE06028 		fsubs 31,0,12
 1847              		.loc 1 234 65 view .LVU535
 1848 0644 48000001 		bl _ZN10GuiElement6GetTopEv
 1849              	.LVL155:
 1850              		.loc 1 234 40 discriminator 1 view .LVU536
 1851 0648 6C638000 		xoris 3,3,0x8000
 1852 064c 3D404330 		lis 10,0x4330
 1853 0650 9061000C 		stw 3,12(1)
 1854              		.loc 1 234 19 discriminator 1 view .LVU537
 1855 0654 39210048 		addi 9,1,72
 1856              		.loc 1 234 40 discriminator 1 view .LVU538
 1857 0658 91410008 		stw 10,8(1)
 1858 065c C19F0000 		lfs 12,.LC2@l(31)
 1859 0660 C8010008 		lfd 0,8(1)
 1860              		.loc 1 236 48 view .LVU539
 1861 0664 807E0118 		lwz 3,280(30)
 1862              		.loc 1 234 40 discriminator 1 view .LVU540
 1863 0668 FD806028 		fsub 12,0,12
 1864 066c FD806018 		frsp 12,12
 1865 0670 EC1F6028 		fsubs 0,31,12
 1866              		.loc 1 234 19 discriminator 1 view .LVU541
 1867 0674 FC00001E 		fctiwz 0,0
 1868 0678 7C004FAE 		stfiwx 0,0,9
 1869 067c 83210048 		lwz 25,72(1)
 1870              	.LVL156:
 1871              		.loc 1 236 3 is_stmt 1 view .LVU542
 1872              		.loc 1 236 48 is_stmt 0 view .LVU543
 1873 0680 48000001 		bl _ZN10GuiElement7GetMinYEv
 1874              	.LVL157:
 1875              		.loc 1 236 3 discriminator 1 view .LVU544
 1876 0684 7C191800 		cmpw 0,25,3
 1877              		.loc 1 237 46 view .LVU545
 1878 0688 807E0118 		lwz 3,280(30)
 1879              		.loc 1 236 3 discriminator 1 view .LVU546
 1880 068c 408001B8 		bge- 0,.L149
 1881              		.loc 1 237 4 is_stmt 1 view .LVU547
 1882              		.loc 1 237 46 is_stmt 0 view .LVU548
 1883 0690 48000001 		bl _ZN10GuiElement7GetMinYEv
 1884              	.LVL158:
 1885 0694 7C791B78 		mr 25,3
 1886              	.LVL159:
 1887              	.L150:
 1888              		.loc 1 241 3 is_stmt 1 view .LVU549
 1889              		.loc 1 241 50 is_stmt 0 view .LVU550
 1890 0698 815B0400 		lwz 10,1024(27)
 1891              		.loc 1 241 61 view .LVU551
 1892 069c 3CE04330 		lis 7,0x4330
 1893 06a0 90E10010 		stw 7,16(1)
 1894 06a4 3D200000 		lis 9,.LC4@ha
 1895              		.loc 1 241 40 view .LVU552
 1896 06a8 7D0AC9D6 		mullw 8,10,25
 1897              		.loc 1 241 61 view .LVU553
 1898 06ac C1690000 		lfs 11,.LC4@l(9)
 1899              		.loc 1 241 68 view .LVU554
 1900 06b0 813E00A4 		lwz 9,164(30)
 1901              		.loc 1 241 61 view .LVU555
 1902 06b4 C19F0000 		lfs 12,.LC2@l(31)
 1903              		.loc 1 241 68 view .LVU556
 1904 06b8 6D298000 		xoris 9,9,0x8000
 1905 06bc 90E10018 		stw 7,24(1)
 1906              		.loc 1 241 61 view .LVU557
 1907 06c0 6D088000 		xoris 8,8,0x8000
 1908              		.loc 1 241 68 view .LVU558
 1909 06c4 9121001C 		stw 9,28(1)
 1910              		.loc 1 241 61 view .LVU559
 1911 06c8 91010014 		stw 8,20(1)
 1912              		.loc 1 241 21 view .LVU560
 1913 06cc 39210044 		addi 9,1,68
 1914              		.loc 1 241 68 view .LVU561
 1915 06d0 C9410018 		lfd 10,24(1)
 1916              		.loc 1 241 61 view .LVU562
 1917 06d4 C8010010 		lfd 0,16(1)
 1918 06d8 FC006028 		fsub 0,0,12
 1919              		.loc 1 241 68 view .LVU563
 1920 06dc FD8A6028 		fsub 12,10,12
 1921              		.loc 1 241 61 view .LVU564
 1922 06e0 FC005824 		fdiv 0,0,11
 1923              		.loc 1 241 68 view .LVU565
 1924 06e4 FC006028 		fsub 0,0,12
 1925              		.loc 1 241 21 view .LVU566
 1926 06e8 FC00001E 		fctiwz 0,0
 1927 06ec 7C004FAE 		stfiwx 0,0,9
 1928 06f0 81210044 		lwz 9,68(1)
 1929              		.loc 1 243 3 is_stmt 1 view .LVU567
 1930 06f4 2C090000 		cmpwi 0,9,0
 1931 06f8 408101A4 		ble- 0,.L197
 1932              		.loc 1 247 8 view .LVU568
 1933              		.loc 1 247 28 is_stmt 0 view .LVU569
 1934 06fc 39090008 		addi 8,9,8
 1935              		.loc 1 247 8 view .LVU570
 1936 0700 7C0A4000 		cmpw 0,10,8
 1937 0704 41810008 		bgt- 0,.L151
 1938              		.loc 1 249 4 is_stmt 1 view .LVU571
 1939              		.loc 1 249 42 is_stmt 0 view .LVU572
 1940 0708 392AFFF8 		addi 9,10,-8
 1941              	.L151:
 1942              		.loc 1 251 15 view .LVU573
 1943 070c 39000001 		li 8,1
 1944              		.loc 1 252 9 view .LVU574
 1945 0710 39400000 		li 10,0
 1946              		.loc 1 245 22 view .LVU575
 1947 0714 913B0408 		stw 9,1032(27)
 1948              		.loc 1 251 3 is_stmt 1 view .LVU576
 1949              		.loc 1 252 9 is_stmt 0 view .LVU577
 1950 0718 CBE10070 		lfd 31,112(1)
 1951              		.cfi_restore 63
 1952              		.loc 1 251 15 view .LVU578
 1953 071c 991E00AC 		stb 8,172(30)
 1954              		.loc 1 252 3 is_stmt 1 view .LVU579
 1955              		.loc 1 252 9 is_stmt 0 view .LVU580
 1956 0720 915E0008 		stw 10,8(30)
 1957 0724 4BFFF984 		b .L147
 1958              	.L166:
 1959              		.loc 1 289 4 is_stmt 1 view .LVU581
 1960              		.loc 1 290 4 view .LVU582
 1961              		.loc 1 289 22 is_stmt 0 view .LVU583
 1962 0728 3929FFF8 		addi 9,9,-8
 1963              		.loc 1 292 16 view .LVU584
 1964 072c 38E00001 		li 7,1
 1965              		.loc 1 290 4 view .LVU585
 1966 0730 7D2A48F8 		not 10,9
 1967 0734 7D4AFE70 		srawi 10,10,31
 1968 0738 7D295038 		and 9,9,10
 1969 073c 913B0408 		stw 9,1032(27)
 1970              		.loc 1 292 4 is_stmt 1 view .LVU586
 1971              		.loc 1 292 16 is_stmt 0 view .LVU587
 1972 0740 98FE00AC 		stb 7,172(30)
 1973              	.LVL160:
 1974              	.LBB63:
 1975              		.loc 1 329 16 is_stmt 1 discriminator 1 view .LVU588
 1976 0744 4BFFF998 		b .L159
 1977              	.LVL161:
 1978              	.L232:
 1979              		.loc 1 329 16 is_stmt 0 discriminator 1 view .LVU589
 1980              	.LBE63:
 1981              		.loc 1 279 22 view .LVU590
 1982 0748 38E90008 		addi 7,9,8
 1983 074c 4BFFFB84 		b .L224
 1984              	.L165:
 1985              		.loc 1 295 7 is_stmt 1 view .LVU591
 1986              		.loc 1 295 17 is_stmt 0 view .LVU592
 1987 0750 7F83E378 		mr 3,28
 1988 0754 48000001 		bl _ZN10GuiTrigger4DownEv
 1989              	.LVL162:
 1990              		.loc 1 295 7 discriminator 1 view .LVU593
 1991 0758 2C030000 		cmpwi 0,3,0
 1992 075c 41820030 		beq- 0,.L168
 1993              		.loc 1 297 3 is_stmt 1 view .LVU594
 1994              		.loc 1 297 14 is_stmt 0 view .LVU595
 1995 0760 80FB0408 		lwz 7,1032(27)
 1996              		.loc 1 297 26 view .LVU596
 1997 0764 813E00A4 		lwz 9,164(30)
 1998              		.loc 1 297 53 view .LVU597
 1999 0768 811B0400 		lwz 8,1024(27)
 2000              		.loc 1 297 24 view .LVU598
 2001 076c 7D474A14 		add 10,7,9
 2002              		.loc 1 297 39 view .LVU599
 2003 0770 394A0001 		addi 10,10,1
 2004              		.loc 1 297 3 view .LVU600
 2005 0774 7C0A4000 		cmpw 0,10,8
 2006 0778 40A0FBD0 		bge- 0,.L223
 2007              		.loc 1 299 4 is_stmt 1 view .LVU601
 2008 077c 2C090007 		cmpwi 0,9,7
 2009 0780 4082004C 		bne- 0,.L170
 2010              		.loc 1 302 5 view .LVU602
 2011              		.loc 1 302 22 is_stmt 0 view .LVU603
 2012 0784 38E70001 		addi 7,7,1
 2013 0788 4BFFFB48 		b .L224
 2014              	.L168:
 2015              		.loc 1 312 7 is_stmt 1 view .LVU604
 2016              		.loc 1 312 15 is_stmt 0 view .LVU605
 2017 078c 7F83E378 		mr 3,28
 2018 0790 48000001 		bl _ZN10GuiTrigger2UpEv
 2019              	.LVL163:
 2020              		.loc 1 312 7 discriminator 1 view .LVU606
 2021 0794 2C030000 		cmpwi 0,3,0
 2022 0798 41A2F93C 		beq- 0,.L222
 2023              		.loc 1 314 3 is_stmt 1 view .LVU607
 2024              		.loc 1 314 6 is_stmt 0 view .LVU608
 2025 079c 813E00A4 		lwz 9,164(30)
 2026              		.loc 1 314 3 view .LVU609
 2027 07a0 2C090000 		cmpwi 0,9,0
 2028 07a4 408200BC 		bne- 0,.L173
 2029              		.loc 1 314 35 discriminator 1 view .LVU610
 2030 07a8 813B0408 		lwz 9,1032(27)
 2031              	.LBB64:
 2032              	.LBB56:
 2033              		.loc 1 331 43 discriminator 1 view .LVU611
 2034 07ac 811B0400 		lwz 8,1024(27)
 2035              	.LBE56:
 2036              	.LBE64:
 2037              		.loc 1 314 24 discriminator 1 view .LVU612
 2038 07b0 2C090000 		cmpwi 0,9,0
 2039 07b4 40A1FB94 		ble- 0,.L223
 2040              		.loc 1 317 4 is_stmt 1 view .LVU613
 2041              		.loc 1 317 21 is_stmt 0 view .LVU614
 2042 07b8 3929FFFF 		addi 9,9,-1
 2043              		.loc 1 318 16 view .LVU615
 2044 07bc 39400001 		li 10,1
 2045              		.loc 1 317 21 view .LVU616
 2046 07c0 913B0408 		stw 9,1032(27)
 2047              		.loc 1 318 4 is_stmt 1 view .LVU617
 2048              		.loc 1 318 16 is_stmt 0 view .LVU618
 2049 07c4 995E00AC 		stb 10,172(30)
 2050              	.LVL164:
 2051              	.LBB65:
 2052              		.loc 1 329 16 is_stmt 1 discriminator 1 view .LVU619
 2053 07c8 4BFFF914 		b .L159
 2054              	.LVL165:
 2055              	.L170:
 2056              		.loc 1 329 16 is_stmt 0 discriminator 1 view .LVU620
 2057              	.LBE65:
 2058              		.loc 1 305 9 is_stmt 1 view .LVU621
 2059              		.loc 1 305 35 is_stmt 0 view .LVU622
 2060 07cc 39290021 		addi 9,9,33
 2061 07d0 5529103A 		slwi 9,9,2
 2062 07d4 7D3E4A14 		add 9,30,9
 2063              		.loc 1 305 47 view .LVU623
 2064 07d8 80690004 		lwz 3,4(9)
 2065 07dc 48000001 		bl _ZN10GuiElement9IsVisibleEv
 2066              	.LVL166:
 2067              		.loc 1 305 9 discriminator 1 view .LVU624
 2068 07e0 2C030000 		cmpwi 0,3,0
 2069 07e4 41A2F8F0 		beq- 0,.L222
 2070              		.loc 1 307 5 is_stmt 1 view .LVU625
 2071              		.loc 1 307 26 is_stmt 0 view .LVU626
 2072 07e8 813E00A4 		lwz 9,164(30)
 2073 07ec 39290020 		addi 9,9,32
 2074 07f0 5529103A 		slwi 9,9,2
 2075 07f4 7D3E4A14 		add 9,30,9
 2076 07f8 80690004 		lwz 3,4(9)
 2077              		.loc 1 307 39 view .LVU627
 2078 07fc 81230000 		lwz 9,0(3)
 2079 0800 81290014 		lwz 9,20(9)
 2080 0804 7D2903A6 		mtctr 9
 2081 0808 4E800421 		bctrl
 2082              	.LVL167:
 2083              		.loc 1 308 5 is_stmt 1 view .LVU628
 2084              		.loc 1 308 14 is_stmt 0 view .LVU629
 2085 080c 815E00A4 		lwz 10,164(30)
 2086              		.loc 1 308 39 view .LVU630
 2087 0810 80BC0004 		lwz 5,4(28)
 2088 0814 38800001 		li 4,1
 2089              		.loc 1 308 28 view .LVU631
 2090 0818 392A0021 		addi 9,10,33
 2091              		.loc 1 308 14 view .LVU632
 2092 081c 394A0001 		addi 10,10,1
 2093              	.L225:
 2094              		.loc 1 323 27 view .LVU633
 2095 0820 5529103A 		slwi 9,9,2
 2096              		.loc 1 323 38 view .LVU634
 2097 0824 915E00A4 		stw 10,164(30)
 2098              		.loc 1 323 27 view .LVU635
 2099 0828 7D3E4A14 		add 9,30,9
 2100 082c 80690004 		lwz 3,4(9)
 2101              		.loc 1 323 38 view .LVU636
 2102 0830 81230000 		lwz 9,0(3)
 2103 0834 81290010 		lwz 9,16(9)
 2104 0838 7D2903A6 		mtctr 9
 2105 083c 4E800421 		bctrl
 2106              	.LVL168:
 2107 0840 4BFFF894 		b .L222
 2108              	.L149:
 2109              		.cfi_offset 63, -8
 2110              		.loc 1 238 8 is_stmt 1 view .LVU637
 2111              		.loc 1 238 53 is_stmt 0 view .LVU638
 2112 0844 48000001 		bl _ZN10GuiElement7GetMaxYEv
 2113              	.LVL169:
 2114              		.loc 1 238 8 discriminator 1 view .LVU639
 2115 0848 7C191800 		cmpw 0,25,3
 2116 084c 4081FE4C 		ble+ 0,.L150
 2117              		.loc 1 239 4 is_stmt 1 view .LVU640
 2118              		.loc 1 239 46 is_stmt 0 view .LVU641
 2119 0850 807E0118 		lwz 3,280(30)
 2120 0854 48000001 		bl _ZN10GuiElement7GetMaxYEv
 2121              	.LVL170:
 2122 0858 7C791B78 		mr 25,3
 2123              	.LVL171:
 2124              		.loc 1 239 46 view .LVU642
 2125 085c 4BFFFE3C 		b .L150
 2126              	.LVL172:
 2127              	.L173:
 2128              		.cfi_restore 63
 2129              		.loc 1 320 8 is_stmt 1 view .LVU643
 2130 0860 40A1F874 		ble- 0,.L222
 2131              		.loc 1 322 4 view .LVU644
 2132              		.loc 1 322 25 is_stmt 0 view .LVU645
 2133 0864 39290020 		addi 9,9,32
 2134 0868 5529103A 		slwi 9,9,2
 2135 086c 7D3E4A14 		add 9,30,9
 2136 0870 80690004 		lwz 3,4(9)
 2137              		.loc 1 322 38 view .LVU646
 2138 0874 81230000 		lwz 9,0(3)
 2139 0878 81290014 		lwz 9,20(9)
 2140 087c 7D2903A6 		mtctr 9
 2141 0880 4E800421 		bctrl
 2142              	.LVL173:
 2143              		.loc 1 323 4 is_stmt 1 view .LVU647
 2144              		.loc 1 323 13 is_stmt 0 view .LVU648
 2145 0884 815E00A4 		lwz 10,164(30)
 2146              		.loc 1 323 38 view .LVU649
 2147 0888 80BC0004 		lwz 5,4(28)
 2148 088c 38800001 		li 4,1
 2149              		.loc 1 323 27 view .LVU650
 2150 0890 392A001F 		addi 9,10,31
 2151              		.loc 1 323 13 view .LVU651
 2152 0894 394AFFFF 		addi 10,10,-1
 2153 0898 4BFFFF88 		b .L225
 2154              	.L197:
 2155              		.cfi_offset 63, -8
 2156              		.loc 1 323 13 view .LVU652
 2157 089c 39200000 		li 9,0
 2158 08a0 4BFFFE6C 		b .L151
 2159              	.LBE67:
 2160              	.LBE69:
 2161              		.cfi_endproc
 2162              	.LFE2343:
 2163              		.size	_ZN14GuiFileBrowser6UpdateEP10GuiTrigger, .-_ZN14GuiFileBrowser6UpdateEP10GuiTrigger
 2164              		.section	.text._ZN14GuiFileBrowser13TriggerUpdateEv,"ax",@progbits
 2165              		.align 2
 2166              		.globl _ZN14GuiFileBrowser13TriggerUpdateEv
 2167              		.type	_ZN14GuiFileBrowser13TriggerUpdateEv, @function
 2168              	_ZN14GuiFileBrowser13TriggerUpdateEv:
 2169              	.LVL174:
 2170              	.LFB2341:
 2171              		.loc 1 187 1 is_stmt 1 view -0
 2172              		.cfi_startproc
 2173              		.loc 1 188 2 view .LVU654
 2174              		.loc 1 188 14 is_stmt 0 view .LVU655
 2175 0000 39200001 		li 9,1
 2176 0004 992300AC 		stb 9,172(3)
 2177              		.loc 1 189 1 view .LVU656
 2178 0008 4E800020 		blr
 2179              		.cfi_endproc
 2180              	.LFE2341:
 2181              		.size	_ZN14GuiFileBrowser13TriggerUpdateEv, .-_ZN14GuiFileBrowser13TriggerUpdateEv
 2182              		.section	.text._ZN14GuiFileBrowserC2Eii,"ax",@progbits
 2183              		.align 2
 2184              		.globl _ZN14GuiFileBrowserC2Eii
 2185              		.type	_ZN14GuiFileBrowserC2Eii, @function
 2186              	_ZN14GuiFileBrowserC2Eii:
 2187              	.LVL175:
 2188              	.LFB2333:
 2189              		.loc 1 17 1 is_stmt 1 view -0
 2190              		.cfi_startproc
 2191              		.cfi_personality 0,__gxx_personality_v0
 2192              		.cfi_lsda 0,.LLSDA2333
 2193              		.loc 1 17 1 is_stmt 0 view .LVU658
 2194 0000 9421FFD8 		stwu 1,-40(1)
 2195              		.cfi_def_cfa_offset 40
 2196 0004 7C0802A6 		mflr 0
 2197 0008 93A1001C 		stw 29,28(1)
 2198              		.cfi_register 65, 0
 2199              		.cfi_offset 29, -12
 2200 000c 7C9D2378 		mr 29,4
 2201 0010 93C10020 		stw 30,32(1)
 2202              		.cfi_offset 30, -8
 2203 0014 7CBE2B78 		mr 30,5
 2204 0018 93E10024 		stw 31,36(1)
 2205              		.cfi_offset 31, -4
 2206 001c 7C7F1B78 		mr 31,3
 2207 0020 9001002C 		stw 0,44(1)
 2208 0024 93410010 		stw 26,16(1)
 2209 0028 93610014 		stw 27,20(1)
 2210 002c 93810018 		stw 28,24(1)
 2211              		.cfi_offset 65, 4
 2212              		.cfi_offset 26, -24
 2213              		.cfi_offset 27, -20
 2214              		.cfi_offset 28, -16
 2215              	.LEHB0:
 2216              	.LBB70:
 2217              		.loc 1 17 44 view .LVU659
 2218 0030 48000001 		bl _ZN10GuiElementC2Ev
 2219              	.LVL176:
 2220              	.LEHE0:
 2221              		.loc 1 17 44 discriminator 1 view .LVU660
 2222 0034 3D400000 		lis 10,_ZTV14GuiFileBrowser+8@ha
 2223              	.LBB71:
 2224              		.loc 1 21 13 view .LVU661
 2225 0038 39200000 		li 9,0
 2226              		.loc 1 23 13 view .LVU662
 2227 003c 39000001 		li 8,1
 2228              	.LBE71:
 2229              		.loc 1 17 44 discriminator 1 view .LVU663
 2230 0040 394A0000 		la 10,_ZTV14GuiFileBrowser+8@l(10)
 2231              	.LBB75:
 2232              		.loc 1 19 8 view .LVU664
 2233 0044 93BF000C 		stw 29,12(31)
 2234              		.loc 1 27 14 view .LVU665
 2235 0048 3860016C 		li 3,364
 2236              		.loc 1 20 9 view .LVU666
 2237 004c 93DF0010 		stw 30,16(31)
 2238              	.LBE75:
 2239              		.loc 1 17 44 discriminator 1 view .LVU667
 2240 0050 915F0000 		stw 10,0(31)
 2241              	.LBB76:
 2242              		.loc 1 19 2 is_stmt 1 view .LVU668
 2243              		.loc 1 20 2 view .LVU669
 2244              		.loc 1 21 2 view .LVU670
 2245              		.loc 1 21 13 is_stmt 0 view .LVU671
 2246 0054 913F00A8 		stw 9,168(31)
 2247              		.loc 1 22 2 is_stmt 1 view .LVU672
 2248              		.loc 1 22 15 is_stmt 0 view .LVU673
 2249 0058 913F00A4 		stw 9,164(31)
 2250              		.loc 1 23 2 is_stmt 1 view .LVU674
 2251              		.loc 1 25 8 is_stmt 0 view .LVU675
 2252 005c 913F0008 		stw 9,8(31)
 2253              		.loc 1 23 13 view .LVU676
 2254 0060 991F0070 		stb 8,112(31)
 2255              		.loc 1 24 2 is_stmt 1 view .LVU677
 2256              		.loc 1 24 14 is_stmt 0 view .LVU678
 2257 0064 991F00AC 		stb 8,172(31)
 2258              		.loc 1 25 2 is_stmt 1 view .LVU679
 2259              		.loc 1 27 2 view .LVU680
 2260              	.LEHB1:
 2261              		.loc 1 27 14 is_stmt 0 view .LVU681
 2262 0068 48000001 		bl _Znwj
 2263              	.LVL177:
 2264              	.LEHE1:
 2265 006c 7C7E1B78 		mr 30,3
 2266              	.LVL178:
 2267              	.LEHB2:
 2268              		.loc 1 27 14 discriminator 1 view .LVU682
 2269 0070 48000001 		bl _ZN10GuiTriggerC1Ev
 2270              	.LVL179:
 2271              	.LEHE2:
 2272              		.loc 1 28 25 view .LVU683
 2273 0074 3CA00010 		lis 5,0x10
 2274              		.loc 1 27 8 discriminator 3 view .LVU684
 2275 0078 93DF016C 		stw 30,364(31)
 2276              		.loc 1 28 2 is_stmt 1 view .LVU685
 2277              		.loc 1 28 25 is_stmt 0 view .LVU686
 2278 007c 7FC3F378 		mr 3,30
 2279 0080 60A50008 		ori 5,5,0x8
 2280 0084 38C00100 		li 6,256
 2281 0088 3880FFFF 		li 4,-1
 2282              	.LEHB3:
 2283 008c 48000001 		bl _ZN10GuiTrigger16SetSimpleTriggerEijt
 2284              	.LVL180:
 2285              		.loc 1 30 2 is_stmt 1 view .LVU687
 2286              		.loc 1 30 18 is_stmt 0 view .LVU688
 2287 0090 3860016C 		li 3,364
 2288 0094 48000001 		bl _Znwj
 2289              	.LVL181:
 2290              	.LEHE3:
 2291 0098 7C7E1B78 		mr 30,3
 2292              	.LEHB4:
 2293              		.loc 1 30 18 discriminator 1 view .LVU689
 2294 009c 48000001 		bl _ZN10GuiTriggerC1Ev
 2295              	.LVL182:
 2296              	.LEHE4:
 2297              		.loc 1 31 27 view .LVU690
 2298 00a0 3CA00010 		lis 5,0x10
 2299              		.loc 1 30 12 discriminator 3 view .LVU691
 2300 00a4 93DF0170 		stw 30,368(31)
 2301              		.loc 1 31 2 is_stmt 1 view .LVU692
 2302              		.loc 1 31 27 is_stmt 0 view .LVU693
 2303 00a8 7FC3F378 		mr 3,30
 2304 00ac 60A50008 		ori 5,5,0x8
 2305 00b0 38C00100 		li 6,256
 2306 00b4 3880FFFF 		li 4,-1
 2307              	.LEHB5:
 2308 00b8 48000001 		bl _ZN10GuiTrigger14SetHeldTriggerEijt
 2309              	.LVL183:
 2310              		.loc 1 33 2 is_stmt 1 view .LVU694
 2311              		.loc 1 33 78 is_stmt 0 view .LVU695
 2312 00bc 38600018 		li 3,24
 2313 00c0 48000001 		bl _Znwj
 2314              	.LVL184:
 2315              	.LEHE5:
 2316              		.loc 1 33 78 discriminator 1 view .LVU696
 2317 00c4 3C800000 		lis 4,button_over_pcm@ha
 2318 00c8 38C00000 		li 6,0
 2319 00cc 38840000 		la 4,button_over_pcm@l(4)
 2320 00d0 38A00B3C 		li 5,2876
 2321              		.loc 1 33 78 view .LVU697
 2322 00d4 7C7E1B78 		mr 30,3
 2323              	.LEHB6:
 2324              		.loc 1 33 78 discriminator 1 view .LVU698
 2325 00d8 48000001 		bl _ZN8GuiSoundC1EPKhii
 2326              	.LVL185:
 2327              	.LEHE6:
 2328              		.loc 1 33 15 discriminator 3 view .LVU699
 2329 00dc 93DF0164 		stw 30,356(31)
 2330              		.loc 1 34 2 is_stmt 1 view .LVU700
 2331              		.loc 1 34 81 is_stmt 0 view .LVU701
 2332 00e0 38600018 		li 3,24
 2333              	.LEHB7:
 2334 00e4 48000001 		bl _Znwj
 2335              	.LVL186:
 2336              	.LEHE7:
 2337              		.loc 1 34 81 discriminator 1 view .LVU702
 2338 00e8 3C800000 		lis 4,button_click_pcm@ha
 2339 00ec 38C00000 		li 6,0
 2340 00f0 38840000 		la 4,button_click_pcm@l(4)
 2341 00f4 38A01C24 		li 5,7204
 2342              		.loc 1 34 81 view .LVU703
 2343 00f8 7C7E1B78 		mr 30,3
 2344              	.LEHB8:
 2345              		.loc 1 34 81 discriminator 1 view .LVU704
 2346 00fc 48000001 		bl _ZN8GuiSoundC1EPKhii
 2347              	.LVL187:
 2348              	.LEHE8:
 2349              		.loc 1 34 16 discriminator 3 view .LVU705
 2350 0100 93DF0168 		stw 30,360(31)
 2351              		.loc 1 36 2 is_stmt 1 view .LVU706
 2352              		.loc 1 36 58 is_stmt 0 view .LVU707
 2353 0104 3860000C 		li 3,12
 2354              	.LEHB9:
 2355 0108 48000001 		bl _Znwj
 2356              	.LVL188:
 2357              	.LEHE9:
 2358              		.loc 1 36 58 discriminator 1 view .LVU708
 2359 010c 3C800000 		lis 4,bg_file_selection_png@ha
 2360              		.loc 1 36 58 view .LVU709
 2361 0110 7C7E1B78 		mr 30,3
 2362              		.loc 1 36 58 discriminator 1 view .LVU710
 2363 0114 38840000 		la 4,bg_file_selection_png@l(4)
 2364              	.LEHB10:
 2365 0118 48000001 		bl _ZN12GuiImageDataC1EPKh
 2366              	.LVL189:
 2367              	.LEHE10:
 2368              		.loc 1 36 18 discriminator 3 view .LVU711
 2369 011c 93DF013C 		stw 30,316(31)
 2370              		.loc 1 37 2 is_stmt 1 view .LVU712
 2371              		.loc 1 37 51 is_stmt 0 view .LVU713
 2372 0120 38600098 		li 3,152
 2373              	.LEHB11:
 2374 0124 48000001 		bl _Znwj
 2375              	.LVL190:
 2376              	.LEHE11:
 2377              		.loc 1 37 51 discriminator 1 view .LVU714
 2378 0128 809F013C 		lwz 4,316(31)
 2379              		.loc 1 37 51 view .LVU715
 2380 012c 7C7E1B78 		mr 30,3
 2381              	.LEHB12:
 2382              		.loc 1 37 51 discriminator 1 view .LVU716
 2383 0130 48000001 		bl _ZN8GuiImageC1EP12GuiImageData
 2384              	.LVL191:
 2385              	.LEHE12:
 2386              		.loc 1 37 21 discriminator 3 view .LVU717
 2387 0134 93DF011C 		stw 30,284(31)
 2388              		.loc 1 38 2 is_stmt 1 view .LVU718
 2389              		.loc 1 38 31 is_stmt 0 view .LVU719
 2390 0138 7FC3F378 		mr 3,30
 2391 013c 7FE4FB78 		mr 4,31
 2392              	.LEHB13:
 2393 0140 48000001 		bl _ZN10GuiElement9SetParentEPS_
 2394              	.LVL192:
 2395              		.loc 1 39 2 is_stmt 1 view .LVU720
 2396 0144 807F011C 		lwz 3,284(31)
 2397              		.loc 1 39 34 is_stmt 0 view .LVU721
 2398 0148 38A00005 		li 5,5
 2399 014c 38800000 		li 4,0
 2400 0150 81230000 		lwz 9,0(3)
 2401 0154 8129001C 		lwz 9,28(9)
 2402 0158 7D2903A6 		mtctr 9
 2403 015c 4E800421 		bctrl
 2404              	.LVL193:
 2405              		.loc 1 41 2 is_stmt 1 view .LVU722
 2406              		.loc 1 41 69 is_stmt 0 view .LVU723
 2407 0160 3860000C 		li 3,12
 2408 0164 48000001 		bl _Znwj
 2409              	.LVL194:
 2410              	.LEHE13:
 2411              		.loc 1 41 69 discriminator 1 view .LVU724
 2412 0168 3C800000 		lis 4,bg_file_selection_entry_png@ha
 2413              		.loc 1 41 69 view .LVU725
 2414 016c 7C7E1B78 		mr 30,3
 2415              		.loc 1 41 69 discriminator 1 view .LVU726
 2416 0170 38840000 		la 4,bg_file_selection_entry_png@l(4)
 2417              	.LEHB14:
 2418 0174 48000001 		bl _ZN12GuiImageDataC1EPKh
 2419              	.LVL195:
 2420              	.LEHE14:
 2421              		.loc 1 41 23 discriminator 3 view .LVU727
 2422 0178 93DF0140 		stw 30,320(31)
 2423              		.loc 1 42 2 is_stmt 1 view .LVU728
 2424              		.loc 1 42 42 is_stmt 0 view .LVU729
 2425 017c 3860000C 		li 3,12
 2426              	.LEHB15:
 2427 0180 48000001 		bl _Znwj
 2428              	.LVL196:
 2429              	.LEHE15:
 2430              		.loc 1 42 42 discriminator 1 view .LVU730
 2431 0184 3C800000 		lis 4,folder_png@ha
 2432              		.loc 1 42 42 view .LVU731
 2433 0188 7C7E1B78 		mr 30,3
 2434              		.loc 1 42 42 discriminator 1 view .LVU732
 2435 018c 38840000 		la 4,folder_png@l(4)
 2436              	.LEHB16:
 2437 0190 48000001 		bl _ZN12GuiImageDataC1EPKh
 2438              	.LVL197:
 2439              	.LEHE16:
 2440              		.loc 1 42 13 discriminator 3 view .LVU733
 2441 0194 93DF0144 		stw 30,324(31)
 2442              		.loc 1 44 2 is_stmt 1 view .LVU734
 2443              		.loc 1 44 44 is_stmt 0 view .LVU735
 2444 0198 3860000C 		li 3,12
 2445              	.LEHB17:
 2446 019c 48000001 		bl _Znwj
 2447              	.LVL198:
 2448              	.LEHE17:
 2449              		.loc 1 44 44 discriminator 1 view .LVU736
 2450 01a0 3C800000 		lis 4,scrollbar_png@ha
 2451              		.loc 1 44 44 view .LVU737
 2452 01a4 7C7E1B78 		mr 30,3
 2453              		.loc 1 44 44 discriminator 1 view .LVU738
 2454 01a8 38840000 		la 4,scrollbar_png@l(4)
 2455              	.LEHB18:
 2456 01ac 48000001 		bl _ZN12GuiImageDataC1EPKh
 2457              	.LVL199:
 2458              	.LEHE18:
 2459              		.loc 1 44 12 discriminator 3 view .LVU739
 2460 01b0 93DF0148 		stw 30,328(31)
 2461              		.loc 1 45 2 is_stmt 1 view .LVU740
 2462              		.loc 1 45 39 is_stmt 0 view .LVU741
 2463 01b4 38600098 		li 3,152
 2464              	.LEHB19:
 2465 01b8 48000001 		bl _Znwj
 2466              	.LVL200:
 2467              	.LEHE19:
 2468              		.loc 1 45 39 discriminator 1 view .LVU742
 2469 01bc 809F0148 		lwz 4,328(31)
 2470              		.loc 1 45 39 view .LVU743
 2471 01c0 7C7E1B78 		mr 30,3
 2472              	.LEHB20:
 2473              		.loc 1 45 39 discriminator 1 view .LVU744
 2474 01c4 48000001 		bl _ZN8GuiImageC1EP12GuiImageData
 2475              	.LVL201:
 2476              	.LEHE20:
 2477              		.loc 1 45 15 discriminator 3 view .LVU745
 2478 01c8 93DF0120 		stw 30,288(31)
 2479              		.loc 1 46 2 is_stmt 1 view .LVU746
 2480              		.loc 1 46 25 is_stmt 0 view .LVU747
 2481 01cc 7FC3F378 		mr 3,30
 2482 01d0 7FE4FB78 		mr 4,31
 2483              	.LEHB21:
 2484 01d4 48000001 		bl _ZN10GuiElement9SetParentEPS_
 2485              	.LVL202:
 2486              		.loc 1 47 2 is_stmt 1 view .LVU748
 2487 01d8 807F0120 		lwz 3,288(31)
 2488              		.loc 1 47 28 is_stmt 0 view .LVU749
 2489 01dc 38A00003 		li 5,3
 2490 01e0 38800001 		li 4,1
 2491 01e4 81230000 		lwz 9,0(3)
 2492 01e8 8129001C 		lwz 9,28(9)
 2493 01ec 7D2903A6 		mtctr 9
 2494 01f0 4E800421 		bctrl
 2495              	.LVL203:
 2496              		.loc 1 48 2 is_stmt 1 view .LVU750
 2497              		.loc 1 48 27 is_stmt 0 view .LVU751
 2498 01f4 807F0120 		lwz 3,288(31)
 2499 01f8 38A0001E 		li 5,30
 2500 01fc 38800000 		li 4,0
 2501 0200 48000001 		bl _ZN10GuiElement11SetPositionEii
 2502              	.LVL204:
 2503              		.loc 1 50 2 is_stmt 1 view .LVU752
 2504              		.loc 1 50 54 is_stmt 0 view .LVU753
 2505 0204 3860000C 		li 3,12
 2506 0208 48000001 		bl _Znwj
 2507              	.LVL205:
 2508              	.LEHE21:
 2509              		.loc 1 50 54 discriminator 1 view .LVU754
 2510 020c 3C800000 		lis 4,scrollbar_arrowdown_png@ha
 2511              		.loc 1 50 54 view .LVU755
 2512 0210 7C7E1B78 		mr 30,3
 2513              		.loc 1 50 54 discriminator 1 view .LVU756
 2514 0214 38840000 		la 4,scrollbar_arrowdown_png@l(4)
 2515              	.LEHB22:
 2516 0218 48000001 		bl _ZN12GuiImageDataC1EPKh
 2517              	.LVL206:
 2518              	.LEHE22:
 2519              		.loc 1 50 12 discriminator 3 view .LVU757
 2520 021c 93DF014C 		stw 30,332(31)
 2521              		.loc 1 51 2 is_stmt 1 view .LVU758
 2522              		.loc 1 51 39 is_stmt 0 view .LVU759
 2523 0220 38600098 		li 3,152
 2524              	.LEHB23:
 2525 0224 48000001 		bl _Znwj
 2526              	.LVL207:
 2527              	.LEHE23:
 2528              		.loc 1 51 39 discriminator 1 view .LVU760
 2529 0228 809F014C 		lwz 4,332(31)
 2530              		.loc 1 51 39 view .LVU761
 2531 022c 7C7E1B78 		mr 30,3
 2532              	.LEHB24:
 2533              		.loc 1 51 39 discriminator 1 view .LVU762
 2534 0230 48000001 		bl _ZN8GuiImageC1EP12GuiImageData
 2535              	.LVL208:
 2536              	.LEHE24:
 2537              		.loc 1 51 15 discriminator 3 view .LVU763
 2538 0234 93DF0124 		stw 30,292(31)
 2539              		.loc 1 52 2 is_stmt 1 view .LVU764
 2540              		.loc 1 52 63 is_stmt 0 view .LVU765
 2541 0238 3860000C 		li 3,12
 2542              	.LEHB25:
 2543 023c 48000001 		bl _Znwj
 2544              	.LVL209:
 2545              	.LEHE25:
 2546              		.loc 1 52 63 discriminator 1 view .LVU766
 2547 0240 3C800000 		lis 4,scrollbar_arrowdown_over_png@ha
 2548              		.loc 1 52 63 view .LVU767
 2549 0244 7C7E1B78 		mr 30,3
 2550              		.loc 1 52 63 discriminator 1 view .LVU768
 2551 0248 38840000 		la 4,scrollbar_arrowdown_over_png@l(4)
 2552              	.LEHB26:
 2553 024c 48000001 		bl _ZN12GuiImageDataC1EPKh
 2554              	.LVL210:
 2555              	.LEHE26:
 2556              		.loc 1 52 16 discriminator 3 view .LVU769
 2557 0250 93DF0150 		stw 30,336(31)
 2558              		.loc 1 53 2 is_stmt 1 view .LVU770
 2559              		.loc 1 53 47 is_stmt 0 view .LVU771
 2560 0254 38600098 		li 3,152
 2561              	.LEHB27:
 2562 0258 48000001 		bl _Znwj
 2563              	.LVL211:
 2564              	.LEHE27:
 2565              		.loc 1 53 47 discriminator 1 view .LVU772
 2566 025c 809F0150 		lwz 4,336(31)
 2567              		.loc 1 53 47 view .LVU773
 2568 0260 7C7E1B78 		mr 30,3
 2569              	.LEHB28:
 2570              		.loc 1 53 47 discriminator 1 view .LVU774
 2571 0264 48000001 		bl _ZN8GuiImageC1EP12GuiImageData
 2572              	.LVL212:
 2573              	.LEHE28:
 2574              		.loc 1 53 19 discriminator 3 view .LVU775
 2575 0268 93DF0128 		stw 30,296(31)
 2576              		.loc 1 54 2 is_stmt 1 view .LVU776
 2577              		.loc 1 54 50 is_stmt 0 view .LVU777
 2578 026c 3860000C 		li 3,12
 2579              	.LEHB29:
 2580 0270 48000001 		bl _Znwj
 2581              	.LVL213:
 2582              	.LEHE29:
 2583              		.loc 1 54 50 discriminator 1 view .LVU778
 2584 0274 3C800000 		lis 4,scrollbar_arrowup_png@ha
 2585              		.loc 1 54 50 view .LVU779
 2586 0278 7C7E1B78 		mr 30,3
 2587              		.loc 1 54 50 discriminator 1 view .LVU780
 2588 027c 38840000 		la 4,scrollbar_arrowup_png@l(4)
 2589              	.LEHB30:
 2590 0280 48000001 		bl _ZN12GuiImageDataC1EPKh
 2591              	.LVL214:
 2592              	.LEHE30:
 2593              		.loc 1 54 10 discriminator 3 view .LVU781
 2594 0284 93DF0154 		stw 30,340(31)
 2595              		.loc 1 55 2 is_stmt 1 view .LVU782
 2596              		.loc 1 55 35 is_stmt 0 view .LVU783
 2597 0288 38600098 		li 3,152
 2598              	.LEHB31:
 2599 028c 48000001 		bl _Znwj
 2600              	.LVL215:
 2601              	.LEHE31:
 2602              		.loc 1 55 35 discriminator 1 view .LVU784
 2603 0290 809F0154 		lwz 4,340(31)
 2604              		.loc 1 55 35 view .LVU785
 2605 0294 7C7E1B78 		mr 30,3
 2606              	.LEHB32:
 2607              		.loc 1 55 35 discriminator 1 view .LVU786
 2608 0298 48000001 		bl _ZN8GuiImageC1EP12GuiImageData
 2609              	.LVL216:
 2610              	.LEHE32:
 2611              		.loc 1 55 13 discriminator 3 view .LVU787
 2612 029c 93DF012C 		stw 30,300(31)
 2613              		.loc 1 56 2 is_stmt 1 view .LVU788
 2614              		.loc 1 56 59 is_stmt 0 view .LVU789
 2615 02a0 3860000C 		li 3,12
 2616              	.LEHB33:
 2617 02a4 48000001 		bl _Znwj
 2618              	.LVL217:
 2619              	.LEHE33:
 2620              		.loc 1 56 59 discriminator 1 view .LVU790
 2621 02a8 3C800000 		lis 4,scrollbar_arrowup_over_png@ha
 2622              		.loc 1 56 59 view .LVU791
 2623 02ac 7C7E1B78 		mr 30,3
 2624              		.loc 1 56 59 discriminator 1 view .LVU792
 2625 02b0 38840000 		la 4,scrollbar_arrowup_over_png@l(4)
 2626              	.LEHB34:
 2627 02b4 48000001 		bl _ZN12GuiImageDataC1EPKh
 2628              	.LVL218:
 2629              	.LEHE34:
 2630              		.loc 1 56 14 discriminator 3 view .LVU793
 2631 02b8 93DF0158 		stw 30,344(31)
 2632              		.loc 1 57 2 is_stmt 1 view .LVU794
 2633              		.loc 1 57 43 is_stmt 0 view .LVU795
 2634 02bc 38600098 		li 3,152
 2635              	.LEHB35:
 2636 02c0 48000001 		bl _Znwj
 2637              	.LVL219:
 2638              	.LEHE35:
 2639              		.loc 1 57 43 discriminator 1 view .LVU796
 2640 02c4 809F0158 		lwz 4,344(31)
 2641              		.loc 1 57 43 view .LVU797
 2642 02c8 7C7E1B78 		mr 30,3
 2643              	.LEHB36:
 2644              		.loc 1 57 43 discriminator 1 view .LVU798
 2645 02cc 48000001 		bl _ZN8GuiImageC1EP12GuiImageData
 2646              	.LVL220:
 2647              	.LEHE36:
 2648              		.loc 1 57 17 discriminator 3 view .LVU799
 2649 02d0 93DF0130 		stw 30,304(31)
 2650              		.loc 1 58 2 is_stmt 1 view .LVU800
 2651              		.loc 1 58 51 is_stmt 0 view .LVU801
 2652 02d4 3860000C 		li 3,12
 2653              	.LEHB37:
 2654 02d8 48000001 		bl _Znwj
 2655              	.LVL221:
 2656              	.LEHE37:
 2657              		.loc 1 58 51 discriminator 1 view .LVU802
 2658 02dc 3C800000 		lis 4,scrollbar_box_png@ha
 2659              		.loc 1 58 51 view .LVU803
 2660 02e0 7C7E1B78 		mr 30,3
 2661              		.loc 1 58 51 discriminator 1 view .LVU804
 2662 02e4 38840000 		la 4,scrollbar_box_png@l(4)
 2663              	.LEHB38:
 2664 02e8 48000001 		bl _ZN12GuiImageDataC1EPKh
 2665              	.LVL222:
 2666              	.LEHE38:
 2667              		.loc 1 58 15 discriminator 3 view .LVU805
 2668 02ec 93DF015C 		stw 30,348(31)
 2669              		.loc 1 59 2 is_stmt 1 view .LVU806
 2670              		.loc 1 59 45 is_stmt 0 view .LVU807
 2671 02f0 38600098 		li 3,152
 2672              	.LEHB39:
 2673 02f4 48000001 		bl _Znwj
 2674              	.LVL223:
 2675              	.LEHE39:
 2676              		.loc 1 59 45 discriminator 1 view .LVU808
 2677 02f8 809F015C 		lwz 4,348(31)
 2678              		.loc 1 59 45 view .LVU809
 2679 02fc 7C7E1B78 		mr 30,3
 2680              	.LEHB40:
 2681              		.loc 1 59 45 discriminator 1 view .LVU810
 2682 0300 48000001 		bl _ZN8GuiImageC1EP12GuiImageData
 2683              	.LVL224:
 2684              	.LEHE40:
 2685              		.loc 1 59 18 discriminator 3 view .LVU811
 2686 0304 93DF0134 		stw 30,308(31)
 2687              		.loc 1 60 2 is_stmt 1 view .LVU812
 2688              		.loc 1 60 60 is_stmt 0 view .LVU813
 2689 0308 3860000C 		li 3,12
 2690              	.LEHB41:
 2691 030c 48000001 		bl _Znwj
 2692              	.LVL225:
 2693              	.LEHE41:
 2694              		.loc 1 60 60 discriminator 1 view .LVU814
 2695 0310 3C800000 		lis 4,scrollbar_box_over_png@ha
 2696              		.loc 1 60 60 view .LVU815
 2697 0314 7C7E1B78 		mr 30,3
 2698              		.loc 1 60 60 discriminator 1 view .LVU816
 2699 0318 38840000 		la 4,scrollbar_box_over_png@l(4)
 2700              	.LEHB42:
 2701 031c 48000001 		bl _ZN12GuiImageDataC1EPKh
 2702              	.LVL226:
 2703              	.LEHE42:
 2704              		.loc 1 60 19 discriminator 3 view .LVU817
 2705 0320 93DF0160 		stw 30,352(31)
 2706              		.loc 1 61 2 is_stmt 1 view .LVU818
 2707              		.loc 1 61 53 is_stmt 0 view .LVU819
 2708 0324 38600098 		li 3,152
 2709              	.LEHB43:
 2710 0328 48000001 		bl _Znwj
 2711              	.LVL227:
 2712              	.LEHE43:
 2713              		.loc 1 61 53 discriminator 1 view .LVU820
 2714 032c 809F0160 		lwz 4,352(31)
 2715              		.loc 1 61 53 view .LVU821
 2716 0330 7C7E1B78 		mr 30,3
 2717              	.LEHB44:
 2718              		.loc 1 61 53 discriminator 1 view .LVU822
 2719 0334 48000001 		bl _ZN8GuiImageC1EP12GuiImageData
 2720              	.LVL228:
 2721              	.LEHE44:
 2722              		.loc 1 61 22 discriminator 3 view .LVU823
 2723 0338 93DF0138 		stw 30,312(31)
 2724              		.loc 1 63 2 is_stmt 1 view .LVU824
 2725              		.loc 1 63 76 is_stmt 0 view .LVU825
 2726 033c 386000E0 		li 3,224
 2727              	.LEHB45:
 2728 0340 48000001 		bl _Znwj
 2729              	.LVL229:
 2730              	.LEHE45:
 2731 0344 7C7E1B78 		mr 30,3
 2732              		.loc 1 63 76 discriminator 1 view .LVU826
 2733 0348 807F012C 		lwz 3,300(31)
 2734              	.LEHB46:
 2735 034c 48000001 		bl _ZN10GuiElement8GetWidthEv
 2736              	.LVL230:
 2737 0350 7C7D1B78 		mr 29,3
 2738              	.LVL231:
 2739              		.loc 1 63 76 discriminator 3 view .LVU827
 2740 0354 807F012C 		lwz 3,300(31)
 2741 0358 48000001 		bl _ZN10GuiElement9GetHeightEv
 2742              	.LVL232:
 2743 035c 7C651B78 		mr 5,3
 2744              		.loc 1 63 76 discriminator 5 view .LVU828
 2745 0360 7FA4EB78 		mr 4,29
 2746 0364 7FC3F378 		mr 3,30
 2747 0368 48000001 		bl _ZN9GuiButtonC1Eii
 2748              	.LVL233:
 2749              	.LEHE46:
 2750              		.loc 1 63 13 discriminator 7 view .LVU829
 2751 036c 93DF0110 		stw 30,272(31)
 2752              		.loc 1 64 2 is_stmt 1 view .LVU830
 2753              		.loc 1 64 23 is_stmt 0 view .LVU831
 2754 0370 7FC3F378 		mr 3,30
 2755 0374 7FE4FB78 		mr 4,31
 2756              	.LEHB47:
 2757 0378 48000001 		bl _ZN10GuiElement9SetParentEPS_
 2758              	.LVL234:
 2759              		.loc 1 65 2 is_stmt 1 view .LVU832
 2760              		.loc 1 65 22 is_stmt 0 view .LVU833
 2761 037c 809F012C 		lwz 4,300(31)
 2762 0380 807F0110 		lwz 3,272(31)
 2763 0384 48000001 		bl _ZN9GuiButton8SetImageEP8GuiImage
 2764              	.LVL235:
 2765              		.loc 1 66 2 is_stmt 1 view .LVU834
 2766              		.loc 1 66 26 is_stmt 0 view .LVU835
 2767 0388 809F0130 		lwz 4,304(31)
 2768 038c 807F0110 		lwz 3,272(31)
 2769 0390 48000001 		bl _ZN9GuiButton12SetImageOverEP8GuiImage
 2770              	.LVL236:
 2771              		.loc 1 67 2 is_stmt 1 view .LVU836
 2772 0394 807F0110 		lwz 3,272(31)
 2773              		.loc 1 67 26 is_stmt 0 view .LVU837
 2774 0398 38A00003 		li 5,3
 2775 039c 38800001 		li 4,1
 2776 03a0 81230000 		lwz 9,0(3)
 2777 03a4 8129001C 		lwz 9,28(9)
 2778 03a8 7D2903A6 		mtctr 9
 2779 03ac 4E800421 		bctrl
 2780              	.LVL237:
 2781              		.loc 1 68 2 is_stmt 1 view .LVU838
 2782              		.loc 1 68 25 is_stmt 0 view .LVU839
 2783 03b0 807F0110 		lwz 3,272(31)
 2784 03b4 38A0FFFE 		li 5,-2
 2785 03b8 38800000 		li 4,0
 2786 03bc 48000001 		bl _ZN10GuiElement11SetPositionEii
 2787              	.LVL238:
 2788              		.loc 1 69 2 is_stmt 1 view .LVU840
 2789              		.loc 1 69 27 is_stmt 0 view .LVU841
 2790 03c0 807F0110 		lwz 3,272(31)
 2791 03c4 38800000 		li 4,0
 2792 03c8 48000001 		bl _ZN10GuiElement13SetSelectableEb
 2793              	.LVL239:
 2794              		.loc 1 70 2 is_stmt 1 view .LVU842
 2795              		.loc 1 70 26 is_stmt 0 view .LVU843
 2796 03cc 807F0110 		lwz 3,272(31)
 2797 03d0 38800000 		li 4,0
 2798 03d4 48000001 		bl _ZN10GuiElement12SetClickableEb
 2799              	.LVL240:
 2800              		.loc 1 71 2 is_stmt 1 view .LVU844
 2801              		.loc 1 71 25 is_stmt 0 view .LVU845
 2802 03d8 807F0110 		lwz 3,272(31)
 2803 03dc 38800001 		li 4,1
 2804 03e0 48000001 		bl _ZN10GuiElement11SetHoldableEb
 2805              	.LVL241:
 2806              		.loc 1 72 2 is_stmt 1 view .LVU846
 2807              		.loc 1 72 24 is_stmt 0 view .LVU847
 2808 03e4 809F0170 		lwz 4,368(31)
 2809 03e8 807F0110 		lwz 3,272(31)
 2810 03ec 48000001 		bl _ZN10GuiElement10SetTriggerEP10GuiTrigger
 2811              	.LVL242:
 2812              		.loc 1 73 2 is_stmt 1 view .LVU848
 2813              		.loc 1 73 26 is_stmt 0 view .LVU849
 2814 03f0 809F0164 		lwz 4,356(31)
 2815 03f4 807F0110 		lwz 3,272(31)
 2816 03f8 48000001 		bl _ZN9GuiButton12SetSoundOverEP8GuiSound
 2817              	.LVL243:
 2818              		.loc 1 74 2 is_stmt 1 view .LVU850
 2819              		.loc 1 74 27 is_stmt 0 view .LVU851
 2820 03fc 809F0168 		lwz 4,360(31)
 2821 0400 807F0110 		lwz 3,272(31)
 2822 0404 48000001 		bl _ZN9GuiButton13SetSoundClickEP8GuiSound
 2823              	.LVL244:
 2824              		.loc 1 76 2 is_stmt 1 view .LVU852
 2825              		.loc 1 76 82 is_stmt 0 view .LVU853
 2826 0408 386000E0 		li 3,224
 2827 040c 48000001 		bl _Znwj
 2828              	.LVL245:
 2829              	.LEHE47:
 2830 0410 7C7E1B78 		mr 30,3
 2831              		.loc 1 76 82 discriminator 1 view .LVU854
 2832 0414 807F0124 		lwz 3,292(31)
 2833              	.LEHB48:
 2834 0418 48000001 		bl _ZN10GuiElement8GetWidthEv
 2835              	.LVL246:
 2836 041c 7C7D1B78 		mr 29,3
 2837              		.loc 1 76 82 discriminator 3 view .LVU855
 2838 0420 807F0124 		lwz 3,292(31)
 2839 0424 48000001 		bl _ZN10GuiElement9GetHeightEv
 2840              	.LVL247:
 2841 0428 7C651B78 		mr 5,3
 2842              		.loc 1 76 82 discriminator 5 view .LVU856
 2843 042c 7FA4EB78 		mr 4,29
 2844 0430 7FC3F378 		mr 3,30
 2845 0434 48000001 		bl _ZN9GuiButtonC1Eii
 2846              	.LVL248:
 2847              	.LEHE48:
 2848              		.loc 1 76 15 discriminator 7 view .LVU857
 2849 0438 93DF0114 		stw 30,276(31)
 2850              		.loc 1 77 2 is_stmt 1 view .LVU858
 2851              		.loc 1 77 25 is_stmt 0 view .LVU859
 2852 043c 7FC3F378 		mr 3,30
 2853 0440 7FE4FB78 		mr 4,31
 2854              	.LEHB49:
 2855 0444 48000001 		bl _ZN10GuiElement9SetParentEPS_
 2856              	.LVL249:
 2857              		.loc 1 78 2 is_stmt 1 view .LVU860
 2858              		.loc 1 78 24 is_stmt 0 view .LVU861
 2859 0448 809F0124 		lwz 4,292(31)
 2860 044c 807F0114 		lwz 3,276(31)
 2861 0450 48000001 		bl _ZN9GuiButton8SetImageEP8GuiImage
 2862              	.LVL250:
 2863              		.loc 1 79 2 is_stmt 1 view .LVU862
 2864              		.loc 1 79 28 is_stmt 0 view .LVU863
 2865 0454 809F0128 		lwz 4,296(31)
 2866 0458 807F0114 		lwz 3,276(31)
 2867 045c 48000001 		bl _ZN9GuiButton12SetImageOverEP8GuiImage
 2868              	.LVL251:
 2869              		.loc 1 80 2 is_stmt 1 view .LVU864
 2870 0460 807F0114 		lwz 3,276(31)
 2871              		.loc 1 80 28 is_stmt 0 view .LVU865
 2872 0464 38A00004 		li 5,4
 2873 0468 38800001 		li 4,1
 2874 046c 81230000 		lwz 9,0(3)
 2875 0470 8129001C 		lwz 9,28(9)
 2876 0474 7D2903A6 		mtctr 9
 2877 0478 4E800421 		bctrl
 2878              	.LVL252:
 2879              		.loc 1 81 2 is_stmt 1 view .LVU866
 2880              		.loc 1 81 29 is_stmt 0 view .LVU867
 2881 047c 807F0114 		lwz 3,276(31)
 2882 0480 38800000 		li 4,0
 2883 0484 48000001 		bl _ZN10GuiElement13SetSelectableEb
 2884              	.LVL253:
 2885              		.loc 1 82 2 is_stmt 1 view .LVU868
 2886              		.loc 1 82 28 is_stmt 0 view .LVU869
 2887 0488 807F0114 		lwz 3,276(31)
 2888 048c 38800000 		li 4,0
 2889 0490 48000001 		bl _ZN10GuiElement12SetClickableEb
 2890              	.LVL254:
 2891              		.loc 1 83 2 is_stmt 1 view .LVU870
 2892              		.loc 1 83 27 is_stmt 0 view .LVU871
 2893 0494 807F0114 		lwz 3,276(31)
 2894 0498 38800001 		li 4,1
 2895 049c 48000001 		bl _ZN10GuiElement11SetHoldableEb
 2896              	.LVL255:
 2897              		.loc 1 84 2 is_stmt 1 view .LVU872
 2898              		.loc 1 84 26 is_stmt 0 view .LVU873
 2899 04a0 809F0170 		lwz 4,368(31)
 2900 04a4 807F0114 		lwz 3,276(31)
 2901 04a8 48000001 		bl _ZN10GuiElement10SetTriggerEP10GuiTrigger
 2902              	.LVL256:
 2903              		.loc 1 85 2 is_stmt 1 view .LVU874
 2904              		.loc 1 85 28 is_stmt 0 view .LVU875
 2905 04ac 809F0164 		lwz 4,356(31)
 2906 04b0 807F0114 		lwz 3,276(31)
 2907 04b4 48000001 		bl _ZN9GuiButton12SetSoundOverEP8GuiSound
 2908              	.LVL257:
 2909              		.loc 1 86 2 is_stmt 1 view .LVU876
 2910              		.loc 1 86 29 is_stmt 0 view .LVU877
 2911 04b8 809F0168 		lwz 4,360(31)
 2912 04bc 807F0114 		lwz 3,276(31)
 2913 04c0 48000001 		bl _ZN9GuiButton13SetSoundClickEP8GuiSound
 2914              	.LVL258:
 2915              		.loc 1 88 2 is_stmt 1 view .LVU878
 2916              		.loc 1 88 91 is_stmt 0 view .LVU879
 2917 04c4 386000E0 		li 3,224
 2918 04c8 48000001 		bl _Znwj
 2919              	.LVL259:
 2920              	.LEHE49:
 2921 04cc 7C7E1B78 		mr 30,3
 2922              		.loc 1 88 91 discriminator 1 view .LVU880
 2923 04d0 807F0134 		lwz 3,308(31)
 2924              	.LEHB50:
 2925 04d4 48000001 		bl _ZN10GuiElement8GetWidthEv
 2926              	.LVL260:
 2927 04d8 7C7D1B78 		mr 29,3
 2928              		.loc 1 88 91 discriminator 3 view .LVU881
 2929 04dc 807F0134 		lwz 3,308(31)
 2930 04e0 48000001 		bl _ZN10GuiElement9GetHeightEv
 2931              	.LVL261:
 2932 04e4 7C651B78 		mr 5,3
 2933              		.loc 1 88 91 discriminator 5 view .LVU882
 2934 04e8 7FA4EB78 		mr 4,29
 2935 04ec 7FC3F378 		mr 3,30
 2936 04f0 48000001 		bl _ZN9GuiButtonC1Eii
 2937              	.LVL262:
 2938              	.LEHE50:
 2939              		.loc 1 88 18 discriminator 7 view .LVU883
 2940 04f4 93DF0118 		stw 30,280(31)
 2941              		.loc 1 89 2 is_stmt 1 view .LVU884
 2942              		.loc 1 89 28 is_stmt 0 view .LVU885
 2943 04f8 7FC3F378 		mr 3,30
 2944 04fc 7FE4FB78 		mr 4,31
 2945              	.LEHB51:
 2946 0500 48000001 		bl _ZN10GuiElement9SetParentEPS_
 2947              	.LVL263:
 2948              		.loc 1 90 2 is_stmt 1 view .LVU886
 2949              		.loc 1 90 27 is_stmt 0 view .LVU887
 2950 0504 809F0134 		lwz 4,308(31)
 2951 0508 807F0118 		lwz 3,280(31)
 2952 050c 48000001 		bl _ZN9GuiButton8SetImageEP8GuiImage
 2953              	.LVL264:
 2954              		.loc 1 91 2 is_stmt 1 view .LVU888
 2955              		.loc 1 91 31 is_stmt 0 view .LVU889
 2956 0510 809F0138 		lwz 4,312(31)
 2957 0514 807F0118 		lwz 3,280(31)
 2958 0518 48000001 		bl _ZN9GuiButton12SetImageOverEP8GuiImage
 2959              	.LVL265:
 2960              		.loc 1 92 2 is_stmt 1 view .LVU890
 2961 051c 807F0118 		lwz 3,280(31)
 2962              		.loc 1 92 31 is_stmt 0 view .LVU891
 2963 0520 38A00003 		li 5,3
 2964 0524 38800001 		li 4,1
 2965 0528 81230000 		lwz 9,0(3)
 2966 052c 8129001C 		lwz 9,28(9)
 2967 0530 7D2903A6 		mtctr 9
 2968 0534 4E800421 		bctrl
 2969              	.LVL266:
 2970              		.loc 1 93 2 is_stmt 1 view .LVU892
 2971              		.loc 1 93 26 is_stmt 0 view .LVU893
 2972 0538 807F0118 		lwz 3,280(31)
 2973 053c 38800000 		li 4,0
 2974 0540 48000001 		bl _ZN10GuiElement7SetMinYEi
 2975              	.LVL267:
 2976              		.loc 1 94 2 is_stmt 1 view .LVU894
 2977              		.loc 1 94 26 is_stmt 0 view .LVU895
 2978 0544 807F0118 		lwz 3,280(31)
 2979 0548 38800082 		li 4,130
 2980 054c 48000001 		bl _ZN10GuiElement7SetMaxYEi
 2981              	.LVL268:
 2982              		.loc 1 95 2 is_stmt 1 view .LVU896
 2983              		.loc 1 95 32 is_stmt 0 view .LVU897
 2984 0550 807F0118 		lwz 3,280(31)
 2985 0554 38800000 		li 4,0
 2986 0558 48000001 		bl _ZN10GuiElement13SetSelectableEb
 2987              	.LVL269:
 2988              		.loc 1 96 2 is_stmt 1 view .LVU898
 2989              		.loc 1 96 31 is_stmt 0 view .LVU899
 2990 055c 807F0118 		lwz 3,280(31)
 2991 0560 38800000 		li 4,0
 2992 0564 48000001 		bl _ZN10GuiElement12SetClickableEb
 2993              	.LVL270:
 2994              		.loc 1 97 2 is_stmt 1 view .LVU900
 2995              		.loc 1 97 30 is_stmt 0 view .LVU901
 2996 0568 807F0118 		lwz 3,280(31)
 2997 056c 38800001 		li 4,1
 2998 0570 48000001 		bl _ZN10GuiElement11SetHoldableEb
 2999              	.LVL271:
 3000              		.loc 1 98 2 is_stmt 1 view .LVU902
 3001              		.loc 1 98 29 is_stmt 0 view .LVU903
 3002 0574 809F0170 		lwz 4,368(31)
 3003 0578 807F0118 		lwz 3,280(31)
 3004 057c 48000001 		bl _ZN10GuiElement10SetTriggerEP10GuiTrigger
 3005              	.LVL272:
 3006 0580 3BDF0080 		addi 30,31,128
 3007 0584 3B7F00A0 		addi 27,31,160
 3008 0588 3B800003 		li 28,3
 3009              	.LBB72:
 3010              		.loc 1 102 74 discriminator 1 view .LVU904
 3011 058c 3B4000FF 		li 26,255
 3012              	.L236:
 3013              		.loc 1 102 3 is_stmt 1 view .LVU905
 3014              		.loc 1 102 74 is_stmt 0 view .LVU906
 3015 0590 386000B0 		li 3,176
 3016 0594 48000001 		bl _Znwj
 3017              	.LVL273:
 3018              	.LEHE51:
 3019              		.loc 1 102 74 discriminator 1 view .LVU907
 3020 0598 38C10008 		addi 6,1,8
 3021 059c 38A00014 		li 5,20
 3022 05a0 38800000 		li 4,0
 3023 05a4 93410008 		stw 26,8(1)
 3024              		.loc 1 102 74 view .LVU908
 3025 05a8 7C7D1B78 		mr 29,3
 3026              	.LEHB52:
 3027              		.loc 1 102 74 discriminator 1 view .LVU909
 3028 05ac 48000001 		bl _ZN7GuiTextC1EPKci9_gx_color
 3029              	.LVL274:
 3030              	.LEHE52:
 3031              		.loc 1 102 19 discriminator 3 view .LVU910
 3032 05b0 93BE0030 		stw 29,48(30)
 3033              		.loc 1 103 3 is_stmt 1 view .LVU911
 3034              		.loc 1 103 32 is_stmt 0 view .LVU912
 3035 05b4 7FA3EB78 		mr 3,29
 3036 05b8 38A00005 		li 5,5
 3037 05bc 38800000 		li 4,0
 3038              	.LEHB53:
 3039 05c0 48000001 		bl _ZN7GuiText12SetAlignmentEii
 3040              	.LVL275:
 3041              		.loc 1 104 3 is_stmt 1 view .LVU913
 3042              		.loc 1 104 31 is_stmt 0 view .LVU914
 3043 05c4 807E0030 		lwz 3,48(30)
 3044 05c8 38A00000 		li 5,0
 3045 05cc 38800005 		li 4,5
 3046 05d0 48000001 		bl _ZN10GuiElement11SetPositionEii
 3047              	.LVL276:
 3048              		.loc 1 105 3 is_stmt 1 view .LVU915
 3049              		.loc 1 105 31 is_stmt 0 view .LVU916
 3050 05d4 807E0030 		lwz 3,48(30)
 3051 05d8 38800200 		li 4,512
 3052 05dc 48000001 		bl _ZN7GuiText11SetMaxWidthEi
 3053              	.LVL277:
 3054              		.loc 1 107 3 is_stmt 1 view .LVU917
 3055              		.loc 1 107 52 is_stmt 0 view .LVU918
 3056 05e0 38600098 		li 3,152
 3057 05e4 48000001 		bl _Znwj
 3058              	.LVL278:
 3059              	.LEHE53:
 3060              		.loc 1 107 52 discriminator 1 view .LVU919
 3061 05e8 809F0140 		lwz 4,320(31)
 3062              		.loc 1 107 52 view .LVU920
 3063 05ec 7C7D1B78 		mr 29,3
 3064              	.LEHB54:
 3065              		.loc 1 107 52 discriminator 1 view .LVU921
 3066 05f0 48000001 		bl _ZN8GuiImageC1EP12GuiImageData
 3067              	.LVL279:
 3068              	.LEHE54:
 3069              		.loc 1 107 17 discriminator 3 view .LVU922
 3070 05f4 93BE0050 		stw 29,80(30)
 3071              		.loc 1 108 3 is_stmt 1 view .LVU923
 3072              		.loc 1 108 46 is_stmt 0 view .LVU924
 3073 05f8 38600098 		li 3,152
 3074              	.LEHB55:
 3075 05fc 48000001 		bl _Znwj
 3076              	.LVL280:
 3077              	.LEHE55:
 3078              		.loc 1 108 46 discriminator 1 view .LVU925
 3079 0600 809F0144 		lwz 4,324(31)
 3080              		.loc 1 108 46 view .LVU926
 3081 0604 7C7D1B78 		mr 29,3
 3082              	.LEHB56:
 3083              		.loc 1 108 46 discriminator 1 view .LVU927
 3084 0608 48000001 		bl _ZN8GuiImageC1EP12GuiImageData
 3085              	.LVL281:
 3086              	.LEHE56:
 3087              		.loc 1 108 21 discriminator 3 view .LVU928
 3088 060c 93BE0070 		stw 29,112(30)
 3089              		.loc 1 110 3 is_stmt 1 view .LVU929
 3090              		.loc 1 110 37 is_stmt 0 view .LVU930
 3091 0610 386000E0 		li 3,224
 3092              	.LEHB57:
 3093 0614 48000001 		bl _Znwj
 3094              	.LVL282:
 3095              	.LEHE57:
 3096              		.loc 1 110 37 discriminator 1 view .LVU931
 3097 0618 38A0001E 		li 5,30
 3098 061c 38800200 		li 4,512
 3099              		.loc 1 110 37 view .LVU932
 3100 0620 7C7D1B78 		mr 29,3
 3101              	.LEHB58:
 3102              		.loc 1 110 37 discriminator 1 view .LVU933
 3103 0624 48000001 		bl _ZN9GuiButtonC1Eii
 3104              	.LVL283:
 3105              	.LEHE58:
 3106              		.loc 1 110 15 discriminator 3 view .LVU934
 3107 0628 93BE0004 		stw 29,4(30)
 3108              		.loc 1 111 3 is_stmt 1 view .LVU935
 3109              		.loc 1 111 25 is_stmt 0 view .LVU936
 3110 062c 7FA3EB78 		mr 3,29
 3111 0630 7FE4FB78 		mr 4,31
 3112              	.LEHB59:
 3113 0634 48000001 		bl _ZN10GuiElement9SetParentEPS_
 3114              	.LVL284:
 3115              		.loc 1 112 3 is_stmt 1 view .LVU937
 3116              		.loc 1 112 24 is_stmt 0 view .LVU938
 3117 0638 809E0030 		lwz 4,48(30)
 3118 063c 38A00000 		li 5,0
 3119 0640 807E0004 		lwz 3,4(30)
 3120 0644 48000001 		bl _ZN9GuiButton8SetLabelEP7GuiTexti
 3121              	.LVL285:
 3122              		.loc 1 113 3 is_stmt 1 view .LVU939
 3123              		.loc 1 113 28 is_stmt 0 view .LVU940
 3124 0648 809E0050 		lwz 4,80(30)
 3125 064c 807E0004 		lwz 3,4(30)
 3126 0650 48000001 		bl _ZN9GuiButton12SetImageOverEP8GuiImage
 3127              	.LVL286:
 3128              		.loc 1 114 3 is_stmt 1 view .LVU941
 3129              		.loc 1 114 27 is_stmt 0 view .LVU942
 3130 0654 807E0004 		lwz 3,4(30)
 3131 0658 7F85E378 		mr 5,28
 3132 065c 38800002 		li 4,2
 3133 0660 48000001 		bl _ZN10GuiElement11SetPositionEii
 3134              	.LVL287:
 3135              		.loc 1 115 3 is_stmt 1 view .LVU943
 3136              		.loc 1 115 26 is_stmt 0 view .LVU944
 3137 0664 809F016C 		lwz 4,364(31)
 3138 0668 807E0004 		lwz 3,4(30)
 3139 066c 48000001 		bl _ZN10GuiElement10SetTriggerEP10GuiTrigger
 3140              	.LVL288:
 3141              		.loc 1 116 3 is_stmt 1 view .LVU945
 3142              		.loc 1 116 29 is_stmt 0 view .LVU946
 3143 0670 809F0168 		lwz 4,360(31)
 3144 0674 847E0004 		lwzu 3,4(30)
 3145 0678 48000001 		bl _ZN9GuiButton13SetSoundClickEP8GuiSound
 3146              	.LVL289:
 3147              	.LEHE59:
 3148              		.loc 1 100 2 is_stmt 1 discriminator 2 view .LVU947
 3149              		.loc 1 100 16 discriminator 1 view .LVU948
 3150 067c 7C1ED840 		cmplw 0,30,27
 3151 0680 3B9C001E 		addi 28,28,30
 3152 0684 4082FF0C 		bne+ 0,.L236
 3153              	.LBE72:
 3154              	.LBE76:
 3155              	.LBE70:
 3156              		.loc 1 118 1 is_stmt 0 view .LVU949
 3157 0688 8001002C 		lwz 0,44(1)
 3158 068c 83410010 		lwz 26,16(1)
 3159 0690 83610014 		lwz 27,20(1)
 3160 0694 7C0803A6 		mtlr 0
 3161              		.cfi_remember_state
 3162              		.cfi_restore 65
 3163 0698 83810018 		lwz 28,24(1)
 3164 069c 83A1001C 		lwz 29,28(1)
 3165 06a0 83C10020 		lwz 30,32(1)
 3166 06a4 83E10024 		lwz 31,36(1)
 3167              	.LVL290:
 3168              		.loc 1 118 1 view .LVU950
 3169 06a8 38210028 		addi 1,1,40
 3170              		.cfi_restore 31
 3171              		.cfi_restore 30
 3172              		.cfi_restore 29
 3173              		.cfi_restore 28
 3174              		.cfi_restore 27
 3175              		.cfi_restore 26
 3176              		.cfi_def_cfa_offset 0
 3177 06ac 4E800020 		blr
 3178              	.LVL291:
 3179              	.L267:
 3180              		.cfi_restore_state
 3181              	.LBB79:
 3182              		.loc 1 118 1 view .LVU951
 3183 06b0 7C7E1B78 		mr 30,3
 3184 06b4 48000014 		b .L238
 3185              	.L296:
 3186              	.LBB77:
 3187              	.LBB73:
 3188              		.loc 1 110 37 discriminator 4 view .LVU952
 3189 06b8 7C7E1B78 		mr 30,3
 3190 06bc 388000E0 		li 4,224
 3191 06c0 7FA3EB78 		mr 3,29
 3192 06c4 48000001 		bl _ZdlPvj
 3193              	.LVL292:
 3194              	.L238:
 3195              		.loc 1 110 37 discriminator 4 view .LVU953
 3196              	.LBE73:
 3197              	.LBE77:
 3198              		.loc 1 118 1 view .LVU954
 3199 06c8 7FE3FB78 		mr 3,31
 3200 06cc 48000001 		bl _ZN10GuiElementD2Ev
 3201              	.LVL293:
 3202 06d0 7FC3F378 		mr 3,30
 3203              	.LEHB60:
 3204 06d4 48000001 		bl _Unwind_Resume
 3205              	.LVL294:
 3206              	.LEHE60:
 3207              	.L295:
 3208              	.L301:
 3209              	.LBB78:
 3210              	.LBB74:
 3211              		.loc 1 108 46 discriminator 4 view .LVU955
 3212 06d8 7C7E1B78 		mr 30,3
 3213 06dc 38800098 		li 4,152
 3214 06e0 7FA3EB78 		mr 3,29
 3215 06e4 48000001 		bl _ZdlPvj
 3216              	.LVL295:
 3217 06e8 4BFFFFE0 		b .L238
 3218              	.L294:
 3219 06ec 4BFFFFEC 		b .L301
 3220              	.L293:
 3221              		.loc 1 102 74 discriminator 4 view .LVU956
 3222 06f0 7C7E1B78 		mr 30,3
 3223 06f4 388000B0 		li 4,176
 3224 06f8 7FA3EB78 		mr 3,29
 3225 06fc 48000001 		bl _ZdlPvj
 3226              	.LVL296:
 3227 0700 4BFFFFC8 		b .L238
 3228              	.L292:
 3229              	.L303:
 3230              	.LBE74:
 3231              		.loc 1 88 91 discriminator 8 view .LVU957
 3232 0704 7C691B78 		mr 9,3
 3233 0708 388000E0 		li 4,224
 3234 070c 7FC3F378 		mr 3,30
 3235 0710 7D3E4B78 		mr 30,9
 3236 0714 48000001 		bl _ZdlPvj
 3237              	.LVL297:
 3238 0718 4BFFFFB0 		b .L238
 3239              	.L291:
 3240 071c 4BFFFFE8 		b .L303
 3241              	.LVL298:
 3242              	.L287:
 3243              	.L300:
 3244              		.loc 1 61 53 discriminator 4 view .LVU958
 3245 0720 7C691B78 		mr 9,3
 3246 0724 38800098 		li 4,152
 3247 0728 7FC3F378 		mr 3,30
 3248 072c 7D3E4B78 		mr 30,9
 3249 0730 48000001 		bl _ZdlPvj
 3250              	.LVL299:
 3251 0734 4BFFFF94 		b .L238
 3252              	.L286:
 3253              	.L302:
 3254              		.loc 1 60 60 discriminator 4 view .LVU959
 3255 0738 7C691B78 		mr 9,3
 3256 073c 3880000C 		li 4,12
 3257 0740 7FC3F378 		mr 3,30
 3258 0744 7D3E4B78 		mr 30,9
 3259 0748 48000001 		bl _ZdlPvj
 3260              	.LVL300:
 3261 074c 4BFFFF7C 		b .L238
 3262              	.L285:
 3263 0750 4BFFFFD0 		b .L300
 3264              	.L284:
 3265 0754 4BFFFFE4 		b .L302
 3266              	.L289:
 3267 0758 4BFFFFC8 		b .L300
 3268              	.L288:
 3269 075c 4BFFFFDC 		b .L302
 3270              	.LVL301:
 3271              	.L290:
 3272              		.loc 1 60 60 discriminator 4 view .LVU960
 3273 0760 4BFFFFA4 		b .L303
 3274              	.LVL302:
 3275              	.L283:
 3276              		.loc 1 60 60 discriminator 4 view .LVU961
 3277 0764 4BFFFFBC 		b .L300
 3278              	.L282:
 3279 0768 4BFFFFD0 		b .L302
 3280              	.L281:
 3281 076c 4BFFFFB4 		b .L300
 3282              	.L280:
 3283 0770 4BFFFFC8 		b .L302
 3284              	.L279:
 3285 0774 4BFFFFAC 		b .L300
 3286              	.L278:
 3287 0778 4BFFFFC0 		b .L302
 3288              	.L277:
 3289 077c 4BFFFFA4 		b .L300
 3290              	.L276:
 3291 0780 4BFFFFB8 		b .L302
 3292              	.L275:
 3293 0784 4BFFFFB4 		b .L302
 3294              	.L274:
 3295 0788 4BFFFFB0 		b .L302
 3296              	.L273:
 3297 078c 4BFFFF94 		b .L300
 3298              	.L272:
 3299 0790 4BFFFFA8 		b .L302
 3300              	.L271:
 3301              	.L305:
 3302              		.loc 1 34 81 discriminator 4 view .LVU962
 3303 0794 7C691B78 		mr 9,3
 3304 0798 38800018 		li 4,24
 3305 079c 7FC3F378 		mr 3,30
 3306 07a0 7D3E4B78 		mr 30,9
 3307 07a4 48000001 		bl _ZdlPvj
 3308              	.LVL303:
 3309 07a8 4BFFFF20 		b .L238
 3310              	.L270:
 3311 07ac 4BFFFFE8 		b .L305
 3312              	.L269:
 3313              	.L304:
 3314              		.loc 1 30 18 discriminator 4 view .LVU963
 3315 07b0 7C691B78 		mr 9,3
 3316 07b4 3880016C 		li 4,364
 3317 07b8 7FC3F378 		mr 3,30
 3318 07bc 7D3E4B78 		mr 30,9
 3319 07c0 48000001 		bl _ZdlPvj
 3320              	.LVL304:
 3321 07c4 4BFFFF04 		b .L238
 3322              	.L268:
 3323 07c8 4BFFFFE8 		b .L304
 3324              	.LBE78:
 3325              	.LBE79:
 3326              		.cfi_endproc
 3327              	.LFE2333:
 3328              		.globl __gxx_personality_v0
 3329              		.section	.gcc_except_table._ZN14GuiFileBrowserC2Eii,"a",@progbits
 3330              	.LLSDA2333:
 3331 0000 FF       		.byte	0xff
 3332 0001 FF       		.byte	0xff
 3333 0002 01       		.byte	0x1
 3334 0003 EC02     		.uleb128 .LLSDACSE2333-.LLSDACSB2333
 3335              	.LLSDACSB2333:
 3336 0005 30       		.uleb128 .LEHB0-.LFB2333
 3337 0006 04       		.uleb128 .LEHE0-.LEHB0
 3338 0007 00       		.uleb128 0
 3339 0008 00       		.uleb128 0
 3340 0009 68       		.uleb128 .LEHB1-.LFB2333
 3341 000a 04       		.uleb128 .LEHE1-.LEHB1
 3342 000b B00D     		.uleb128 .L267-.LFB2333
 3343 000d 00       		.uleb128 0
 3344 000e 70       		.uleb128 .LEHB2-.LFB2333
 3345 000f 04       		.uleb128 .LEHE2-.LEHB2
 3346 0010 C80F     		.uleb128 .L268-.LFB2333
 3347 0012 00       		.uleb128 0
 3348 0013 8C01     		.uleb128 .LEHB3-.LFB2333
 3349 0015 0C       		.uleb128 .LEHE3-.LEHB3
 3350 0016 B00D     		.uleb128 .L267-.LFB2333
 3351 0018 00       		.uleb128 0
 3352 0019 9C01     		.uleb128 .LEHB4-.LFB2333
 3353 001b 04       		.uleb128 .LEHE4-.LEHB4
 3354 001c B00F     		.uleb128 .L269-.LFB2333
 3355 001e 00       		.uleb128 0
 3356 001f B801     		.uleb128 .LEHB5-.LFB2333
 3357 0021 0C       		.uleb128 .LEHE5-.LEHB5
 3358 0022 B00D     		.uleb128 .L267-.LFB2333
 3359 0024 00       		.uleb128 0
 3360 0025 D801     		.uleb128 .LEHB6-.LFB2333
 3361 0027 04       		.uleb128 .LEHE6-.LEHB6
 3362 0028 AC0F     		.uleb128 .L270-.LFB2333
 3363 002a 00       		.uleb128 0
 3364 002b E401     		.uleb128 .LEHB7-.LFB2333
 3365 002d 04       		.uleb128 .LEHE7-.LEHB7
 3366 002e B00D     		.uleb128 .L267-.LFB2333
 3367 0030 00       		.uleb128 0
 3368 0031 FC01     		.uleb128 .LEHB8-.LFB2333
 3369 0033 04       		.uleb128 .LEHE8-.LEHB8
 3370 0034 940F     		.uleb128 .L271-.LFB2333
 3371 0036 00       		.uleb128 0
 3372 0037 8802     		.uleb128 .LEHB9-.LFB2333
 3373 0039 04       		.uleb128 .LEHE9-.LEHB9
 3374 003a B00D     		.uleb128 .L267-.LFB2333
 3375 003c 00       		.uleb128 0
 3376 003d 9802     		.uleb128 .LEHB10-.LFB2333
 3377 003f 04       		.uleb128 .LEHE10-.LEHB10
 3378 0040 900F     		.uleb128 .L272-.LFB2333
 3379 0042 00       		.uleb128 0
 3380 0043 A402     		.uleb128 .LEHB11-.LFB2333
 3381 0045 04       		.uleb128 .LEHE11-.LEHB11
 3382 0046 B00D     		.uleb128 .L267-.LFB2333
 3383 0048 00       		.uleb128 0
 3384 0049 B002     		.uleb128 .LEHB12-.LFB2333
 3385 004b 04       		.uleb128 .LEHE12-.LEHB12
 3386 004c 8C0F     		.uleb128 .L273-.LFB2333
 3387 004e 00       		.uleb128 0
 3388 004f C002     		.uleb128 .LEHB13-.LFB2333
 3389 0051 28       		.uleb128 .LEHE13-.LEHB13
 3390 0052 B00D     		.uleb128 .L267-.LFB2333
 3391 0054 00       		.uleb128 0
 3392 0055 F402     		.uleb128 .LEHB14-.LFB2333
 3393 0057 04       		.uleb128 .LEHE14-.LEHB14
 3394 0058 880F     		.uleb128 .L274-.LFB2333
 3395 005a 00       		.uleb128 0
 3396 005b 8003     		.uleb128 .LEHB15-.LFB2333
 3397 005d 04       		.uleb128 .LEHE15-.LEHB15
 3398 005e B00D     		.uleb128 .L267-.LFB2333
 3399 0060 00       		.uleb128 0
 3400 0061 9003     		.uleb128 .LEHB16-.LFB2333
 3401 0063 04       		.uleb128 .LEHE16-.LEHB16
 3402 0064 840F     		.uleb128 .L275-.LFB2333
 3403 0066 00       		.uleb128 0
 3404 0067 9C03     		.uleb128 .LEHB17-.LFB2333
 3405 0069 04       		.uleb128 .LEHE17-.LEHB17
 3406 006a B00D     		.uleb128 .L267-.LFB2333
 3407 006c 00       		.uleb128 0
 3408 006d AC03     		.uleb128 .LEHB18-.LFB2333
 3409 006f 04       		.uleb128 .LEHE18-.LEHB18
 3410 0070 800F     		.uleb128 .L276-.LFB2333
 3411 0072 00       		.uleb128 0
 3412 0073 B803     		.uleb128 .LEHB19-.LFB2333
 3413 0075 04       		.uleb128 .LEHE19-.LEHB19
 3414 0076 B00D     		.uleb128 .L267-.LFB2333
 3415 0078 00       		.uleb128 0
 3416 0079 C403     		.uleb128 .LEHB20-.LFB2333
 3417 007b 04       		.uleb128 .LEHE20-.LEHB20
 3418 007c FC0E     		.uleb128 .L277-.LFB2333
 3419 007e 00       		.uleb128 0
 3420 007f D403     		.uleb128 .LEHB21-.LFB2333
 3421 0081 38       		.uleb128 .LEHE21-.LEHB21
 3422 0082 B00D     		.uleb128 .L267-.LFB2333
 3423 0084 00       		.uleb128 0
 3424 0085 9804     		.uleb128 .LEHB22-.LFB2333
 3425 0087 04       		.uleb128 .LEHE22-.LEHB22
 3426 0088 F80E     		.uleb128 .L278-.LFB2333
 3427 008a 00       		.uleb128 0
 3428 008b A404     		.uleb128 .LEHB23-.LFB2333
 3429 008d 04       		.uleb128 .LEHE23-.LEHB23
 3430 008e B00D     		.uleb128 .L267-.LFB2333
 3431 0090 00       		.uleb128 0
 3432 0091 B004     		.uleb128 .LEHB24-.LFB2333
 3433 0093 04       		.uleb128 .LEHE24-.LEHB24
 3434 0094 F40E     		.uleb128 .L279-.LFB2333
 3435 0096 00       		.uleb128 0
 3436 0097 BC04     		.uleb128 .LEHB25-.LFB2333
 3437 0099 04       		.uleb128 .LEHE25-.LEHB25
 3438 009a B00D     		.uleb128 .L267-.LFB2333
 3439 009c 00       		.uleb128 0
 3440 009d CC04     		.uleb128 .LEHB26-.LFB2333
 3441 009f 04       		.uleb128 .LEHE26-.LEHB26
 3442 00a0 F00E     		.uleb128 .L280-.LFB2333
 3443 00a2 00       		.uleb128 0
 3444 00a3 D804     		.uleb128 .LEHB27-.LFB2333
 3445 00a5 04       		.uleb128 .LEHE27-.LEHB27
 3446 00a6 B00D     		.uleb128 .L267-.LFB2333
 3447 00a8 00       		.uleb128 0
 3448 00a9 E404     		.uleb128 .LEHB28-.LFB2333
 3449 00ab 04       		.uleb128 .LEHE28-.LEHB28
 3450 00ac EC0E     		.uleb128 .L281-.LFB2333
 3451 00ae 00       		.uleb128 0
 3452 00af F004     		.uleb128 .LEHB29-.LFB2333
 3453 00b1 04       		.uleb128 .LEHE29-.LEHB29
 3454 00b2 B00D     		.uleb128 .L267-.LFB2333
 3455 00b4 00       		.uleb128 0
 3456 00b5 8005     		.uleb128 .LEHB30-.LFB2333
 3457 00b7 04       		.uleb128 .LEHE30-.LEHB30
 3458 00b8 E80E     		.uleb128 .L282-.LFB2333
 3459 00ba 00       		.uleb128 0
 3460 00bb 8C05     		.uleb128 .LEHB31-.LFB2333
 3461 00bd 04       		.uleb128 .LEHE31-.LEHB31
 3462 00be B00D     		.uleb128 .L267-.LFB2333
 3463 00c0 00       		.uleb128 0
 3464 00c1 9805     		.uleb128 .LEHB32-.LFB2333
 3465 00c3 04       		.uleb128 .LEHE32-.LEHB32
 3466 00c4 E40E     		.uleb128 .L283-.LFB2333
 3467 00c6 00       		.uleb128 0
 3468 00c7 A405     		.uleb128 .LEHB33-.LFB2333
 3469 00c9 04       		.uleb128 .LEHE33-.LEHB33
 3470 00ca B00D     		.uleb128 .L267-.LFB2333
 3471 00cc 00       		.uleb128 0
 3472 00cd B405     		.uleb128 .LEHB34-.LFB2333
 3473 00cf 04       		.uleb128 .LEHE34-.LEHB34
 3474 00d0 D40E     		.uleb128 .L284-.LFB2333
 3475 00d2 00       		.uleb128 0
 3476 00d3 C005     		.uleb128 .LEHB35-.LFB2333
 3477 00d5 04       		.uleb128 .LEHE35-.LEHB35
 3478 00d6 B00D     		.uleb128 .L267-.LFB2333
 3479 00d8 00       		.uleb128 0
 3480 00d9 CC05     		.uleb128 .LEHB36-.LFB2333
 3481 00db 04       		.uleb128 .LEHE36-.LEHB36
 3482 00dc D00E     		.uleb128 .L285-.LFB2333
 3483 00de 00       		.uleb128 0
 3484 00df D805     		.uleb128 .LEHB37-.LFB2333
 3485 00e1 04       		.uleb128 .LEHE37-.LEHB37
 3486 00e2 B00D     		.uleb128 .L267-.LFB2333
 3487 00e4 00       		.uleb128 0
 3488 00e5 E805     		.uleb128 .LEHB38-.LFB2333
 3489 00e7 04       		.uleb128 .LEHE38-.LEHB38
 3490 00e8 B80E     		.uleb128 .L286-.LFB2333
 3491 00ea 00       		.uleb128 0
 3492 00eb F405     		.uleb128 .LEHB39-.LFB2333
 3493 00ed 04       		.uleb128 .LEHE39-.LEHB39
 3494 00ee B00D     		.uleb128 .L267-.LFB2333
 3495 00f0 00       		.uleb128 0
 3496 00f1 8006     		.uleb128 .LEHB40-.LFB2333
 3497 00f3 04       		.uleb128 .LEHE40-.LEHB40
 3498 00f4 A00E     		.uleb128 .L287-.LFB2333
 3499 00f6 00       		.uleb128 0
 3500 00f7 8C06     		.uleb128 .LEHB41-.LFB2333
 3501 00f9 04       		.uleb128 .LEHE41-.LEHB41
 3502 00fa B00D     		.uleb128 .L267-.LFB2333
 3503 00fc 00       		.uleb128 0
 3504 00fd 9C06     		.uleb128 .LEHB42-.LFB2333
 3505 00ff 04       		.uleb128 .LEHE42-.LEHB42
 3506 0100 DC0E     		.uleb128 .L288-.LFB2333
 3507 0102 00       		.uleb128 0
 3508 0103 A806     		.uleb128 .LEHB43-.LFB2333
 3509 0105 04       		.uleb128 .LEHE43-.LEHB43
 3510 0106 B00D     		.uleb128 .L267-.LFB2333
 3511 0108 00       		.uleb128 0
 3512 0109 B406     		.uleb128 .LEHB44-.LFB2333
 3513 010b 04       		.uleb128 .LEHE44-.LEHB44
 3514 010c D80E     		.uleb128 .L289-.LFB2333
 3515 010e 00       		.uleb128 0
 3516 010f C006     		.uleb128 .LEHB45-.LFB2333
 3517 0111 04       		.uleb128 .LEHE45-.LEHB45
 3518 0112 B00D     		.uleb128 .L267-.LFB2333
 3519 0114 00       		.uleb128 0
 3520 0115 CC06     		.uleb128 .LEHB46-.LFB2333
 3521 0117 20       		.uleb128 .LEHE46-.LEHB46
 3522 0118 E00E     		.uleb128 .L290-.LFB2333
 3523 011a 00       		.uleb128 0
 3524 011b F806     		.uleb128 .LEHB47-.LFB2333
 3525 011d 9801     		.uleb128 .LEHE47-.LEHB47
 3526 011f B00D     		.uleb128 .L267-.LFB2333
 3527 0121 00       		.uleb128 0
 3528 0122 9808     		.uleb128 .LEHB48-.LFB2333
 3529 0124 20       		.uleb128 .LEHE48-.LEHB48
 3530 0125 9C0E     		.uleb128 .L291-.LFB2333
 3531 0127 00       		.uleb128 0
 3532 0128 C408     		.uleb128 .LEHB49-.LFB2333
 3533 012a 8801     		.uleb128 .LEHE49-.LEHB49
 3534 012c B00D     		.uleb128 .L267-.LFB2333
 3535 012e 00       		.uleb128 0
 3536 012f D409     		.uleb128 .LEHB50-.LFB2333
 3537 0131 20       		.uleb128 .LEHE50-.LEHB50
 3538 0132 840E     		.uleb128 .L292-.LFB2333
 3539 0134 00       		.uleb128 0
 3540 0135 800A     		.uleb128 .LEHB51-.LFB2333
 3541 0137 9801     		.uleb128 .LEHE51-.LEHB51
 3542 0139 B00D     		.uleb128 .L267-.LFB2333
 3543 013b 00       		.uleb128 0
 3544 013c AC0B     		.uleb128 .LEHB52-.LFB2333
 3545 013e 04       		.uleb128 .LEHE52-.LEHB52
 3546 013f F00D     		.uleb128 .L293-.LFB2333
 3547 0141 00       		.uleb128 0
 3548 0142 C00B     		.uleb128 .LEHB53-.LFB2333
 3549 0144 28       		.uleb128 .LEHE53-.LEHB53
 3550 0145 B00D     		.uleb128 .L267-.LFB2333
 3551 0147 00       		.uleb128 0
 3552 0148 F00B     		.uleb128 .LEHB54-.LFB2333
 3553 014a 04       		.uleb128 .LEHE54-.LEHB54
 3554 014b EC0D     		.uleb128 .L294-.LFB2333
 3555 014d 00       		.uleb128 0
 3556 014e FC0B     		.uleb128 .LEHB55-.LFB2333
 3557 0150 04       		.uleb128 .LEHE55-.LEHB55
 3558 0151 B00D     		.uleb128 .L267-.LFB2333
 3559 0153 00       		.uleb128 0
 3560 0154 880C     		.uleb128 .LEHB56-.LFB2333
 3561 0156 04       		.uleb128 .LEHE56-.LEHB56
 3562 0157 D80D     		.uleb128 .L295-.LFB2333
 3563 0159 00       		.uleb128 0
 3564 015a 940C     		.uleb128 .LEHB57-.LFB2333
 3565 015c 04       		.uleb128 .LEHE57-.LEHB57
 3566 015d B00D     		.uleb128 .L267-.LFB2333
 3567 015f 00       		.uleb128 0
 3568 0160 A40C     		.uleb128 .LEHB58-.LFB2333
 3569 0162 04       		.uleb128 .LEHE58-.LEHB58
 3570 0163 B80D     		.uleb128 .L296-.LFB2333
 3571 0165 00       		.uleb128 0
 3572 0166 B40C     		.uleb128 .LEHB59-.LFB2333
 3573 0168 48       		.uleb128 .LEHE59-.LEHB59
 3574 0169 B00D     		.uleb128 .L267-.LFB2333
 3575 016b 00       		.uleb128 0
 3576 016c D40D     		.uleb128 .LEHB60-.LFB2333
 3577 016e 04       		.uleb128 .LEHE60-.LEHB60
 3578 016f 00       		.uleb128 0
 3579 0170 00       		.uleb128 0
 3580              	.LLSDACSE2333:
 3581              		.section	.text._ZN14GuiFileBrowserC2Eii
 3582              		.size	_ZN14GuiFileBrowserC2Eii, .-_ZN14GuiFileBrowserC2Eii
 3583              		.globl _ZN14GuiFileBrowserC1Eii
 3584              		.set	_ZN14GuiFileBrowserC1Eii,_ZN14GuiFileBrowserC2Eii
 3585              		.weak	_ZTS14GuiFileBrowser
 3586              		.section	.rodata._ZTS14GuiFileBrowser,"aG",@progbits,_ZTS14GuiFileBrowser,comdat
 3587              		.align 2
 3588              		.type	_ZTS14GuiFileBrowser, @object
 3589              		.size	_ZTS14GuiFileBrowser, 17
 3590              	_ZTS14GuiFileBrowser:
 3591 0000 31344775 		.string	"14GuiFileBrowser"
 3591      6946696C 
 3591      6542726F 
 3591      77736572 
 3591      00
 3592              		.weak	_ZTI14GuiFileBrowser
 3593              		.section	.rodata._ZTI14GuiFileBrowser,"aG",@progbits,_ZTI14GuiFileBrowser,comdat
 3594              		.align 2
 3595              		.type	_ZTI14GuiFileBrowser, @object
 3596              		.size	_ZTI14GuiFileBrowser, 12
 3597              	_ZTI14GuiFileBrowser:
 3598 0000 00000000 		.long	_ZTVN10__cxxabiv120__si_class_type_infoE+8
 3599 0004 00000000 		.long	_ZTS14GuiFileBrowser
 3600 0008 00000000 		.long	_ZTI10GuiElement
 3601              		.weak	_ZTV14GuiFileBrowser
 3602              		.section	.rodata._ZTV14GuiFileBrowser,"aG",@progbits,_ZTV14GuiFileBrowser,comdat
 3603              		.align 2
 3604              		.type	_ZTV14GuiFileBrowser, @object
 3605              		.size	_ZTV14GuiFileBrowser, 48
 3606              	_ZTV14GuiFileBrowser:
 3607 0000 00000000 		.long	0
 3608 0004 00000000 		.long	_ZTI14GuiFileBrowser
 3609 0008 00000000 		.long	_ZN14GuiFileBrowserD1Ev
 3610 000c 00000000 		.long	_ZN14GuiFileBrowserD0Ev
 3611 0010 00000000 		.long	_ZN10GuiElement10SetVisibleEb
 3612 0014 00000000 		.long	_ZN14GuiFileBrowser8SetFocusEi
 3613 0018 00000000 		.long	_ZN10GuiElement8SetStateEii
 3614 001c 00000000 		.long	_ZN14GuiFileBrowser10ResetStateEv
 3615 0020 00000000 		.long	_ZN10GuiElement11GetSelectedEv
 3616 0024 00000000 		.long	_ZN10GuiElement12SetAlignmentEii
 3617 0028 00000000 		.long	_ZN14GuiFileBrowser6UpdateEP10GuiTrigger
 3618 002c 00000000 		.long	_ZN14GuiFileBrowser4DrawEv
 3619              		.section	.rodata.cst4,"aM",@progbits,4
 3620              		.align 2
 3621              	.LC0:
 3622 0000 42700000 		.long	1114636288
 3623              		.align 2
 3624              	.LC2:
 3625 0004 59800004 		.long	1501560836
 3626              		.align 2
 3627              	.LC4:
 3628 0008 43020000 		.long	1124204544
 3629              		.align 2
 3630              	.LC6:
 3631 000c 3E800000 		.long	1048576000
 3632              		.align 2
 3633              	.LC8:
 3634 0010 3F800000 		.long	1065353216
 3635              		.align 2
 3636              	.LC10:
 3637 0014 3E000000 		.long	1040187392
 3638              		.align 2
 3639              	.LC12:
 3640 0018 40800000 		.long	1082130432
 3641              		.section	".text"
 3642              	.Letext0:
 3643              		.file 2 "C:/devkitPro/devkitPPC/powerpc-eabi/include/machine/_default_types.h"
 3644              		.file 3 "C:/devkitPro/devkitPPC/powerpc-eabi/include/sys/_stdint.h"
 3645              		.file 4 "C:/devkitPro/libogc/include/gctypes.h"
 3646              		.file 5 "C:/devkitPro/libogc/include/ogc/gx.h"
 3647              		.file 6 "C:/devkitPro/devkitPPC/lib/gcc/powerpc-eabi/13.1.0/include/stddef.h"
 3648              		.file 7 "C:/devkitPro/devkitPPC/powerpc-eabi/include/stdlib.h"
 3649              		.file 8 "C:/devkitPro/devkitPPC/powerpc-eabi/include/c++/13.1.0/cstdlib"
 3650              		.file 9 "C:/devkitPro/devkitPPC/powerpc-eabi/include/c++/13.1.0/bits/std_abs.h"
 3651              		.file 10 "C:/devkitPro/devkitPPC/powerpc-eabi/include/c++/13.1.0/powerpc-eabi/bits/c++config.h"
 3652              		.file 11 "C:/devkitPro/devkitPPC/powerpc-eabi/include/c++/13.1.0/type_traits"
 3653              		.file 12 "C:/devkitPro/devkitPPC/powerpc-eabi/include/c++/13.1.0/debug/debug.h"
 3654              		.file 13 "C:/devkitPro/devkitPPC/powerpc-eabi/include/c++/13.1.0/cstddef"
 3655              		.file 14 "C:/devkitPro/devkitPPC/powerpc-eabi/include/c++/13.1.0/bits/exception_ptr.h"
 3656              		.file 15 "C:/devkitPro/devkitPPC/powerpc-eabi/include/c++/13.1.0/cmath"
 3657              		.file 16 "C:/devkitPro/devkitPPC/powerpc-eabi/include/c++/13.1.0/bits/predefined_ops.h"
 3658              		.file 17 "C:/devkitPro/devkitPPC/powerpc-eabi/include/c++/13.1.0/stdlib.h"
 3659              		.file 18 "C:/devkitPro/devkitPPC/powerpc-eabi/include/math.h"
 3660              		.file 19 "C:/devkitPro/devkitPPC/powerpc-eabi/include/c++/13.1.0/math.h"
 3661              		.file 20 "C:/devkitPro/libogc/include/wiiuse/wiiuse.h"
 3662              		.file 21 "C:/devkitPro/libogc/include/wiiuse/wpad.h"
 3663              		.file 22 "F:/GameModding/MarioKartWii/Mods/Distro/RetroRewind6/dev/Launcher/RRLauncher/launcher/bu
 3664              		.file 23 "F:/GameModding/MarioKartWii/Mods/Distro/RetroRewind6/dev/Launcher/RRLauncher/launcher/bu
 3665              		.file 24 "F:/GameModding/MarioKartWii/Mods/Distro/RetroRewind6/dev/Launcher/RRLauncher/launcher/bu
 3666              		.file 25 "F:/GameModding/MarioKartWii/Mods/Distro/RetroRewind6/dev/Launcher/RRLauncher/launcher/bu
 3667              		.file 26 "F:/GameModding/MarioKartWii/Mods/Distro/RetroRewind6/dev/Launcher/RRLauncher/launcher/bu
 3668              		.file 27 "F:/GameModding/MarioKartWii/Mods/Distro/RetroRewind6/dev/Launcher/RRLauncher/launcher/bu
 3669              		.file 28 "F:/GameModding/MarioKartWii/Mods/Distro/RetroRewind6/dev/Launcher/RRLauncher/launcher/bu
 3670              		.file 29 "F:/GameModding/MarioKartWii/Mods/Distro/RetroRewind6/dev/Launcher/RRLauncher/launcher/bu
 3671              		.file 30 "F:/GameModding/MarioKartWii/Mods/Distro/RetroRewind6/dev/Launcher/RRLauncher/launcher/bu
 3672              		.file 31 "F:/GameModding/MarioKartWii/Mods/Distro/RetroRewind6/dev/Launcher/RRLauncher/launcher/bu
 3673              		.file 32 "F:/GameModding/MarioKartWii/Mods/Distro/RetroRewind6/dev/Launcher/RRLauncher/launcher/bu
 3674              		.file 33 "F:/GameModding/MarioKartWii/Mods/Distro/RetroRewind6/dev/Launcher/RRLauncher/launcher/bu
 3675              		.file 34 "F:/GameModding/MarioKartWii/Mods/Distro/RetroRewind6/dev/Launcher/RRLauncher/launcher/bu
 3676              		.file 35 "F:/GameModding/MarioKartWii/Mods/Distro/RetroRewind6/dev/Launcher/RRLauncher/launcher/bu
 3677              		.file 36 "F:/GameModding/MarioKartWii/Mods/Distro/RetroRewind6/dev/Launcher/RRLauncher/launcher/bu
 3678              		.file 37 "F:/GameModding/MarioKartWii/Mods/Distro/RetroRewind6/dev/Launcher/RRLauncher/launcher/bu
 3679              		.file 38 "F:/GameModding/MarioKartWii/Mods/Distro/RetroRewind6/dev/Launcher/RRLauncher/launcher/bu
 3680              		.file 39 "F:/GameModding/MarioKartWii/Mods/Distro/RetroRewind6/dev/Launcher/RRLauncher/launcher/bu
 3681              		.file 40 "F:/GameModding/MarioKartWii/Mods/Distro/RetroRewind6/dev/Launcher/RRLauncher/launcher/bu
 3682              		.file 41 "F:/GameModding/MarioKartWii/Mods/Distro/RetroRewind6/dev/Launcher/RRLauncher/launcher/bu
 3683              		.file 42 "F:/GameModding/MarioKartWii/Mods/Distro/RetroRewind6/dev/Launcher/RRLauncher/launcher/bu
 3684              		.file 43 "F:/GameModding/MarioKartWii/Mods/Distro/RetroRewind6/dev/Launcher/RRLauncher/launcher/bu
 3685              		.file 44 "F:/GameModding/MarioKartWii/Mods/Distro/RetroRewind6/dev/Launcher/RRLauncher/launcher/bu
 3686              		.file 45 "F:/GameModding/MarioKartWii/Mods/Distro/RetroRewind6/dev/Launcher/RRLauncher/launcher/bu
 3687              		.file 46 "F:/GameModding/MarioKartWii/Mods/Distro/RetroRewind6/dev/Launcher/RRLauncher/launcher/bu
 3688              		.file 47 "F:/GameModding/MarioKartWii/Mods/Distro/RetroRewind6/dev/Launcher/RRLauncher/launcher/bu
 3689              		.file 48 "F:/GameModding/MarioKartWii/Mods/Distro/RetroRewind6/dev/Launcher/RRLauncher/launcher/bu
 3690              		.file 49 "F:/GameModding/MarioKartWii/Mods/Distro/RetroRewind6/dev/Launcher/RRLauncher/launcher/bu
 3691              		.file 50 "F:/GameModding/MarioKartWii/Mods/Distro/RetroRewind6/dev/Launcher/RRLauncher/launcher/bu
 3692              		.file 51 "F:/GameModding/MarioKartWii/Mods/Distro/RetroRewind6/dev/Launcher/RRLauncher/launcher/bu
 3693              		.file 52 "F:/GameModding/MarioKartWii/Mods/Distro/RetroRewind6/dev/Launcher/RRLauncher/launcher/bu
 3694              		.file 53 "F:/GameModding/MarioKartWii/Mods/Distro/RetroRewind6/dev/Launcher/RRLauncher/launcher/bu
 3695              		.file 54 "F:/GameModding/MarioKartWii/Mods/Distro/RetroRewind6/dev/Launcher/RRLauncher/launcher/bu
 3696              		.file 55 "F:/GameModding/MarioKartWii/Mods/Distro/RetroRewind6/dev/Launcher/RRLauncher/launcher/bu
 3697              		.file 56 "F:/GameModding/MarioKartWii/Mods/Distro/RetroRewind6/dev/Launcher/RRLauncher/launcher/bu
 3698              		.file 57 "F:/GameModding/MarioKartWii/Mods/Distro/RetroRewind6/dev/Launcher/RRLauncher/launcher/li
 3699              		.file 58 "F:/GameModding/MarioKartWii/Mods/Distro/RetroRewind6/dev/Launcher/RRLauncher/launcher/li
 3700              		.file 59 "C:/devkitPro/devkitPPC/powerpc-eabi/include/c++/13.1.0/new"
 3701              		.file 60 "C:/devkitPro/devkitPPC/powerpc-eabi/include/c++/13.1.0/bits/memory_resource.h"
 3702              		.file 61 "F:/GameModding/MarioKartWii/Mods/Distro/RetroRewind6/dev/Launcher/RRLauncher/launcher/li