   1              		.file	"gui_window.cpp"
   2              		.machine ppc
   3              		.section	".text"
   4              	.Ltext0:
   5              		.file 1 "F:/GameModding/MarioKartWii/Mods/Distro/RetroRewind6/dev/Launcher/RRLauncher/launcher/lib
   6              		.section	.text._ZN9GuiWindow4DrawEv,"ax",@progbits
   7              		.align 2
   8              		.globl _ZN9GuiWindow4DrawEv
   9              		.type	_ZN9GuiWindow4DrawEv, @function
  10              	_ZN9GuiWindow4DrawEv:
  11              	.LVL0:
  12              	.LFB2358:
  13              		.loc 1 84 1 view -0
  14              		.cfi_startproc
  15              		.cfi_personality 0,__gxx_personality_v0
  16              		.cfi_lsda 0,.LLSDA2358
  17              		.loc 1 85 2 view .LVU1
  18              	.LBB1123:
  19              	.LBI1123:
  20              		.file 2 "C:/devkitPro/devkitPPC/powerpc-eabi/include/c++/13.1.0/bits/stl_vector.h"
  21              		.loc 2 987 7 view .LVU2
  22              		.loc 2 987 7 is_stmt 0 view .LVU3
  23              	.LBE1123:
  24              		.loc 1 85 27 discriminator 1 view .LVU4
  25 0000 81430084 		lwz 10,132(3)
  26 0004 81230088 		lwz 9,136(3)
  27 0008 7C0A4800 		cmpw 0,10,9
  28 000c 4D820020 		beqlr- 0
  29              		.loc 1 84 1 view .LVU5
  30 0010 9421FFD8 		stwu 1,-40(1)
  31              		.cfi_def_cfa_offset 40
  32 0014 7C0802A6 		mflr 0
  33 0018 93C10020 		stw 30,32(1)
  34              		.cfi_register 65, 0
  35              		.cfi_offset 30, -8
  36 001c 7C7E1B78 		mr 30,3
  37 0020 9001002C 		stw 0,44(1)
  38              	.LEHB0:
  39              		.cfi_offset 65, 4
  40              		.loc 1 85 46 discriminator 2 view .LVU6
  41 0024 48000001 		bl _ZN10GuiElement9IsVisibleEv
  42              	.LVL1:
  43              	.LEHE0:
  44              		.loc 1 85 27 discriminator 1 view .LVU7
  45 0028 2C030000 		cmpwi 0,3,0
  46 002c 4182007C 		beq- 0,.L1
  47              	.LVL2:
  48              	.LBB1124:
  49              		.loc 1 88 19 is_stmt 1 discriminator 1 view .LVU8
  50              	.LBB1125:
  51              	.LBI1125:
  52              		.loc 2 987 7 view .LVU9
  53              	.LBB1126:
  54              		.loc 2 988 66 is_stmt 0 view .LVU10
  55 0030 80FE0084 		lwz 7,132(30)
  56              	.LVL3:
  57              		.loc 2 988 66 view .LVU11
  58              	.LBE1126:
  59              	.LBE1125:
  60              		.loc 1 88 19 discriminator 1 view .LVU12
  61 0034 813E0088 		lwz 9,136(30)
  62 0038 7C093800 		cmpw 0,9,7
  63 003c 4182004C 		beq- 0,.L5
  64 0040 93E10024 		stw 31,36(1)
  65              		.cfi_offset 31, -4
  66              		.loc 1 88 17 discriminator 1 view .LVU13
  67 0044 39400000 		li 10,0
  68              		.loc 1 88 10 view .LVU14
  69 0048 3BE00000 		li 31,0
  70              	.LVL4:
  71              	.L6:
  72              	.LBB1130:
  73              		.loc 1 90 3 is_stmt 1 view .LVU15
  74              		.loc 1 90 9 view .LVU16
  75              	.LBB1131:
  76              	.LBI1131:
  77              		.loc 2 1173 7 view .LVU17
  78              	.LBB1132:
  79              	.LBI1132:
  80              		.loc 2 1121 7 view .LVU18
  81              		.loc 2 1121 7 is_stmt 0 view .LVU19
  82              	.LBE1132:
  83              	.LBE1131:
  84              		.loc 1 90 30 discriminator 1 view .LVU20
  85 004c 554A103A 		slwi 10,10,2
  86 0050 7C67502E 		lwzx 3,7,10
  87 0054 81230000 		lwz 9,0(3)
  88 0058 81290024 		lwz 9,36(9)
  89 005c 7D2903A6 		mtctr 9
  90              	.LEHB1:
  91 0060 4E800421 		bctrl
  92              	.LVL5:
  93              	.LEHE1:
  94              	.L9:
  95              	.LBE1130:
  96              		.loc 1 88 2 is_stmt 1 discriminator 2 view .LVU21
  97              	.LBB1134:
  98              	.LBB1127:
  99              		.loc 2 988 66 is_stmt 0 view .LVU22
 100 0064 80FE0084 		lwz 7,132(30)
 101              	.LBE1127:
 102              	.LBE1134:
 103              		.loc 1 88 2 discriminator 2 view .LVU23
 104 0068 3BFF0001 		addi 31,31,1
 105              	.LVL6:
 106              	.LBB1135:
 107              	.LBB1128:
 108              		.loc 2 988 50 view .LVU24
 109 006c 813E0088 		lwz 9,136(30)
 110              	.LBE1128:
 111              	.LBE1135:
 112              		.loc 1 88 17 discriminator 1 view .LVU25
 113 0070 57EA063E 		rlwinm 10,31,0,0xff
 114              	.LVL7:
 115              		.loc 1 88 19 is_stmt 1 discriminator 1 view .LVU26
 116              	.LBB1136:
 117              		.loc 2 987 7 view .LVU27
 118              	.LBB1129:
 119              		.loc 2 988 50 is_stmt 0 view .LVU28
 120 0074 7D274850 		subf 9,7,9
 121 0078 7D291670 		srawi 9,9,2
 122              	.LBE1129:
 123              	.LBE1136:
 124              		.loc 1 88 19 discriminator 1 view .LVU29
 125 007c 7C0A4840 		cmplw 0,10,9
 126 0080 4180FFCC 		blt+ 0,.L6
 127 0084 83E10024 		lwz 31,36(1)
 128              		.cfi_restore 31
 129              	.LVL8:
 130              	.L5:
 131              		.loc 1 88 19 discriminator 1 view .LVU30
 132              	.LBE1124:
 133              		.loc 1 94 2 is_stmt 1 view .LVU31
 134              		.loc 1 94 21 is_stmt 0 view .LVU32
 135 0088 7FC3F378 		mr 3,30
 136              	.LEHB2:
 137 008c 48000001 		bl _ZN10GuiElement13UpdateEffectsEv
 138              	.LVL9:
 139              		.loc 1 96 2 is_stmt 1 view .LVU33
 140 0090 813E007C 		lwz 9,124(30)
 141 0094 2C090000 		cmpwi 0,9,0
 142 0098 41820010 		beq- 0,.L1
 143              		.loc 1 96 19 is_stmt 0 discriminator 1 view .LVU34
 144 009c 813E0068 		lwz 9,104(30)
 145 00a0 2C090004 		cmpwi 0,9,4
 146 00a4 41820018 		beq- 0,.L23
 147              	.L1:
 148              		.loc 1 98 1 view .LVU35
 149 00a8 8001002C 		lwz 0,44(1)
 150 00ac 83C10020 		lwz 30,32(1)
 151              	.LVL10:
 152              		.loc 1 98 1 view .LVU36
 153 00b0 38210028 		addi 1,1,40
 154              		.cfi_remember_state
 155              		.cfi_restore 30
 156              		.cfi_def_cfa_offset 0
 157 00b4 7C0803A6 		mtlr 0
 158              		.cfi_restore 65
 159 00b8 4E800020 		blr
 160              	.LVL11:
 161              	.L23:
 162              		.cfi_restore_state
 163              		.loc 1 97 3 is_stmt 1 view .LVU37
 164              		.loc 1 97 21 is_stmt 0 view .LVU38
 165 00bc 3D400000 		lis 10,screenwidth@ha
 166 00c0 3D200000 		lis 9,screenheight@ha
 167 00c4 814A0000 		lwz 10,screenwidth@l(10)
 168 00c8 3D004330 		lis 8,0x4330
 169 00cc 81290000 		lwz 9,screenheight@l(9)
 170 00d0 3CE00000 		lis 7,.LC1@ha
 171 00d4 6D4A8000 		xoris 10,10,0x8000
 172 00d8 91010008 		stw 8,8(1)
 173 00dc 9141000C 		stw 10,12(1)
 174 00e0 6D298000 		xoris 9,9,0x8000
 175 00e4 91210014 		stw 9,20(1)
 176 00e8 3D400000 		lis 10,.LC2@ha
 177 00ec C0070000 		lfs 0,.LC1@l(7)
 178 00f0 3D20BECA 		lis 9,0xbeca
 179 00f4 C9810008 		lfd 12,8(1)
 180 00f8 6129D570 		ori 9,9,0xd570
 181 00fc 91010010 		stw 8,16(1)
 182 0100 38800001 		li 4,1
 183 0104 FC6C0028 		fsub 3,12,0
 184 0108 C04A0000 		lfs 2,.LC2@l(10)
 185 010c C9810010 		lfd 12,16(1)
 186 0110 38610018 		addi 3,1,24
 187 0114 FC201090 		fmr 1,2
 188 0118 91210018 		stw 9,24(1)
 189 011c FC8C0028 		fsub 4,12,0
 190 0120 FC601818 		frsp 3,3
 191 0124 FC802018 		frsp 4,4
 192 0128 48000001 		bl _Z18Menu_DrawRectangleffff9_gx_colorh
 193              	.LVL12:
 194 012c 4BFFFF7C 		b .L1
 195              	.LVL13:
 196              	.L10:
 197              		.cfi_offset 31, -4
 198              		.loc 1 91 3 view .LVU39
 199 0130 2C040001 		cmpwi 0,4,1
 200 0134 40820010 		bne- 0,.L24
 201              	.LBB1138:
 202              	.LBB1137:
 203              	.LBB1133:
 204              		.loc 1 91 32 discriminator 1 view .LVU40
 205 0138 48000001 		bl __cxa_begin_catch
 206              	.LVL14:
 207              		.loc 1 91 37 discriminator 2 view .LVU41
 208 013c 48000001 		bl __cxa_end_catch
 209              	.LVL15:
 210 0140 4BFFFF24 		b .L9
 211              	.L24:
 212 0144 48000001 		bl _Unwind_Resume
 213              	.LVL16:
 214              	.LEHE2:
 215              	.LBE1133:
 216              	.LBE1137:
 217              	.LBE1138:
 218              		.cfi_endproc
 219              	.LFE2358:
 220              		.globl __gxx_personality_v0
 221              		.section	.gcc_except_table._ZN9GuiWindow4DrawEv,"a",@progbits
 222              		.align 2
 223              	.LLSDA2358:
 224 0000 FF       		.byte	0xff
 225 0001 00       		.byte	0
 226 0002 19       		.uleb128 .LLSDATT2358-.LLSDATTD2358
 227              	.LLSDATTD2358:
 228 0003 01       		.byte	0x1
 229 0004 0F       		.uleb128 .LLSDACSE2358-.LLSDACSB2358
 230              	.LLSDACSB2358:
 231 0005 24       		.uleb128 .LEHB0-.LFB2358
 232 0006 04       		.uleb128 .LEHE0-.LEHB0
 233 0007 00       		.uleb128 0
 234 0008 00       		.uleb128 0
 235 0009 60       		.uleb128 .LEHB1-.LFB2358
 236 000a 04       		.uleb128 .LEHE1-.LEHB1
 237 000b B002     		.uleb128 .L10-.LFB2358
 238 000d 01       		.uleb128 0x1
 239 000e 8C01     		.uleb128 .LEHB2-.LFB2358
 240 0010 BC01     		.uleb128 .LEHE2-.LEHB2
 241 0012 00       		.uleb128 0
 242 0013 00       		.uleb128 0
 243              	.LLSDACSE2358:
 244 0014 01       		.byte	0x1
 245 0015 00       		.byte	0
 246 0016 0000     		.align 2
 247 0018 00000000 		.long	_ZTISt9exception
 248              	.LLSDATT2358:
 249              		.section	.text._ZN9GuiWindow4DrawEv
 250              		.size	_ZN9GuiWindow4DrawEv, .-_ZN9GuiWindow4DrawEv
 251              		.section	.text._ZN9GuiWindow10ResetStateEv,"ax",@progbits
 252              		.align 2
 253              		.globl _ZN9GuiWindow10ResetStateEv
 254              		.type	_ZN9GuiWindow10ResetStateEv, @function
 255              	_ZN9GuiWindow10ResetStateEv:
 256              	.LVL17:
 257              	.LFB2359:
 258              		.loc 1 101 1 is_stmt 1 view -0
 259              		.cfi_startproc
 260              		.cfi_personality 0,__gxx_personality_v0
 261              		.cfi_lsda 0,.LLSDA2359
 262              		.loc 1 102 2 view .LVU43
 263 0000 81230068 		lwz 9,104(3)
 264              		.loc 1 101 1 is_stmt 0 view .LVU44
 265 0004 9421FFF0 		stwu 1,-16(1)
 266              		.cfi_def_cfa_offset 16
 267              		.loc 1 102 2 view .LVU45
 268 0008 2C090004 		cmpwi 0,9,4
 269              		.loc 1 101 1 view .LVU46
 270 000c 93C10008 		stw 30,8(1)
 271              		.cfi_offset 30, -8
 272 0010 7C7E1B78 		mr 30,3
 273              		.loc 1 102 2 view .LVU47
 274 0014 4182000C 		beq- 0,.L26
 275              		.loc 1 103 3 is_stmt 1 view .LVU48
 276              		.loc 1 103 9 is_stmt 0 view .LVU49
 277 0018 39200000 		li 9,0
 278 001c 91230068 		stw 9,104(3)
 279              	.L26:
 280              	.LVL18:
 281              	.LBB1139:
 282              		.loc 1 105 19 is_stmt 1 discriminator 1 view .LVU50
 283              	.LBB1140:
 284              	.LBI1140:
 285              		.loc 2 987 7 view .LVU51
 286              	.LBB1141:
 287              		.loc 2 988 66 is_stmt 0 view .LVU52
 288 0020 80FE0084 		lwz 7,132(30)
 289              	.LVL19:
 290              		.loc 2 988 66 view .LVU53
 291              	.LBE1141:
 292              	.LBE1140:
 293              		.loc 1 105 19 discriminator 1 view .LVU54
 294 0024 813E0088 		lwz 9,136(30)
 295 0028 7C093800 		cmpw 0,9,7
 296 002c 4182005C 		beq- 0,.L25
 297 0030 7C0802A6 		mflr 0
 298              		.cfi_register 65, 0
 299 0034 93E1000C 		stw 31,12(1)
 300              		.cfi_offset 31, -4
 301 0038 90010014 		stw 0,20(1)
 302              		.cfi_offset 65, 4
 303              		.loc 1 105 19 discriminator 1 view .LVU55
 304 003c 3BE00000 		li 31,0
 305              		.loc 1 105 17 discriminator 1 view .LVU56
 306 0040 39400000 		li 10,0
 307              	.LVL20:
 308              	.L28:
 309              	.LBB1145:
 310              		.loc 1 107 3 is_stmt 1 view .LVU57
 311              		.loc 1 107 9 view .LVU58
 312              	.LBB1146:
 313              	.LBI1146:
 314              		.loc 2 1173 7 view .LVU59
 315              	.LBB1147:
 316              	.LBI1147:
 317              		.loc 2 1121 7 view .LVU60
 318              		.loc 2 1121 7 is_stmt 0 view .LVU61
 319              	.LBE1147:
 320              	.LBE1146:
 321              		.loc 1 107 36 discriminator 1 view .LVU62
 322 0044 554A103A 		slwi 10,10,2
 323 0048 7C67502E 		lwzx 3,7,10
 324 004c 81230000 		lwz 9,0(3)
 325 0050 81290014 		lwz 9,20(9)
 326 0054 7D2903A6 		mtctr 9
 327              	.LEHB3:
 328 0058 4E800421 		bctrl
 329              	.LVL21:
 330              	.LEHE3:
 331              	.L31:
 332              	.LBE1145:
 333              		.loc 1 105 2 is_stmt 1 discriminator 2 view .LVU63
 334              	.LBB1149:
 335              	.LBB1142:
 336              		.loc 2 988 66 is_stmt 0 view .LVU64
 337 005c 80FE0084 		lwz 7,132(30)
 338              	.LBE1142:
 339              	.LBE1149:
 340              		.loc 1 105 2 discriminator 2 view .LVU65
 341 0060 3BFF0001 		addi 31,31,1
 342              	.LVL22:
 343              	.LBB1150:
 344              	.LBB1143:
 345              		.loc 2 988 50 view .LVU66
 346 0064 813E0088 		lwz 9,136(30)
 347              	.LBE1143:
 348              	.LBE1150:
 349              		.loc 1 105 17 discriminator 1 view .LVU67
 350 0068 57EA063E 		rlwinm 10,31,0,0xff
 351              	.LVL23:
 352              		.loc 1 105 19 is_stmt 1 discriminator 1 view .LVU68
 353              	.LBB1151:
 354              		.loc 2 987 7 view .LVU69
 355              	.LBB1144:
 356              		.loc 2 988 50 is_stmt 0 view .LVU70
 357 006c 7D274850 		subf 9,7,9
 358 0070 7D291670 		srawi 9,9,2
 359              	.LBE1144:
 360              	.LBE1151:
 361              		.loc 1 105 19 discriminator 1 view .LVU71
 362 0074 7C0A4840 		cmplw 0,10,9
 363 0078 4180FFCC 		blt+ 0,.L28
 364 007c 80010014 		lwz 0,20(1)
 365 0080 83E1000C 		lwz 31,12(1)
 366              		.cfi_restore 31
 367              	.LVL24:
 368              		.loc 1 105 19 discriminator 1 view .LVU72
 369 0084 7C0803A6 		mtlr 0
 370              		.cfi_restore 65
 371              	.LVL25:
 372              	.L25:
 373              		.loc 1 105 19 discriminator 1 view .LVU73
 374              	.LBE1139:
 375              		.loc 1 110 1 view .LVU74
 376 0088 83C10008 		lwz 30,8(1)
 377              	.LVL26:
 378              		.loc 1 110 1 view .LVU75
 379 008c 38210010 		addi 1,1,16
 380              		.cfi_restore 30
 381              		.cfi_def_cfa_offset 0
 382 0090 4E800020 		blr
 383              	.LVL27:
 384              	.L32:
 385              		.cfi_def_cfa_offset 16
 386              		.cfi_offset 30, -8
 387              		.cfi_offset 31, -4
 388              		.cfi_offset 65, 4
 389              		.loc 1 108 3 view .LVU76
 390 0094 2C040001 		cmpwi 0,4,1
 391 0098 40820010 		bne- 0,.L38
 392              	.LBB1153:
 393              	.LBB1152:
 394              	.LBB1148:
 395              		.loc 1 108 32 discriminator 1 view .LVU77
 396 009c 48000001 		bl __cxa_begin_catch
 397              	.LVL28:
 398              		.loc 1 108 37 discriminator 2 view .LVU78
 399 00a0 48000001 		bl __cxa_end_catch
 400              	.LVL29:
 401 00a4 4BFFFFB8 		b .L31
 402              	.L38:
 403              	.LEHB4:
 404 00a8 48000001 		bl _Unwind_Resume
 405              	.LVL30:
 406              	.LEHE4:
 407              	.LBE1148:
 408              	.LBE1152:
 409              	.LBE1153:
 410              		.cfi_endproc
 411              	.LFE2359:
 412              		.section	.gcc_except_table._ZN9GuiWindow10ResetStateEv,"a",@progbits
 413              		.align 2
 414              	.LLSDA2359:
 415 0000 FF       		.byte	0xff
 416 0001 00       		.byte	0
 417 0002 15       		.uleb128 .LLSDATT2359-.LLSDATTD2359
 418              	.LLSDATTD2359:
 419 0003 01       		.byte	0x1
 420 0004 0A       		.uleb128 .LLSDACSE2359-.LLSDACSB2359
 421              	.LLSDACSB2359:
 422 0005 58       		.uleb128 .LEHB3-.LFB2359
 423 0006 04       		.uleb128 .LEHE3-.LEHB3
 424 0007 9401     		.uleb128 .L32-.LFB2359
 425 0009 01       		.uleb128 0x1
 426 000a A801     		.uleb128 .LEHB4-.LFB2359
 427 000c 04       		.uleb128 .LEHE4-.LEHB4
 428 000d 00       		.uleb128 0
 429 000e 00       		.uleb128 0
 430              	.LLSDACSE2359:
 431 000f 01       		.byte	0x1
 432 0010 00       		.byte	0
 433 0011 000000   		.align 2
 434 0014 00000000 		.long	_ZTISt9exception
 435              	.LLSDATT2359:
 436              		.section	.text._ZN9GuiWindow10ResetStateEv
 437              		.size	_ZN9GuiWindow10ResetStateEv, .-_ZN9GuiWindow10ResetStateEv
 438              		.section	.text._ZN9GuiWindow10SetVisibleEb,"ax",@progbits
 439              		.align 2
 440              		.globl _ZN9GuiWindow10SetVisibleEb
 441              		.type	_ZN9GuiWindow10SetVisibleEb, @function
 442              	_ZN9GuiWindow10SetVisibleEb:
 443              	.LVL31:
 444              	.LFB2361:
 445              		.loc 1 124 1 is_stmt 1 view -0
 446              		.cfi_startproc
 447              		.cfi_personality 0,__gxx_personality_v0
 448              		.cfi_lsda 0,.LLSDA2361
 449              		.loc 1 125 2 view .LVU80
 450              	.LBB1154:
 451              	.LBB1155:
 452              	.LBB1156:
 453              		.loc 2 988 66 is_stmt 0 view .LVU81
 454 0000 80E30084 		lwz 7,132(3)
 455              	.LBE1156:
 456              	.LBE1155:
 457              		.loc 1 127 19 discriminator 1 view .LVU82
 458 0004 81230088 		lwz 9,136(3)
 459              	.LBE1154:
 460              		.loc 1 124 1 view .LVU83
 461 0008 9421FFE8 		stwu 1,-24(1)
 462              		.cfi_def_cfa_offset 24
 463              	.LBB1169:
 464              		.loc 1 127 19 discriminator 1 view .LVU84
 465 000c 7C093800 		cmpw 0,9,7
 466              	.LBE1169:
 467              		.loc 1 124 1 view .LVU85
 468 0010 93C10010 		stw 30,16(1)
 469              		.cfi_offset 30, -8
 470 0014 7C7E1B78 		mr 30,3
 471              		.loc 1 125 10 view .LVU86
 472 0018 98830004 		stb 4,4(3)
 473              		.loc 1 127 2 is_stmt 1 view .LVU87
 474              	.LVL32:
 475              	.LBB1170:
 476              		.loc 1 127 19 discriminator 1 view .LVU88
 477              	.LBB1160:
 478              	.LBI1155:
 479              		.loc 2 987 7 view .LVU89
 480              		.loc 2 987 7 is_stmt 0 view .LVU90
 481              	.LBE1160:
 482              		.loc 1 127 19 discriminator 1 view .LVU91
 483 001c 4182006C 		beq- 0,.L39
 484 0020 7C0802A6 		mflr 0
 485              		.cfi_register 65, 0
 486 0024 93A1000C 		stw 29,12(1)
 487              		.cfi_offset 29, -12
 488 0028 9001001C 		stw 0,28(1)
 489              		.cfi_offset 65, 4
 490 002c 7C9D2378 		mr 29,4
 491 0030 93E10014 		stw 31,20(1)
 492              		.cfi_offset 31, -4
 493              		.loc 1 127 17 discriminator 1 view .LVU92
 494 0034 39400000 		li 10,0
 495              		.loc 1 127 10 view .LVU93
 496 0038 3BE00000 		li 31,0
 497              	.LVL33:
 498              	.L41:
 499              	.LBB1161:
 500              		.loc 1 129 3 is_stmt 1 view .LVU94
 501              		.loc 1 129 9 view .LVU95
 502              	.LBB1162:
 503              	.LBI1162:
 504              		.loc 2 1173 7 view .LVU96
 505              	.LBB1163:
 506              	.LBI1163:
 507              		.loc 2 1121 7 view .LVU97
 508              		.loc 2 1121 7 is_stmt 0 view .LVU98
 509              	.LBE1163:
 510              	.LBE1162:
 511              		.loc 1 129 36 discriminator 1 view .LVU99
 512 003c 554A103A 		slwi 10,10,2
 513 0040 7FA4EB78 		mr 4,29
 514 0044 7C67502E 		lwzx 3,7,10
 515 0048 81230000 		lwz 9,0(3)
 516 004c 81290008 		lwz 9,8(9)
 517 0050 7D2903A6 		mtctr 9
 518              	.LEHB5:
 519 0054 4E800421 		bctrl
 520              	.LVL34:
 521              	.LEHE5:
 522              	.L44:
 523              	.LBE1161:
 524              		.loc 1 127 2 is_stmt 1 discriminator 2 view .LVU100
 525              	.LBB1165:
 526              	.LBB1157:
 527              		.loc 2 988 66 is_stmt 0 view .LVU101
 528 0058 80FE0084 		lwz 7,132(30)
 529              	.LBE1157:
 530              	.LBE1165:
 531              		.loc 1 127 2 discriminator 2 view .LVU102
 532 005c 3BFF0001 		addi 31,31,1
 533              	.LVL35:
 534              	.LBB1166:
 535              	.LBB1158:
 536              		.loc 2 988 50 view .LVU103
 537 0060 813E0088 		lwz 9,136(30)
 538              	.LBE1158:
 539              	.LBE1166:
 540              		.loc 1 127 17 discriminator 1 view .LVU104
 541 0064 57EA063E 		rlwinm 10,31,0,0xff
 542              	.LVL36:
 543              		.loc 1 127 19 is_stmt 1 discriminator 1 view .LVU105
 544              	.LBB1167:
 545              		.loc 2 987 7 view .LVU106
 546              	.LBB1159:
 547              		.loc 2 988 50 is_stmt 0 view .LVU107
 548 0068 7D274850 		subf 9,7,9
 549 006c 7D291670 		srawi 9,9,2
 550              	.LBE1159:
 551              	.LBE1167:
 552              		.loc 1 127 19 discriminator 1 view .LVU108
 553 0070 7C0A4840 		cmplw 0,10,9
 554 0074 4180FFC8 		blt+ 0,.L41
 555 0078 8001001C 		lwz 0,28(1)
 556 007c 83A1000C 		lwz 29,12(1)
 557              		.cfi_restore 29
 558              	.LVL37:
 559              		.loc 1 127 19 discriminator 1 view .LVU109
 560 0080 83E10014 		lwz 31,20(1)
 561              		.cfi_restore 31
 562              	.LVL38:
 563              		.loc 1 127 19 discriminator 1 view .LVU110
 564 0084 7C0803A6 		mtlr 0
 565              		.cfi_restore 65
 566              	.LVL39:
 567              	.L39:
 568              		.loc 1 127 19 discriminator 1 view .LVU111
 569              	.LBE1170:
 570              		.loc 1 132 1 view .LVU112
 571 0088 83C10010 		lwz 30,16(1)
 572              	.LVL40:
 573              		.loc 1 132 1 view .LVU113
 574 008c 38210018 		addi 1,1,24
 575              		.cfi_restore 30
 576              		.cfi_def_cfa_offset 0
 577 0090 4E800020 		blr
 578              	.LVL41:
 579              	.L45:
 580              		.cfi_def_cfa_offset 24
 581              		.cfi_offset 29, -12
 582              		.cfi_offset 30, -8
 583              		.cfi_offset 31, -4
 584              		.cfi_offset 65, 4
 585              		.loc 1 130 3 view .LVU114
 586 0094 2C040001 		cmpwi 0,4,1
 587 0098 40820010 		bne- 0,.L48
 588              	.LBB1171:
 589              	.LBB1168:
 590              	.LBB1164:
 591              		.loc 1 130 32 discriminator 1 view .LVU115
 592 009c 48000001 		bl __cxa_begin_catch
 593              	.LVL42:
 594              		.loc 1 130 37 discriminator 2 view .LVU116
 595 00a0 48000001 		bl __cxa_end_catch
 596              	.LVL43:
 597 00a4 4BFFFFB4 		b .L44
 598              	.L48:
 599              	.LEHB6:
 600 00a8 48000001 		bl _Unwind_Resume
 601              	.LVL44:
 602              	.LEHE6:
 603              	.LBE1164:
 604              	.LBE1168:
 605              	.LBE1171:
 606              		.cfi_endproc
 607              	.LFE2361:
 608              		.section	.gcc_except_table._ZN9GuiWindow10SetVisibleEb,"a",@progbits
 609              		.align 2
 610              	.LLSDA2361:
 611 0000 FF       		.byte	0xff
 612 0001 00       		.byte	0
 613 0002 15       		.uleb128 .LLSDATT2361-.LLSDATTD2361
 614              	.LLSDATTD2361:
 615 0003 01       		.byte	0x1
 616 0004 0A       		.uleb128 .LLSDACSE2361-.LLSDACSB2361
 617              	.LLSDACSB2361:
 618 0005 54       		.uleb128 .LEHB5-.LFB2361
 619 0006 04       		.uleb128 .LEHE5-.LEHB5
 620 0007 9401     		.uleb128 .L45-.LFB2361
 621 0009 01       		.uleb128 0x1
 622 000a A801     		.uleb128 .LEHB6-.LFB2361
 623 000c 04       		.uleb128 .LEHE6-.LEHB6
 624 000d 00       		.uleb128 0
 625 000e 00       		.uleb128 0
 626              	.LLSDACSE2361:
 627 000f 01       		.byte	0x1
 628 0010 00       		.byte	0
 629 0011 000000   		.align 2
 630 0014 00000000 		.long	_ZTISt9exception
 631              	.LLSDATT2361:
 632              		.section	.text._ZN9GuiWindow10SetVisibleEb
 633              		.size	_ZN9GuiWindow10SetVisibleEb, .-_ZN9GuiWindow10SetVisibleEb
 634              		.section	.text._ZN9GuiWindow11GetSelectedEv,"ax",@progbits
 635              		.align 2
 636              		.globl _ZN9GuiWindow11GetSelectedEv
 637              		.type	_ZN9GuiWindow11GetSelectedEv, @function
 638              	_ZN9GuiWindow11GetSelectedEv:
 639              	.LVL45:
 640              	.LFB2365:
 641              		.loc 1 236 1 is_stmt 1 view -0
 642              		.cfi_startproc
 643              		.cfi_personality 0,__gxx_personality_v0
 644              		.cfi_lsda 0,.LLSDA2365
 645              		.loc 1 238 2 view .LVU118
 646              		.loc 1 239 2 view .LVU119
 647              	.LBB1180:
 648              		.loc 1 239 19 discriminator 1 view .LVU120
 649              	.LBB1181:
 650              	.LBI1181:
 651              		.loc 2 987 7 view .LVU121
 652              	.LBB1182:
 653              		.loc 2 988 66 is_stmt 0 view .LVU122
 654 0000 81030084 		lwz 8,132(3)
 655              	.LVL46:
 656              		.loc 2 988 66 view .LVU123
 657              	.LBE1182:
 658              	.LBE1181:
 659              		.loc 1 239 19 discriminator 1 view .LVU124
 660 0004 81230088 		lwz 9,136(3)
 661 0008 7C094000 		cmpw 0,9,8
 662 000c 41820094 		beq- 0,.L59
 663              	.LBE1180:
 664              		.loc 1 236 1 view .LVU125
 665 0010 9421FFF0 		stwu 1,-16(1)
 666              		.cfi_def_cfa_offset 16
 667 0014 7C0802A6 		mflr 0
 668              	.LBB1195:
 669              		.loc 1 239 17 discriminator 1 view .LVU126
 670 0018 39400000 		li 10,0
 671              	.LBE1195:
 672              		.loc 1 236 1 view .LVU127
 673 001c 93C10008 		stw 30,8(1)
 674              		.cfi_register 65, 0
 675              		.cfi_offset 30, -8
 676 0020 7C7E1B78 		mr 30,3
 677 0024 93E1000C 		stw 31,12(1)
 678              		.cfi_offset 31, -4
 679              	.LBB1196:
 680              		.loc 1 239 10 view .LVU128
 681 0028 3BE00000 		li 31,0
 682              	.LBE1196:
 683              		.loc 1 236 1 view .LVU129
 684 002c 90010014 		stw 0,20(1)
 685              		.cfi_offset 65, 4
 686 0030 48000024 		b .L53
 687              	.LVL47:
 688              	.L51:
 689              	.LBB1197:
 690              		.loc 1 239 2 is_stmt 1 discriminator 2 view .LVU130
 691              	.LBB1186:
 692              	.LBB1183:
 693              		.loc 2 988 66 is_stmt 0 view .LVU131
 694 0034 811E0084 		lwz 8,132(30)
 695              	.LBE1183:
 696              	.LBE1186:
 697              		.loc 1 239 2 discriminator 2 view .LVU132
 698 0038 3BFF0001 		addi 31,31,1
 699              	.LVL48:
 700              	.LBB1187:
 701              	.LBB1184:
 702              		.loc 2 988 50 view .LVU133
 703 003c 813E0088 		lwz 9,136(30)
 704              	.LBE1184:
 705              	.LBE1187:
 706              		.loc 1 239 17 discriminator 1 view .LVU134
 707 0040 57EA063E 		rlwinm 10,31,0,0xff
 708              	.LVL49:
 709              		.loc 1 239 19 is_stmt 1 discriminator 1 view .LVU135
 710              	.LBB1188:
 711              		.loc 2 987 7 view .LVU136
 712              	.LBB1185:
 713              		.loc 2 988 50 is_stmt 0 view .LVU137
 714 0044 7D284850 		subf 9,8,9
 715 0048 7D291670 		srawi 9,9,2
 716              	.LBE1185:
 717              	.LBE1188:
 718              		.loc 1 239 19 discriminator 1 view .LVU138
 719 004c 7C0A4840 		cmplw 0,10,9
 720 0050 40800034 		bge- 0,.L62
 721              	.LVL50:
 722              	.L53:
 723              	.LBB1189:
 724              		.loc 1 241 3 is_stmt 1 view .LVU139
 725              		.loc 1 243 4 view .LVU140
 726              	.LBB1190:
 727              	.LBI1190:
 728              		.loc 2 1173 7 view .LVU141
 729              	.LBB1191:
 730              	.LBI1191:
 731              		.loc 2 1121 7 view .LVU142
 732              		.loc 2 1121 7 is_stmt 0 view .LVU143
 733              	.LBE1191:
 734              	.LBE1190:
 735              		.loc 1 243 32 discriminator 1 view .LVU144
 736 0054 554A103A 		slwi 10,10,2
 737 0058 7C68502E 		lwzx 3,8,10
 738              	.LEHB7:
 739 005c 48000001 		bl _ZN10GuiElement8GetStateEv
 740              	.LVL51:
 741              	.LEHE7:
 742              		.loc 1 243 4 discriminator 2 view .LVU145
 743 0060 2C030001 		cmpwi 0,3,1
 744 0064 4082FFD0 		bne+ 0,.L51
 745              		.loc 1 245 5 is_stmt 1 view .LVU146
 746              	.LBE1189:
 747              	.LBE1197:
 748              		.loc 1 252 1 is_stmt 0 view .LVU147
 749 0068 80010014 		lwz 0,20(1)
 750              	.LBB1198:
 751              	.LBB1193:
 752              		.loc 1 245 11 view .LVU148
 753 006c 57E3063E 		rlwinm 3,31,0,0xff
 754              	.LVL52:
 755              		.loc 1 246 5 is_stmt 1 view .LVU149
 756              	.LBE1193:
 757              	.LBE1198:
 758              		.loc 1 252 1 is_stmt 0 view .LVU150
 759 0070 83C10008 		lwz 30,8(1)
 760              	.LVL53:
 761              		.loc 1 252 1 view .LVU151
 762 0074 83E1000C 		lwz 31,12(1)
 763              	.LVL54:
 764              		.loc 1 252 1 view .LVU152
 765 0078 7C0803A6 		mtlr 0
 766              		.cfi_remember_state
 767              		.cfi_restore 65
 768 007c 38210010 		addi 1,1,16
 769              		.cfi_restore 31
 770              		.cfi_restore 30
 771              		.cfi_def_cfa_offset 0
 772 0080 4E800020 		blr
 773              	.LVL55:
 774              	.L62:
 775              		.cfi_restore_state
 776              		.loc 1 252 1 view .LVU153
 777 0084 80010014 		lwz 0,20(1)
 778              		.loc 1 238 6 view .LVU154
 779 0088 3860FFFF 		li 3,-1
 780              		.loc 1 251 2 is_stmt 1 view .LVU155
 781              		.loc 1 252 1 is_stmt 0 view .LVU156
 782 008c 83C10008 		lwz 30,8(1)
 783              	.LVL56:
 784              		.loc 1 252 1 view .LVU157
 785 0090 83E1000C 		lwz 31,12(1)
 786              	.LVL57:
 787              		.loc 1 252 1 view .LVU158
 788 0094 7C0803A6 		mtlr 0
 789              		.cfi_restore 65
 790 0098 38210010 		addi 1,1,16
 791              		.cfi_restore 31
 792              		.cfi_restore 30
 793              		.cfi_def_cfa_offset 0
 794 009c 4E800020 		blr
 795              	.LVL58:
 796              	.L59:
 797              		.loc 1 238 6 view .LVU159
 798 00a0 3860FFFF 		li 3,-1
 799              	.LVL59:
 800              		.loc 1 251 2 is_stmt 1 view .LVU160
 801              		.loc 1 252 1 is_stmt 0 view .LVU161
 802 00a4 4E800020 		blr
 803              	.LVL60:
 804              	.L56:
 805              		.cfi_def_cfa_offset 16
 806              		.cfi_offset 30, -8
 807              		.cfi_offset 31, -4
 808              		.cfi_offset 65, 4
 809              		.loc 1 249 3 view .LVU162
 810 00a8 2C040001 		cmpwi 0,4,1
 811 00ac 40820010 		bne- 0,.L63
 812              	.LBB1199:
 813              	.LBB1194:
 814              	.LBB1192:
 815              		.loc 1 249 32 discriminator 1 view .LVU163
 816 00b0 48000001 		bl __cxa_begin_catch
 817              	.LVL61:
 818              		.loc 1 249 37 discriminator 2 view .LVU164
 819 00b4 48000001 		bl __cxa_end_catch
 820              	.LVL62:
 821 00b8 4BFFFF7C 		b .L51
 822              	.L63:
 823              	.LEHB8:
 824 00bc 48000001 		bl _Unwind_Resume
 825              	.LVL63:
 826              	.LEHE8:
 827              	.LBE1192:
 828              	.LBE1194:
 829              	.LBE1199:
 830              		.cfi_endproc
 831              	.LFE2365:
 832              		.section	.gcc_except_table._ZN9GuiWindow11GetSelectedEv,"a",@progbits
 833              		.align 2
 834              	.LLSDA2365:
 835 0000 FF       		.byte	0xff
 836 0001 00       		.byte	0
 837 0002 15       		.uleb128 .LLSDATT2365-.LLSDATTD2365
 838              	.LLSDATTD2365:
 839 0003 01       		.byte	0x1
 840 0004 0A       		.uleb128 .LLSDACSE2365-.LLSDACSB2365
 841              	.LLSDACSB2365:
 842 0005 5C       		.uleb128 .LEHB7-.LFB2365
 843 0006 04       		.uleb128 .LEHE7-.LEHB7
 844 0007 A801     		.uleb128 .L56-.LFB2365
 845 0009 01       		.uleb128 0x1
 846 000a BC01     		.uleb128 .LEHB8-.LFB2365
 847 000c 04       		.uleb128 .LEHE8-.LEHB8
 848 000d 00       		.uleb128 0
 849 000e 00       		.uleb128 0
 850              	.LLSDACSE2365:
 851 000f 01       		.byte	0x1
 852 0010 00       		.byte	0
 853 0011 000000   		.align 2
 854 0014 00000000 		.long	_ZTISt9exception
 855              	.LLSDATT2365:
 856              		.section	.text._ZN9GuiWindow11GetSelectedEv
 857              		.size	_ZN9GuiWindow11GetSelectedEv, .-_ZN9GuiWindow11GetSelectedEv
 858              		.section	.text._ZN9GuiWindow6RemoveEP10GuiElement.part.0,"ax",@progbits
 859              		.align 2
 860              		.type	_ZN9GuiWindow6RemoveEP10GuiElement.part.0, @function
 861              	_ZN9GuiWindow6RemoveEP10GuiElement.part.0:
 862              	.LVL64:
 863              	.LFB2652:
 864              		.loc 1 51 6 is_stmt 1 view -0
 865              		.cfi_startproc
 866              	.LBB1316:
 867              		.loc 1 56 19 discriminator 1 view .LVU166
 868              	.LBB1317:
 869              	.LBI1317:
 870              		.loc 2 987 7 view .LVU167
 871              	.LBB1318:
 872              		.loc 2 988 40 is_stmt 0 view .LVU168
 873 0000 81630088 		lwz 11,136(3)
 874              		.loc 2 988 66 view .LVU169
 875 0004 80E30084 		lwz 7,132(3)
 876              	.LBE1318:
 877              	.LBE1317:
 878              		.loc 1 56 19 discriminator 1 view .LVU170
 879 0008 7C0B3840 		cmplw 0,11,7
 880              	.LBB1320:
 881              	.LBB1319:
 882              		.loc 2 988 50 view .LVU171
 883 000c 7CA75850 		subf 5,7,11
 884 0010 7CA51670 		srawi 5,5,2
 885              	.LVL65:
 886              		.loc 2 988 50 view .LVU172
 887              	.LBE1319:
 888              	.LBE1320:
 889              		.loc 1 56 19 discriminator 1 view .LVU173
 890 0014 4D820020 		beqlr- 0
 891              	.LBE1316:
 892              		.loc 1 51 6 view .LVU174
 893 0018 9421FFF0 		stwu 1,-16(1)
 894              		.cfi_def_cfa_offset 16
 895              	.LBB1380:
 896              		.loc 1 56 10 view .LVU175
 897 001c 39200000 		li 9,0
 898              		.loc 1 56 17 discriminator 1 view .LVU176
 899 0020 39400000 		li 10,0
 900              	.LBE1380:
 901              		.loc 1 51 6 view .LVU177
 902 0024 93E1000C 		stw 31,12(1)
 903              		.cfi_offset 31, -4
 904 0028 7C7F1B78 		mr 31,3
 905 002c 48000008 		b .L71
 906              	.LVL66:
 907              	.L66:
 908              	.LBB1381:
 909              		.loc 1 56 19 discriminator 1 view .LVU178
 910 0030 409C005C 		bge- 7,.L64
 911              	.LVL67:
 912              	.L71:
 913              		.loc 1 58 3 is_stmt 1 view .LVU179
 914              	.LBB1321:
 915              	.LBI1321:
 916              		.loc 2 1173 7 view .LVU180
 917              	.LBB1322:
 918              	.LBI1322:
 919              		.loc 2 1121 7 view .LVU181
 920              	.LBE1322:
 921              	.LBE1321:
 922              		.loc 1 56 2 discriminator 2 view .LVU182
 923              	.LBB1327:
 924              	.LBB1325:
 925              	.LBB1323:
 926              		.loc 2 1124 34 is_stmt 0 view .LVU183
 927 0034 5548103A 		slwi 8,10,2
 928              	.LBE1323:
 929              	.LBE1325:
 930              	.LBE1327:
 931              		.loc 1 56 2 discriminator 2 view .LVU184
 932 0038 39290001 		addi 9,9,1
 933              	.LVL68:
 934              		.loc 1 58 3 discriminator 1 view .LVU185
 935 003c 7CC7402E 		lwzx 6,7,8
 936              		.loc 1 56 17 discriminator 1 view .LVU186
 937 0040 552A063E 		rlwinm 10,9,0,0xff
 938              	.LVL69:
 939              		.loc 1 56 19 discriminator 1 view .LVU187
 940 0044 7F8A2840 		cmplw 7,10,5
 941              	.LBB1328:
 942              	.LBB1326:
 943              	.LBB1324:
 944              		.loc 2 1124 39 view .LVU188
 945 0048 7C674214 		add 3,7,8
 946              	.LVL70:
 947              		.loc 2 1124 39 view .LVU189
 948              	.LBE1324:
 949              	.LBE1326:
 950              	.LBE1328:
 951              		.loc 1 58 3 discriminator 1 view .LVU190
 952 004c 7C062000 		cmpw 0,6,4
 953              		.loc 1 56 19 is_stmt 1 discriminator 1 view .LVU191
 954              	.LVL71:
 955              	.LBB1329:
 956              		.loc 2 987 7 view .LVU192
 957              		.loc 2 987 7 is_stmt 0 view .LVU193
 958              	.LBE1329:
 959              		.loc 1 58 3 discriminator 1 view .LVU194
 960 0050 4082FFE0 		bne+ 0,.L66
 961              		.loc 1 60 4 is_stmt 1 view .LVU195
 962              	.LVL72:
 963              	.LBB1330:
 964              	.LBI1330:
 965              		.loc 2 868 7 view .LVU196
 966              	.LBB1331:
 967              	.LBI1331:
 968              		.file 3 "C:/devkitPro/devkitPPC/powerpc-eabi/include/c++/13.1.0/bits/stl_iterator.h"
 969              		.loc 3 1076 7 view .LVU197
 970              		.loc 3 1076 7 is_stmt 0 view .LVU198
 971              	.LBE1331:
 972              	.LBE1330:
 973              	.LBB1332:
 974              	.LBI1332:
 975              		.loc 3 1147 7 is_stmt 1 view .LVU199
 976              	.LBB1333:
 977              	.LBI1333:
 978              		.loc 3 1076 7 view .LVU200
 979              		.loc 3 1076 7 is_stmt 0 view .LVU201
 980              	.LBE1333:
 981              	.LBE1332:
 982              	.LBB1334:
 983              	.LBI1334:
 984              		.loc 3 1083 2 is_stmt 1 view .LVU202
 985              	.LBB1335:
 986              	.LBI1335:
 987              		.loc 3 1162 7 view .LVU203
 988              		.loc 3 1162 7 is_stmt 0 view .LVU204
 989              	.LBE1335:
 990              	.LBE1334:
 991              	.LBB1336:
 992              	.LBI1336:
 993              		.loc 2 1529 7 is_stmt 1 view .LVU205
 994              	.LBB1337:
 995              	.LBI1337:
 996              		.loc 2 868 7 view .LVU206
 997              	.LBB1338:
 998              	.LBI1338:
 999              		.loc 3 1076 7 view .LVU207
 1000              		.loc 3 1076 7 is_stmt 0 view .LVU208
 1001              	.LBE1338:
 1002              	.LBE1337:
 1003              	.LBB1339:
 1004              	.LBI1339:
 1005              		.loc 2 949 7 is_stmt 1 view .LVU209
 1006              	.LBB1340:
 1007              	.LBI1340:
 1008              		.loc 3 1076 7 view .LVU210
 1009              		.loc 3 1076 7 is_stmt 0 view .LVU211
 1010              	.LBE1340:
 1011              	.LBE1339:
 1012              	.LBB1341:
 1013              	.LBI1341:
 1014              		.loc 3 1147 7 is_stmt 1 view .LVU212
 1015              	.LBB1342:
 1016              	.LBI1342:
 1017              		.loc 3 1076 7 view .LVU213
 1018              		.loc 3 1076 7 is_stmt 0 view .LVU214
 1019              	.LBE1342:
 1020              	.LBE1341:
 1021              	.LBB1343:
 1022              	.LBI1343:
 1023              		.file 4 "C:/devkitPro/devkitPPC/powerpc-eabi/include/c++/13.1.0/bits/vector.tcc"
 1024              		.loc 4 181 5 is_stmt 1 view .LVU215
 1025              	.LBB1344:
 1026              	.LBB1345:
 1027              	.LBI1345:
 1028              		.loc 3 1147 7 view .LVU216
 1029              	.LBB1346:
 1030              		.loc 3 1148 45 is_stmt 0 view .LVU217
 1031 0054 38830004 		addi 4,3,4
 1032              	.LVL73:
 1033              	.LBB1347:
 1034              	.LBI1347:
 1035              		.loc 3 1076 7 is_stmt 1 view .LVU218
 1036              		.loc 3 1076 7 is_stmt 0 view .LVU219
 1037              	.LBE1347:
 1038              	.LBE1346:
 1039              	.LBE1345:
 1040              	.LBB1348:
 1041              	.LBI1348:
 1042              		.loc 2 888 7 is_stmt 1 view .LVU220
 1043              	.LBB1349:
 1044              	.LBI1349:
 1045              		.loc 3 1076 7 view .LVU221
 1046              		.loc 3 1076 7 is_stmt 0 view .LVU222
 1047              	.LBE1349:
 1048              	.LBE1348:
 1049              		.loc 4 184 7 discriminator 3 view .LVU223
 1050 0058 7C045840 		cmplw 0,4,11
 1051 005c 41820028 		beq- 0,.L68
 1052              	.LVL74:
 1053              	.LBB1350:
 1054              	.LBI1350:
 1055              		.loc 3 1147 7 is_stmt 1 view .LVU224
 1056              	.LBB1351:
 1057              	.LBI1351:
 1058              		.loc 3 1076 7 view .LVU225
 1059              		.loc 3 1076 7 is_stmt 0 view .LVU226
 1060              	.LBE1351:
 1061              	.LBE1350:
 1062              	.LBB1352:
 1063              	.LBI1352:
 1064              		.loc 2 888 7 is_stmt 1 view .LVU227
 1065              	.LBB1353:
 1066              	.LBI1353:
 1067              		.loc 3 1076 7 view .LVU228
 1068              		.loc 3 1076 7 is_stmt 0 view .LVU229
 1069              	.LBE1353:
 1070              	.LBE1352:
 1071              	.LBB1354:
 1072              	.LBI1354:
 1073              		.file 5 "C:/devkitPro/devkitPPC/powerpc-eabi/include/c++/13.1.0/bits/stl_algobase.h"
 1074              		.loc 5 657 5 is_stmt 1 view .LVU230
 1075              	.LBB1355:
 1076              	.LBI1355:
 1077              		.loc 5 538 5 view .LVU231
 1078              	.LBB1356:
 1079              	.LBI1356:
 1080              		.loc 5 532 5 view .LVU232
 1081              	.LBB1357:
 1082              	.LBI1357:
 1083              		.loc 5 497 5 view .LVU233
 1084              	.LBB1358:
 1085              	.LBB1359:
 1086              	.LBI1359:
 1087              		.loc 5 433 2 view .LVU234
 1088              	.LBB1360:
 1089              		.loc 5 435 34 is_stmt 0 view .LVU235
 1090 0060 7CA45850 		subf 5,4,11
 1091              	.LVL75:
 1092              		.loc 5 436 4 discriminator 1 view .LVU236
 1093 0064 2C050004 		cmpwi 0,5,4
 1094 0068 40810030 		ble- 0,.L69
 1095 006c 7C0802A6 		mflr 0
 1096              		.cfi_register 65, 0
 1097 0070 90010014 		stw 0,20(1)
 1098              		.cfi_offset 65, 4
 1099              		.loc 5 437 23 view .LVU237
 1100 0074 48000001 		bl memmove
 1101              	.LVL76:
 1102              		.loc 5 437 23 view .LVU238
 1103 0078 80010014 		lwz 0,20(1)
 1104              	.LBE1360:
 1105              	.LBE1359:
 1106              	.LBE1358:
 1107              	.LBE1357:
 1108              	.LBE1356:
 1109              	.LBE1355:
 1110              	.LBE1354:
 1111              		.loc 4 186 23 view .LVU239
 1112 007c 817F0088 		lwz 11,136(31)
 1113              	.LBB1375:
 1114              	.LBB1373:
 1115              	.LBB1371:
 1116              	.LBB1369:
 1117              	.LBB1367:
 1118              	.LBB1365:
 1119              	.LBB1363:
 1120 0080 7C0803A6 		mtlr 0
 1121              		.cfi_restore 65
 1122              	.LVL77:
 1123              	.L68:
 1124              		.loc 4 186 23 view .LVU240
 1125              	.LBE1363:
 1126              	.LBE1365:
 1127              	.LBE1367:
 1128              	.LBE1369:
 1129              	.LBE1371:
 1130              	.LBE1373:
 1131              	.LBE1375:
 1132              		.loc 4 186 7 view .LVU241
 1133 0084 396BFFFC 		addi 11,11,-4
 1134 0088 917F0088 		stw 11,136(31)
 1135              	.LVL78:
 1136              		.loc 4 186 7 view .LVU242
 1137              	.LBE1344:
 1138              	.LBE1343:
 1139              	.LBE1336:
 1140              		.loc 1 61 4 is_stmt 1 view .LVU243
 1141              	.L64:
 1142              		.loc 1 61 4 is_stmt 0 view .LVU244
 1143              	.LBE1381:
 1144              		.loc 1 64 1 view .LVU245
 1145 008c 83E1000C 		lwz 31,12(1)
 1146              	.LVL79:
 1147              		.loc 1 64 1 view .LVU246
 1148 0090 38210010 		addi 1,1,16
 1149              		.cfi_remember_state
 1150              		.cfi_restore 31
 1151              		.cfi_def_cfa_offset 0
 1152 0094 4E800020 		blr
 1153              	.LVL80:
 1154              	.L69:
 1155              		.cfi_restore_state
 1156              	.LBB1382:
 1157              	.LBB1379:
 1158              	.LBB1378:
 1159              	.LBB1377:
 1160              	.LBB1376:
 1161              	.LBB1374:
 1162              	.LBB1372:
 1163              	.LBB1370:
 1164              	.LBB1368:
 1165              	.LBB1366:
 1166              	.LBB1364:
 1167              		.loc 5 438 9 view .LVU247
 1168 0098 4082FFEC 		bne+ 0,.L68
 1169              	.LVL81:
 1170              	.LBB1361:
 1171              	.LBI1361:
 1172              		.loc 5 422 2 is_stmt 1 view .LVU248
 1173              	.LBB1362:
 1174              		.loc 5 423 10 is_stmt 0 view .LVU249
 1175 009c 81230004 		lwz 9,4(3)
 1176              	.LVL82:
 1177              		.loc 5 423 10 view .LVU250
 1178 00a0 7D27412E 		stwx 9,7,8
 1179              	.LVL83:
 1180              		.loc 5 423 32 view .LVU251
 1181 00a4 4BFFFFE0 		b .L68
 1182              	.LBE1362:
 1183              	.LBE1361:
 1184              	.LBE1364:
 1185              	.LBE1366:
 1186              	.LBE1368:
 1187              	.LBE1370:
 1188              	.LBE1372:
 1189              	.LBE1374:
 1190              	.LBE1376:
 1191              	.LBE1377:
 1192              	.LBE1378:
 1193              	.LBE1379:
 1194              	.LBE1382:
 1195              		.cfi_endproc
 1196              	.LFE2652:
 1197              		.size	_ZN9GuiWindow6RemoveEP10GuiElement.part.0, .-_ZN9GuiWindow6RemoveEP10GuiElement.part.0
 1198              		.section	.text._ZN9GuiWindowD0Ev,"ax",@progbits
 1199              		.align 2
 1200              		.globl _ZN9GuiWindowD0Ev
 1201              		.type	_ZN9GuiWindowD0Ev, @function
 1202              	_ZN9GuiWindowD0Ev:
 1203              	.LVL84:
 1204              	.LFB2351:
 1205              		.loc 1 27 1 is_stmt 1 view -0
 1206              		.cfi_startproc
 1207              		.loc 1 27 1 is_stmt 0 view .LVU253
 1208 0000 9421FFF0 		stwu 1,-16(1)
 1209              		.cfi_def_cfa_offset 16
 1210              	.LBB1403:
 1211              	.LBB1404:
 1212              		.loc 1 27 23 view .LVU254
 1213 0004 3D200000 		lis 9,_ZTV9GuiWindow+8@ha
 1214              	.LBE1404:
 1215              	.LBE1403:
 1216              		.loc 1 27 1 view .LVU255
 1217 0008 7C0802A6 		mflr 0
 1218              	.LBB1432:
 1219              	.LBB1429:
 1220              		.loc 1 27 23 view .LVU256
 1221 000c 39290000 		la 9,_ZTV9GuiWindow+8@l(9)
 1222              	.LBE1429:
 1223              	.LBE1432:
 1224              		.loc 1 27 1 view .LVU257
 1225 0010 93E1000C 		stw 31,12(1)
 1226              		.cfi_register 65, 0
 1227              		.cfi_offset 31, -4
 1228 0014 7C7F1B78 		mr 31,3
 1229              	.LVL85:
 1230              	.LBB1433:
 1231              	.LBI1403:
 1232              		.loc 1 27 1 is_stmt 1 view .LVU258
 1233              	.LBB1430:
 1234              	.LBB1405:
 1235              	.LBB1406:
 1236              	.LBB1407:
 1237              		.loc 2 366 15 is_stmt 0 view .LVU259
 1238 0018 80630084 		lwz 3,132(3)
 1239              	.LVL86:
 1240              		.loc 2 366 15 view .LVU260
 1241              	.LBE1407:
 1242              	.LBE1406:
 1243              	.LBE1405:
 1244              	.LBE1430:
 1245              	.LBE1433:
 1246              		.loc 1 27 1 view .LVU261
 1247 001c 90010014 		stw 0,20(1)
 1248              		.cfi_offset 65, 4
 1249              	.LBB1434:
 1250              	.LBB1431:
 1251              	.LBB1427:
 1252              	.LBB1423:
 1253              	.LBB1421:
 1254              	.LBB1408:
 1255              	.LBB1409:
 1256              		.loc 2 386 2 view .LVU262
 1257 0020 2C030000 		cmpwi 0,3,0
 1258              	.LBE1409:
 1259              	.LBE1408:
 1260              	.LBE1421:
 1261              	.LBE1423:
 1262              	.LBE1427:
 1263              		.loc 1 27 23 view .LVU263
 1264 0024 913F0000 		stw 9,0(31)
 1265              	.LVL87:
 1266              	.LBB1428:
 1267              	.LBI1405:
 1268              		.loc 2 728 7 is_stmt 1 view .LVU264
 1269              	.LBB1424:
 1270              	.LBI1424:
 1271              		.loc 2 298 7 view .LVU265
 1272              		.loc 2 298 7 is_stmt 0 view .LVU266
 1273              	.LBE1424:
 1274              	.LBB1425:
 1275              	.LBI1425:
 1276              		.file 6 "C:/devkitPro/devkitPPC/powerpc-eabi/include/c++/13.1.0/bits/alloc_traits.h"
 1277              		.loc 6 944 5 is_stmt 1 view .LVU267
 1278              		.loc 6 944 5 is_stmt 0 view .LVU268
 1279              	.LBE1425:
 1280              	.LBB1426:
 1281              	.LBI1406:
 1282              		.loc 2 364 7 is_stmt 1 view .LVU269
 1283              	.LBB1422:
 1284              	.LBB1417:
 1285              	.LBI1408:
 1286              		.loc 2 383 7 view .LVU270
 1287              	.LBB1415:
 1288              		.loc 2 386 2 is_stmt 0 view .LVU271
 1289 0028 41820010 		beq- 0,.L78
 1290              	.LVL88:
 1291              	.LBB1410:
 1292              	.LBI1410:
 1293              		.loc 6 515 7 is_stmt 1 view .LVU272
 1294              	.LBB1411:
 1295              	.LBI1411:
 1296              		.file 7 "C:/devkitPro/devkitPPC/powerpc-eabi/include/c++/13.1.0/bits/new_allocator.h"
 1297              		.loc 7 152 7 view .LVU273
 1298              		.loc 7 152 7 is_stmt 0 view .LVU274
 1299              	.LBE1411:
 1300              	.LBE1410:
 1301              	.LBE1415:
 1302              	.LBE1417:
 1303              		.loc 2 367 35 view .LVU275
 1304 002c 809F008C 		lwz 4,140(31)
 1305              	.LBB1418:
 1306              	.LBB1416:
 1307              	.LBB1414:
 1308              	.LBB1413:
 1309              	.LBB1412:
 1310              		.loc 7 168 26 view .LVU276
 1311 0030 7C832050 		subf 4,3,4
 1312 0034 48000001 		bl _ZdlPvj
 1313              	.LVL89:
 1314              	.L78:
 1315              		.loc 7 168 26 view .LVU277
 1316              	.LBE1412:
 1317              	.LBE1413:
 1318              	.LBE1414:
 1319              	.LBE1416:
 1320              	.LBE1418:
 1321              	.LBB1419:
 1322              	.LBI1419:
 1323              		.loc 2 133 14 is_stmt 1 view .LVU278
 1324              	.LBB1420:
 1325              	.LBI1420:
 1326              		.file 8 "C:/devkitPro/devkitPPC/powerpc-eabi/include/c++/13.1.0/bits/allocator.h"
 1327              		.loc 8 184 7 view .LVU279
 1328              		.loc 8 184 7 is_stmt 0 view .LVU280
 1329              	.LBE1420:
 1330              	.LBE1419:
 1331              	.LBE1422:
 1332              	.LBE1426:
 1333              	.LBE1428:
 1334              		.loc 1 29 1 discriminator 1 view .LVU281
 1335 0038 7FE3FB78 		mr 3,31
 1336 003c 48000001 		bl _ZN10GuiElementD2Ev
 1337              	.LVL90:
 1338              		.loc 1 29 1 discriminator 1 view .LVU282
 1339              	.LBE1431:
 1340              	.LBE1434:
 1341              		.loc 1 29 1 view .LVU283
 1342 0040 80010014 		lwz 0,20(1)
 1343              		.loc 1 29 1 discriminator 1 view .LVU284
 1344 0044 7FE3FB78 		mr 3,31
 1345              		.loc 1 29 1 view .LVU285
 1346 0048 83E1000C 		lwz 31,12(1)
 1347              	.LVL91:
 1348              		.loc 1 29 1 discriminator 1 view .LVU286
 1349 004c 38800090 		li 4,144
 1350              		.loc 1 29 1 view .LVU287
 1351 0050 7C0803A6 		mtlr 0
 1352              		.cfi_restore 65
 1353 0054 38210010 		addi 1,1,16
 1354              		.cfi_restore 31
 1355              		.cfi_def_cfa_offset 0
 1356              		.loc 1 29 1 discriminator 1 view .LVU288
 1357 0058 48000000 		b _ZdlPvj
 1358              	.LVL92:
 1359              		.loc 1 29 1 discriminator 1 view .LVU289
 1360              		.cfi_endproc
 1361              	.LFE2351:
 1362              		.size	_ZN9GuiWindowD0Ev, .-_ZN9GuiWindowD0Ev
 1363              		.section	.text._ZN9GuiWindowD2Ev,"ax",@progbits
 1364              		.align 2
 1365              		.globl _ZN9GuiWindowD2Ev
 1366              		.type	_ZN9GuiWindowD2Ev, @function
 1367              	_ZN9GuiWindowD2Ev:
 1368              	.LVL93:
 1369              	.LFB2349:
 1370              		.loc 1 27 1 is_stmt 1 view -0
 1371              		.cfi_startproc
 1372              		.loc 1 27 1 is_stmt 0 view .LVU291
 1373 0000 9421FFF0 		stwu 1,-16(1)
 1374              		.cfi_def_cfa_offset 16
 1375              	.LBB1454:
 1376              		.loc 1 27 23 view .LVU292
 1377 0004 3D200000 		lis 9,_ZTV9GuiWindow+8@ha
 1378 0008 39290000 		la 9,_ZTV9GuiWindow+8@l(9)
 1379              	.LBE1454:
 1380              		.loc 1 27 1 view .LVU293
 1381 000c 93E1000C 		stw 31,12(1)
 1382              		.cfi_offset 31, -4
 1383 0010 7C7F1B78 		mr 31,3
 1384              	.LBB1474:
 1385              	.LBB1455:
 1386              	.LBB1456:
 1387              	.LBB1457:
 1388              		.loc 2 366 15 view .LVU294
 1389 0014 80630084 		lwz 3,132(3)
 1390              	.LVL94:
 1391              		.loc 2 366 15 view .LVU295
 1392              	.LBE1457:
 1393              	.LBE1456:
 1394              	.LBE1455:
 1395              		.loc 1 27 23 view .LVU296
 1396 0018 913F0000 		stw 9,0(31)
 1397              	.LVL95:
 1398              	.LBB1473:
 1399              	.LBI1455:
 1400              		.loc 2 728 7 is_stmt 1 view .LVU297
 1401              	.LBB1470:
 1402              	.LBI1470:
 1403              		.loc 2 298 7 view .LVU298
 1404              		.loc 2 298 7 is_stmt 0 view .LVU299
 1405              	.LBE1470:
 1406              	.LBB1471:
 1407              	.LBI1471:
 1408              		.loc 6 944 5 is_stmt 1 view .LVU300
 1409              		.loc 6 944 5 is_stmt 0 view .LVU301
 1410              	.LBE1471:
 1411              	.LBB1472:
 1412              	.LBI1456:
 1413              		.loc 2 364 7 is_stmt 1 view .LVU302
 1414              	.LBB1469:
 1415              	.LBB1458:
 1416              	.LBI1458:
 1417              		.loc 2 383 7 view .LVU303
 1418              	.LBB1459:
 1419              		.loc 2 386 2 is_stmt 0 view .LVU304
 1420 001c 2C030000 		cmpwi 0,3,0
 1421 0020 41820020 		beq- 0,.L84
 1422              	.LVL96:
 1423              	.LBB1460:
 1424              	.LBI1460:
 1425              		.loc 6 515 7 is_stmt 1 view .LVU305
 1426              	.LBB1461:
 1427              	.LBI1461:
 1428              		.loc 7 152 7 view .LVU306
 1429              		.loc 7 152 7 is_stmt 0 view .LVU307
 1430              	.LBE1461:
 1431              	.LBE1460:
 1432              	.LBE1459:
 1433              	.LBE1458:
 1434              		.loc 2 367 35 view .LVU308
 1435 0024 809F008C 		lwz 4,140(31)
 1436 0028 7C0802A6 		mflr 0
 1437              		.cfi_register 65, 0
 1438 002c 90010014 		stw 0,20(1)
 1439              		.cfi_offset 65, 4
 1440              	.LBB1466:
 1441              	.LBB1465:
 1442              	.LBB1464:
 1443              	.LBB1463:
 1444              	.LBB1462:
 1445              		.loc 7 168 26 view .LVU309
 1446 0030 7C832050 		subf 4,3,4
 1447 0034 48000001 		bl _ZdlPvj
 1448              	.LVL97:
 1449              		.loc 7 168 26 view .LVU310
 1450 0038 80010014 		lwz 0,20(1)
 1451 003c 7C0803A6 		mtlr 0
 1452              		.cfi_restore 65
 1453              	.L84:
 1454              	.LVL98:
 1455              		.loc 7 168 26 view .LVU311
 1456              	.LBE1462:
 1457              	.LBE1463:
 1458              	.LBE1464:
 1459              	.LBE1465:
 1460              	.LBE1466:
 1461              	.LBB1467:
 1462              	.LBI1467:
 1463              		.loc 2 133 14 is_stmt 1 view .LVU312
 1464              	.LBB1468:
 1465              	.LBI1468:
 1466              		.loc 8 184 7 view .LVU313
 1467              		.loc 8 184 7 is_stmt 0 view .LVU314
 1468              	.LBE1468:
 1469              	.LBE1467:
 1470              	.LBE1469:
 1471              	.LBE1472:
 1472              	.LBE1473:
 1473              		.loc 1 29 1 discriminator 1 view .LVU315
 1474 0040 7FE3FB78 		mr 3,31
 1475              	.LBE1474:
 1476              		.loc 1 29 1 view .LVU316
 1477 0044 83E1000C 		lwz 31,12(1)
 1478              	.LVL99:
 1479              		.loc 1 29 1 view .LVU317
 1480 0048 38210010 		addi 1,1,16
 1481              		.cfi_restore 31
 1482              		.cfi_def_cfa_offset 0
 1483              	.LBB1475:
 1484              		.loc 1 29 1 discriminator 1 view .LVU318
 1485 004c 48000000 		b _ZN10GuiElementD2Ev
 1486              	.LVL100:
 1487              		.loc 1 29 1 discriminator 1 view .LVU319
 1488              	.LBE1475:
 1489              		.cfi_endproc
 1490              	.LFE2349:
 1491              		.size	_ZN9GuiWindowD2Ev, .-_ZN9GuiWindowD2Ev
 1492              		.globl _ZN9GuiWindowD1Ev
 1493              		.set	_ZN9GuiWindowD1Ev,_ZN9GuiWindowD2Ev
 1494              		.section	.text._ZN9GuiWindowC2Ev,"ax",@progbits
 1495              		.align 2
 1496              		.globl _ZN9GuiWindowC2Ev
 1497              		.type	_ZN9GuiWindowC2Ev, @function
 1498              	_ZN9GuiWindowC2Ev:
 1499              	.LVL101:
 1500              	.LFB2343:
 1501              		.loc 1 13 1 is_stmt 1 view -0
 1502              		.cfi_startproc
 1503              		.loc 1 13 1 is_stmt 0 view .LVU321
 1504 0000 9421FFF0 		stwu 1,-16(1)
 1505              		.cfi_def_cfa_offset 16
 1506 0004 7C0802A6 		mflr 0
 1507 0008 93E1000C 		stw 31,12(1)
 1508              		.cfi_register 65, 0
 1509              		.cfi_offset 31, -4
 1510 000c 7C7F1B78 		mr 31,3
 1511 0010 90010014 		stw 0,20(1)
 1512              		.cfi_offset 65, 4
 1513              	.LBB1476:
 1514              		.loc 1 13 22 view .LVU322
 1515 0014 48000001 		bl _ZN10GuiElementC2Ev
 1516              	.LVL102:
 1517              		.loc 1 13 22 view .LVU323
 1518              	.LBE1476:
 1519              		.loc 1 18 1 view .LVU324
 1520 0018 80010014 		lwz 0,20(1)
 1521              	.LBB1494:
 1522              		.loc 1 13 22 discriminator 1 view .LVU325
 1523 001c 3D400000 		lis 10,_ZTV9GuiWindow+8@ha
 1524              	.LBB1477:
 1525              	.LBB1478:
 1526              	.LBB1479:
 1527              	.LBB1480:
 1528              	.LBB1481:
 1529              		.loc 2 100 4 view .LVU326
 1530 0020 39200000 		li 9,0
 1531              	.LBE1481:
 1532              	.LBE1480:
 1533              	.LBE1479:
 1534              	.LBE1478:
 1535              	.LBE1477:
 1536              		.loc 1 13 22 discriminator 1 view .LVU327
 1537 0024 394A0000 		la 10,_ZTV9GuiWindow+8@l(10)
 1538              	.LBB1492:
 1539              	.LBB1490:
 1540              	.LBB1488:
 1541              	.LBB1484:
 1542              	.LBB1482:
 1543              		.loc 2 100 4 view .LVU328
 1544 0028 913F0084 		stw 9,132(31)
 1545              	.LBE1482:
 1546              	.LBE1484:
 1547              	.LBE1488:
 1548              	.LBE1490:
 1549              	.LBE1492:
 1550              	.LBE1494:
 1551              		.loc 1 18 1 view .LVU329
 1552 002c 7C0803A6 		mtlr 0
 1553              		.cfi_restore 65
 1554              	.LBB1495:
 1555              		.loc 1 13 22 discriminator 1 view .LVU330
 1556 0030 915F0000 		stw 10,0(31)
 1557              	.LVL103:
 1558              	.LBB1493:
 1559              	.LBI1477:
 1560              		.loc 2 526 7 is_stmt 1 view .LVU331
 1561              	.LBB1491:
 1562              	.LBI1478:
 1563              		.loc 2 312 7 view .LVU332
 1564              	.LBB1489:
 1565              	.LBI1479:
 1566              		.loc 2 137 2 view .LVU333
 1567              	.LBB1485:
 1568              	.LBI1485:
 1569              		.loc 8 163 7 view .LVU334
 1570              	.LBB1486:
 1571              	.LBI1486:
 1572              		.loc 7 88 7 view .LVU335
 1573              		.loc 7 88 7 is_stmt 0 view .LVU336
 1574              	.LBE1486:
 1575              	.LBE1485:
 1576              	.LBB1487:
 1577              	.LBI1480:
 1578              		.loc 2 99 2 is_stmt 1 view .LVU337
 1579              	.LBB1483:
 1580              		.loc 2 100 16 is_stmt 0 view .LVU338
 1581 0034 913F0088 		stw 9,136(31)
 1582              		.loc 2 100 29 view .LVU339
 1583 0038 913F008C 		stw 9,140(31)
 1584              	.LVL104:
 1585              		.loc 2 100 29 view .LVU340
 1586              	.LBE1483:
 1587              	.LBE1487:
 1588              	.LBE1489:
 1589              	.LBE1491:
 1590              	.LBE1493:
 1591              		.loc 1 15 2 is_stmt 1 view .LVU341
 1592              		.loc 1 15 8 is_stmt 0 view .LVU342
 1593 003c 913F000C 		stw 9,12(31)
 1594              		.loc 1 16 2 is_stmt 1 view .LVU343
 1595              		.loc 1 16 9 is_stmt 0 view .LVU344
 1596 0040 913F0010 		stw 9,16(31)
 1597              		.loc 1 17 2 is_stmt 1 view .LVU345
 1598              		.loc 1 17 8 is_stmt 0 view .LVU346
 1599 0044 913F0008 		stw 9,8(31)
 1600              	.LBE1495:
 1601              		.loc 1 18 1 view .LVU347
 1602 0048 83E1000C 		lwz 31,12(1)
 1603              	.LVL105:
 1604              		.loc 1 18 1 view .LVU348
 1605 004c 38210010 		addi 1,1,16
 1606              		.cfi_restore 31
 1607              		.cfi_def_cfa_offset 0
 1608 0050 4E800020 		blr
 1609              		.cfi_endproc
 1610              	.LFE2343:
 1611              		.size	_ZN9GuiWindowC2Ev, .-_ZN9GuiWindowC2Ev
 1612              		.globl _ZN9GuiWindowC1Ev
 1613              		.set	_ZN9GuiWindowC1Ev,_ZN9GuiWindowC2Ev
 1614              		.section	.text._ZN9GuiWindowC2Eii,"ax",@progbits
 1615              		.align 2
 1616              		.globl _ZN9GuiWindowC2Eii
 1617              		.type	_ZN9GuiWindowC2Eii, @function
 1618              	_ZN9GuiWindowC2Eii:
 1619              	.LVL106:
 1620              	.LFB2346:
 1621              		.loc 1 20 1 is_stmt 1 view -0
 1622              		.cfi_startproc
 1623              		.loc 1 20 1 is_stmt 0 view .LVU350
 1624 0000 9421FFE8 		stwu 1,-24(1)
 1625              		.cfi_def_cfa_offset 24
 1626 0004 7C0802A6 		mflr 0
 1627 0008 93A1000C 		stw 29,12(1)
 1628              		.cfi_register 65, 0
 1629              		.cfi_offset 29, -12
 1630 000c 7C9D2378 		mr 29,4
 1631 0010 93C10010 		stw 30,16(1)
 1632              		.cfi_offset 30, -8
 1633 0014 7CBE2B78 		mr 30,5
 1634 0018 93E10014 		stw 31,20(1)
 1635              		.cfi_offset 31, -4
 1636 001c 7C7F1B78 		mr 31,3
 1637 0020 9001001C 		stw 0,28(1)
 1638              		.cfi_offset 65, 4
 1639              	.LBB1496:
 1640              		.loc 1 20 34 view .LVU351
 1641 0024 48000001 		bl _ZN10GuiElementC2Ev
 1642              	.LVL107:
 1643              		.loc 1 20 34 view .LVU352
 1644              	.LBE1496:
 1645              		.loc 1 25 1 view .LVU353
 1646 0028 8001001C 		lwz 0,28(1)
 1647              	.LBB1509:
 1648              		.loc 1 20 34 discriminator 1 view .LVU354
 1649 002c 3D400000 		lis 10,_ZTV9GuiWindow+8@ha
 1650              	.LBB1497:
 1651              	.LBB1498:
 1652              	.LBB1499:
 1653              	.LBB1500:
 1654              	.LBB1501:
 1655              		.loc 2 100 4 view .LVU355
 1656 0030 39200000 		li 9,0
 1657              	.LBE1501:
 1658              	.LBE1500:
 1659              	.LBE1499:
 1660              	.LBE1498:
 1661              	.LBE1497:
 1662              		.loc 1 20 34 discriminator 1 view .LVU356
 1663 0034 394A0000 		la 10,_ZTV9GuiWindow+8@l(10)
 1664              		.loc 1 22 8 view .LVU357
 1665 0038 93BF000C 		stw 29,12(31)
 1666              	.LBE1509:
 1667              		.loc 1 25 1 view .LVU358
 1668 003c 7C0803A6 		mtlr 0
 1669              		.cfi_restore 65
 1670              	.LBB1510:
 1671              		.loc 1 23 9 view .LVU359
 1672 0040 93DF0010 		stw 30,16(31)
 1673              		.loc 1 20 34 discriminator 1 view .LVU360
 1674 0044 915F0000 		stw 10,0(31)
 1675              	.LVL108:
 1676              	.LBB1508:
 1677              	.LBI1497:
 1678              		.loc 2 526 7 is_stmt 1 view .LVU361
 1679              	.LBB1507:
 1680              	.LBI1498:
 1681              		.loc 2 312 7 view .LVU362
 1682              	.LBB1506:
 1683              	.LBI1499:
 1684              		.loc 2 137 2 view .LVU363
 1685              	.LBB1503:
 1686              	.LBI1503:
 1687              		.loc 8 163 7 view .LVU364
 1688              	.LBB1504:
 1689              	.LBI1504:
 1690              		.loc 7 88 7 view .LVU365
 1691              		.loc 7 88 7 is_stmt 0 view .LVU366
 1692              	.LBE1504:
 1693              	.LBE1503:
 1694              	.LBB1505:
 1695              	.LBI1500:
 1696              		.loc 2 99 2 is_stmt 1 view .LVU367
 1697              	.LBB1502:
 1698              		.loc 2 100 4 is_stmt 0 view .LVU368
 1699 0048 913F0084 		stw 9,132(31)
 1700              		.loc 2 100 16 view .LVU369
 1701 004c 913F0088 		stw 9,136(31)
 1702              		.loc 2 100 29 view .LVU370
 1703 0050 913F008C 		stw 9,140(31)
 1704              	.LVL109:
 1705              		.loc 2 100 29 view .LVU371
 1706              	.LBE1502:
 1707              	.LBE1505:
 1708              	.LBE1506:
 1709              	.LBE1507:
 1710              	.LBE1508:
 1711              		.loc 1 22 2 is_stmt 1 view .LVU372
 1712              		.loc 1 23 2 view .LVU373
 1713              		.loc 1 24 2 view .LVU374
 1714              		.loc 1 24 8 is_stmt 0 view .LVU375
 1715 0054 913F0008 		stw 9,8(31)
 1716              	.LBE1510:
 1717              		.loc 1 25 1 view .LVU376
 1718 0058 83A1000C 		lwz 29,12(1)
 1719              	.LVL110:
 1720              		.loc 1 25 1 view .LVU377
 1721 005c 83C10010 		lwz 30,16(1)
 1722              	.LVL111:
 1723              		.loc 1 25 1 view .LVU378
 1724 0060 83E10014 		lwz 31,20(1)
 1725              	.LVL112:
 1726              		.loc 1 25 1 view .LVU379
 1727 0064 38210018 		addi 1,1,24
 1728              		.cfi_restore 31
 1729              		.cfi_restore 30
 1730              		.cfi_restore 29
 1731              		.cfi_def_cfa_offset 0
 1732 0068 4E800020 		blr
 1733              		.cfi_endproc
 1734              	.LFE2346:
 1735              		.size	_ZN9GuiWindowC2Eii, .-_ZN9GuiWindowC2Eii
 1736              		.globl _ZN9GuiWindowC1Eii
 1737              		.set	_ZN9GuiWindowC1Eii,_ZN9GuiWindowC2Eii
 1738              		.section	.text._ZN9GuiWindow6RemoveEP10GuiElement,"ax",@progbits
 1739              		.align 2
 1740              		.globl _ZN9GuiWindow6RemoveEP10GuiElement
 1741              		.type	_ZN9GuiWindow6RemoveEP10GuiElement, @function
 1742              	_ZN9GuiWindow6RemoveEP10GuiElement:
 1743              	.LVL113:
 1744              	.LFB2354:
 1745              		.loc 1 52 1 is_stmt 1 view -0
 1746              		.cfi_startproc
 1747              		.loc 1 53 2 view .LVU381
 1748 0000 2C040000 		cmpwi 0,4,0
 1749              		.loc 1 53 2 is_stmt 0 view .LVU382
 1750 0004 4D820020 		beqlr- 0
 1751              	.LBB1587:
 1752              	.LBB1588:
 1753              	.LBB1589:
 1754              	.LBB1590:
 1755              		.loc 2 988 40 view .LVU383
 1756 0008 81630088 		lwz 11,136(3)
 1757              		.loc 2 988 66 view .LVU384
 1758 000c 80E30084 		lwz 7,132(3)
 1759              	.LBE1590:
 1760              	.LBE1589:
 1761              	.LBE1588:
 1762              	.LBE1587:
 1763              		.loc 1 52 1 view .LVU385
 1764 0010 9421FFF0 		stwu 1,-16(1)
 1765              		.cfi_def_cfa_offset 16
 1766              	.LBB1658:
 1767              	.LBB1655:
 1768              		.loc 1 56 19 discriminator 1 view .LVU386
 1769 0014 7C0B3840 		cmplw 0,11,7
 1770              	.LBB1593:
 1771              	.LBB1591:
 1772              		.loc 2 988 50 view .LVU387
 1773 0018 7CA75850 		subf 5,7,11
 1774              	.LBE1591:
 1775              	.LBE1593:
 1776              	.LBE1655:
 1777              	.LBE1658:
 1778              		.loc 1 52 1 view .LVU388
 1779 001c 93E1000C 		stw 31,12(1)
 1780              	.LBB1659:
 1781              	.LBB1656:
 1782              	.LBB1594:
 1783              	.LBB1592:
 1784              		.loc 2 988 50 view .LVU389
 1785 0020 7CA51670 		srawi 5,5,2
 1786              		.cfi_offset 31, -4
 1787 0024 7C7F1B78 		mr 31,3
 1788              	.LVL114:
 1789              		.loc 2 988 50 view .LVU390
 1790              	.LBE1592:
 1791              	.LBE1594:
 1792              		.loc 1 56 19 is_stmt 1 discriminator 1 view .LVU391
 1793              	.LBB1595:
 1794              	.LBI1589:
 1795              		.loc 2 987 7 view .LVU392
 1796              		.loc 2 987 7 is_stmt 0 view .LVU393
 1797              	.LBE1595:
 1798              		.loc 1 56 19 discriminator 1 view .LVU394
 1799 0028 4182006C 		beq- 0,.L93
 1800              		.loc 1 56 10 view .LVU395
 1801 002c 39200000 		li 9,0
 1802              		.loc 1 56 17 discriminator 1 view .LVU396
 1803 0030 39400000 		li 10,0
 1804 0034 48000008 		b .L100
 1805              	.LVL115:
 1806              	.L95:
 1807              		.loc 1 56 19 discriminator 1 view .LVU397
 1808 0038 409C005C 		bge- 7,.L93
 1809              	.LVL116:
 1810              	.L100:
 1811              		.loc 1 58 3 is_stmt 1 view .LVU398
 1812              	.LBB1596:
 1813              	.LBI1596:
 1814              		.loc 2 1173 7 view .LVU399
 1815              	.LBB1597:
 1816              	.LBI1597:
 1817              		.loc 2 1121 7 view .LVU400
 1818              	.LBE1597:
 1819              	.LBE1596:
 1820              		.loc 1 56 2 discriminator 2 view .LVU401
 1821              	.LBB1602:
 1822              	.LBB1600:
 1823              	.LBB1598:
 1824              		.loc 2 1124 34 is_stmt 0 view .LVU402
 1825 003c 5548103A 		slwi 8,10,2
 1826              	.LBE1598:
 1827              	.LBE1600:
 1828              	.LBE1602:
 1829              		.loc 1 56 2 discriminator 2 view .LVU403
 1830 0040 39290001 		addi 9,9,1
 1831              	.LVL117:
 1832              		.loc 1 58 3 discriminator 1 view .LVU404
 1833 0044 7CC7402E 		lwzx 6,7,8
 1834              		.loc 1 56 17 discriminator 1 view .LVU405
 1835 0048 552A063E 		rlwinm 10,9,0,0xff
 1836              	.LVL118:
 1837              		.loc 1 56 19 discriminator 1 view .LVU406
 1838 004c 7F8A2840 		cmplw 7,10,5
 1839              	.LBB1603:
 1840              	.LBB1601:
 1841              	.LBB1599:
 1842              		.loc 2 1124 39 view .LVU407
 1843 0050 7C674214 		add 3,7,8
 1844              	.LVL119:
 1845              		.loc 2 1124 39 view .LVU408
 1846              	.LBE1599:
 1847              	.LBE1601:
 1848              	.LBE1603:
 1849              		.loc 1 58 3 discriminator 1 view .LVU409
 1850 0054 7C043000 		cmpw 0,4,6
 1851              		.loc 1 56 19 is_stmt 1 discriminator 1 view .LVU410
 1852              	.LVL120:
 1853              	.LBB1604:
 1854              		.loc 2 987 7 view .LVU411
 1855              		.loc 2 987 7 is_stmt 0 view .LVU412
 1856              	.LBE1604:
 1857              		.loc 1 58 3 discriminator 1 view .LVU413
 1858 0058 4082FFE0 		bne+ 0,.L95
 1859              		.loc 1 60 4 is_stmt 1 view .LVU414
 1860              	.LVL121:
 1861              	.LBB1605:
 1862              	.LBI1605:
 1863              		.loc 2 868 7 view .LVU415
 1864              	.LBB1606:
 1865              	.LBI1606:
 1866              		.loc 3 1076 7 view .LVU416
 1867              		.loc 3 1076 7 is_stmt 0 view .LVU417
 1868              	.LBE1606:
 1869              	.LBE1605:
 1870              	.LBB1607:
 1871              	.LBI1607:
 1872              		.loc 3 1147 7 is_stmt 1 view .LVU418
 1873              	.LBB1608:
 1874              	.LBI1608:
 1875              		.loc 3 1076 7 view .LVU419
 1876              		.loc 3 1076 7 is_stmt 0 view .LVU420
 1877              	.LBE1608:
 1878              	.LBE1607:
 1879              	.LBB1609:
 1880              	.LBI1609:
 1881              		.loc 3 1083 2 is_stmt 1 view .LVU421
 1882              	.LBB1610:
 1883              	.LBI1610:
 1884              		.loc 3 1162 7 view .LVU422
 1885              		.loc 3 1162 7 is_stmt 0 view .LVU423
 1886              	.LBE1610:
 1887              	.LBE1609:
 1888              	.LBB1611:
 1889              	.LBI1611:
 1890              		.loc 2 1529 7 is_stmt 1 view .LVU424
 1891              	.LBB1612:
 1892              	.LBI1612:
 1893              		.loc 2 868 7 view .LVU425
 1894              	.LBB1613:
 1895              	.LBI1613:
 1896              		.loc 3 1076 7 view .LVU426
 1897              		.loc 3 1076 7 is_stmt 0 view .LVU427
 1898              	.LBE1613:
 1899              	.LBE1612:
 1900              	.LBB1614:
 1901              	.LBI1614:
 1902              		.loc 2 949 7 is_stmt 1 view .LVU428
 1903              	.LBB1615:
 1904              	.LBI1615:
 1905              		.loc 3 1076 7 view .LVU429
 1906              		.loc 3 1076 7 is_stmt 0 view .LVU430
 1907              	.LBE1615:
 1908              	.LBE1614:
 1909              	.LBB1616:
 1910              	.LBI1616:
 1911              		.loc 3 1147 7 is_stmt 1 view .LVU431
 1912              	.LBB1617:
 1913              	.LBI1617:
 1914              		.loc 3 1076 7 view .LVU432
 1915              		.loc 3 1076 7 is_stmt 0 view .LVU433
 1916              	.LBE1617:
 1917              	.LBE1616:
 1918              	.LBB1618:
 1919              	.LBI1618:
 1920              		.loc 4 181 5 is_stmt 1 view .LVU434
 1921              	.LBB1619:
 1922              	.LBB1620:
 1923              	.LBI1620:
 1924              		.loc 3 1147 7 view .LVU435
 1925              	.LBB1621:
 1926              		.loc 3 1148 45 is_stmt 0 view .LVU436
 1927 005c 38830004 		addi 4,3,4
 1928              	.LVL122:
 1929              	.LBB1622:
 1930              	.LBI1622:
 1931              		.loc 3 1076 7 is_stmt 1 view .LVU437
 1932              		.loc 3 1076 7 is_stmt 0 view .LVU438
 1933              	.LBE1622:
 1934              	.LBE1621:
 1935              	.LBE1620:
 1936              	.LBB1623:
 1937              	.LBI1623:
 1938              		.loc 2 888 7 is_stmt 1 view .LVU439
 1939              	.LBB1624:
 1940              	.LBI1624:
 1941              		.loc 3 1076 7 view .LVU440
 1942              		.loc 3 1076 7 is_stmt 0 view .LVU441
 1943              	.LBE1624:
 1944              	.LBE1623:
 1945              		.loc 4 184 7 discriminator 3 view .LVU442
 1946 0060 7C0B2040 		cmplw 0,11,4
 1947 0064 41820028 		beq- 0,.L97
 1948              	.LVL123:
 1949              	.LBB1625:
 1950              	.LBI1625:
 1951              		.loc 3 1147 7 is_stmt 1 view .LVU443
 1952              	.LBB1626:
 1953              	.LBI1626:
 1954              		.loc 3 1076 7 view .LVU444
 1955              		.loc 3 1076 7 is_stmt 0 view .LVU445
 1956              	.LBE1626:
 1957              	.LBE1625:
 1958              	.LBB1627:
 1959              	.LBI1627:
 1960              		.loc 2 888 7 is_stmt 1 view .LVU446
 1961              	.LBB1628:
 1962              	.LBI1628:
 1963              		.loc 3 1076 7 view .LVU447
 1964              		.loc 3 1076 7 is_stmt 0 view .LVU448
 1965              	.LBE1628:
 1966              	.LBE1627:
 1967              	.LBB1629:
 1968              	.LBI1629:
 1969              		.loc 5 657 5 is_stmt 1 view .LVU449
 1970              	.LBB1630:
 1971              	.LBI1630:
 1972              		.loc 5 538 5 view .LVU450
 1973              	.LBB1631:
 1974              	.LBI1631:
 1975              		.loc 5 532 5 view .LVU451
 1976              	.LBB1632:
 1977              	.LBI1632:
 1978              		.loc 5 497 5 view .LVU452
 1979              	.LBB1633:
 1980              	.LBB1634:
 1981              	.LBI1634:
 1982              		.loc 5 433 2 view .LVU453
 1983              	.LBB1635:
 1984              		.loc 5 435 34 is_stmt 0 view .LVU454
 1985 0068 7CA45850 		subf 5,4,11
 1986              	.LVL124:
 1987              		.loc 5 436 4 discriminator 1 view .LVU455
 1988 006c 2C050004 		cmpwi 0,5,4
 1989 0070 40810030 		ble- 0,.L98
 1990 0074 7C0802A6 		mflr 0
 1991              		.cfi_register 65, 0
 1992 0078 90010014 		stw 0,20(1)
 1993              		.cfi_offset 65, 4
 1994              		.loc 5 437 23 view .LVU456
 1995 007c 48000001 		bl memmove
 1996              	.LVL125:
 1997              		.loc 5 437 23 view .LVU457
 1998 0080 80010014 		lwz 0,20(1)
 1999              	.LBE1635:
 2000              	.LBE1634:
 2001              	.LBE1633:
 2002              	.LBE1632:
 2003              	.LBE1631:
 2004              	.LBE1630:
 2005              	.LBE1629:
 2006              		.loc 4 186 23 view .LVU458
 2007 0084 817F0088 		lwz 11,136(31)
 2008              	.LBB1650:
 2009              	.LBB1648:
 2010              	.LBB1646:
 2011              	.LBB1644:
 2012              	.LBB1642:
 2013              	.LBB1640:
 2014              	.LBB1638:
 2015 0088 7C0803A6 		mtlr 0
 2016              		.cfi_restore 65
 2017              	.LVL126:
 2018              	.L97:
 2019              		.loc 4 186 23 view .LVU459
 2020              	.LBE1638:
 2021              	.LBE1640:
 2022              	.LBE1642:
 2023              	.LBE1644:
 2024              	.LBE1646:
 2025              	.LBE1648:
 2026              	.LBE1650:
 2027              		.loc 4 186 7 view .LVU460
 2028 008c 396BFFFC 		addi 11,11,-4
 2029 0090 917F0088 		stw 11,136(31)
 2030              	.LVL127:
 2031              		.loc 4 186 7 view .LVU461
 2032              	.LBE1619:
 2033              	.LBE1618:
 2034              	.LBE1611:
 2035              		.loc 1 61 4 is_stmt 1 view .LVU462
 2036              	.L93:
 2037              		.loc 1 61 4 is_stmt 0 view .LVU463
 2038              	.LBE1656:
 2039              	.LBE1659:
 2040              		.loc 1 64 1 view .LVU464
 2041 0094 83E1000C 		lwz 31,12(1)
 2042              	.LVL128:
 2043              		.loc 1 64 1 view .LVU465
 2044 0098 38210010 		addi 1,1,16
 2045              		.cfi_remember_state
 2046              		.cfi_restore 31
 2047              		.cfi_def_cfa_offset 0
 2048 009c 4E800020 		blr
 2049              	.LVL129:
 2050              	.L98:
 2051              		.cfi_restore_state
 2052              	.LBB1660:
 2053              	.LBB1657:
 2054              	.LBB1654:
 2055              	.LBB1653:
 2056              	.LBB1652:
 2057              	.LBB1651:
 2058              	.LBB1649:
 2059              	.LBB1647:
 2060              	.LBB1645:
 2061              	.LBB1643:
 2062              	.LBB1641:
 2063              	.LBB1639:
 2064              		.loc 5 438 9 view .LVU466
 2065 00a0 4082FFEC 		bne+ 0,.L97
 2066              	.LVL130:
 2067              	.LBB1636:
 2068              	.LBI1636:
 2069              		.loc 5 422 2 is_stmt 1 view .LVU467
 2070              	.LBB1637:
 2071              		.loc 5 423 10 is_stmt 0 view .LVU468
 2072 00a4 81230004 		lwz 9,4(3)
 2073              	.LVL131:
 2074              		.loc 5 423 10 view .LVU469
 2075 00a8 7D27412E 		stwx 9,7,8
 2076              	.LVL132:
 2077              		.loc 5 423 32 view .LVU470
 2078 00ac 4BFFFFE0 		b .L97
 2079              	.LBE1637:
 2080              	.LBE1636:
 2081              	.LBE1639:
 2082              	.LBE1641:
 2083              	.LBE1643:
 2084              	.LBE1645:
 2085              	.LBE1647:
 2086              	.LBE1649:
 2087              	.LBE1651:
 2088              	.LBE1652:
 2089              	.LBE1653:
 2090              	.LBE1654:
 2091              	.LBE1657:
 2092              	.LBE1660:
 2093              		.cfi_endproc
 2094              	.LFE2354:
 2095              		.size	_ZN9GuiWindow6RemoveEP10GuiElement, .-_ZN9GuiWindow6RemoveEP10GuiElement
 2096              		.section	.text._ZN9GuiWindow9RemoveAllEv,"ax",@progbits
 2097              		.align 2
 2098              		.globl _ZN9GuiWindow9RemoveAllEv
 2099              		.type	_ZN9GuiWindow9RemoveAllEv, @function
 2100              	_ZN9GuiWindow9RemoveAllEv:
 2101              	.LVL133:
 2102              	.LFB2355:
 2103              		.loc 1 67 1 is_stmt 1 view -0
 2104              		.cfi_startproc
 2105              		.loc 1 68 2 view .LVU472
 2106              	.LBB1669:
 2107              	.LBI1669:
 2108              		.loc 2 1600 7 view .LVU473
 2109              	.LBB1670:
 2110              		.loc 2 1601 24 is_stmt 0 view .LVU474
 2111 0000 81230084 		lwz 9,132(3)
 2112              	.LVL134:
 2113              	.LBB1671:
 2114              	.LBI1671:
 2115              		.loc 2 1928 7 is_stmt 1 view .LVU475
 2116              	.LBB1672:
 2117              		.loc 2 1930 2 is_stmt 0 view .LVU476
 2118 0004 81430088 		lwz 10,136(3)
 2119 0008 7C095000 		cmpw 0,9,10
 2120 000c 4D820020 		beqlr- 0
 2121              		.loc 2 1934 30 view .LVU477
 2122 0010 91230088 		stw 9,136(3)
 2123              	.LVL135:
 2124              		.loc 2 1934 30 view .LVU478
 2125              	.LBE1672:
 2126              	.LBE1671:
 2127              	.LBE1670:
 2128              	.LBE1669:
 2129              		.loc 1 69 1 view .LVU479
 2130 0014 4E800020 		blr
 2131              		.cfi_endproc
 2132              	.LFE2355:
 2133              		.size	_ZN9GuiWindow9RemoveAllEv, .-_ZN9GuiWindow9RemoveAllEv
 2134              		.section	.text._ZNK9GuiWindow15GetGuiElementAtEj,"ax",@progbits
 2135              		.align 2
 2136              		.globl _ZNK9GuiWindow15GetGuiElementAtEj
 2137              		.type	_ZNK9GuiWindow15GetGuiElementAtEj, @function
 2138              	_ZNK9GuiWindow15GetGuiElementAtEj:
 2139              	.LVL136:
 2140              	.LFB2356:
 2141              		.loc 1 72 1 is_stmt 1 view -0
 2142              		.cfi_startproc
 2143              		.loc 1 73 2 view .LVU481
 2144              	.LBB1673:
 2145              	.LBI1673:
 2146              		.loc 2 987 7 view .LVU482
 2147              	.LBB1674:
 2148              		.loc 2 988 66 is_stmt 0 view .LVU483
 2149 0000 81430084 		lwz 10,132(3)
 2150              	.LVL137:
 2151              		.loc 2 988 50 view .LVU484
 2152 0004 81230088 		lwz 9,136(3)
 2153 0008 7D2A4850 		subf 9,10,9
 2154 000c 7D291670 		srawi 9,9,2
 2155              	.LBE1674:
 2156              	.LBE1673:
 2157              		.loc 1 73 2 discriminator 1 view .LVU485
 2158 0010 7C044840 		cmplw 0,4,9
 2159 0014 40800010 		bge- 0,.L113
 2160              		.loc 1 75 2 is_stmt 1 view .LVU486
 2161              	.LVL138:
 2162              	.LBB1675:
 2163              	.LBI1675:
 2164              		.loc 2 1192 7 view .LVU487
 2165              	.LBB1676:
 2166              	.LBI1676:
 2167              		.loc 2 1140 7 view .LVU488
 2168              		.loc 2 1140 7 is_stmt 0 view .LVU489
 2169              	.LBE1676:
 2170              	.LBE1675:
 2171              		.loc 1 75 27 discriminator 1 view .LVU490
 2172 0018 5484103A 		slwi 4,4,2
 2173              	.LVL139:
 2174              		.loc 1 75 27 discriminator 1 view .LVU491
 2175 001c 7C6A202E 		lwzx 3,10,4
 2176              	.LVL140:
 2177              		.loc 1 75 27 view .LVU492
 2178 0020 4E800020 		blr
 2179              	.LVL141:
 2180              	.L113:
 2181              		.loc 1 74 10 view .LVU493
 2182 0024 38600000 		li 3,0
 2183              	.LVL142:
 2184              		.loc 1 76 1 view .LVU494
 2185 0028 4E800020 		blr
 2186              		.cfi_endproc
 2187              	.LFE2356:
 2188              		.size	_ZNK9GuiWindow15GetGuiElementAtEj, .-_ZNK9GuiWindow15GetGuiElementAtEj
 2189              		.section	.text._ZN9GuiWindow7GetSizeEv,"ax",@progbits
 2190              		.align 2
 2191              		.globl _ZN9GuiWindow7GetSizeEv
 2192              		.type	_ZN9GuiWindow7GetSizeEv, @function
 2193              	_ZN9GuiWindow7GetSizeEv:
 2194              	.LVL143:
 2195              	.LFB2357:
 2196              		.loc 1 79 1 is_stmt 1 view -0
 2197              		.cfi_startproc
 2198              		.loc 1 80 2 view .LVU496
 2199              	.LBB1677:
 2200              	.LBI1677:
 2201              		.loc 2 987 7 view .LVU497
 2202              	.LBB1678:
 2203              		.loc 2 988 50 is_stmt 0 view .LVU498
 2204 0000 81230088 		lwz 9,136(3)
 2205 0004 80630084 		lwz 3,132(3)
 2206              	.LVL144:
 2207              		.loc 2 988 50 view .LVU499
 2208 0008 7C634850 		subf 3,3,9
 2209              	.LBE1678:
 2210              	.LBE1677:
 2211              		.loc 1 81 1 view .LVU500
 2212 000c 7C631670 		srawi 3,3,2
 2213 0010 4E800020 		blr
 2214              		.cfi_endproc
 2215              	.LFE2357:
 2216              		.size	_ZN9GuiWindow7GetSizeEv, .-_ZN9GuiWindow7GetSizeEv
 2217              		.section	.text._ZN9GuiWindow8SetStateEi,"ax",@progbits
 2218              		.align 2
 2219              		.globl _ZN9GuiWindow8SetStateEi
 2220              		.type	_ZN9GuiWindow8SetStateEi, @function
 2221              	_ZN9GuiWindow8SetStateEi:
 2222              	.LVL145:
 2223              	.LFB2360:
 2224              		.loc 1 113 1 is_stmt 1 view -0
 2225              		.cfi_startproc
 2226              		.cfi_personality 0,__gxx_personality_v0
 2227              		.cfi_lsda 0,.LLSDA2360
 2228              		.loc 1 114 2 view .LVU502
 2229              	.LBB1679:
 2230              	.LBB1680:
 2231              	.LBB1681:
 2232              		.loc 2 988 66 is_stmt 0 view .LVU503
 2233 0000 80E30084 		lwz 7,132(3)
 2234              	.LBE1681:
 2235              	.LBE1680:
 2236              		.loc 1 116 19 discriminator 1 view .LVU504
 2237 0004 81230088 		lwz 9,136(3)
 2238              	.LBE1679:
 2239              		.loc 1 113 1 view .LVU505
 2240 0008 9421FFE8 		stwu 1,-24(1)
 2241              		.cfi_def_cfa_offset 24
 2242              	.LBB1694:
 2243              		.loc 1 116 19 discriminator 1 view .LVU506
 2244 000c 7C093800 		cmpw 0,9,7
 2245              	.LBE1694:
 2246              		.loc 1 113 1 view .LVU507
 2247 0010 93C10010 		stw 30,16(1)
 2248              		.cfi_offset 30, -8
 2249 0014 7C7E1B78 		mr 30,3
 2250              		.loc 1 114 8 view .LVU508
 2251 0018 90830068 		stw 4,104(3)
 2252              		.loc 1 116 2 is_stmt 1 view .LVU509
 2253              	.LVL146:
 2254              	.LBB1695:
 2255              		.loc 1 116 19 discriminator 1 view .LVU510
 2256              	.LBB1685:
 2257              	.LBI1680:
 2258              		.loc 2 987 7 view .LVU511
 2259              		.loc 2 987 7 is_stmt 0 view .LVU512
 2260              	.LBE1685:
 2261              		.loc 1 116 19 discriminator 1 view .LVU513
 2262 001c 41820070 		beq- 0,.L115
 2263 0020 7C0802A6 		mflr 0
 2264              		.cfi_register 65, 0
 2265 0024 93A1000C 		stw 29,12(1)
 2266              		.cfi_offset 29, -12
 2267 0028 9001001C 		stw 0,28(1)
 2268              		.cfi_offset 65, 4
 2269 002c 7C9D2378 		mr 29,4
 2270 0030 93E10014 		stw 31,20(1)
 2271              		.cfi_offset 31, -4
 2272              		.loc 1 116 17 discriminator 1 view .LVU514
 2273 0034 39400000 		li 10,0
 2274              		.loc 1 116 10 view .LVU515
 2275 0038 3BE00000 		li 31,0
 2276              	.LVL147:
 2277              	.L117:
 2278              	.LBB1686:
 2279              		.loc 1 118 3 is_stmt 1 view .LVU516
 2280              		.loc 1 118 9 view .LVU517
 2281              	.LBB1687:
 2282              	.LBI1687:
 2283              		.loc 2 1173 7 view .LVU518
 2284              	.LBB1688:
 2285              	.LBI1688:
 2286              		.loc 2 1121 7 view .LVU519
 2287              		.loc 2 1121 7 is_stmt 0 view .LVU520
 2288              	.LBE1688:
 2289              	.LBE1687:
 2290              		.loc 1 118 34 discriminator 1 view .LVU521
 2291 003c 554A103A 		slwi 10,10,2
 2292 0040 38A0FFFF 		li 5,-1
 2293 0044 7C67502E 		lwzx 3,7,10
 2294 0048 7FA4EB78 		mr 4,29
 2295 004c 81230000 		lwz 9,0(3)
 2296 0050 81290010 		lwz 9,16(9)
 2297 0054 7D2903A6 		mtctr 9
 2298              	.LEHB9:
 2299 0058 4E800421 		bctrl
 2300              	.LVL148:
 2301              	.LEHE9:
 2302              	.L120:
 2303              	.LBE1686:
 2304              		.loc 1 116 2 is_stmt 1 discriminator 2 view .LVU522
 2305              	.LBB1690:
 2306              	.LBB1682:
 2307              		.loc 2 988 66 is_stmt 0 view .LVU523
 2308 005c 80FE0084 		lwz 7,132(30)
 2309              	.LBE1682:
 2310              	.LBE1690:
 2311              		.loc 1 116 2 discriminator 2 view .LVU524
 2312 0060 3BFF0001 		addi 31,31,1
 2313              	.LVL149:
 2314              	.LBB1691:
 2315              	.LBB1683:
 2316              		.loc 2 988 50 view .LVU525
 2317 0064 813E0088 		lwz 9,136(30)
 2318              	.LBE1683:
 2319              	.LBE1691:
 2320              		.loc 1 116 17 discriminator 1 view .LVU526
 2321 0068 57EA063E 		rlwinm 10,31,0,0xff
 2322              	.LVL150:
 2323              		.loc 1 116 19 is_stmt 1 discriminator 1 view .LVU527
 2324              	.LBB1692:
 2325              		.loc 2 987 7 view .LVU528
 2326              	.LBB1684:
 2327              		.loc 2 988 50 is_stmt 0 view .LVU529
 2328 006c 7D274850 		subf 9,7,9
 2329 0070 7D291670 		srawi 9,9,2
 2330              	.LBE1684:
 2331              	.LBE1692:
 2332              		.loc 1 116 19 discriminator 1 view .LVU530
 2333 0074 7C0A4840 		cmplw 0,10,9
 2334 0078 4180FFC4 		blt+ 0,.L117
 2335 007c 8001001C 		lwz 0,28(1)
 2336 0080 83A1000C 		lwz 29,12(1)
 2337              		.cfi_restore 29
 2338              	.LVL151:
 2339              		.loc 1 116 19 discriminator 1 view .LVU531
 2340 0084 83E10014 		lwz 31,20(1)
 2341              		.cfi_restore 31
 2342              	.LVL152:
 2343              		.loc 1 116 19 discriminator 1 view .LVU532
 2344 0088 7C0803A6 		mtlr 0
 2345              		.cfi_restore 65
 2346              	.LVL153:
 2347              	.L115:
 2348              		.loc 1 116 19 discriminator 1 view .LVU533
 2349              	.LBE1695:
 2350              		.loc 1 121 1 view .LVU534
 2351 008c 83C10010 		lwz 30,16(1)
 2352              	.LVL154:
 2353              		.loc 1 121 1 view .LVU535
 2354 0090 38210018 		addi 1,1,24
 2355              		.cfi_restore 30
 2356              		.cfi_def_cfa_offset 0
 2357 0094 4E800020 		blr
 2358              	.LVL155:
 2359              	.L121:
 2360              		.cfi_def_cfa_offset 24
 2361              		.cfi_offset 29, -12
 2362              		.cfi_offset 30, -8
 2363              		.cfi_offset 31, -4
 2364              		.cfi_offset 65, 4
 2365              		.loc 1 119 3 view .LVU536
 2366 0098 2C040001 		cmpwi 0,4,1
 2367 009c 40820010 		bne- 0,.L124
 2368              	.LBB1696:
 2369              	.LBB1693:
 2370              	.LBB1689:
 2371              		.loc 1 119 32 discriminator 1 view .LVU537
 2372 00a0 48000001 		bl __cxa_begin_catch
 2373              	.LVL156:
 2374              		.loc 1 119 37 discriminator 2 view .LVU538
 2375 00a4 48000001 		bl __cxa_end_catch
 2376              	.LVL157:
 2377 00a8 4BFFFFB4 		b .L120
 2378              	.L124:
 2379              	.LEHB10:
 2380 00ac 48000001 		bl _Unwind_Resume
 2381              	.LVL158:
 2382              	.LEHE10:
 2383              	.LBE1689:
 2384              	.LBE1693:
 2385              	.LBE1696:
 2386              		.cfi_endproc
 2387              	.LFE2360:
 2388              		.section	.gcc_except_table._ZN9GuiWindow8SetStateEi,"a",@progbits
 2389              		.align 2
 2390              	.LLSDA2360:
 2391 0000 FF       		.byte	0xff
 2392 0001 00       		.byte	0
 2393 0002 15       		.uleb128 .LLSDATT2360-.LLSDATTD2360
 2394              	.LLSDATTD2360:
 2395 0003 01       		.byte	0x1
 2396 0004 0A       		.uleb128 .LLSDACSE2360-.LLSDACSB2360
 2397              	.LLSDACSB2360:
 2398 0005 58       		.uleb128 .LEHB9-.LFB2360
 2399 0006 04       		.uleb128 .LEHE9-.LEHB9
 2400 0007 9801     		.uleb128 .L121-.LFB2360
 2401 0009 01       		.uleb128 0x1
 2402 000a AC01     		.uleb128 .LEHB10-.LFB2360
 2403 000c 04       		.uleb128 .LEHE10-.LEHB10
 2404 000d 00       		.uleb128 0
 2405 000e 00       		.uleb128 0
 2406              	.LLSDACSE2360:
 2407 000f 01       		.byte	0x1
 2408 0010 00       		.byte	0
 2409 0011 000000   		.align 2
 2410 0014 00000000 		.long	_ZTISt9exception
 2411              	.LLSDATT2360:
 2412              		.section	.text._ZN9GuiWindow8SetStateEi
 2413              		.size	_ZN9GuiWindow8SetStateEi, .-_ZN9GuiWindow8SetStateEi
 2414              		.section	.rodata._ZN9GuiWindow11ChangeFocusEP10GuiElement.str1.4,"aMS",@progbits,1
 2415              		.align 2
 2416              	.LC7:
 2417 0000 76656374 		.string	"vector::_M_range_check: __n (which is %zu) >= this->size() (which is %zu)"
 2417      6F723A3A 
 2417      5F4D5F72 
 2417      616E6765 
 2417      5F636865 
 2418              		.section	.text._ZN9GuiWindow11ChangeFocusEP10GuiElement,"ax",@progbits
 2419              		.align 2
 2420              		.globl _ZN9GuiWindow11ChangeFocusEP10GuiElement
 2421              		.type	_ZN9GuiWindow11ChangeFocusEP10GuiElement, @function
 2422              	_ZN9GuiWindow11ChangeFocusEP10GuiElement:
 2423              	.LVL159:
 2424              	.LFB2363:
 2425              		.loc 1 145 1 is_stmt 1 view -0
 2426              		.cfi_startproc
 2427              		.loc 1 146 2 view .LVU540
 2428 0000 8123007C 		lwz 9,124(3)
 2429 0004 2C090000 		cmpwi 0,9,0
 2430 0008 4C820020 		bnelr- 0
 2431              	.LBB1697:
 2432              	.LBB1698:
 2433              	.LBB1699:
 2434              		.loc 2 988 66 is_stmt 0 view .LVU541
 2435 000c 81430084 		lwz 10,132(3)
 2436              	.LBE1699:
 2437              	.LBE1698:
 2438              		.loc 1 149 19 discriminator 1 view .LVU542
 2439 0010 81230088 		lwz 9,136(3)
 2440              	.LBE1697:
 2441              		.loc 1 145 1 view .LVU543
 2442 0014 9421FFE0 		stwu 1,-32(1)
 2443              		.cfi_def_cfa_offset 32
 2444              	.LBB1721:
 2445              		.loc 1 149 19 discriminator 1 view .LVU544
 2446 0018 7C095000 		cmpw 0,9,10
 2447              	.LBE1721:
 2448              		.loc 1 145 1 view .LVU545
 2449 001c 93A10014 		stw 29,20(1)
 2450              		.cfi_offset 29, -12
 2451 0020 7C7D1B78 		mr 29,3
 2452              	.LVL160:
 2453              	.LBB1722:
 2454              		.loc 1 149 19 is_stmt 1 discriminator 1 view .LVU546
 2455              	.LBB1704:
 2456              	.LBI1698:
 2457              		.loc 2 987 7 view .LVU547
 2458              		.loc 2 987 7 is_stmt 0 view .LVU548
 2459              	.LBE1704:
 2460              		.loc 1 149 19 discriminator 1 view .LVU549
 2461 0024 418200B8 		beq- 0,.L125
 2462 0028 7C0802A6 		mflr 0
 2463              		.cfi_register 65, 0
 2464 002c 93810010 		stw 28,16(1)
 2465              		.cfi_offset 28, -16
 2466 0030 93C10018 		stw 30,24(1)
 2467              		.cfi_offset 30, -8
 2468 0034 7C9C2378 		mr 28,4
 2469 0038 93E1001C 		stw 31,28(1)
 2470              		.cfi_offset 31, -4
 2471              		.loc 1 149 10 view .LVU550
 2472 003c 3BC00000 		li 30,0
 2473 0040 90010024 		stw 0,36(1)
 2474              		.cfi_offset 65, 4
 2475              		.loc 1 149 17 discriminator 1 view .LVU551
 2476 0044 3BE00000 		li 31,0
 2477 0048 9361000C 		stw 27,12(1)
 2478              		.cfi_offset 27, -20
 2479 004c 48000030 		b .L130
 2480              	.LVL161:
 2481              	.L127:
 2482              		.loc 1 153 8 is_stmt 1 view .LVU552
 2483              		.loc 1 153 37 is_stmt 0 discriminator 1 view .LVU553
 2484 0050 48000001 		bl _ZN10GuiElement9IsFocusedEv
 2485              	.LVL162:
 2486              		.loc 1 153 8 discriminator 2 view .LVU554
 2487 0054 2C030001 		cmpwi 0,3,1
 2488 0058 41820090 		beq- 0,.L136
 2489              	.L128:
 2490              		.loc 1 149 2 is_stmt 1 discriminator 2 view .LVU555
 2491              	.LBB1705:
 2492              	.LBB1700:
 2493              		.loc 2 988 66 is_stmt 0 view .LVU556
 2494 005c 815D0084 		lwz 10,132(29)
 2495              	.LBE1700:
 2496              	.LBE1705:
 2497              		.loc 1 149 2 discriminator 2 view .LVU557
 2498 0060 3BDE0001 		addi 30,30,1
 2499              	.LVL163:
 2500              	.LBB1706:
 2501              	.LBB1701:
 2502              		.loc 2 988 50 view .LVU558
 2503 0064 813D0088 		lwz 9,136(29)
 2504              	.LBE1701:
 2505              	.LBE1706:
 2506              		.loc 1 149 17 discriminator 1 view .LVU559
 2507 0068 57DF063E 		rlwinm 31,30,0,0xff
 2508              	.LVL164:
 2509              		.loc 1 149 19 is_stmt 1 discriminator 1 view .LVU560
 2510              	.LBB1707:
 2511              		.loc 2 987 7 view .LVU561
 2512              	.LBB1702:
 2513              		.loc 2 988 50 is_stmt 0 view .LVU562
 2514 006c 7D2A4850 		subf 9,10,9
 2515 0070 7D291670 		srawi 9,9,2
 2516              	.LBE1702:
 2517              	.LBE1707:
 2518              		.loc 1 149 19 discriminator 1 view .LVU563
 2519 0074 7C1F4840 		cmplw 0,31,9
 2520 0078 4080004C 		bge- 0,.L137
 2521              	.LVL165:
 2522              	.L130:
 2523              		.loc 1 151 3 is_stmt 1 view .LVU564
 2524              	.LBB1708:
 2525              	.LBI1708:
 2526              		.loc 2 1173 7 view .LVU565
 2527              	.LBB1709:
 2528              	.LBI1709:
 2529              		.loc 2 1121 7 view .LVU566
 2530              	.LBB1710:
 2531              		.loc 2 1124 34 is_stmt 0 view .LVU567
 2532 007c 57FB103A 		slwi 27,31,2
 2533              	.LVL166:
 2534              		.loc 2 1124 34 view .LVU568
 2535              	.LBE1710:
 2536              	.LBE1709:
 2537              	.LBE1708:
 2538              		.loc 1 151 23 discriminator 1 view .LVU569
 2539 0080 7C6AD82E 		lwzx 3,10,27
 2540              		.loc 1 151 3 discriminator 1 view .LVU570
 2541 0084 7C03E040 		cmplw 0,3,28
 2542 0088 40A2FFC8 		bne- 0,.L127
 2543              		.loc 1 152 4 is_stmt 1 view .LVU571
 2544              		.loc 1 152 29 is_stmt 0 discriminator 1 view .LVU572
 2545 008c 813C0000 		lwz 9,0(28)
 2546 0090 38800001 		li 4,1
 2547 0094 7F83E378 		mr 3,28
 2548              		.loc 1 149 2 discriminator 2 view .LVU573
 2549 0098 3BDE0001 		addi 30,30,1
 2550              	.LVL167:
 2551              		.loc 1 152 29 discriminator 1 view .LVU574
 2552 009c 8129000C 		lwz 9,12(9)
 2553              		.loc 1 149 17 discriminator 1 view .LVU575
 2554 00a0 57DF063E 		rlwinm 31,30,0,0xff
 2555              		.loc 1 152 29 discriminator 1 view .LVU576
 2556 00a4 7D2903A6 		mtctr 9
 2557 00a8 4E800421 		bctrl
 2558              	.LVL168:
 2559              		.loc 1 149 2 is_stmt 1 discriminator 2 view .LVU577
 2560              		.loc 1 149 19 discriminator 1 view .LVU578
 2561              	.LBB1711:
 2562              		.loc 2 987 7 view .LVU579
 2563              	.LBB1703:
 2564              		.loc 2 988 66 is_stmt 0 view .LVU580
 2565 00ac 815D0084 		lwz 10,132(29)
 2566              		.loc 2 988 50 view .LVU581
 2567 00b0 813D0088 		lwz 9,136(29)
 2568 00b4 7D2A4850 		subf 9,10,9
 2569 00b8 7D291670 		srawi 9,9,2
 2570              	.LBE1703:
 2571              	.LBE1711:
 2572              		.loc 1 149 19 discriminator 1 view .LVU582
 2573 00bc 7C1F4840 		cmplw 0,31,9
 2574 00c0 4180FFBC 		blt+ 0,.L130
 2575              	.LVL169:
 2576              	.L137:
 2577              		.loc 1 149 19 discriminator 1 view .LVU583
 2578 00c4 80010024 		lwz 0,36(1)
 2579 00c8 8361000C 		lwz 27,12(1)
 2580              		.cfi_restore 27
 2581 00cc 83810010 		lwz 28,16(1)
 2582              		.cfi_restore 28
 2583              	.LVL170:
 2584              		.loc 1 149 19 discriminator 1 view .LVU584
 2585 00d0 7C0803A6 		mtlr 0
 2586              		.cfi_restore 65
 2587 00d4 83C10018 		lwz 30,24(1)
 2588              		.cfi_restore 30
 2589 00d8 83E1001C 		lwz 31,28(1)
 2590              		.cfi_restore 31
 2591              	.L125:
 2592              		.loc 1 149 19 discriminator 1 view .LVU585
 2593              	.LBE1722:
 2594              		.loc 1 156 1 view .LVU586
 2595 00dc 83A10014 		lwz 29,20(1)
 2596              	.LVL171:
 2597              		.loc 1 156 1 view .LVU587
 2598 00e0 38210020 		addi 1,1,32
 2599              		.cfi_restore 29
 2600              		.cfi_def_cfa_offset 0
 2601 00e4 4E800020 		blr
 2602              	.LVL172:
 2603              	.L136:
 2604              		.cfi_def_cfa_offset 32
 2605              		.cfi_offset 27, -20
 2606              		.cfi_offset 28, -16
 2607              		.cfi_offset 29, -12
 2608              		.cfi_offset 30, -8
 2609              		.cfi_offset 31, -4
 2610              		.cfi_offset 65, 4
 2611              	.LBB1723:
 2612              		.loc 1 154 4 is_stmt 1 view .LVU588
 2613              	.LBB1712:
 2614              	.LBI1712:
 2615              		.loc 2 1173 7 view .LVU589
 2616              	.LBB1713:
 2617              	.LBI1713:
 2618              		.loc 2 1150 7 view .LVU590
 2619              	.LBB1714:
 2620              	.LBB1715:
 2621              	.LBI1715:
 2622              		.loc 2 987 7 view .LVU591
 2623              	.LBB1716:
 2624              		.loc 2 988 66 is_stmt 0 view .LVU592
 2625 00e8 813D0084 		lwz 9,132(29)
 2626              		.loc 2 988 50 view .LVU593
 2627 00ec 80BD0088 		lwz 5,136(29)
 2628 00f0 7CA92850 		subf 5,9,5
 2629 00f4 7CA51670 		srawi 5,5,2
 2630              	.LVL173:
 2631              		.loc 2 988 50 view .LVU594
 2632              	.LBE1716:
 2633              	.LBE1715:
 2634              		.loc 2 1152 2 discriminator 1 view .LVU595
 2635 00f8 7C05F840 		cmplw 0,5,31
 2636 00fc 40810020 		ble- 0,.L138
 2637              	.LVL174:
 2638              		.loc 2 1152 2 discriminator 1 view .LVU596
 2639              	.LBE1714:
 2640              	.LBE1713:
 2641              	.LBB1718:
 2642              	.LBI1718:
 2643              		.loc 2 1121 7 is_stmt 1 view .LVU597
 2644              		.loc 2 1121 7 is_stmt 0 view .LVU598
 2645              	.LBE1718:
 2646              	.LBE1712:
 2647              		.loc 1 154 29 discriminator 1 view .LVU599
 2648 0100 7C69D82E 		lwzx 3,9,27
 2649 0104 38800000 		li 4,0
 2650 0108 81230000 		lwz 9,0(3)
 2651 010c 8129000C 		lwz 9,12(9)
 2652 0110 7D2903A6 		mtctr 9
 2653 0114 4E800421 		bctrl
 2654              	.LVL175:
 2655 0118 4BFFFF44 		b .L128
 2656              	.LVL176:
 2657              	.L138:
 2658              	.LBB1720:
 2659              	.LBB1719:
 2660              	.LBB1717:
 2661              		.loc 2 1153 28 discriminator 1 view .LVU600
 2662 011c 3C600000 		lis 3,.LC7@ha
 2663 0120 7FE4FB78 		mr 4,31
 2664 0124 38630000 		la 3,.LC7@l(3)
 2665 0128 4CC63182 		crxor 6,6,6
 2666 012c 48000001 		bl _ZSt24__throw_out_of_range_fmtPKcz
 2667              	.LVL177:
 2668              	.LBE1717:
 2669              	.LBE1719:
 2670              	.LBE1720:
 2671              	.LBE1723:
 2672              		.cfi_endproc
 2673              	.LFE2363:
 2674              		.size	_ZN9GuiWindow11ChangeFocusEP10GuiElement, .-_ZN9GuiWindow11ChangeFocusEP10GuiElement
 2675              		.section	.text._ZN9GuiWindow11ToggleFocusEP10GuiTrigger,"ax",@progbits
 2676              		.align 2
 2677              		.globl _ZN9GuiWindow11ToggleFocusEP10GuiTrigger
 2678              		.type	_ZN9GuiWindow11ToggleFocusEP10GuiTrigger, @function
 2679              	_ZN9GuiWindow11ToggleFocusEP10GuiTrigger:
 2680              	.LVL178:
 2681              	.LFB2364:
 2682              		.loc 1 159 1 is_stmt 1 view -0
 2683              		.cfi_startproc
 2684              		.cfi_personality 0,__gxx_personality_v0
 2685              		.cfi_lsda 0,.LLSDA2364
 2686              		.loc 1 160 2 view .LVU602
 2687 0000 8123007C 		lwz 9,124(3)
 2688 0004 2C090000 		cmpwi 0,9,0
 2689 0008 4C820020 		bnelr- 0
 2690              	.LBB1724:
 2691              	.LBB1725:
 2692              	.LBB1726:
 2693              		.loc 2 988 66 is_stmt 0 view .LVU603
 2694 000c 81230084 		lwz 9,132(3)
 2695              	.LBE1726:
 2696              	.LBE1725:
 2697              		.loc 1 168 16 discriminator 1 view .LVU604
 2698 0010 81430088 		lwz 10,136(3)
 2699              	.LBE1724:
 2700              		.loc 1 159 1 view .LVU605
 2701 0014 9421FFD8 		stwu 1,-40(1)
 2702              		.cfi_def_cfa_offset 40
 2703              	.LBB1740:
 2704              		.loc 1 168 16 discriminator 1 view .LVU606
 2705 0018 7C0A4800 		cmpw 0,10,9
 2706              	.LBE1740:
 2707              		.loc 1 159 1 view .LVU607
 2708 001c 93C10020 		stw 30,32(1)
 2709              		.cfi_offset 30, -8
 2710 0020 7C7E1B78 		mr 30,3
 2711              	.LVL179:
 2712              	.LBB1741:
 2713              		.loc 1 168 16 is_stmt 1 discriminator 1 view .LVU608
 2714              	.LBB1730:
 2715              	.LBI1725:
 2716              		.loc 2 987 7 view .LVU609
 2717              		.loc 2 987 7 is_stmt 0 view .LVU610
 2718              	.LBE1730:
 2719              		.loc 1 168 16 discriminator 1 view .LVU611
 2720 0024 41820170 		beq- 0,.L139
 2721 0028 7C0802A6 		mflr 0
 2722              		.cfi_register 65, 0
 2723 002c 93610014 		stw 27,20(1)
 2724              		.cfi_offset 27, -20
 2725 0030 93A1001C 		stw 29,28(1)
 2726              		.cfi_offset 29, -12
 2727 0034 7C9B2378 		mr 27,4
 2728 0038 93E10024 		stw 31,36(1)
 2729              		.cfi_offset 31, -4
 2730              		.loc 1 168 14 discriminator 1 view .LVU612
 2731 003c 3BA00000 		li 29,0
 2732 0040 9001002C 		stw 0,44(1)
 2733              		.cfi_offset 65, 4
 2734              		.loc 1 168 9 view .LVU613
 2735 0044 3BE00000 		li 31,0
 2736 0048 93810018 		stw 28,24(1)
 2737              		.cfi_offset 28, -16
 2738 004c 48000024 		b .L145
 2739              	.LVL180:
 2740              	.L142:
 2741              		.loc 1 168 2 is_stmt 1 discriminator 2 view .LVU614
 2742              	.LBB1731:
 2743              	.LBB1727:
 2744              		.loc 2 988 40 is_stmt 0 view .LVU615
 2745 0050 811E0088 		lwz 8,136(30)
 2746              	.LBE1727:
 2747              	.LBE1731:
 2748              		.loc 1 168 2 discriminator 2 view .LVU616
 2749 0054 3BFF0001 		addi 31,31,1
 2750              	.LVL181:
 2751              	.LBB1732:
 2752              	.LBB1728:
 2753              		.loc 2 988 66 view .LVU617
 2754 0058 813E0084 		lwz 9,132(30)
 2755              	.LBE1728:
 2756              	.LBE1732:
 2757              		.loc 1 168 14 discriminator 1 view .LVU618
 2758 005c 57FD063E 		rlwinm 29,31,0,0xff
 2759              	.LVL182:
 2760              		.loc 1 168 16 is_stmt 1 discriminator 1 view .LVU619
 2761              	.LBB1733:
 2762              		.loc 2 987 7 view .LVU620
 2763              	.LBB1729:
 2764              		.loc 2 988 50 is_stmt 0 view .LVU621
 2765 0060 7D494050 		subf 10,9,8
 2766 0064 7D4A1670 		srawi 10,10,2
 2767              	.LBE1729:
 2768              	.LBE1733:
 2769              		.loc 1 168 16 discriminator 1 view .LVU622
 2770 0068 7C1D5040 		cmplw 0,29,10
 2771 006c 40800134 		bge- 0,.L210
 2772              	.LVL183:
 2773              	.L145:
 2774              	.LBB1734:
 2775              		.loc 1 170 3 is_stmt 1 view .LVU623
 2776              		.loc 1 172 4 view .LVU624
 2777              	.LBB1735:
 2778              	.LBI1735:
 2779              		.loc 2 1173 7 view .LVU625
 2780              	.LBB1736:
 2781              	.LBI1736:
 2782              		.loc 2 1121 7 view .LVU626
 2783              	.LBB1737:
 2784              		.loc 2 1124 34 is_stmt 0 view .LVU627
 2785 0070 57BC103A 		slwi 28,29,2
 2786              	.LVL184:
 2787              		.loc 2 1124 34 view .LVU628
 2788              	.LBE1737:
 2789              	.LBE1736:
 2790              	.LBE1735:
 2791              		.loc 1 172 33 discriminator 1 view .LVU629
 2792 0074 7C69E02E 		lwzx 3,9,28
 2793              	.LEHB11:
 2794 0078 48000001 		bl _ZN10GuiElement9IsFocusedEv
 2795              	.LVL185:
 2796              	.LEHE11:
 2797              		.loc 1 172 4 discriminator 2 view .LVU630
 2798 007c 2C030001 		cmpwi 0,3,1
 2799 0080 4082FFD0 		bne+ 0,.L142
 2800              		.loc 1 174 5 is_stmt 1 view .LVU631
 2801              	.LVL186:
 2802              		.loc 1 175 5 view .LVU632
 2803              		.loc 1 175 5 is_stmt 0 view .LVU633
 2804              	.LBE1734:
 2805              	.LBE1741:
 2806              		.loc 1 182 2 is_stmt 1 view .LVU634
 2807              		.loc 1 198 7 view .LVU635
 2808              	.LBB1742:
 2809              		.loc 1 198 19 is_stmt 0 view .LVU636
 2810 0084 813B0008 		lwz 9,8(27)
 2811              		.loc 1 198 26 view .LVU637
 2812 0088 81290014 		lwz 9,20(9)
 2813              		.loc 1 198 7 view .LVU638
 2814 008c 55290752 		rlwinm 9,9,0,29,9
 2815 0090 5529027D 		rlwinm. 9,9,0,9,30
 2816 0094 418201D8 		beq- 0,.L211
 2817              	.L143:
 2818              	.LBB1743:
 2819              	.LBB1744:
 2820              	.LBB1745:
 2821              		.loc 2 988 66 view .LVU639
 2822 0098 815E0084 		lwz 10,132(30)
 2823              		.loc 2 988 50 view .LVU640
 2824 009c 813E0088 		lwz 9,136(30)
 2825 00a0 9321000C 		stw 25,12(1)
 2826              		.cfi_offset 25, -28
 2827              	.LBE1745:
 2828              	.LBE1744:
 2829              		.loc 1 201 19 discriminator 1 view .LVU641
 2830 00a4 57F9063E 		rlwinm 25,31,0,0xff
 2831              	.LBB1749:
 2832              	.LBB1746:
 2833              		.loc 2 988 50 view .LVU642
 2834 00a8 7D2A4850 		subf 9,10,9
 2835 00ac 93010008 		stw 24,8(1)
 2836              		.cfi_offset 24, -32
 2837 00b0 7D291670 		srawi 9,9,2
 2838 00b4 93410010 		stw 26,16(1)
 2839              		.cfi_offset 26, -24
 2840              	.LVL187:
 2841              		.loc 2 988 50 view .LVU643
 2842              	.LBE1746:
 2843              	.LBE1749:
 2844              		.loc 1 201 21 is_stmt 1 discriminator 1 view .LVU644
 2845              	.LBB1750:
 2846              	.LBI1744:
 2847              		.loc 2 987 7 view .LVU645
 2848              		.loc 2 987 7 is_stmt 0 view .LVU646
 2849              	.LBE1750:
 2850              		.loc 1 201 21 discriminator 1 view .LVU647
 2851 00b8 7C194840 		cmplw 0,25,9
 2852              		.loc 1 201 19 discriminator 1 view .LVU648
 2853 00bc 7F3ACB78 		mr 26,25
 2854              		.loc 1 201 21 discriminator 1 view .LVU649
 2855 00c0 3B00FFFF 		li 24,-1
 2856 00c4 408001EC 		bge- 0,.L157
 2857              	.LVL188:
 2858              	.L150:
 2859              	.LBB1751:
 2860              		.loc 1 203 4 is_stmt 1 view .LVU650
 2861              		.loc 1 205 5 view .LVU651
 2862              	.LBB1752:
 2863              	.LBI1752:
 2864              		.loc 2 1173 7 view .LVU652
 2865              	.LBB1753:
 2866              	.LBI1753:
 2867              		.loc 2 1121 7 view .LVU653
 2868              	.LBB1754:
 2869              		.loc 2 1124 34 is_stmt 0 view .LVU654
 2870 00c8 575B103A 		slwi 27,26,2
 2871              	.LVL189:
 2872              		.loc 2 1124 34 view .LVU655
 2873              	.LBE1754:
 2874              	.LBE1753:
 2875              	.LBE1752:
 2876              		.loc 1 205 34 discriminator 1 view .LVU656
 2877 00cc 7C6AD82E 		lwzx 3,10,27
 2878              	.LEHB12:
 2879 00d0 48000001 		bl _ZN10GuiElement9IsFocusedEv
 2880              	.LVL190:
 2881              		.loc 1 205 42 discriminator 2 view .LVU657
 2882 00d4 2C030000 		cmpwi 0,3,0
 2883              	.LBB1755:
 2884              	.LBB1756:
 2885              	.LBB1757:
 2886              	.LBB1758:
 2887              	.LBB1759:
 2888              		.loc 2 988 40 view .LVU658
 2889 00d8 813E0088 		lwz 9,136(30)
 2890              		.loc 2 988 66 view .LVU659
 2891 00dc 815E0084 		lwz 10,132(30)
 2892              	.LBE1759:
 2893              	.LBE1758:
 2894              	.LBE1757:
 2895              	.LBE1756:
 2896              	.LBE1755:
 2897              		.loc 1 205 42 discriminator 2 view .LVU660
 2898 00e0 408201B4 		bne- 0,.L170
 2899              	.LBB1770:
 2900              	.LBB1766:
 2901              	.LBB1763:
 2902              	.LBB1761:
 2903              	.LBB1760:
 2904              		.loc 2 988 50 view .LVU661
 2905 00e4 7D2A4850 		subf 9,10,9
 2906 00e8 7D291670 		srawi 9,9,2
 2907              	.LVL191:
 2908              		.loc 2 988 50 view .LVU662
 2909              	.LBE1760:
 2910              	.LBE1761:
 2911              	.LBE1763:
 2912              	.LBE1766:
 2913              	.LBI1755:
 2914              		.loc 2 1173 7 is_stmt 1 view .LVU663
 2915              	.LBB1767:
 2916              	.LBI1756:
 2917              		.loc 2 1150 7 view .LVU664
 2918              	.LBB1764:
 2919              	.LBB1762:
 2920              	.LBI1758:
 2921              		.loc 2 987 7 view .LVU665
 2922              		.loc 2 987 7 is_stmt 0 view .LVU666
 2923              	.LBE1762:
 2924              		.loc 2 1152 2 discriminator 1 view .LVU667
 2925 00ec 7C1A4840 		cmplw 0,26,9
 2926 00f0 40800320 		bge- 0,.L212
 2927              	.LVL192:
 2928              		.loc 2 1152 2 discriminator 1 view .LVU668
 2929              	.LBE1764:
 2930              	.LBE1767:
 2931              	.LBB1768:
 2932              	.LBI1768:
 2933              		.loc 2 1121 7 is_stmt 1 view .LVU669
 2934              		.loc 2 1121 7 is_stmt 0 view .LVU670
 2935              	.LBE1768:
 2936              	.LBE1770:
 2937              		.loc 1 205 70 discriminator 5 view .LVU671
 2938 00f4 7C6AD82E 		lwzx 3,10,27
 2939 00f8 48000001 		bl _ZN10GuiElement8GetStateEv
 2940              	.LVL193:
 2941              		.loc 1 205 42 discriminator 6 view .LVU672
 2942 00fc 2C030004 		cmpwi 0,3,4
 2943              	.LBB1771:
 2944              	.LBB1772:
 2945              	.LBB1773:
 2946              	.LBB1774:
 2947              	.LBB1775:
 2948              		.loc 2 988 40 view .LVU673
 2949 0100 813E0088 		lwz 9,136(30)
 2950              		.loc 2 988 66 view .LVU674
 2951 0104 815E0084 		lwz 10,132(30)
 2952              	.LBE1775:
 2953              	.LBE1774:
 2954              	.LBE1773:
 2955              	.LBE1772:
 2956              	.LBE1771:
 2957              		.loc 1 205 42 discriminator 6 view .LVU675
 2958 0108 4182018C 		beq- 0,.L170
 2959              	.LBB1790:
 2960              	.LBB1785:
 2961              	.LBB1781:
 2962              	.LBB1778:
 2963              	.LBB1776:
 2964              		.loc 2 988 50 view .LVU676
 2965 010c 7D2A4850 		subf 9,10,9
 2966              	.LBE1776:
 2967              	.LBE1778:
 2968              	.LBE1781:
 2969              	.LBE1785:
 2970              	.LBE1790:
 2971              		.loc 1 207 15 view .LVU677
 2972 0110 57F8063E 		rlwinm 24,31,0,0xff
 2973              	.LBB1791:
 2974              	.LBB1786:
 2975              	.LBB1782:
 2976              	.LBB1779:
 2977              	.LBB1777:
 2978              		.loc 2 988 50 view .LVU678
 2979 0114 7D291670 		srawi 9,9,2
 2980              	.LBE1777:
 2981              	.LBE1779:
 2982              	.LBE1782:
 2983              	.LBE1786:
 2984              	.LBE1791:
 2985              		.loc 1 207 6 is_stmt 1 view .LVU679
 2986              	.LVL194:
 2987              		.loc 1 208 6 view .LVU680
 2988              	.LBB1792:
 2989              	.LBI1771:
 2990              		.loc 2 1173 7 view .LVU681
 2991              	.LBB1787:
 2992              	.LBI1772:
 2993              		.loc 2 1150 7 view .LVU682
 2994              	.LBB1783:
 2995              	.LBB1780:
 2996              	.LBI1774:
 2997              		.loc 2 987 7 view .LVU683
 2998              		.loc 2 987 7 is_stmt 0 view .LVU684
 2999              	.LBE1780:
 3000              		.loc 2 1152 2 discriminator 1 view .LVU685
 3001 0118 7C1A4840 		cmplw 0,26,9
 3002 011c 408002DC 		bge- 0,.L213
 3003              	.LVL195:
 3004              		.loc 2 1152 2 discriminator 1 view .LVU686
 3005              	.LBE1783:
 3006              	.LBE1787:
 3007              	.LBB1788:
 3008              	.LBI1788:
 3009              		.loc 2 1121 7 is_stmt 1 view .LVU687
 3010              		.loc 2 1121 7 is_stmt 0 view .LVU688
 3011              	.LBE1788:
 3012              	.LBE1792:
 3013              		.loc 1 208 31 discriminator 1 view .LVU689
 3014 0120 7C6AD82E 		lwzx 3,10,27
 3015 0124 38800001 		li 4,1
 3016 0128 81230000 		lwz 9,0(3)
 3017 012c 8129000C 		lwz 9,12(9)
 3018 0130 7D2903A6 		mtctr 9
 3019 0134 4E800421 		bctrl
 3020              	.LVL196:
 3021              		.loc 1 209 6 is_stmt 1 view .LVU690
 3022              	.LBB1793:
 3023              	.LBI1793:
 3024              		.loc 2 1173 7 view .LVU691
 3025              	.LBB1794:
 3026              	.LBI1794:
 3027              		.loc 2 1150 7 view .LVU692
 3028              	.LBB1795:
 3029              	.LBB1796:
 3030              	.LBI1796:
 3031              		.loc 2 987 7 view .LVU693
 3032              	.LBB1797:
 3033              		.loc 2 988 66 is_stmt 0 view .LVU694
 3034 0138 813E0084 		lwz 9,132(30)
 3035              		.loc 2 988 50 view .LVU695
 3036 013c 80BE0088 		lwz 5,136(30)
 3037 0140 7CA92850 		subf 5,9,5
 3038 0144 7CA51670 		srawi 5,5,2
 3039              	.LVL197:
 3040              		.loc 2 988 50 view .LVU696
 3041              	.LBE1797:
 3042              	.LBE1796:
 3043              		.loc 2 1152 2 discriminator 1 view .LVU697
 3044 0148 7C05E840 		cmplw 0,5,29
 3045 014c 40810298 		ble- 0,.L214
 3046              	.LVL198:
 3047              		.loc 2 1152 2 discriminator 1 view .LVU698
 3048              	.LBE1795:
 3049              	.LBE1794:
 3050              	.LBB1799:
 3051              	.LBI1799:
 3052              		.loc 2 1121 7 is_stmt 1 view .LVU699
 3053              		.loc 2 1121 7 is_stmt 0 view .LVU700
 3054              	.LBE1799:
 3055              	.LBE1793:
 3056              		.loc 1 209 35 discriminator 1 view .LVU701
 3057 0150 7C69E02E 		lwzx 3,9,28
 3058 0154 38800000 		li 4,0
 3059 0158 81230000 		lwz 9,0(3)
 3060 015c 8129000C 		lwz 9,12(9)
 3061 0160 7D2903A6 		mtctr 9
 3062 0164 4E800421 		bctrl
 3063              	.LVL199:
 3064              	.LEHE12:
 3065              	.L156:
 3066              		.loc 1 209 35 discriminator 1 view .LVU702
 3067              	.LBE1751:
 3068              	.LBE1743:
 3069              	.LBE1742:
 3070              		.loc 1 216 3 is_stmt 1 view .LVU703
 3071              	.LBB1857:
 3072              	.LBB1810:
 3073 0168 2C18FFFF 		cmpwi 0,24,-1
 3074 016c 41820144 		beq- 0,.L157
 3075              	.LVL200:
 3076              	.L208:
 3077              		.loc 1 216 3 is_stmt 0 view .LVU704
 3078 0170 83010008 		lwz 24,8(1)
 3079              		.cfi_restore 24
 3080 0174 8321000C 		lwz 25,12(1)
 3081              		.cfi_restore 25
 3082              	.LVL201:
 3083              		.loc 1 216 3 view .LVU705
 3084 0178 83410010 		lwz 26,16(1)
 3085              		.cfi_restore 26
 3086              	.LVL202:
 3087              	.L209:
 3088              		.loc 1 216 3 view .LVU706
 3089 017c 8001002C 		lwz 0,44(1)
 3090 0180 83610014 		lwz 27,20(1)
 3091              		.cfi_restore 27
 3092 0184 83810018 		lwz 28,24(1)
 3093              		.cfi_restore 28
 3094 0188 7C0803A6 		mtlr 0
 3095              		.cfi_restore 65
 3096 018c 83A1001C 		lwz 29,28(1)
 3097              		.cfi_restore 29
 3098 0190 83E10024 		lwz 31,36(1)
 3099              		.cfi_restore 31
 3100              	.L139:
 3101              	.LBE1810:
 3102              	.LBE1857:
 3103              		.loc 1 233 1 view .LVU707
 3104 0194 83C10020 		lwz 30,32(1)
 3105              	.LVL203:
 3106              		.loc 1 233 1 view .LVU708
 3107 0198 38210028 		addi 1,1,40
 3108              		.cfi_restore 30
 3109              		.cfi_def_cfa_offset 0
 3110 019c 4E800020 		blr
 3111              	.LVL204:
 3112              	.L210:
 3113              		.cfi_def_cfa_offset 40
 3114              		.cfi_offset 27, -20
 3115              		.cfi_offset 28, -16
 3116              		.cfi_offset 29, -12
 3117              		.cfi_offset 30, -8
 3118              		.cfi_offset 31, -4
 3119              		.cfi_offset 65, 4
 3120              	.LBB1858:
 3121              		.loc 1 184 17 is_stmt 1 discriminator 1 view .LVU709
 3122              	.LBB1859:
 3123              	.LBI1859:
 3124              		.loc 2 987 7 view .LVU710
 3125              		.loc 2 987 7 is_stmt 0 view .LVU711
 3126              	.LBE1859:
 3127              		.loc 1 184 17 discriminator 1 view .LVU712
 3128 01a0 7C084840 		cmplw 0,8,9
 3129 01a4 41A2FFD8 		beq- 0,.L209
 3130              		.loc 1 184 10 view .LVU713
 3131 01a8 3BA00000 		li 29,0
 3132              		.loc 1 184 15 discriminator 1 view .LVU714
 3133 01ac 3B800000 		li 28,0
 3134              	.LVL205:
 3135              	.L149:
 3136              	.LBB1862:
 3137              		.loc 1 186 4 is_stmt 1 view .LVU715
 3138              		.loc 1 188 5 view .LVU716
 3139              	.LBB1863:
 3140              	.LBI1863:
 3141              		.loc 2 1173 7 view .LVU717
 3142              	.LBB1864:
 3143              	.LBI1864:
 3144              		.loc 2 1121 7 view .LVU718
 3145              	.LBB1865:
 3146              		.loc 2 1124 34 is_stmt 0 view .LVU719
 3147 01b0 579F103A 		slwi 31,28,2
 3148              	.LVL206:
 3149              		.loc 2 1124 34 view .LVU720
 3150              	.LBE1865:
 3151              	.LBE1864:
 3152              	.LBE1863:
 3153              		.loc 1 188 34 discriminator 1 view .LVU721
 3154 01b4 7C69F82E 		lwzx 3,9,31
 3155              	.LEHB13:
 3156 01b8 48000001 		bl _ZN10GuiElement9IsFocusedEv
 3157              	.LVL207:
 3158              		.loc 1 188 42 discriminator 2 view .LVU722
 3159 01bc 2C030000 		cmpwi 0,3,0
 3160              	.LBB1866:
 3161              	.LBB1867:
 3162              	.LBB1868:
 3163              	.LBB1869:
 3164              	.LBB1870:
 3165              		.loc 2 988 40 view .LVU723
 3166 01c0 80BE0088 		lwz 5,136(30)
 3167              		.loc 2 988 66 view .LVU724
 3168 01c4 813E0084 		lwz 9,132(30)
 3169              	.LBE1870:
 3170              	.LBE1869:
 3171              	.LBE1868:
 3172              	.LBE1867:
 3173              	.LBE1866:
 3174              		.loc 1 188 42 discriminator 2 view .LVU725
 3175 01c8 40820088 		bne- 0,.L167
 3176              	.LBB1881:
 3177              	.LBB1877:
 3178              	.LBB1874:
 3179              	.LBB1872:
 3180              	.LBB1871:
 3181              		.loc 2 988 50 view .LVU726
 3182 01cc 7CA92850 		subf 5,9,5
 3183 01d0 7CA51670 		srawi 5,5,2
 3184              	.LVL208:
 3185              		.loc 2 988 50 view .LVU727
 3186              	.LBE1871:
 3187              	.LBE1872:
 3188              	.LBE1874:
 3189              	.LBE1877:
 3190              	.LBI1866:
 3191              		.loc 2 1173 7 is_stmt 1 view .LVU728
 3192              	.LBB1878:
 3193              	.LBI1867:
 3194              		.loc 2 1150 7 view .LVU729
 3195              	.LBB1875:
 3196              	.LBB1873:
 3197              	.LBI1869:
 3198              		.loc 2 987 7 view .LVU730
 3199              		.loc 2 987 7 is_stmt 0 view .LVU731
 3200              	.LBE1873:
 3201              		.loc 2 1152 2 discriminator 1 view .LVU732
 3202 01d4 7C1C2840 		cmplw 0,28,5
 3203 01d8 40800264 		bge- 0,.L215
 3204              	.LVL209:
 3205              		.loc 2 1152 2 discriminator 1 view .LVU733
 3206              	.LBE1875:
 3207              	.LBE1878:
 3208              	.LBB1879:
 3209              	.LBI1879:
 3210              		.loc 2 1121 7 is_stmt 1 view .LVU734
 3211              		.loc 2 1121 7 is_stmt 0 view .LVU735
 3212              	.LBE1879:
 3213              	.LBE1881:
 3214              		.loc 1 188 70 discriminator 5 view .LVU736
 3215 01dc 7C69F82E 		lwzx 3,9,31
 3216 01e0 48000001 		bl _ZN10GuiElement8GetStateEv
 3217              	.LVL210:
 3218              		.loc 1 188 42 discriminator 6 view .LVU737
 3219 01e4 2C030004 		cmpwi 0,3,4
 3220              	.LBB1882:
 3221              	.LBB1883:
 3222              	.LBB1884:
 3223              	.LBB1885:
 3224              	.LBB1886:
 3225              		.loc 2 988 40 view .LVU738
 3226 01e8 80BE0088 		lwz 5,136(30)
 3227              		.loc 2 988 66 view .LVU739
 3228 01ec 813E0084 		lwz 9,132(30)
 3229              	.LBE1886:
 3230              	.LBE1885:
 3231              	.LBE1884:
 3232              	.LBE1883:
 3233              	.LBE1882:
 3234              		.loc 1 188 42 discriminator 6 view .LVU740
 3235 01f0 41820060 		beq- 0,.L167
 3236              	.LBB1897:
 3237              	.LBB1893:
 3238              	.LBB1890:
 3239              	.LBB1888:
 3240              	.LBB1887:
 3241              		.loc 2 988 50 view .LVU741
 3242 01f4 7CA92850 		subf 5,9,5
 3243 01f8 7CA51670 		srawi 5,5,2
 3244              	.LBE1887:
 3245              	.LBE1888:
 3246              	.LBE1890:
 3247              	.LBE1893:
 3248              	.LBE1897:
 3249              		.loc 1 190 6 is_stmt 1 view .LVU742
 3250              	.LVL211:
 3251              	.LBB1898:
 3252              	.LBI1882:
 3253              		.loc 2 1173 7 view .LVU743
 3254              	.LBB1894:
 3255              	.LBI1883:
 3256              		.loc 2 1150 7 view .LVU744
 3257              	.LBB1891:
 3258              	.LBB1889:
 3259              	.LBI1885:
 3260              		.loc 2 987 7 view .LVU745
 3261              		.loc 2 987 7 is_stmt 0 view .LVU746
 3262              	.LBE1889:
 3263              		.loc 2 1152 2 discriminator 1 view .LVU747
 3264 01fc 7C1C2840 		cmplw 0,28,5
 3265 0200 40800228 		bge- 0,.L216
 3266              	.LVL212:
 3267              		.loc 2 1152 2 discriminator 1 view .LVU748
 3268              	.LBE1891:
 3269              	.LBE1894:
 3270              	.LBB1895:
 3271              	.LBI1895:
 3272              		.loc 2 1121 7 is_stmt 1 view .LVU749
 3273              		.loc 2 1121 7 is_stmt 0 view .LVU750
 3274              	.LBE1895:
 3275              	.LBE1898:
 3276              		.loc 1 190 31 discriminator 1 view .LVU751
 3277 0204 7C69F82E 		lwzx 3,9,31
 3278 0208 38800001 		li 4,1
 3279 020c 81230000 		lwz 9,0(3)
 3280 0210 8129000C 		lwz 9,12(9)
 3281 0214 7D2903A6 		mtctr 9
 3282 0218 4E800421 		bctrl
 3283              	.LVL213:
 3284              	.LEHE13:
 3285 021c 8001002C 		lwz 0,44(1)
 3286 0220 83610014 		lwz 27,20(1)
 3287              		.cfi_remember_state
 3288              		.cfi_restore 27
 3289              	.LVL214:
 3290              		.loc 1 190 31 discriminator 1 view .LVU752
 3291 0224 83810018 		lwz 28,24(1)
 3292              		.cfi_restore 28
 3293 0228 7C0803A6 		mtlr 0
 3294              		.cfi_restore 65
 3295 022c 83A1001C 		lwz 29,28(1)
 3296              		.cfi_restore 29
 3297              	.LVL215:
 3298              		.loc 1 190 31 discriminator 1 view .LVU753
 3299 0230 83E10024 		lwz 31,36(1)
 3300              		.cfi_restore 31
 3301 0234 4BFFFF60 		b .L139
 3302              	.LVL216:
 3303              	.L177:
 3304              		.cfi_restore_state
 3305              		.loc 1 190 31 discriminator 1 view .LVU754
 3306              	.LBE1862:
 3307              	.LBE1858:
 3308              		.loc 1 194 4 view .LVU755
 3309 0238 2C040001 		cmpwi 0,4,1
 3310 023c 4082023C 		bne- 0,.L217
 3311              	.LBB1907:
 3312              	.LBB1902:
 3313              	.LBB1899:
 3314              		.loc 1 194 33 discriminator 1 view .LVU756
 3315 0240 48000001 		bl __cxa_begin_catch
 3316              	.LVL217:
 3317              		.loc 1 194 38 discriminator 2 view .LVU757
 3318 0244 48000001 		bl __cxa_end_catch
 3319              	.LVL218:
 3320 0248 813E0084 		lwz 9,132(30)
 3321 024c 80BE0088 		lwz 5,136(30)
 3322              	.L167:
 3323              		.loc 1 194 38 discriminator 2 view .LVU758
 3324              	.LBE1899:
 3325              	.LBE1902:
 3326              		.loc 1 184 3 is_stmt 1 discriminator 2 view .LVU759
 3327 0250 3BBD0001 		addi 29,29,1
 3328              	.LVL219:
 3329              	.LBB1903:
 3330              	.LBB1860:
 3331              		.loc 2 988 50 is_stmt 0 view .LVU760
 3332 0254 7CA92850 		subf 5,9,5
 3333              	.LBE1860:
 3334              	.LBE1903:
 3335              		.loc 1 184 15 discriminator 1 view .LVU761
 3336 0258 57BC063E 		rlwinm 28,29,0,0xff
 3337              	.LBB1904:
 3338              	.LBB1861:
 3339              		.loc 2 988 50 view .LVU762
 3340 025c 7CA51670 		srawi 5,5,2
 3341              	.LVL220:
 3342              		.loc 2 988 50 view .LVU763
 3343              	.LBE1861:
 3344              	.LBE1904:
 3345              		.loc 1 184 17 is_stmt 1 discriminator 1 view .LVU764
 3346              	.LBB1905:
 3347              		.loc 2 987 7 view .LVU765
 3348              		.loc 2 987 7 is_stmt 0 view .LVU766
 3349              	.LBE1905:
 3350              		.loc 1 184 17 discriminator 1 view .LVU767
 3351 0260 7C1C2840 		cmplw 0,28,5
 3352 0264 4180FF4C 		blt+ 0,.L149
 3353 0268 4BFFFF14 		b .L209
 3354              	.LVL221:
 3355              	.L211:
 3356              		.loc 1 184 17 discriminator 1 view .LVU768
 3357              	.LBE1907:
 3358              	.LBB1908:
 3359              		.loc 1 199 3 view .LVU769
 3360 026c A13B0160 		lhz 9,352(27)
 3361 0270 71290200 		andi. 9,9,0x200
 3362 0274 41A2FF08 		beq- 0,.L209
 3363 0278 4BFFFE20 		b .L143
 3364              	.LVL222:
 3365              	.L179:
 3366              		.cfi_offset 24, -32
 3367              		.cfi_offset 25, -28
 3368              		.cfi_offset 26, -24
 3369              		.loc 1 199 3 view .LVU770
 3370              	.LBE1908:
 3371              		.loc 1 213 4 view .LVU771
 3372 027c 2C040001 		cmpwi 0,4,1
 3373 0280 40820208 		bne- 0,.L218
 3374              	.LBB1909:
 3375              	.LBB1853:
 3376              	.LBB1805:
 3377              	.LBB1801:
 3378              		.loc 1 213 33 discriminator 1 view .LVU772
 3379 0284 48000001 		bl __cxa_begin_catch
 3380              	.LVL223:
 3381              		.loc 1 213 38 discriminator 2 view .LVU773
 3382 0288 48000001 		bl __cxa_end_catch
 3383              	.LVL224:
 3384 028c 815E0084 		lwz 10,132(30)
 3385 0290 813E0088 		lwz 9,136(30)
 3386              	.L170:
 3387              		.loc 1 213 38 discriminator 2 view .LVU774
 3388              	.LBE1801:
 3389              	.LBE1805:
 3390              		.loc 1 201 3 is_stmt 1 discriminator 2 view .LVU775
 3391 0294 3BFF0001 		addi 31,31,1
 3392              	.LVL225:
 3393              	.LBB1806:
 3394              	.LBB1747:
 3395              		.loc 2 988 50 is_stmt 0 view .LVU776
 3396 0298 7D2A4850 		subf 9,10,9
 3397              	.LBE1747:
 3398              	.LBE1806:
 3399              		.loc 1 201 19 discriminator 1 view .LVU777
 3400 029c 57FA063E 		rlwinm 26,31,0,0xff
 3401              	.LBB1807:
 3402              	.LBB1748:
 3403              		.loc 2 988 50 view .LVU778
 3404 02a0 7D291670 		srawi 9,9,2
 3405              	.LVL226:
 3406              		.loc 2 988 50 view .LVU779
 3407              	.LBE1748:
 3408              	.LBE1807:
 3409              		.loc 1 201 21 is_stmt 1 discriminator 1 view .LVU780
 3410              	.LBB1808:
 3411              		.loc 2 987 7 view .LVU781
 3412              		.loc 2 987 7 is_stmt 0 view .LVU782
 3413              	.LBE1808:
 3414              		.loc 1 201 21 discriminator 1 view .LVU783
 3415 02a4 7C1A4840 		cmplw 0,26,9
 3416 02a8 4180FE20 		blt+ 0,.L150
 3417 02ac 4BFFFEBC 		b .L156
 3418              	.LVL227:
 3419              	.L157:
 3420              		.loc 1 201 21 discriminator 1 view .LVU784
 3421              	.LBE1853:
 3422              	.LBB1854:
 3423              	.LBB1811:
 3424              		.loc 1 218 18 is_stmt 1 discriminator 1 view .LVU785
 3425 02b0 2C190000 		cmpwi 0,25,0
 3426 02b4 3BE00000 		li 31,0
 3427 02b8 41A2FEB8 		beq- 0,.L208
 3428              	.LVL228:
 3429              	.L151:
 3430              	.LBB1812:
 3431              		.loc 1 220 5 view .LVU786
 3432              		.loc 1 222 6 view .LVU787
 3433              	.LBB1813:
 3434              	.LBI1813:
 3435              		.loc 2 1173 7 view .LVU788
 3436              	.LBB1814:
 3437              	.LBI1814:
 3438              		.loc 2 1150 7 view .LVU789
 3439              	.LBB1815:
 3440              	.LBB1816:
 3441              	.LBI1816:
 3442              		.loc 2 987 7 view .LVU790
 3443              	.LBB1817:
 3444              		.loc 2 988 66 is_stmt 0 view .LVU791
 3445 02bc 813E0084 		lwz 9,132(30)
 3446              		.loc 2 988 50 view .LVU792
 3447 02c0 80BE0088 		lwz 5,136(30)
 3448 02c4 7CA92850 		subf 5,9,5
 3449 02c8 7CA51670 		srawi 5,5,2
 3450              	.LVL229:
 3451              		.loc 2 988 50 view .LVU793
 3452              	.LBE1817:
 3453              	.LBE1816:
 3454              		.loc 2 1152 2 discriminator 1 view .LVU794
 3455 02cc 7C05F840 		cmplw 0,5,31
 3456 02d0 40810100 		ble- 0,.L219
 3457              	.LVL230:
 3458              		.loc 2 1152 2 discriminator 1 view .LVU795
 3459              	.LBE1815:
 3460              	.LBE1814:
 3461              	.LBB1819:
 3462              	.LBI1819:
 3463              		.loc 2 1121 7 is_stmt 1 view .LVU796
 3464 02d4 57FB103A 		slwi 27,31,2
 3465              	.LVL231:
 3466              		.loc 2 1121 7 is_stmt 0 view .LVU797
 3467              	.LBE1819:
 3468              	.LBE1813:
 3469              		.loc 1 222 35 discriminator 1 view .LVU798
 3470 02d8 7C69D82E 		lwzx 3,9,27
 3471              	.LEHB14:
 3472 02dc 48000001 		bl _ZN10GuiElement9IsFocusedEv
 3473              	.LVL232:
 3474              		.loc 1 222 43 discriminator 2 view .LVU799
 3475 02e0 2C030000 		cmpwi 0,3,0
 3476 02e4 408200A0 		bne- 0,.L173
 3477              	.LVL233:
 3478              	.LBB1821:
 3479              	.LBI1821:
 3480              		.loc 2 1173 7 is_stmt 1 view .LVU800
 3481              	.LBB1822:
 3482              	.LBI1822:
 3483              		.loc 2 1150 7 view .LVU801
 3484              	.LBB1823:
 3485              	.LBB1824:
 3486              	.LBI1824:
 3487              		.loc 2 987 7 view .LVU802
 3488              	.LBB1825:
 3489              		.loc 2 988 66 is_stmt 0 view .LVU803
 3490 02e8 813E0084 		lwz 9,132(30)
 3491              		.loc 2 988 50 view .LVU804
 3492 02ec 80BE0088 		lwz 5,136(30)
 3493 02f0 7CA92850 		subf 5,9,5
 3494 02f4 7CA51670 		srawi 5,5,2
 3495              	.LVL234:
 3496              		.loc 2 988 50 view .LVU805
 3497              	.LBE1825:
 3498              	.LBE1824:
 3499              		.loc 2 1152 2 discriminator 1 view .LVU806
 3500 02f8 7C05F840 		cmplw 0,5,31
 3501 02fc 40810098 		ble- 0,.L220
 3502              	.LVL235:
 3503              		.loc 2 1152 2 discriminator 1 view .LVU807
 3504              	.LBE1823:
 3505              	.LBE1822:
 3506              	.LBB1827:
 3507              	.LBI1827:
 3508              		.loc 2 1121 7 is_stmt 1 view .LVU808
 3509              		.loc 2 1121 7 is_stmt 0 view .LVU809
 3510              	.LBE1827:
 3511              	.LBE1821:
 3512              		.loc 1 222 71 discriminator 5 view .LVU810
 3513 0300 7C69D82E 		lwzx 3,9,27
 3514 0304 48000001 		bl _ZN10GuiElement8GetStateEv
 3515              	.LVL236:
 3516              		.loc 1 222 43 discriminator 6 view .LVU811
 3517 0308 2C030004 		cmpwi 0,3,4
 3518 030c 41820078 		beq- 0,.L173
 3519              		.loc 1 224 7 is_stmt 1 view .LVU812
 3520              	.LVL237:
 3521              	.LBB1829:
 3522              	.LBI1829:
 3523              		.loc 2 1173 7 view .LVU813
 3524              	.LBB1830:
 3525              	.LBI1830:
 3526              		.loc 2 1150 7 view .LVU814
 3527              	.LBB1831:
 3528              	.LBB1832:
 3529              	.LBI1832:
 3530              		.loc 2 987 7 view .LVU815
 3531              	.LBB1833:
 3532              		.loc 2 988 66 is_stmt 0 view .LVU816
 3533 0310 815E0084 		lwz 10,132(30)
 3534              		.loc 2 988 50 view .LVU817
 3535 0314 813E0088 		lwz 9,136(30)
 3536 0318 7D2A4850 		subf 9,10,9
 3537 031c 7D251670 		srawi 5,9,2
 3538              	.LVL238:
 3539              		.loc 2 988 50 view .LVU818
 3540              	.LBE1833:
 3541              	.LBE1832:
 3542              		.loc 2 1152 2 discriminator 1 view .LVU819
 3543 0320 7C05F840 		cmplw 0,5,31
 3544 0324 40810098 		ble- 0,.L221
 3545              	.LVL239:
 3546              		.loc 2 1152 2 discriminator 1 view .LVU820
 3547              	.LBE1831:
 3548              	.LBE1830:
 3549              	.LBB1835:
 3550              	.LBI1835:
 3551              		.loc 2 1121 7 is_stmt 1 view .LVU821
 3552              		.loc 2 1121 7 is_stmt 0 view .LVU822
 3553              	.LBE1835:
 3554              	.LBE1829:
 3555              		.loc 1 224 32 discriminator 1 view .LVU823
 3556 0328 7C6AD82E 		lwzx 3,10,27
 3557 032c 38800001 		li 4,1
 3558 0330 81230000 		lwz 9,0(3)
 3559 0334 8129000C 		lwz 9,12(9)
 3560 0338 7D2903A6 		mtctr 9
 3561 033c 4E800421 		bctrl
 3562              	.LVL240:
 3563              		.loc 1 225 7 is_stmt 1 view .LVU824
 3564              	.LBB1837:
 3565              	.LBI1837:
 3566              		.loc 2 1173 7 view .LVU825
 3567              	.LBB1838:
 3568              	.LBI1838:
 3569              		.loc 2 1150 7 view .LVU826
 3570              	.LBB1839:
 3571              	.LBB1840:
 3572              	.LBI1840:
 3573              		.loc 2 987 7 view .LVU827
 3574              	.LBB1841:
 3575              		.loc 2 988 66 is_stmt 0 view .LVU828
 3576 0340 815E0084 		lwz 10,132(30)
 3577              		.loc 2 988 50 view .LVU829
 3578 0344 813E0088 		lwz 9,136(30)
 3579 0348 7D2A4850 		subf 9,10,9
 3580 034c 7D251670 		srawi 5,9,2
 3581              	.LVL241:
 3582              		.loc 2 988 50 view .LVU830
 3583              	.LBE1841:
 3584              	.LBE1840:
 3585              		.loc 2 1152 2 discriminator 1 view .LVU831
 3586 0350 7C05E840 		cmplw 0,5,29
 3587 0354 40810054 		ble- 0,.L222
 3588              	.LVL242:
 3589              		.loc 2 1152 2 discriminator 1 view .LVU832
 3590              	.LBE1839:
 3591              	.LBE1838:
 3592              	.LBB1843:
 3593              	.LBI1843:
 3594              		.loc 2 1121 7 is_stmt 1 view .LVU833
 3595              		.loc 2 1121 7 is_stmt 0 view .LVU834
 3596              	.LBE1843:
 3597              	.LBE1837:
 3598              		.loc 1 225 36 discriminator 1 view .LVU835
 3599 0358 7C6AE02E 		lwzx 3,10,28
 3600 035c 38800000 		li 4,0
 3601 0360 81230000 		lwz 9,0(3)
 3602 0364 8129000C 		lwz 9,12(9)
 3603 0368 7D2903A6 		mtctr 9
 3604 036c 4E800421 		bctrl
 3605              	.LVL243:
 3606 0370 4BFFFE00 		b .L208
 3607              	.L178:
 3608              	.LBE1812:
 3609              	.LBE1811:
 3610              	.LBE1854:
 3611              	.LBE1909:
 3612              		.loc 1 229 5 view .LVU836
 3613 0374 2C040001 		cmpwi 0,4,1
 3614 0378 408200FC 		bne- 0,.L223
 3615              	.LBB1910:
 3616              	.LBB1855:
 3617              	.LBB1852:
 3618              	.LBB1850:
 3619              	.LBB1845:
 3620              		.loc 1 229 34 discriminator 1 view .LVU837
 3621 037c 48000001 		bl __cxa_begin_catch
 3622              	.LVL244:
 3623              		.loc 1 229 39 discriminator 2 view .LVU838
 3624 0380 48000001 		bl __cxa_end_catch
 3625              	.LVL245:
 3626              	.L173:
 3627              	.LBE1845:
 3628              	.LBE1850:
 3629              		.loc 1 218 4 is_stmt 1 discriminator 2 view .LVU839
 3630              		.loc 1 218 18 discriminator 1 view .LVU840
 3631 0384 3BFF0001 		addi 31,31,1
 3632              	.LVL246:
 3633              		.loc 1 218 18 is_stmt 0 discriminator 1 view .LVU841
 3634 0388 7C19F840 		cmplw 0,25,31
 3635 038c 4082FF30 		bne+ 0,.L151
 3636 0390 4BFFFDE0 		b .L208
 3637              	.LVL247:
 3638              	.L220:
 3639              	.LBB1851:
 3640              	.LBB1846:
 3641              	.LBB1828:
 3642              	.LBB1826:
 3643              		.loc 2 1153 28 discriminator 1 view .LVU842
 3644 0394 3C600000 		lis 3,.LC7@ha
 3645 0398 7FE4FB78 		mr 4,31
 3646 039c 38630000 		la 3,.LC7@l(3)
 3647 03a0 4CC63182 		crxor 6,6,6
 3648 03a4 48000001 		bl _ZSt24__throw_out_of_range_fmtPKcz
 3649              	.LVL248:
 3650              	.L222:
 3651              		.loc 2 1153 28 discriminator 1 view .LVU843
 3652              	.LBE1826:
 3653              	.LBE1828:
 3654              	.LBE1846:
 3655              	.LBB1847:
 3656              	.LBB1844:
 3657              	.LBB1842:
 3658 03a8 3C600000 		lis 3,.LC7@ha
 3659 03ac 7FA4EB78 		mr 4,29
 3660 03b0 38630000 		la 3,.LC7@l(3)
 3661 03b4 4CC63182 		crxor 6,6,6
 3662 03b8 48000001 		bl _ZSt24__throw_out_of_range_fmtPKcz
 3663              	.LVL249:
 3664              	.L221:
 3665              		.loc 2 1153 28 discriminator 1 view .LVU844
 3666              	.LBE1842:
 3667              	.LBE1844:
 3668              	.LBE1847:
 3669              	.LBB1848:
 3670              	.LBB1836:
 3671              	.LBB1834:
 3672 03bc 3C600000 		lis 3,.LC7@ha
 3673 03c0 7FE4FB78 		mr 4,31
 3674 03c4 38630000 		la 3,.LC7@l(3)
 3675 03c8 4CC63182 		crxor 6,6,6
 3676 03cc 48000001 		bl _ZSt24__throw_out_of_range_fmtPKcz
 3677              	.LVL250:
 3678              	.L219:
 3679              		.loc 2 1153 28 discriminator 1 view .LVU845
 3680              	.LBE1834:
 3681              	.LBE1836:
 3682              	.LBE1848:
 3683              	.LBB1849:
 3684              	.LBB1820:
 3685              	.LBB1818:
 3686 03d0 3C600000 		lis 3,.LC7@ha
 3687 03d4 7FE4FB78 		mr 4,31
 3688 03d8 38630000 		la 3,.LC7@l(3)
 3689 03dc 4CC63182 		crxor 6,6,6
 3690 03e0 48000001 		bl _ZSt24__throw_out_of_range_fmtPKcz
 3691              	.LVL251:
 3692              	.LEHE14:
 3693              	.L214:
 3694              		.loc 2 1153 28 discriminator 1 view .LVU846
 3695              	.LBE1818:
 3696              	.LBE1820:
 3697              	.LBE1849:
 3698              	.LBE1851:
 3699              	.LBE1852:
 3700              	.LBE1855:
 3701              	.LBB1856:
 3702              	.LBB1809:
 3703              	.LBB1802:
 3704              	.LBB1800:
 3705              	.LBB1798:
 3706 03e4 3C600000 		lis 3,.LC7@ha
 3707 03e8 7FA4EB78 		mr 4,29
 3708 03ec 38630000 		la 3,.LC7@l(3)
 3709              	.LEHB15:
 3710 03f0 4CC63182 		crxor 6,6,6
 3711 03f4 48000001 		bl _ZSt24__throw_out_of_range_fmtPKcz
 3712              	.LVL252:
 3713              	.L213:
 3714              		.loc 2 1153 28 discriminator 1 view .LVU847
 3715              	.LBE1798:
 3716              	.LBE1800:
 3717              	.LBE1802:
 3718              	.LBB1803:
 3719              	.LBB1789:
 3720              	.LBB1784:
 3721 03f8 3C600000 		lis 3,.LC7@ha
 3722 03fc 7D254B78 		mr 5,9
 3723 0400 7F44D378 		mr 4,26
 3724 0404 38630000 		la 3,.LC7@l(3)
 3725 0408 4CC63182 		crxor 6,6,6
 3726 040c 48000001 		bl _ZSt24__throw_out_of_range_fmtPKcz
 3727              	.LVL253:
 3728              	.L212:
 3729              		.loc 2 1153 28 discriminator 1 view .LVU848
 3730              	.LBE1784:
 3731              	.LBE1789:
 3732              	.LBE1803:
 3733              	.LBB1804:
 3734              	.LBB1769:
 3735              	.LBB1765:
 3736 0410 3C600000 		lis 3,.LC7@ha
 3737 0414 7D254B78 		mr 5,9
 3738 0418 7F44D378 		mr 4,26
 3739 041c 38630000 		la 3,.LC7@l(3)
 3740 0420 4CC63182 		crxor 6,6,6
 3741 0424 48000001 		bl _ZSt24__throw_out_of_range_fmtPKcz
 3742              	.LVL254:
 3743              	.LEHE15:
 3744              	.L216:
 3745              		.cfi_restore 24
 3746              		.cfi_restore 25
 3747              		.cfi_restore 26
 3748              		.loc 2 1153 28 discriminator 1 view .LVU849
 3749              	.LBE1765:
 3750              	.LBE1769:
 3751              	.LBE1804:
 3752              	.LBE1809:
 3753              	.LBE1856:
 3754              	.LBE1910:
 3755              	.LBB1911:
 3756              	.LBB1906:
 3757              	.LBB1900:
 3758              	.LBB1896:
 3759              	.LBB1892:
 3760 0428 3C600000 		lis 3,.LC7@ha
 3761 042c 7F84E378 		mr 4,28
 3762 0430 38630000 		la 3,.LC7@l(3)
 3763              	.LEHB16:
 3764 0434 4CC63182 		crxor 6,6,6
 3765 0438 48000001 		bl _ZSt24__throw_out_of_range_fmtPKcz
 3766              	.LVL255:
 3767              	.L215:
 3768              		.loc 2 1153 28 discriminator 1 view .LVU850
 3769              	.LBE1892:
 3770              	.LBE1896:
 3771              	.LBE1900:
 3772              	.LBB1901:
 3773              	.LBB1880:
 3774              	.LBB1876:
 3775 043c 3C600000 		lis 3,.LC7@ha
 3776 0440 7F84E378 		mr 4,28
 3777 0444 38630000 		la 3,.LC7@l(3)
 3778 0448 4CC63182 		crxor 6,6,6
 3779 044c 48000001 		bl _ZSt24__throw_out_of_range_fmtPKcz
 3780              	.LVL256:
 3781              	.LEHE16:
 3782              	.L176:
 3783              		.loc 2 1153 28 discriminator 1 view .LVU851
 3784              	.LBE1876:
 3785              	.LBE1880:
 3786              	.LBE1901:
 3787              	.LBE1906:
 3788              	.LBE1911:
 3789              		.loc 1 178 3 view .LVU852
 3790 0450 2C040001 		cmpwi 0,4,1
 3791 0454 40820010 		bne- 0,.L224
 3792              	.LBB1912:
 3793              	.LBB1739:
 3794              	.LBB1738:
 3795              		.loc 1 178 32 discriminator 1 view .LVU853
 3796 0458 48000001 		bl __cxa_begin_catch
 3797              	.LVL257:
 3798              		.loc 1 178 37 discriminator 2 view .LVU854
 3799 045c 48000001 		bl __cxa_end_catch
 3800              	.LVL258:
 3801 0460 4BFFFBF0 		b .L142
 3802              	.L224:
 3803 0464 93010008 		stw 24,8(1)
 3804              		.cfi_offset 24, -32
 3805 0468 9321000C 		stw 25,12(1)
 3806              		.cfi_offset 25, -28
 3807 046c 93410010 		stw 26,16(1)
 3808              		.cfi_offset 26, -24
 3809              	.LEHB17:
 3810 0470 48000001 		bl _Unwind_Resume
 3811              	.LVL259:
 3812              	.L223:
 3813              		.loc 1 178 37 discriminator 2 view .LVU855
 3814 0474 48000001 		bl _Unwind_Resume
 3815              	.LVL260:
 3816              	.L217:
 3817              		.cfi_restore 24
 3818              		.cfi_restore 25
 3819              		.cfi_restore 26
 3820              		.loc 1 178 37 discriminator 2 view .LVU856
 3821 0478 93010008 		stw 24,8(1)
 3822              		.cfi_offset 24, -32
 3823 047c 9321000C 		stw 25,12(1)
 3824              		.cfi_offset 25, -28
 3825 0480 93410010 		stw 26,16(1)
 3826              		.cfi_offset 26, -24
 3827 0484 48000001 		bl _Unwind_Resume
 3828              	.LVL261:
 3829              	.L218:
 3830              		.loc 1 178 37 discriminator 2 view .LVU857
 3831 0488 48000001 		bl _Unwind_Resume
 3832              	.LVL262:
 3833              	.LEHE17:
 3834              	.LBE1738:
 3835              	.LBE1739:
 3836              	.LBE1912:
 3837              		.cfi_endproc
 3838              	.LFE2364:
 3839              		.section	.gcc_except_table._ZN9GuiWindow11ToggleFocusEP10GuiTrigger,"a",@progbits
 3840              		.align 2
 3841              	.LLSDA2364:
 3842 0000 FF       		.byte	0xff
 3843 0001 00       		.byte	0
 3844 0002 35       		.uleb128 .LLSDATT2364-.LLSDATTD2364
 3845              	.LLSDATTD2364:
 3846 0003 01       		.byte	0x1
 3847 0004 2A       		.uleb128 .LLSDACSE2364-.LLSDACSB2364
 3848              	.LLSDACSB2364:
 3849 0005 78       		.uleb128 .LEHB11-.LFB2364
 3850 0006 04       		.uleb128 .LEHE11-.LEHB11
 3851 0007 D008     		.uleb128 .L176-.LFB2364
 3852 0009 01       		.uleb128 0x1
 3853 000a D001     		.uleb128 .LEHB12-.LFB2364
 3854 000c 9801     		.uleb128 .LEHE12-.LEHB12
 3855 000e FC04     		.uleb128 .L179-.LFB2364
 3856 0010 01       		.uleb128 0x1
 3857 0011 B803     		.uleb128 .LEHB13-.LFB2364
 3858 0013 64       		.uleb128 .LEHE13-.LEHB13
 3859 0014 B804     		.uleb128 .L177-.LFB2364
 3860 0016 01       		.uleb128 0x1
 3861 0017 DC05     		.uleb128 .LEHB14-.LFB2364
 3862 0019 8802     		.uleb128 .LEHE14-.LEHB14
 3863 001b F406     		.uleb128 .L178-.LFB2364
 3864 001d 01       		.uleb128 0x1
 3865 001e F007     		.uleb128 .LEHB15-.LFB2364
 3866 0020 38       		.uleb128 .LEHE15-.LEHB15
 3867 0021 FC04     		.uleb128 .L179-.LFB2364
 3868 0023 01       		.uleb128 0x1
 3869 0024 B408     		.uleb128 .LEHB16-.LFB2364
 3870 0026 1C       		.uleb128 .LEHE16-.LEHB16
 3871 0027 B804     		.uleb128 .L177-.LFB2364
 3872 0029 01       		.uleb128 0x1
 3873 002a F008     		.uleb128 .LEHB17-.LFB2364
 3874 002c 1C       		.uleb128 .LEHE17-.LEHB17
 3875 002d 00       		.uleb128 0
 3876 002e 00       		.uleb128 0
 3877              	.LLSDACSE2364:
 3878 002f 01       		.byte	0x1
 3879 0030 00       		.byte	0
 3880 0031 000000   		.align 2
 3881 0034 00000000 		.long	_ZTISt9exception
 3882              	.LLSDATT2364:
 3883              		.section	.text._ZN9GuiWindow11ToggleFocusEP10GuiTrigger
 3884              		.size	_ZN9GuiWindow11ToggleFocusEP10GuiTrigger, .-_ZN9GuiWindow11ToggleFocusEP10GuiTrigger
 3885              		.section	.text._ZN9GuiWindow16MoveSelectionHorEi,"ax",@progbits
 3886              		.align 2
 3887              		.globl _ZN9GuiWindow16MoveSelectionHorEi
 3888              		.type	_ZN9GuiWindow16MoveSelectionHorEi, @function
 3889              	_ZN9GuiWindow16MoveSelectionHorEi:
 3890              	.LVL263:
 3891              	.LFB2366:
 3892              		.loc 1 257 1 is_stmt 1 view -0
 3893              		.cfi_startproc
 3894              		.cfi_personality 0,__gxx_personality_v0
 3895              		.cfi_lsda 0,.LLSDA2366
 3896              		.loc 1 258 2 view .LVU859
 3897              		.loc 1 259 2 view .LVU860
 3898              		.loc 1 260 2 view .LVU861
 3899              		.loc 1 261 2 view .LVU862
 3900              		.loc 1 263 2 view .LVU863
 3901              		.loc 1 263 34 is_stmt 0 view .LVU864
 3902 0000 81430000 		lwz 10,0(3)
 3903 0004 3D200000 		lis 9,_ZN9GuiWindow11GetSelectedEv@ha
 3904 0008 39290000 		la 9,_ZN9GuiWindow11GetSelectedEv@l(9)
 3905              		.loc 1 257 1 view .LVU865
 3906 000c 9421FFD0 		stwu 1,-48(1)
 3907              		.cfi_def_cfa_offset 48
 3908              		.loc 1 263 34 view .LVU866
 3909 0010 814A0018 		lwz 10,24(10)
 3910              		.loc 1 257 1 view .LVU867
 3911 0014 7C0802A6 		mflr 0
 3912 0018 93A10024 		stw 29,36(1)
 3913              		.cfi_register 65, 0
 3914              		.cfi_offset 29, -12
 3915 001c 7C9D2378 		mr 29,4
 3916 0020 7C0A4800 		cmpw 0,10,9
 3917 0024 93E1002C 		stw 31,44(1)
 3918 0028 90010034 		stw 0,52(1)
 3919              		.cfi_offset 31, -4
 3920              		.cfi_offset 65, 4
 3921 002c 7C7F1B78 		mr 31,3
 3922 0030 93210014 		stw 25,20(1)
 3923 0034 93410018 		stw 26,24(1)
 3924 0038 93810020 		stw 28,32(1)
 3925 003c 93C10028 		stw 30,40(1)
 3926              		.cfi_offset 25, -28
 3927              		.cfi_offset 26, -24
 3928              		.cfi_offset 28, -16
 3929              		.cfi_offset 30, -8
 3930 0040 408203EC 		bne- 0,.L226
 3931              	.LVL264:
 3932              	.LBB2044:
 3933              	.LBB2045:
 3934              	.LBB2046:
 3935              		.loc 1 239 19 is_stmt 1 discriminator 1 view .LVU868
 3936              	.LBB2047:
 3937              	.LBI2047:
 3938              		.loc 2 987 7 view .LVU869
 3939              	.LBB2048:
 3940              		.loc 2 988 66 is_stmt 0 view .LVU870
 3941 0044 81030084 		lwz 8,132(3)
 3942              	.LVL265:
 3943              		.loc 2 988 66 view .LVU871
 3944              	.LBE2048:
 3945              	.LBE2047:
 3946              		.loc 1 239 19 discriminator 1 view .LVU872
 3947 0048 81230088 		lwz 9,136(3)
 3948 004c 7C094000 		cmpw 0,9,8
 3949 0050 41820330 		beq- 0,.L225
 3950              		.loc 1 239 10 view .LVU873
 3951 0054 3BC00000 		li 30,0
 3952              		.loc 1 239 17 discriminator 1 view .LVU874
 3953 0058 39200000 		li 9,0
 3954 005c 48000024 		b .L230
 3955              	.LVL266:
 3956              	.L228:
 3957              		.loc 1 239 2 is_stmt 1 discriminator 2 view .LVU875
 3958              	.LBB2052:
 3959              	.LBB2049:
 3960              		.loc 2 988 40 is_stmt 0 view .LVU876
 3961 0060 80BF0088 		lwz 5,136(31)
 3962              	.LBE2049:
 3963              	.LBE2052:
 3964              		.loc 1 239 2 discriminator 2 view .LVU877
 3965 0064 3BDE0001 		addi 30,30,1
 3966              	.LVL267:
 3967              	.LBB2053:
 3968              	.LBB2050:
 3969              		.loc 2 988 66 view .LVU878
 3970 0068 811F0084 		lwz 8,132(31)
 3971              	.LBE2050:
 3972              	.LBE2053:
 3973              		.loc 1 239 17 discriminator 1 view .LVU879
 3974 006c 57C9063E 		rlwinm 9,30,0,0xff
 3975              	.LVL268:
 3976              		.loc 1 239 19 is_stmt 1 discriminator 1 view .LVU880
 3977              	.LBB2054:
 3978              		.loc 2 987 7 view .LVU881
 3979              	.LBB2051:
 3980              		.loc 2 988 50 is_stmt 0 view .LVU882
 3981 0070 7D482850 		subf 10,8,5
 3982 0074 7D4A1670 		srawi 10,10,2
 3983              	.LBE2051:
 3984              	.LBE2054:
 3985              		.loc 1 239 19 discriminator 1 view .LVU883
 3986 0078 7C095040 		cmplw 0,9,10
 3987 007c 40800398 		bge- 0,.L294
 3988              	.LVL269:
 3989              	.L230:
 3990              	.LBB2055:
 3991              		.loc 1 241 3 is_stmt 1 view .LVU884
 3992              		.loc 1 243 4 view .LVU885
 3993              	.LBB2056:
 3994              	.LBI2056:
 3995              		.loc 2 1173 7 view .LVU886
 3996              	.LBB2057:
 3997              	.LBI2057:
 3998              		.loc 2 1121 7 view .LVU887
 3999              		.loc 2 1121 7 is_stmt 0 view .LVU888
 4000              	.LBE2057:
 4001              	.LBE2056:
 4002              		.loc 1 243 32 discriminator 1 view .LVU889
 4003 0080 5529103A 		slwi 9,9,2
 4004 0084 7C68482E 		lwzx 3,8,9
 4005              	.LEHB18:
 4006 0088 48000001 		bl _ZN10GuiElement8GetStateEv
 4007              	.LVL270:
 4008              	.LEHE18:
 4009              		.loc 1 243 4 discriminator 2 view .LVU890
 4010 008c 2C030001 		cmpwi 0,3,1
 4011 0090 4082FFD0 		bne+ 0,.L228
 4012              		.loc 1 245 5 is_stmt 1 view .LVU891
 4013              	.LBE2055:
 4014              	.LBE2046:
 4015              	.LBE2045:
 4016              	.LBE2044:
 4017              	.LBB2066:
 4018              	.LBB2067:
 4019              	.LBB2068:
 4020              	.LBB2069:
 4021              	.LBB2070:
 4022              		.loc 2 988 40 is_stmt 0 view .LVU892
 4023 0094 80BF0088 		lwz 5,136(31)
 4024              	.LBE2070:
 4025              	.LBE2069:
 4026              	.LBE2068:
 4027              	.LBE2067:
 4028              	.LBE2066:
 4029              	.LBB2089:
 4030              	.LBB2063:
 4031              	.LBB2061:
 4032              	.LBB2059:
 4033              		.loc 1 245 11 view .LVU893
 4034 0098 57DE063E 		rlwinm 30,30,0,0xff
 4035              	.LVL271:
 4036              		.loc 1 246 5 is_stmt 1 view .LVU894
 4037              		.loc 1 246 5 is_stmt 0 view .LVU895
 4038              	.LBE2059:
 4039              	.LBE2061:
 4040              	.LBE2063:
 4041              	.LBE2089:
 4042              		.loc 1 265 2 is_stmt 1 view .LVU896
 4043              	.LBB2090:
 4044              	.LBB2083:
 4045              	.LBB2079:
 4046              	.LBB2075:
 4047              	.LBB2071:
 4048              		.loc 2 988 66 is_stmt 0 view .LVU897
 4049 009c 811F0084 		lwz 8,132(31)
 4050              	.LVL272:
 4051              	.L229:
 4052              		.loc 2 988 66 view .LVU898
 4053              	.LBE2071:
 4054              	.LBE2075:
 4055              	.LBE2079:
 4056              	.LBE2083:
 4057              	.LBE2090:
 4058              		.loc 1 267 3 is_stmt 1 view .LVU899
 4059              	.LBB2091:
 4060              	.LBI2066:
 4061              		.loc 2 1173 7 view .LVU900
 4062              	.LBB2084:
 4063              	.LBI2067:
 4064              		.loc 2 1150 7 view .LVU901
 4065              	.LBB2080:
 4066              	.LBB2076:
 4067              	.LBI2069:
 4068              		.loc 2 987 7 view .LVU902
 4069              	.LBB2072:
 4070              		.loc 2 988 50 is_stmt 0 view .LVU903
 4071 00a0 7CA82850 		subf 5,8,5
 4072 00a4 7CA51670 		srawi 5,5,2
 4073              	.LVL273:
 4074              		.loc 2 988 50 view .LVU904
 4075              	.LBE2072:
 4076              	.LBE2076:
 4077              		.loc 2 1152 2 discriminator 1 view .LVU905
 4078 00a8 7C1E2840 		cmplw 0,30,5
 4079 00ac 40800414 		bge- 0,.L292
 4080              	.LVL274:
 4081              		.loc 2 1152 2 discriminator 1 view .LVU906
 4082              	.LBE2080:
 4083              	.LBE2084:
 4084              	.LBB2085:
 4085              	.LBI2085:
 4086              		.loc 2 1121 7 is_stmt 1 view .LVU907
 4087              	.LBB2086:
 4088              		.loc 2 1124 34 is_stmt 0 view .LVU908
 4089 00b0 57DC103A 		slwi 28,30,2
 4090              	.LVL275:
 4091              		.loc 2 1124 34 view .LVU909
 4092              	.LBE2086:
 4093              	.LBE2085:
 4094              	.LBE2091:
 4095              		.loc 1 267 41 discriminator 1 view .LVU910
 4096 00b4 7C68E02E 		lwzx 3,8,28
 4097              	.LEHB19:
 4098 00b8 48000001 		bl _ZN10GuiElement7GetLeftEv
 4099              	.LVL276:
 4100              	.LBB2092:
 4101              	.LBB2093:
 4102              	.LBB2094:
 4103              	.LBB2095:
 4104              	.LBB2096:
 4105              		.loc 2 988 66 view .LVU911
 4106 00bc 813F0084 		lwz 9,132(31)
 4107              		.loc 2 988 50 view .LVU912
 4108 00c0 80BF0088 		lwz 5,136(31)
 4109              	.LBE2096:
 4110              	.LBE2095:
 4111              	.LBE2094:
 4112              	.LBE2093:
 4113              	.LBE2092:
 4114              		.loc 1 267 8 discriminator 2 view .LVU913
 4115 00c4 7C7A1B78 		mr 26,3
 4116              	.LVL277:
 4117              		.loc 1 268 3 is_stmt 1 view .LVU914
 4118              	.LBB2104:
 4119              	.LBI2092:
 4120              		.loc 2 1173 7 view .LVU915
 4121              	.LBB2101:
 4122              	.LBI2093:
 4123              		.loc 2 1150 7 view .LVU916
 4124              	.LBB2099:
 4125              	.LBB2098:
 4126              	.LBI2095:
 4127              		.loc 2 987 7 view .LVU917
 4128              	.LBB2097:
 4129              		.loc 2 988 50 is_stmt 0 view .LVU918
 4130 00c8 7CA92850 		subf 5,9,5
 4131 00cc 7CA51670 		srawi 5,5,2
 4132              	.LVL278:
 4133              		.loc 2 988 50 view .LVU919
 4134              	.LBE2097:
 4135              	.LBE2098:
 4136              		.loc 2 1152 2 discriminator 1 view .LVU920
 4137 00d0 7C1E2840 		cmplw 0,30,5
 4138 00d4 408003EC 		bge- 0,.L292
 4139              	.LVL279:
 4140              		.loc 2 1152 2 discriminator 1 view .LVU921
 4141              	.LBE2099:
 4142              	.LBE2101:
 4143              	.LBB2102:
 4144              	.LBI2102:
 4145              		.loc 2 1121 7 is_stmt 1 view .LVU922
 4146              		.loc 2 1121 7 is_stmt 0 view .LVU923
 4147              	.LBE2102:
 4148              	.LBE2104:
 4149              		.loc 1 268 39 discriminator 1 view .LVU924
 4150 00d8 7C69E02E 		lwzx 3,9,28
 4151              	.LVL280:
 4152              		.loc 1 268 39 discriminator 1 view .LVU925
 4153 00dc 48000001 		bl _ZN10GuiElement6GetTopEv
 4154              	.LVL281:
 4155              	.LEHE19:
 4156              	.LBB2105:
 4157              	.LBB2106:
 4158              	.LBB2107:
 4159              		.loc 2 988 40 view .LVU926
 4160 00e0 80BF0088 		lwz 5,136(31)
 4161              		.loc 2 988 66 view .LVU927
 4162 00e4 811F0084 		lwz 8,132(31)
 4163              	.LBE2107:
 4164              	.LBE2106:
 4165              	.LBE2105:
 4166              		.loc 1 268 7 discriminator 2 view .LVU928
 4167 00e8 7C791B78 		mr 25,3
 4168              	.LVL282:
 4169              	.L231:
 4170              		.loc 1 272 2 is_stmt 1 view .LVU929
 4171              	.LBB2195:
 4172              		.loc 1 272 16 discriminator 1 view .LVU930
 4173              	.LBB2111:
 4174              	.LBI2106:
 4175              		.loc 2 987 7 view .LVU931
 4176              		.loc 2 987 7 is_stmt 0 view .LVU932
 4177              	.LBE2111:
 4178              		.loc 1 272 16 discriminator 1 view .LVU933
 4179 00ec 7C054040 		cmplw 0,5,8
 4180 00f0 41820290 		beq- 0,.L225
 4181              	.LBB2112:
 4182              		.loc 1 278 45 discriminator 2 view .LVU934
 4183 00f4 575A043E 		rlwinm 26,26,0,0xffff
 4184              		.loc 1 278 45 discriminator 2 view .LVU935
 4185 00f8 92C10008 		stw 22,8(1)
 4186              		.cfi_offset 22, -40
 4187 00fc 7F5AE9D6 		mullw 26,26,29
 4188              	.LVL283:
 4189              		.loc 1 278 45 discriminator 2 view .LVU936
 4190 0100 92E1000C 		stw 23,12(1)
 4191              		.cfi_offset 23, -36
 4192 0104 93010010 		stw 24,16(1)
 4193              		.cfi_offset 24, -32
 4194              	.LBE2112:
 4195              		.loc 1 272 9 view .LVU937
 4196 0108 3AE00000 		li 23,0
 4197 010c 9361001C 		stw 27,28(1)
 4198              		.cfi_offset 27, -20
 4199              	.LBE2195:
 4200              		.loc 1 258 6 view .LVU938
 4201 0110 3B80FFFF 		li 28,-1
 4202              	.LBB2196:
 4203              		.loc 1 272 14 discriminator 1 view .LVU939
 4204 0114 3B600000 		li 27,0
 4205              	.LBB2184:
 4206              		.loc 1 278 82 discriminator 6 view .LVU940
 4207 0118 5738043E 		rlwinm 24,25,0,0xffff
 4208              	.LVL284:
 4209              	.L244:
 4210              		.loc 1 274 3 is_stmt 1 view .LVU941
 4211              		.loc 1 276 4 view .LVU942
 4212              	.LBB2113:
 4213              	.LBI2113:
 4214              		.loc 2 1173 7 view .LVU943
 4215              	.LBB2114:
 4216              	.LBI2114:
 4217              		.loc 2 1121 7 view .LVU944
 4218              	.LBB2115:
 4219              		.loc 2 1124 34 is_stmt 0 view .LVU945
 4220 011c 5776103A 		slwi 22,27,2
 4221              	.LVL285:
 4222              		.loc 2 1124 34 view .LVU946
 4223              	.LBE2115:
 4224              	.LBE2114:
 4225              	.LBE2113:
 4226              		.loc 1 276 36 discriminator 1 view .LVU947
 4227 0120 7C68B02E 		lwzx 3,8,22
 4228              	.LEHB20:
 4229 0124 48000001 		bl _ZN10GuiElement12IsSelectableEv
 4230              	.LVL286:
 4231              		.loc 1 276 4 discriminator 2 view .LVU948
 4232 0128 2C030000 		cmpwi 0,3,0
 4233              	.LBB2116:
 4234              	.LBB2117:
 4235              	.LBB2118:
 4236              	.LBB2119:
 4237              	.LBB2120:
 4238              		.loc 2 988 40 view .LVU949
 4239 012c 815F0088 		lwz 10,136(31)
 4240              		.loc 2 988 66 view .LVU950
 4241 0130 813F0084 		lwz 9,132(31)
 4242              	.LBE2120:
 4243              	.LBE2119:
 4244              	.LBE2118:
 4245              	.LBE2117:
 4246              	.LBE2116:
 4247              		.loc 1 276 4 discriminator 2 view .LVU951
 4248 0134 41820058 		beq- 0,.L240
 4249              	.LBB2131:
 4250              	.LBB2127:
 4251              	.LBB2124:
 4252              	.LBB2122:
 4253              	.LBB2121:
 4254              		.loc 2 988 50 view .LVU952
 4255 0138 7D495050 		subf 10,9,10
 4256 013c 7D4A1670 		srawi 10,10,2
 4257              	.LBE2121:
 4258              	.LBE2122:
 4259              	.LBE2124:
 4260              	.LBE2127:
 4261              	.LBE2131:
 4262              		.loc 1 278 5 is_stmt 1 view .LVU953
 4263              	.LVL287:
 4264              	.LBB2132:
 4265              	.LBI2116:
 4266              		.loc 2 1173 7 view .LVU954
 4267              	.LBB2128:
 4268              	.LBI2117:
 4269              		.loc 2 1150 7 view .LVU955
 4270              	.LBB2125:
 4271              	.LBB2123:
 4272              	.LBI2119:
 4273              		.loc 2 987 7 view .LVU956
 4274              		.loc 2 987 7 is_stmt 0 view .LVU957
 4275              	.LBE2123:
 4276              		.loc 2 1152 2 discriminator 1 view .LVU958
 4277 0140 7C1B5040 		cmplw 0,27,10
 4278 0144 40800364 		bge- 0,.L295
 4279              	.LVL288:
 4280              		.loc 2 1152 2 discriminator 1 view .LVU959
 4281              	.LBE2125:
 4282              	.LBE2128:
 4283              	.LBB2129:
 4284              	.LBI2129:
 4285              		.loc 2 1121 7 is_stmt 1 view .LVU960
 4286              		.loc 2 1121 7 is_stmt 0 view .LVU961
 4287              	.LBE2129:
 4288              	.LBE2132:
 4289              		.loc 1 278 32 discriminator 1 view .LVU962
 4290 0148 7C69B02E 		lwzx 3,9,22
 4291 014c 48000001 		bl _ZN10GuiElement7GetLeftEv
 4292              	.LVL289:
 4293              		.loc 1 278 34 discriminator 2 view .LVU963
 4294 0150 7C7D19D6 		mullw 3,29,3
 4295              	.LBB2133:
 4296              	.LBB2134:
 4297              	.LBB2135:
 4298              	.LBB2136:
 4299              	.LBB2137:
 4300              		.loc 2 988 40 view .LVU964
 4301 0154 815F0088 		lwz 10,136(31)
 4302              		.loc 2 988 66 view .LVU965
 4303 0158 813F0084 		lwz 9,132(31)
 4304              	.LBE2137:
 4305              	.LBE2136:
 4306              	.LBE2135:
 4307              	.LBE2134:
 4308              	.LBE2133:
 4309              		.loc 1 278 50 discriminator 2 view .LVU966
 4310 015c 7C03D000 		cmpw 0,3,26
 4311 0160 4081002C 		ble- 0,.L240
 4312              	.LBB2148:
 4313              	.LBB2144:
 4314              	.LBB2141:
 4315              	.LBB2139:
 4316              	.LBB2138:
 4317              		.loc 2 988 50 view .LVU967
 4318 0164 7D495050 		subf 10,9,10
 4319 0168 7D4A1670 		srawi 10,10,2
 4320              	.LVL290:
 4321              		.loc 2 988 50 view .LVU968
 4322              	.LBE2138:
 4323              	.LBE2139:
 4324              	.LBE2141:
 4325              	.LBE2144:
 4326              	.LBI2133:
 4327              		.loc 2 1173 7 is_stmt 1 view .LVU969
 4328              	.LBB2145:
 4329              	.LBI2134:
 4330              		.loc 2 1150 7 view .LVU970
 4331              	.LBB2142:
 4332              	.LBB2140:
 4333              	.LBI2136:
 4334              		.loc 2 987 7 view .LVU971
 4335              		.loc 2 987 7 is_stmt 0 view .LVU972
 4336              	.LBE2140:
 4337              		.loc 2 1152 2 discriminator 1 view .LVU973
 4338 016c 7C1B5040 		cmplw 0,27,10
 4339 0170 40800374 		bge- 0,.L296
 4340              	.LVL291:
 4341              		.loc 2 1152 2 discriminator 1 view .LVU974
 4342              	.LBE2142:
 4343              	.LBE2145:
 4344              	.LBB2146:
 4345              	.LBI2146:
 4346              		.loc 2 1121 7 is_stmt 1 view .LVU975
 4347              		.loc 2 1121 7 is_stmt 0 view .LVU976
 4348              	.LBE2146:
 4349              	.LBE2148:
 4350              		.loc 1 278 76 discriminator 5 view .LVU977
 4351 0174 7C69B02E 		lwzx 3,9,22
 4352 0178 48000001 		bl _ZN10GuiElement6GetTopEv
 4353              	.LVL292:
 4354              	.LEHE20:
 4355              		.loc 1 278 50 discriminator 6 view .LVU978
 4356 017c 7C181800 		cmpw 0,24,3
 4357              	.LBB2149:
 4358              	.LBB2150:
 4359              	.LBB2151:
 4360              	.LBB2152:
 4361              	.LBB2153:
 4362              		.loc 2 988 40 view .LVU979
 4363 0180 815F0088 		lwz 10,136(31)
 4364              		.loc 2 988 66 view .LVU980
 4365 0184 813F0084 		lwz 9,132(31)
 4366              	.LBE2153:
 4367              	.LBE2152:
 4368              	.LBE2151:
 4369              	.LBE2150:
 4370              	.LBE2149:
 4371              		.loc 1 278 50 discriminator 6 view .LVU981
 4372 0188 41820228 		beq- 0,.L297
 4373              	.L240:
 4374              		.loc 1 278 50 discriminator 6 view .LVU982
 4375              	.LBE2184:
 4376              		.loc 1 272 2 is_stmt 1 discriminator 2 view .LVU983
 4377 018c 3AF70001 		addi 23,23,1
 4378              	.LVL293:
 4379              	.LBB2185:
 4380              	.LBB2108:
 4381              		.loc 2 988 50 is_stmt 0 view .LVU984
 4382 0190 7CA95050 		subf 5,9,10
 4383              	.LBE2108:
 4384              	.LBE2185:
 4385              		.loc 1 272 14 discriminator 1 view .LVU985
 4386 0194 56FB063E 		rlwinm 27,23,0,0xff
 4387              	.LBB2186:
 4388              	.LBB2109:
 4389              		.loc 2 988 50 view .LVU986
 4390 0198 7CA51670 		srawi 5,5,2
 4391              	.LBE2109:
 4392              	.LBE2186:
 4393              		.loc 1 272 16 discriminator 1 view .LVU987
 4394 019c 7C1B2840 		cmplw 0,27,5
 4395              	.LVL294:
 4396              		.loc 1 272 16 is_stmt 1 discriminator 1 view .LVU988
 4397              	.LBB2187:
 4398              		.loc 2 987 7 view .LVU989
 4399              	.LBB2110:
 4400              		.loc 2 988 66 is_stmt 0 view .LVU990
 4401 01a0 7D284B78 		mr 8,9
 4402              	.LBE2110:
 4403              	.LBE2187:
 4404              		.loc 1 272 16 discriminator 1 view .LVU991
 4405 01a4 4180FF78 		blt+ 0,.L244
 4406              		.loc 1 272 16 discriminator 1 view .LVU992
 4407              	.LBE2196:
 4408              		.loc 1 289 2 is_stmt 1 view .LVU993
 4409 01a8 2C1C0000 		cmpwi 0,28,0
 4410 01ac 40800130 		bge- 0,.L247
 4411              	.LVL295:
 4412              	.LBB2197:
 4413              		.loc 1 293 16 discriminator 1 view .LVU994
 4414              	.LBB2198:
 4415              	.LBI2198:
 4416              		.loc 2 987 7 view .LVU995
 4417              		.loc 2 987 7 is_stmt 0 view .LVU996
 4418              	.LBE2198:
 4419              		.loc 1 293 16 discriminator 1 view .LVU997
 4420 01b0 7C0A4840 		cmplw 0,10,9
 4421 01b4 418201BC 		beq- 0,.L288
 4422              	.LBB2200:
 4423              		.loc 1 299 43 discriminator 2 view .LVU998
 4424 01b8 5739043E 		rlwinm 25,25,0,0xffff
 4425              		.loc 1 299 43 discriminator 2 view .LVU999
 4426              	.LBE2200:
 4427              		.loc 1 293 9 view .LVU1000
 4428 01bc 3B400000 		li 26,0
 4429              	.LBB2319:
 4430              		.loc 1 299 43 discriminator 2 view .LVU1001
 4431 01c0 7F39E9D6 		mullw 25,25,29
 4432              	.LVL296:
 4433              		.loc 1 299 43 discriminator 2 view .LVU1002
 4434              	.LBE2319:
 4435              		.loc 1 293 14 discriminator 1 view .LVU1003
 4436 01c4 3B600000 		li 27,0
 4437              	.LVL297:
 4438              	.L262:
 4439              	.LBB2320:
 4440              		.loc 1 295 3 is_stmt 1 view .LVU1004
 4441              		.loc 1 297 4 view .LVU1005
 4442              	.LBB2201:
 4443              	.LBI2201:
 4444              		.loc 2 1173 7 view .LVU1006
 4445              	.LBB2202:
 4446              	.LBI2202:
 4447              		.loc 2 1121 7 view .LVU1007
 4448              	.LBB2203:
 4449              		.loc 2 1124 34 is_stmt 0 view .LVU1008
 4450 01c8 5778103A 		slwi 24,27,2
 4451              	.LVL298:
 4452              		.loc 2 1124 34 view .LVU1009
 4453              	.LBE2203:
 4454              	.LBE2202:
 4455              	.LBE2201:
 4456              		.loc 1 297 36 discriminator 1 view .LVU1010
 4457 01cc 7C69C02E 		lwzx 3,9,24
 4458              	.LEHB21:
 4459 01d0 48000001 		bl _ZN10GuiElement12IsSelectableEv
 4460              	.LVL299:
 4461              		.loc 1 297 4 discriminator 2 view .LVU1011
 4462 01d4 2C030000 		cmpwi 0,3,0
 4463              	.LBB2204:
 4464              	.LBB2205:
 4465              	.LBB2206:
 4466              	.LBB2207:
 4467              	.LBB2208:
 4468              		.loc 2 988 40 view .LVU1012
 4469 01d8 80BF0088 		lwz 5,136(31)
 4470              		.loc 2 988 66 view .LVU1013
 4471 01dc 813F0084 		lwz 9,132(31)
 4472              	.LBE2208:
 4473              	.LBE2207:
 4474              	.LBE2206:
 4475              	.LBE2205:
 4476              	.LBE2204:
 4477              		.loc 1 297 4 discriminator 2 view .LVU1014
 4478 01e0 418200DC 		beq- 0,.L254
 4479              	.LBB2219:
 4480              	.LBB2215:
 4481              	.LBB2212:
 4482              	.LBB2210:
 4483              	.LBB2209:
 4484              		.loc 2 988 50 view .LVU1015
 4485 01e4 7CA92850 		subf 5,9,5
 4486 01e8 7CA51670 		srawi 5,5,2
 4487              	.LBE2209:
 4488              	.LBE2210:
 4489              	.LBE2212:
 4490              	.LBE2215:
 4491              	.LBE2219:
 4492              		.loc 1 299 5 is_stmt 1 view .LVU1016
 4493              	.LVL300:
 4494              	.LBB2220:
 4495              	.LBI2204:
 4496              		.loc 2 1173 7 view .LVU1017
 4497              	.LBB2216:
 4498              	.LBI2205:
 4499              		.loc 2 1150 7 view .LVU1018
 4500              	.LBB2213:
 4501              	.LBB2211:
 4502              	.LBI2207:
 4503              		.loc 2 987 7 view .LVU1019
 4504              		.loc 2 987 7 is_stmt 0 view .LVU1020
 4505              	.LBE2211:
 4506              		.loc 2 1152 2 discriminator 1 view .LVU1021
 4507 01ec 7C1B2840 		cmplw 0,27,5
 4508 01f0 4080030C 		bge- 0,.L298
 4509              	.LVL301:
 4510              		.loc 2 1152 2 discriminator 1 view .LVU1022
 4511              	.LBE2213:
 4512              	.LBE2216:
 4513              	.LBB2217:
 4514              	.LBI2217:
 4515              		.loc 2 1121 7 is_stmt 1 view .LVU1023
 4516              		.loc 2 1121 7 is_stmt 0 view .LVU1024
 4517              	.LBE2217:
 4518              	.LBE2220:
 4519              		.loc 1 299 31 discriminator 1 view .LVU1025
 4520 01f4 7C69C02E 		lwzx 3,9,24
 4521 01f8 48000001 		bl _ZN10GuiElement6GetTopEv
 4522              	.LVL302:
 4523              		.loc 1 299 33 discriminator 2 view .LVU1026
 4524 01fc 7C63E9D6 		mullw 3,3,29
 4525              	.LBB2221:
 4526              	.LBB2222:
 4527              	.LBB2223:
 4528              	.LBB2224:
 4529              	.LBB2225:
 4530              		.loc 2 988 40 view .LVU1027
 4531 0200 80BF0088 		lwz 5,136(31)
 4532              		.loc 2 988 66 view .LVU1028
 4533 0204 813F0084 		lwz 9,132(31)
 4534              	.LBE2225:
 4535              	.LBE2224:
 4536              	.LBE2223:
 4537              	.LBE2222:
 4538              	.LBE2221:
 4539              		.loc 1 299 5 discriminator 2 view .LVU1029
 4540 0208 7C03C800 		cmpw 0,3,25
 4541 020c 408100B0 		ble- 0,.L254
 4542              		.loc 1 301 6 is_stmt 1 view .LVU1030
 4543 0210 2C1CFFFF 		cmpwi 0,28,-1
 4544 0214 41820194 		beq- 0,.L291
 4545              	.LBB2236:
 4546              	.LBB2232:
 4547              	.LBB2229:
 4548              	.LBB2227:
 4549              	.LBB2226:
 4550              		.loc 2 988 50 is_stmt 0 view .LVU1031
 4551 0218 7CA92850 		subf 5,9,5
 4552 021c 7CA51670 		srawi 5,5,2
 4553              	.LBE2226:
 4554              	.LBE2227:
 4555              	.LBE2229:
 4556              	.LBE2232:
 4557              	.LBE2236:
 4558              		.loc 1 303 11 is_stmt 1 view .LVU1032
 4559              	.LVL303:
 4560              	.LBB2237:
 4561              	.LBI2221:
 4562              		.loc 2 1173 7 view .LVU1033
 4563              	.LBB2233:
 4564              	.LBI2222:
 4565              		.loc 2 1150 7 view .LVU1034
 4566              	.LBB2230:
 4567              	.LBB2228:
 4568              	.LBI2224:
 4569              		.loc 2 987 7 view .LVU1035
 4570              		.loc 2 987 7 is_stmt 0 view .LVU1036
 4571              	.LBE2228:
 4572              		.loc 2 1152 2 discriminator 1 view .LVU1037
 4573 0220 7C1B2840 		cmplw 0,27,5
 4574 0224 40800328 		bge- 0,.L299
 4575              	.LVL304:
 4576              		.loc 2 1152 2 discriminator 1 view .LVU1038
 4577              	.LBE2230:
 4578              	.LBE2233:
 4579              	.LBB2234:
 4580              	.LBI2234:
 4581              		.loc 2 1121 7 is_stmt 1 view .LVU1039
 4582              		.loc 2 1121 7 is_stmt 0 view .LVU1040
 4583              	.LBE2234:
 4584              	.LBE2237:
 4585              		.loc 1 303 37 discriminator 1 view .LVU1041
 4586 0228 7C69C02E 		lwzx 3,9,24
 4587 022c 48000001 		bl _ZN10GuiElement6GetTopEv
 4588              	.LVL305:
 4589              	.LBB2238:
 4590              	.LBB2239:
 4591              	.LBB2240:
 4592              	.LBB2241:
 4593              	.LBB2242:
 4594              		.loc 2 988 66 view .LVU1042
 4595 0230 813F0084 		lwz 9,132(31)
 4596              	.LBE2242:
 4597              	.LBE2241:
 4598              	.LBE2240:
 4599              	.LBE2239:
 4600              	.LBE2238:
 4601              		.loc 1 303 39 discriminator 2 view .LVU1043
 4602 0234 7EFD19D6 		mullw 23,29,3
 4603              	.LVL306:
 4604              	.LBB2251:
 4605              	.LBI2238:
 4606              		.loc 2 1173 7 is_stmt 1 view .LVU1044
 4607              	.LBB2247:
 4608              	.LBI2239:
 4609              		.loc 2 1150 7 view .LVU1045
 4610              	.LBB2245:
 4611              	.LBB2244:
 4612              	.LBI2241:
 4613              		.loc 2 987 7 view .LVU1046
 4614              	.LBB2243:
 4615              		.loc 2 988 50 is_stmt 0 view .LVU1047
 4616 0238 80BF0088 		lwz 5,136(31)
 4617 023c 7CA92850 		subf 5,9,5
 4618 0240 7CA51670 		srawi 5,5,2
 4619              	.LVL307:
 4620              		.loc 2 988 50 view .LVU1048
 4621              	.LBE2243:
 4622              	.LBE2244:
 4623              		.loc 2 1152 2 discriminator 1 view .LVU1049
 4624 0244 7C1C2840 		cmplw 0,28,5
 4625 0248 4080032C 		bge- 0,.L300
 4626              	.LVL308:
 4627              		.loc 2 1152 2 discriminator 1 view .LVU1050
 4628              	.LBE2245:
 4629              	.LBE2247:
 4630              	.LBB2248:
 4631              	.LBI2248:
 4632              		.loc 2 1121 7 is_stmt 1 view .LVU1051
 4633              	.LBB2249:
 4634              		.loc 2 1124 34 is_stmt 0 view .LVU1052
 4635 024c 5796103A 		slwi 22,28,2
 4636              	.LVL309:
 4637              		.loc 2 1124 34 view .LVU1053
 4638              	.LBE2249:
 4639              	.LBE2248:
 4640              	.LBE2251:
 4641              		.loc 1 303 73 discriminator 3 view .LVU1054
 4642 0250 7C69B02E 		lwzx 3,9,22
 4643 0254 48000001 		bl _ZN10GuiElement6GetTopEv
 4644              	.LVL310:
 4645              		.loc 1 303 75 discriminator 4 view .LVU1055
 4646 0258 7C7D19D6 		mullw 3,29,3
 4647              	.LBB2252:
 4648              	.LBB2253:
 4649              	.LBB2254:
 4650              	.LBB2255:
 4651              	.LBB2256:
 4652              		.loc 2 988 40 view .LVU1056
 4653 025c 80BF0088 		lwz 5,136(31)
 4654              		.loc 2 988 66 view .LVU1057
 4655 0260 813F0084 		lwz 9,132(31)
 4656              	.LBE2256:
 4657              	.LBE2255:
 4658              	.LBE2254:
 4659              	.LBE2253:
 4660              	.LBE2252:
 4661              		.loc 1 303 11 discriminator 4 view .LVU1058
 4662 0264 7C171800 		cmpw 0,23,3
 4663 0268 41800140 		blt- 0,.L291
 4664              	.LBB2267:
 4665              	.LBB2263:
 4666              	.LBB2260:
 4667              	.LBB2258:
 4668              	.LBB2257:
 4669              		.loc 2 988 50 view .LVU1059
 4670 026c 7CA92850 		subf 5,9,5
 4671 0270 7CA51670 		srawi 5,5,2
 4672              	.LBE2257:
 4673              	.LBE2258:
 4674              	.LBE2260:
 4675              	.LBE2263:
 4676              	.LBE2267:
 4677              		.loc 1 305 11 is_stmt 1 view .LVU1060
 4678              	.LVL311:
 4679              	.LBB2268:
 4680              	.LBI2252:
 4681              		.loc 2 1173 7 view .LVU1061
 4682              	.LBB2264:
 4683              	.LBI2253:
 4684              		.loc 2 1150 7 view .LVU1062
 4685              	.LBB2261:
 4686              	.LBB2259:
 4687              	.LBI2255:
 4688              		.loc 2 987 7 view .LVU1063
 4689              		.loc 2 987 7 is_stmt 0 view .LVU1064
 4690              	.LBE2259:
 4691              		.loc 2 1152 2 discriminator 1 view .LVU1065
 4692 0274 7C1B2840 		cmplw 0,27,5
 4693 0278 40800310 		bge- 0,.L301
 4694              	.LVL312:
 4695              		.loc 2 1152 2 discriminator 1 view .LVU1066
 4696              	.LBE2261:
 4697              	.LBE2264:
 4698              	.LBB2265:
 4699              	.LBI2265:
 4700              		.loc 2 1121 7 is_stmt 1 view .LVU1067
 4701              		.loc 2 1121 7 is_stmt 0 view .LVU1068
 4702              	.LBE2265:
 4703              	.LBE2268:
 4704              		.loc 1 305 37 discriminator 1 view .LVU1069
 4705 027c 7C69C02E 		lwzx 3,9,24
 4706 0280 48000001 		bl _ZN10GuiElement6GetTopEv
 4707              	.LVL313:
 4708              	.LBB2269:
 4709              	.LBB2270:
 4710              	.LBB2271:
 4711              	.LBB2272:
 4712              	.LBB2273:
 4713              		.loc 2 988 66 view .LVU1070
 4714 0284 813F0084 		lwz 9,132(31)
 4715              	.LBE2273:
 4716              	.LBE2272:
 4717              	.LBE2271:
 4718              	.LBE2270:
 4719              	.LBE2269:
 4720              		.loc 1 305 39 discriminator 2 view .LVU1071
 4721 0288 7EFD19D6 		mullw 23,29,3
 4722              	.LVL314:
 4723              	.LBB2281:
 4724              	.LBI2269:
 4725              		.loc 2 1173 7 is_stmt 1 view .LVU1072
 4726              	.LBB2278:
 4727              	.LBI2270:
 4728              		.loc 2 1150 7 view .LVU1073
 4729              	.LBB2276:
 4730              	.LBB2275:
 4731              	.LBI2272:
 4732              		.loc 2 987 7 view .LVU1074
 4733              	.LBB2274:
 4734              		.loc 2 988 50 is_stmt 0 view .LVU1075
 4735 028c 80BF0088 		lwz 5,136(31)
 4736 0290 7CA92850 		subf 5,9,5
 4737 0294 7CA51670 		srawi 5,5,2
 4738              	.LVL315:
 4739              		.loc 2 988 50 view .LVU1076
 4740              	.LBE2274:
 4741              	.LBE2275:
 4742              		.loc 2 1152 2 discriminator 1 view .LVU1077
 4743 0298 7C1C2840 		cmplw 0,28,5
 4744 029c 408002C4 		bge- 0,.L302
 4745              	.LVL316:
 4746              		.loc 2 1152 2 discriminator 1 view .LVU1078
 4747              	.LBE2276:
 4748              	.LBE2278:
 4749              	.LBB2279:
 4750              	.LBI2279:
 4751              		.loc 2 1121 7 is_stmt 1 view .LVU1079
 4752              		.loc 2 1121 7 is_stmt 0 view .LVU1080
 4753              	.LBE2279:
 4754              	.LBE2281:
 4755              		.loc 1 305 74 discriminator 3 view .LVU1081
 4756 02a0 7C69B02E 		lwzx 3,9,22
 4757 02a4 48000001 		bl _ZN10GuiElement6GetTopEv
 4758              	.LVL317:
 4759              	.LEHE21:
 4760              		.loc 1 305 76 discriminator 4 view .LVU1082
 4761 02a8 7C7D19D6 		mullw 3,29,3
 4762              	.LBB2282:
 4763              	.LBB2283:
 4764              	.LBB2284:
 4765              	.LBB2285:
 4766              	.LBB2286:
 4767              		.loc 2 988 40 view .LVU1083
 4768 02ac 80BF0088 		lwz 5,136(31)
 4769              		.loc 2 988 66 view .LVU1084
 4770 02b0 813F0084 		lwz 9,132(31)
 4771              	.LBE2286:
 4772              	.LBE2285:
 4773              	.LBE2284:
 4774              	.LBE2283:
 4775              	.LBE2282:
 4776              		.loc 1 306 7 view .LVU1085
 4777 02b4 7C171800 		cmpw 0,23,3
 4778 02b8 41820198 		beq- 0,.L303
 4779              	.L254:
 4780              		.loc 1 306 7 view .LVU1086
 4781              	.LBE2320:
 4782              		.loc 1 293 2 is_stmt 1 discriminator 2 view .LVU1087
 4783 02bc 3B5A0001 		addi 26,26,1
 4784              	.LVL318:
 4785              	.LBB2321:
 4786              	.LBB2199:
 4787              		.loc 2 988 50 is_stmt 0 view .LVU1088
 4788 02c0 7CA92850 		subf 5,9,5
 4789              		.loc 2 988 74 view .LVU1089
 4790 02c4 7CA51670 		srawi 5,5,2
 4791              	.LBE2199:
 4792              	.LBE2321:
 4793              		.loc 1 293 14 discriminator 1 view .LVU1090
 4794 02c8 575B063E 		rlwinm 27,26,0,0xff
 4795              		.loc 1 293 16 discriminator 1 view .LVU1091
 4796 02cc 7C1B2840 		cmplw 0,27,5
 4797              	.LVL319:
 4798              		.loc 1 293 16 is_stmt 1 discriminator 1 view .LVU1092
 4799              	.LBB2322:
 4800              		.loc 2 987 7 view .LVU1093
 4801              		.loc 2 987 7 is_stmt 0 view .LVU1094
 4802              	.LBE2322:
 4803              		.loc 1 293 16 discriminator 1 view .LVU1095
 4804 02d0 4180FEF8 		blt+ 0,.L262
 4805              	.L263:
 4806              		.loc 1 293 16 discriminator 1 view .LVU1096
 4807              	.LBE2197:
 4808              		.loc 1 316 2 is_stmt 1 view .LVU1097
 4809              		.loc 1 317 2 view .LVU1098
 4810 02d4 2C1C0000 		cmpwi 0,28,0
 4811 02d8 41800098 		blt- 0,.L288
 4812              	.LVL320:
 4813              	.L247:
 4814              		.loc 1 319 3 view .LVU1099
 4815              	.LBB2328:
 4816              	.LBI2328:
 4817              		.loc 2 1173 7 view .LVU1100
 4818              	.LBB2329:
 4819              	.LBI2329:
 4820              		.loc 2 1150 7 view .LVU1101
 4821              	.LBB2330:
 4822              		.loc 2 1152 2 is_stmt 0 discriminator 1 view .LVU1102
 4823 02dc 7C1C2840 		cmplw 0,28,5
 4824 02e0 408002BC 		bge- 0,.L304
 4825              	.LVL321:
 4826              		.loc 2 1152 2 discriminator 1 view .LVU1103
 4827              	.LBE2330:
 4828              	.LBE2329:
 4829              	.LBB2332:
 4830              	.LBI2332:
 4831              		.loc 2 1121 7 is_stmt 1 view .LVU1104
 4832              		.loc 2 1121 7 is_stmt 0 view .LVU1105
 4833              	.LBE2332:
 4834              	.LBE2328:
 4835              		.loc 1 319 32 discriminator 1 view .LVU1106
 4836 02e4 579C103A 		slwi 28,28,2
 4837 02e8 38A0FFFF 		li 5,-1
 4838 02ec 7C69E02E 		lwzx 3,9,28
 4839 02f0 38800001 		li 4,1
 4840 02f4 81230000 		lwz 9,0(3)
 4841 02f8 81290010 		lwz 9,16(9)
 4842 02fc 7D2903A6 		mtctr 9
 4843              	.LEHB22:
 4844 0300 4E800421 		bctrl
 4845              	.LVL322:
 4846              		.loc 1 320 3 is_stmt 1 view .LVU1107
 4847 0304 2C1E0000 		cmpwi 0,30,0
 4848 0308 41800068 		blt- 0,.L288
 4849              		.loc 1 321 4 view .LVU1108
 4850              	.LVL323:
 4851              	.LBB2334:
 4852              	.LBI2334:
 4853              		.loc 2 1173 7 view .LVU1109
 4854              	.LBB2335:
 4855              	.LBI2335:
 4856              		.loc 2 1150 7 view .LVU1110
 4857              	.LBB2336:
 4858              	.LBB2337:
 4859              	.LBI2337:
 4860              		.loc 2 987 7 view .LVU1111
 4861              	.LBB2338:
 4862              		.loc 2 988 66 is_stmt 0 view .LVU1112
 4863 030c 813F0084 		lwz 9,132(31)
 4864              		.loc 2 988 50 view .LVU1113
 4865 0310 80BF0088 		lwz 5,136(31)
 4866 0314 7CA92850 		subf 5,9,5
 4867 0318 7CA51670 		srawi 5,5,2
 4868              	.LVL324:
 4869              		.loc 2 988 50 view .LVU1114
 4870              	.LBE2338:
 4871              	.LBE2337:
 4872              		.loc 2 1152 2 discriminator 1 view .LVU1115
 4873 031c 7C1E2840 		cmplw 0,30,5
 4874 0320 40800290 		bge- 0,.L305
 4875              	.LVL325:
 4876              		.loc 2 1152 2 discriminator 1 view .LVU1116
 4877              	.LBE2336:
 4878              	.LBE2335:
 4879              	.LBB2340:
 4880              	.LBI2340:
 4881              		.loc 2 1121 7 is_stmt 1 view .LVU1117
 4882              		.loc 2 1121 7 is_stmt 0 view .LVU1118
 4883              	.LBE2340:
 4884              	.LBE2334:
 4885              		.loc 1 321 38 discriminator 1 view .LVU1119
 4886 0324 57DE103A 		slwi 30,30,2
 4887              		.loc 1 323 1 view .LVU1120
 4888 0328 80010034 		lwz 0,52(1)
 4889              		.loc 1 321 38 discriminator 1 view .LVU1121
 4890 032c 7C69F02E 		lwzx 3,9,30
 4891 0330 82C10008 		lwz 22,8(1)
 4892              		.cfi_remember_state
 4893              		.cfi_restore 22
 4894              		.loc 1 323 1 view .LVU1122
 4895 0334 7C0803A6 		mtlr 0
 4896              		.cfi_restore 65
 4897              		.loc 1 321 38 discriminator 1 view .LVU1123
 4898 0338 81230000 		lwz 9,0(3)
 4899 033c 82E1000C 		lwz 23,12(1)
 4900              		.cfi_restore 23
 4901 0340 81290014 		lwz 9,20(9)
 4902 0344 83010010 		lwz 24,16(1)
 4903              		.cfi_restore 24
 4904 0348 8361001C 		lwz 27,28(1)
 4905              		.cfi_restore 27
 4906 034c 7D2903A6 		mtctr 9
 4907              		.loc 1 323 1 view .LVU1124
 4908 0350 83210014 		lwz 25,20(1)
 4909 0354 83410018 		lwz 26,24(1)
 4910 0358 83810020 		lwz 28,32(1)
 4911 035c 83A10024 		lwz 29,36(1)
 4912              	.LVL326:
 4913              		.loc 1 323 1 view .LVU1125
 4914 0360 83C10028 		lwz 30,40(1)
 4915 0364 83E1002C 		lwz 31,44(1)
 4916              	.LVL327:
 4917              		.loc 1 323 1 view .LVU1126
 4918 0368 38210030 		addi 1,1,48
 4919              		.cfi_restore 31
 4920              		.cfi_restore 30
 4921              		.cfi_restore 29
 4922              		.cfi_restore 28
 4923              		.cfi_restore 26
 4924              		.cfi_restore 25
 4925              		.cfi_def_cfa_offset 0
 4926              		.loc 1 321 38 discriminator 1 view .LVU1127
 4927 036c 4E800420 		bctr
 4928              	.LVL328:
 4929              	.LEHE22:
 4930              	.L288:
 4931              		.cfi_restore_state
 4932              		.loc 1 321 38 discriminator 1 view .LVU1128
 4933 0370 82C10008 		lwz 22,8(1)
 4934              		.cfi_restore 22
 4935 0374 82E1000C 		lwz 23,12(1)
 4936              		.cfi_restore 23
 4937 0378 83010010 		lwz 24,16(1)
 4938              		.cfi_restore 24
 4939 037c 8361001C 		lwz 27,28(1)
 4940              		.cfi_restore 27
 4941              	.LVL329:
 4942              	.L225:
 4943              		.loc 1 323 1 view .LVU1129
 4944 0380 80010034 		lwz 0,52(1)
 4945 0384 83210014 		lwz 25,20(1)
 4946 0388 83410018 		lwz 26,24(1)
 4947 038c 7C0803A6 		mtlr 0
 4948              		.cfi_restore 65
 4949 0390 83810020 		lwz 28,32(1)
 4950 0394 83A10024 		lwz 29,36(1)
 4951              	.LVL330:
 4952              		.loc 1 323 1 view .LVU1130
 4953 0398 83C10028 		lwz 30,40(1)
 4954 039c 83E1002C 		lwz 31,44(1)
 4955              	.LVL331:
 4956              		.loc 1 323 1 view .LVU1131
 4957 03a0 38210030 		addi 1,1,48
 4958              		.cfi_restore 31
 4959              		.cfi_restore 30
 4960              		.cfi_restore 29
 4961              		.cfi_restore 28
 4962              		.cfi_restore 26
 4963              		.cfi_restore 25
 4964              		.cfi_def_cfa_offset 0
 4965 03a4 4E800020 		blr
 4966              	.LVL332:
 4967              	.L291:
 4968              		.cfi_def_cfa_offset 48
 4969              		.cfi_offset 22, -40
 4970              		.cfi_offset 23, -36
 4971              		.cfi_offset 24, -32
 4972              		.cfi_offset 25, -28
 4973              		.cfi_offset 26, -24
 4974              		.cfi_offset 27, -20
 4975              		.cfi_offset 28, -16
 4976              		.cfi_offset 29, -12
 4977              		.cfi_offset 30, -8
 4978              		.cfi_offset 31, -4
 4979              		.cfi_offset 65, 4
 4980              	.LBB2342:
 4981              	.LBB2323:
 4982              		.loc 1 304 7 is_stmt 1 view .LVU1132
 4983              		.loc 1 304 13 is_stmt 0 view .LVU1133
 4984 03a8 575C063E 		rlwinm 28,26,0,0xff
 4985              	.LVL333:
 4986              		.loc 1 304 13 view .LVU1134
 4987 03ac 4BFFFF10 		b .L254
 4988              	.LVL334:
 4989              	.L297:
 4990              		.loc 1 304 13 view .LVU1135
 4991              	.LBE2323:
 4992              	.LBE2342:
 4993              	.LBB2343:
 4994              	.LBB2188:
 4995              		.loc 1 280 6 is_stmt 1 view .LVU1136
 4996 03b0 2C1CFFFF 		cmpwi 0,28,-1
 4997 03b4 41820070 		beq- 0,.L306
 4998              	.LBB2164:
 4999              	.LBB2160:
 5000              	.LBB2157:
 5001              	.LBB2155:
 5002              	.LBB2154:
 5003              		.loc 2 988 50 is_stmt 0 view .LVU1137
 5004 03b8 7D495050 		subf 10,9,10
 5005 03bc 7D4A1670 		srawi 10,10,2
 5006              	.LBE2154:
 5007              	.LBE2155:
 5008              	.LBE2157:
 5009              	.LBE2160:
 5010              	.LBE2164:
 5011              		.loc 1 282 11 is_stmt 1 view .LVU1138
 5012              	.LVL335:
 5013              	.LBB2165:
 5014              	.LBI2149:
 5015              		.loc 2 1173 7 view .LVU1139
 5016              	.LBB2161:
 5017              	.LBI2150:
 5018              		.loc 2 1150 7 view .LVU1140
 5019              	.LBB2158:
 5020              	.LBB2156:
 5021              	.LBI2152:
 5022              		.loc 2 987 7 view .LVU1141
 5023              		.loc 2 987 7 is_stmt 0 view .LVU1142
 5024              	.LBE2156:
 5025              		.loc 2 1152 2 discriminator 1 view .LVU1143
 5026 03c0 7C1B5040 		cmplw 0,27,10
 5027 03c4 40800200 		bge- 0,.L307
 5028              	.LVL336:
 5029              		.loc 2 1152 2 discriminator 1 view .LVU1144
 5030              	.LBE2158:
 5031              	.LBE2161:
 5032              	.LBB2162:
 5033              	.LBI2162:
 5034              		.loc 2 1121 7 is_stmt 1 view .LVU1145
 5035              		.loc 2 1121 7 is_stmt 0 view .LVU1146
 5036              	.LBE2162:
 5037              	.LBE2165:
 5038              		.loc 1 282 38 discriminator 1 view .LVU1147
 5039 03c8 7C69B02E 		lwzx 3,9,22
 5040              	.LEHB23:
 5041 03cc 48000001 		bl _ZN10GuiElement7GetLeftEv
 5042              	.LVL337:
 5043              	.LBB2166:
 5044              	.LBB2167:
 5045              	.LBB2168:
 5046              	.LBB2169:
 5047              	.LBB2170:
 5048              		.loc 2 988 66 view .LVU1148
 5049 03d0 813F0084 		lwz 9,132(31)
 5050              	.LBE2170:
 5051              	.LBE2169:
 5052              	.LBE2168:
 5053              	.LBE2167:
 5054              	.LBE2166:
 5055              		.loc 1 282 40 discriminator 2 view .LVU1149
 5056 03d4 7F7D19D6 		mullw 27,29,3
 5057              	.LVL338:
 5058              	.LBB2178:
 5059              	.LBI2166:
 5060              		.loc 2 1173 7 is_stmt 1 view .LVU1150
 5061              	.LBB2175:
 5062              	.LBI2167:
 5063              		.loc 2 1150 7 view .LVU1151
 5064              	.LBB2173:
 5065              	.LBB2172:
 5066              	.LBI2169:
 5067              		.loc 2 987 7 view .LVU1152
 5068              	.LBB2171:
 5069              		.loc 2 988 50 is_stmt 0 view .LVU1153
 5070 03d8 80BF0088 		lwz 5,136(31)
 5071 03dc 7CA92850 		subf 5,9,5
 5072 03e0 7CA51670 		srawi 5,5,2
 5073              	.LVL339:
 5074              		.loc 2 988 50 view .LVU1154
 5075              	.LBE2171:
 5076              	.LBE2172:
 5077              		.loc 2 1152 2 discriminator 1 view .LVU1155
 5078 03e4 7C1C2840 		cmplw 0,28,5
 5079 03e8 40800150 		bge- 0,.L308
 5080              	.LVL340:
 5081              		.loc 2 1152 2 discriminator 1 view .LVU1156
 5082              	.LBE2173:
 5083              	.LBE2175:
 5084              	.LBB2176:
 5085              	.LBI2176:
 5086              		.loc 2 1121 7 is_stmt 1 view .LVU1157
 5087              		.loc 2 1121 7 is_stmt 0 view .LVU1158
 5088              	.LBE2176:
 5089              	.LBE2178:
 5090              		.loc 1 282 75 discriminator 3 view .LVU1159
 5091 03ec 578A103A 		slwi 10,28,2
 5092 03f0 7C69502E 		lwzx 3,9,10
 5093 03f4 48000001 		bl _ZN10GuiElement7GetLeftEv
 5094              	.LVL341:
 5095              	.LEHE23:
 5096              		.loc 1 282 77 discriminator 4 view .LVU1160
 5097 03f8 7C7D19D6 		mullw 3,29,3
 5098 03fc 813F0084 		lwz 9,132(31)
 5099              		.loc 1 282 11 discriminator 4 view .LVU1161
 5100 0400 7C1B1800 		cmpw 0,27,3
 5101 0404 40800008 		bge- 0,.L289
 5102              		.loc 1 283 7 is_stmt 1 view .LVU1162
 5103              		.loc 1 283 13 is_stmt 0 view .LVU1163
 5104 0408 56FC063E 		rlwinm 28,23,0,0xff
 5105              	.LVL342:
 5106              	.L289:
 5107              		.loc 1 283 13 view .LVU1164
 5108 040c 815F0088 		lwz 10,136(31)
 5109 0410 4BFFFD7C 		b .L240
 5110              	.LVL343:
 5111              	.L294:
 5112              		.cfi_restore 22
 5113              		.cfi_restore 23
 5114              		.cfi_restore 24
 5115              		.cfi_restore 27
 5116              		.loc 1 283 13 view .LVU1165
 5117              	.LBE2188:
 5118              	.LBE2343:
 5119              	.LBB2344:
 5120              	.LBB2064:
 5121              		.loc 1 238 6 view .LVU1166
 5122 0414 3BC0FFFF 		li 30,-1
 5123              	.LVL344:
 5124              		.loc 1 238 6 view .LVU1167
 5125              	.LBE2064:
 5126              	.LBE2344:
 5127              		.loc 1 260 6 view .LVU1168
 5128 0418 3B200000 		li 25,0
 5129              		.loc 1 259 6 view .LVU1169
 5130 041c 3B400000 		li 26,0
 5131 0420 4BFFFCCC 		b .L231
 5132              	.LVL345:
 5133              	.L306:
 5134              		.cfi_offset 22, -40
 5135              		.cfi_offset 23, -36
 5136              		.cfi_offset 24, -32
 5137              		.cfi_offset 27, -20
 5138              	.LBB2345:
 5139              	.LBB2189:
 5140              		.loc 1 281 7 is_stmt 1 view .LVU1170
 5141              		.loc 1 281 13 is_stmt 0 view .LVU1171
 5142 0424 56FC063E 		rlwinm 28,23,0,0xff
 5143              	.LVL346:
 5144              		.loc 1 281 13 view .LVU1172
 5145 0428 4BFFFD64 		b .L240
 5146              	.LVL347:
 5147              	.L226:
 5148              		.cfi_restore 22
 5149              		.cfi_restore 23
 5150              		.cfi_restore 24
 5151              		.cfi_restore 27
 5152              		.loc 1 281 13 view .LVU1173
 5153              	.LBE2189:
 5154              	.LBE2345:
 5155              		.loc 1 263 34 view .LVU1174
 5156 042c 7D4903A6 		mtctr 10
 5157              	.LEHB24:
 5158 0430 4E800421 		bctrl
 5159              	.LVL348:
 5160              	.LEHE24:
 5161              	.LBB2346:
 5162              	.LBB2087:
 5163              	.LBB2081:
 5164              	.LBB2077:
 5165              	.LBB2073:
 5166              		.loc 2 988 40 view .LVU1175
 5167 0434 80BF0088 		lwz 5,136(31)
 5168              	.LBE2073:
 5169              	.LBE2077:
 5170              	.LBE2081:
 5171              	.LBE2087:
 5172              	.LBE2346:
 5173              		.loc 1 265 2 view .LVU1176
 5174 0438 7C7E1B79 		mr. 30,3
 5175              	.LBB2347:
 5176              	.LBB2088:
 5177              	.LBB2082:
 5178              	.LBB2078:
 5179              	.LBB2074:
 5180              		.loc 2 988 66 view .LVU1177
 5181 043c 811F0084 		lwz 8,132(31)
 5182              	.LVL349:
 5183              		.loc 2 988 66 view .LVU1178
 5184              	.LBE2074:
 5185              	.LBE2078:
 5186              	.LBE2082:
 5187              	.LBE2088:
 5188              	.LBE2347:
 5189              		.loc 1 265 2 is_stmt 1 view .LVU1179
 5190 0440 4080FC60 		bge+ 0,.L229
 5191              		.loc 1 260 6 is_stmt 0 view .LVU1180
 5192 0444 3B200000 		li 25,0
 5193              		.loc 1 259 6 view .LVU1181
 5194 0448 3B400000 		li 26,0
 5195 044c 4BFFFCA0 		b .L231
 5196              	.LVL350:
 5197              	.L303:
 5198              		.cfi_offset 22, -40
 5199              		.cfi_offset 23, -36
 5200              		.cfi_offset 24, -32
 5201              		.cfi_offset 27, -20
 5202              	.LBB2348:
 5203              	.LBB2324:
 5204              	.LBB2297:
 5205              	.LBB2293:
 5206              	.LBB2290:
 5207              	.LBB2288:
 5208              	.LBB2287:
 5209              		.loc 2 988 50 view .LVU1182
 5210 0450 7CA92850 		subf 5,9,5
 5211 0454 7CA51670 		srawi 5,5,2
 5212              	.LVL351:
 5213              		.loc 2 988 50 view .LVU1183
 5214              	.LBE2287:
 5215              	.LBE2288:
 5216              	.LBE2290:
 5217              	.LBE2293:
 5218              	.LBI2282:
 5219              		.loc 2 1173 7 is_stmt 1 view .LVU1184
 5220              	.LBB2294:
 5221              	.LBI2283:
 5222              		.loc 2 1150 7 view .LVU1185
 5223              	.LBB2291:
 5224              	.LBB2289:
 5225              	.LBI2285:
 5226              		.loc 2 987 7 view .LVU1186
 5227              		.loc 2 987 7 is_stmt 0 view .LVU1187
 5228              	.LBE2289:
 5229              		.loc 2 1152 2 discriminator 1 view .LVU1188
 5230 0458 7C1B2840 		cmplw 0,27,5
 5231 045c 408000C8 		bge- 0,.L309
 5232              	.LVL352:
 5233              		.loc 2 1152 2 discriminator 1 view .LVU1189
 5234              	.LBE2291:
 5235              	.LBE2294:
 5236              	.LBB2295:
 5237              	.LBI2295:
 5238              		.loc 2 1121 7 is_stmt 1 view .LVU1190
 5239              		.loc 2 1121 7 is_stmt 0 view .LVU1191
 5240              	.LBE2295:
 5241              	.LBE2297:
 5242              		.loc 1 307 31 discriminator 1 view .LVU1192
 5243 0460 7C69C02E 		lwzx 3,9,24
 5244              	.LEHB25:
 5245 0464 48000001 		bl _ZN10GuiElement7GetLeftEv
 5246              	.LVL353:
 5247              	.LBB2298:
 5248              	.LBB2299:
 5249              	.LBB2300:
 5250              	.LBB2301:
 5251              	.LBB2302:
 5252              		.loc 2 988 66 view .LVU1193
 5253 0468 815F0084 		lwz 10,132(31)
 5254              	.LBE2302:
 5255              	.LBE2301:
 5256              	.LBE2300:
 5257              	.LBE2299:
 5258              	.LBE2298:
 5259              		.loc 1 307 33 discriminator 2 view .LVU1194
 5260 046c 7F7D19D6 		mullw 27,29,3
 5261              	.LVL354:
 5262              	.LBB2310:
 5263              	.LBI2298:
 5264              		.loc 2 1173 7 is_stmt 1 view .LVU1195
 5265              	.LBB2307:
 5266              	.LBI2299:
 5267              		.loc 2 1150 7 view .LVU1196
 5268              	.LBB2305:
 5269              	.LBB2304:
 5270              	.LBI2301:
 5271              		.loc 2 987 7 view .LVU1197
 5272              	.LBB2303:
 5273              		.loc 2 988 50 is_stmt 0 view .LVU1198
 5274 0470 813F0088 		lwz 9,136(31)
 5275 0474 7D2A4850 		subf 9,10,9
 5276 0478 7D251670 		srawi 5,9,2
 5277              	.LVL355:
 5278              		.loc 2 988 50 view .LVU1199
 5279              	.LBE2303:
 5280              	.LBE2304:
 5281              		.loc 2 1152 2 discriminator 1 view .LVU1200
 5282 047c 7C1C2840 		cmplw 0,28,5
 5283 0480 40800090 		bge- 0,.L310
 5284              	.LVL356:
 5285              		.loc 2 1152 2 discriminator 1 view .LVU1201
 5286              	.LBE2305:
 5287              	.LBE2307:
 5288              	.LBB2308:
 5289              	.LBI2308:
 5290              		.loc 2 1121 7 is_stmt 1 view .LVU1202
 5291              		.loc 2 1121 7 is_stmt 0 view .LVU1203
 5292              	.LBE2308:
 5293              	.LBE2310:
 5294              		.loc 1 307 68 discriminator 3 view .LVU1204
 5295 0484 7C6AB02E 		lwzx 3,10,22
 5296 0488 48000001 		bl _ZN10GuiElement7GetLeftEv
 5297              	.LVL357:
 5298              	.LEHE25:
 5299              		.loc 1 307 70 discriminator 4 view .LVU1205
 5300 048c 7C7D19D6 		mullw 3,29,3
 5301 0490 813F0084 		lwz 9,132(31)
 5302              		.loc 1 306 7 discriminator 3 view .LVU1206
 5303 0494 7C1B1800 		cmpw 0,27,3
 5304 0498 40800008 		bge- 0,.L290
 5305              		.loc 1 308 7 is_stmt 1 view .LVU1207
 5306              		.loc 1 308 13 is_stmt 0 view .LVU1208
 5307 049c 575C063E 		rlwinm 28,26,0,0xff
 5308              	.LVL358:
 5309              	.L290:
 5310              		.loc 1 308 13 view .LVU1209
 5311 04a0 80BF0088 		lwz 5,136(31)
 5312 04a4 4BFFFE18 		b .L254
 5313              	.LVL359:
 5314              	.L295:
 5315              		.loc 1 308 13 view .LVU1210
 5316              	.LBE2324:
 5317              	.LBE2348:
 5318              	.LBB2349:
 5319              	.LBB2190:
 5320              	.LBB2179:
 5321              	.LBB2130:
 5322              	.LBB2126:
 5323              		.loc 2 1153 28 discriminator 1 view .LVU1211
 5324 04a8 3C600000 		lis 3,.LC7@ha
 5325 04ac 7D455378 		mr 5,10
 5326 04b0 7F64DB78 		mr 4,27
 5327 04b4 38630000 		la 3,.LC7@l(3)
 5328              	.LEHB26:
 5329 04b8 4CC63182 		crxor 6,6,6
 5330 04bc 48000001 		bl _ZSt24__throw_out_of_range_fmtPKcz
 5331              	.LVL360:
 5332              	.LEHE26:
 5333              	.L292:
 5334              		.cfi_restore 22
 5335              		.cfi_restore 23
 5336              		.cfi_restore 24
 5337              		.cfi_restore 27
 5338              		.loc 2 1153 28 discriminator 1 view .LVU1212
 5339              	.LBE2126:
 5340              	.LBE2130:
 5341              	.LBE2179:
 5342              	.LBE2190:
 5343              	.LBE2349:
 5344              	.LBB2350:
 5345              	.LBB2103:
 5346              	.LBB2100:
 5347 04c0 3C600000 		lis 3,.LC7@ha
 5348 04c4 7FC4F378 		mr 4,30
 5349 04c8 38630000 		la 3,.LC7@l(3)
 5350 04cc 92C10008 		stw 22,8(1)
 5351              		.cfi_offset 22, -40
 5352 04d0 92E1000C 		stw 23,12(1)
 5353              		.cfi_offset 23, -36
 5354 04d4 93010010 		stw 24,16(1)
 5355              		.cfi_offset 24, -32
 5356 04d8 9361001C 		stw 27,28(1)
 5357              		.cfi_offset 27, -20
 5358              	.LEHB27:
 5359 04dc 4CC63182 		crxor 6,6,6
 5360 04e0 48000001 		bl _ZSt24__throw_out_of_range_fmtPKcz
 5361              	.LVL361:
 5362              	.LEHE27:
 5363              	.L296:
 5364              		.loc 2 1153 28 discriminator 1 view .LVU1213
 5365              	.LBE2100:
 5366              	.LBE2103:
 5367              	.LBE2350:
 5368              	.LBB2351:
 5369              	.LBB2191:
 5370              	.LBB2180:
 5371              	.LBB2147:
 5372              	.LBB2143:
 5373 04e4 3C600000 		lis 3,.LC7@ha
 5374 04e8 7D455378 		mr 5,10
 5375 04ec 7F64DB78 		mr 4,27
 5376 04f0 38630000 		la 3,.LC7@l(3)
 5377              	.LEHB28:
 5378 04f4 4CC63182 		crxor 6,6,6
 5379 04f8 48000001 		bl _ZSt24__throw_out_of_range_fmtPKcz
 5380              	.LVL362:
 5381              	.LEHE28:
 5382              	.L298:
 5383              		.loc 2 1153 28 discriminator 1 view .LVU1214
 5384              	.LBE2143:
 5385              	.LBE2147:
 5386              	.LBE2180:
 5387              	.LBE2191:
 5388              	.LBE2351:
 5389              	.LBB2352:
 5390              	.LBB2325:
 5391              	.LBB2311:
 5392              	.LBB2218:
 5393              	.LBB2214:
 5394 04fc 3C600000 		lis 3,.LC7@ha
 5395 0500 7F64DB78 		mr 4,27
 5396 0504 38630000 		la 3,.LC7@l(3)
 5397              	.LEHB29:
 5398 0508 4CC63182 		crxor 6,6,6
 5399 050c 48000001 		bl _ZSt24__throw_out_of_range_fmtPKcz
 5400              	.LVL363:
 5401              	.L310:
 5402              		.loc 2 1153 28 discriminator 1 view .LVU1215
 5403              	.LBE2214:
 5404              	.LBE2218:
 5405              	.LBE2311:
 5406              	.LBB2312:
 5407              	.LBB2309:
 5408              	.LBB2306:
 5409 0510 3C600000 		lis 3,.LC7@ha
 5410 0514 7F84E378 		mr 4,28
 5411 0518 38630000 		la 3,.LC7@l(3)
 5412 051c 4CC63182 		crxor 6,6,6
 5413 0520 48000001 		bl _ZSt24__throw_out_of_range_fmtPKcz
 5414              	.LVL364:
 5415              	.L309:
 5416              		.loc 2 1153 28 discriminator 1 view .LVU1216
 5417              	.LBE2306:
 5418              	.LBE2309:
 5419              	.LBE2312:
 5420              	.LBB2313:
 5421              	.LBB2296:
 5422              	.LBB2292:
 5423 0524 3C600000 		lis 3,.LC7@ha
 5424 0528 7F64DB78 		mr 4,27
 5425 052c 38630000 		la 3,.LC7@l(3)
 5426 0530 4CC63182 		crxor 6,6,6
 5427 0534 48000001 		bl _ZSt24__throw_out_of_range_fmtPKcz
 5428              	.LVL365:
 5429              	.LEHE29:
 5430              	.L308:
 5431              		.loc 2 1153 28 discriminator 1 view .LVU1217
 5432              	.LBE2292:
 5433              	.LBE2296:
 5434              	.LBE2313:
 5435              	.LBE2325:
 5436              	.LBE2352:
 5437              	.LBB2353:
 5438              	.LBB2192:
 5439              	.LBB2181:
 5440              	.LBB2177:
 5441              	.LBB2174:
 5442 0538 3C600000 		lis 3,.LC7@ha
 5443 053c 7F84E378 		mr 4,28
 5444 0540 38630000 		la 3,.LC7@l(3)
 5445              	.LEHB30:
 5446 0544 4CC63182 		crxor 6,6,6
 5447 0548 48000001 		bl _ZSt24__throw_out_of_range_fmtPKcz
 5448              	.LVL366:
 5449              	.LEHE30:
 5450              	.L299:
 5451              		.loc 2 1153 28 discriminator 1 view .LVU1218
 5452              	.LBE2174:
 5453              	.LBE2177:
 5454              	.LBE2181:
 5455              	.LBE2192:
 5456              	.LBE2353:
 5457              	.LBB2354:
 5458              	.LBB2326:
 5459              	.LBB2314:
 5460              	.LBB2235:
 5461              	.LBB2231:
 5462 054c 3C600000 		lis 3,.LC7@ha
 5463 0550 7F64DB78 		mr 4,27
 5464 0554 38630000 		la 3,.LC7@l(3)
 5465              	.LEHB31:
 5466 0558 4CC63182 		crxor 6,6,6
 5467 055c 48000001 		bl _ZSt24__throw_out_of_range_fmtPKcz
 5468              	.LVL367:
 5469              	.L302:
 5470              		.loc 2 1153 28 discriminator 1 view .LVU1219
 5471              	.LBE2231:
 5472              	.LBE2235:
 5473              	.LBE2314:
 5474              	.LBB2315:
 5475              	.LBB2280:
 5476              	.LBB2277:
 5477 0560 3C600000 		lis 3,.LC7@ha
 5478 0564 7F84E378 		mr 4,28
 5479 0568 38630000 		la 3,.LC7@l(3)
 5480 056c 4CC63182 		crxor 6,6,6
 5481 0570 48000001 		bl _ZSt24__throw_out_of_range_fmtPKcz
 5482              	.LVL368:
 5483              	.L300:
 5484              		.loc 2 1153 28 discriminator 1 view .LVU1220
 5485              	.LBE2277:
 5486              	.LBE2280:
 5487              	.LBE2315:
 5488              	.LBB2316:
 5489              	.LBB2250:
 5490              	.LBB2246:
 5491 0574 3C600000 		lis 3,.LC7@ha
 5492 0578 7F84E378 		mr 4,28
 5493 057c 38630000 		la 3,.LC7@l(3)
 5494 0580 4CC63182 		crxor 6,6,6
 5495 0584 48000001 		bl _ZSt24__throw_out_of_range_fmtPKcz
 5496              	.LVL369:
 5497              	.L301:
 5498              		.loc 2 1153 28 discriminator 1 view .LVU1221
 5499              	.LBE2246:
 5500              	.LBE2250:
 5501              	.LBE2316:
 5502              	.LBB2317:
 5503              	.LBB2266:
 5504              	.LBB2262:
 5505 0588 3C600000 		lis 3,.LC7@ha
 5506 058c 7F64DB78 		mr 4,27
 5507 0590 38630000 		la 3,.LC7@l(3)
 5508 0594 4CC63182 		crxor 6,6,6
 5509 0598 48000001 		bl _ZSt24__throw_out_of_range_fmtPKcz
 5510              	.LVL370:
 5511              	.LEHE31:
 5512              	.L304:
 5513              		.loc 2 1153 28 discriminator 1 view .LVU1222
 5514              	.LBE2262:
 5515              	.LBE2266:
 5516              	.LBE2317:
 5517              	.LBE2326:
 5518              	.LBE2354:
 5519              	.LBB2355:
 5520              	.LBB2333:
 5521              	.LBB2331:
 5522 059c 3C600000 		lis 3,.LC7@ha
 5523 05a0 7F84E378 		mr 4,28
 5524 05a4 38630000 		la 3,.LC7@l(3)
 5525              	.LEHB32:
 5526 05a8 4CC63182 		crxor 6,6,6
 5527 05ac 48000001 		bl _ZSt24__throw_out_of_range_fmtPKcz
 5528              	.LVL371:
 5529              	.L305:
 5530              		.loc 2 1153 28 discriminator 1 view .LVU1223
 5531              	.LBE2331:
 5532              	.LBE2333:
 5533              	.LBE2355:
 5534              	.LBB2356:
 5535              	.LBB2341:
 5536              	.LBB2339:
 5537 05b0 3C600000 		lis 3,.LC7@ha
 5538 05b4 7FC4F378 		mr 4,30
 5539 05b8 38630000 		la 3,.LC7@l(3)
 5540 05bc 4CC63182 		crxor 6,6,6
 5541 05c0 48000001 		bl _ZSt24__throw_out_of_range_fmtPKcz
 5542              	.LVL372:
 5543              	.LEHE32:
 5544              	.L307:
 5545              		.loc 2 1153 28 discriminator 1 view .LVU1224
 5546              	.LBE2339:
 5547              	.LBE2341:
 5548              	.LBE2356:
 5549              	.LBB2357:
 5550              	.LBB2193:
 5551              	.LBB2182:
 5552              	.LBB2163:
 5553              	.LBB2159:
 5554 05c4 3C600000 		lis 3,.LC7@ha
 5555 05c8 7D455378 		mr 5,10
 5556 05cc 7F64DB78 		mr 4,27
 5557 05d0 38630000 		la 3,.LC7@l(3)
 5558              	.LEHB33:
 5559 05d4 4CC63182 		crxor 6,6,6
 5560 05d8 48000001 		bl _ZSt24__throw_out_of_range_fmtPKcz
 5561              	.LVL373:
 5562              	.LEHE33:
 5563              	.L273:
 5564              		.cfi_restore 22
 5565              		.cfi_restore 23
 5566              		.cfi_restore 24
 5567              		.cfi_restore 27
 5568              		.loc 2 1153 28 discriminator 1 view .LVU1225
 5569              	.LBE2159:
 5570              	.LBE2163:
 5571              	.LBE2182:
 5572              	.LBE2193:
 5573              	.LBE2357:
 5574              		.loc 1 249 3 view .LVU1226
 5575 05dc 2C040001 		cmpwi 0,4,1
 5576 05e0 4082004C 		bne- 0,.L311
 5577              	.LBB2358:
 5578              	.LBB2065:
 5579              	.LBB2062:
 5580              	.LBB2060:
 5581              	.LBB2058:
 5582              		.loc 1 249 32 discriminator 1 view .LVU1227
 5583 05e4 48000001 		bl __cxa_begin_catch
 5584              	.LVL374:
 5585              		.loc 1 249 37 discriminator 2 view .LVU1228
 5586 05e8 48000001 		bl __cxa_end_catch
 5587              	.LVL375:
 5588 05ec 4BFFFA74 		b .L228
 5589              	.LVL376:
 5590              	.L272:
 5591              		.cfi_offset 22, -40
 5592              		.cfi_offset 23, -36
 5593              		.cfi_offset 24, -32
 5594              		.cfi_offset 27, -20
 5595              		.loc 1 249 37 discriminator 2 view .LVU1229
 5596              	.LBE2058:
 5597              	.LBE2060:
 5598              	.LBE2062:
 5599              	.LBE2065:
 5600              	.LBE2358:
 5601              		.loc 1 312 3 view .LVU1230
 5602 05f0 2C040001 		cmpwi 0,4,1
 5603 05f4 40820034 		bne- 0,.L293
 5604              	.LBB2359:
 5605              	.LBB2327:
 5606              	.LBB2318:
 5607              		.loc 1 312 32 discriminator 1 view .LVU1231
 5608 05f8 48000001 		bl __cxa_begin_catch
 5609              	.LVL377:
 5610              		.loc 1 312 37 discriminator 2 view .LVU1232
 5611 05fc 48000001 		bl __cxa_end_catch
 5612              	.LVL378:
 5613 0600 813F0084 		lwz 9,132(31)
 5614 0604 80BF0088 		lwz 5,136(31)
 5615 0608 4BFFFCB4 		b .L254
 5616              	.LVL379:
 5617              	.L271:
 5618              		.loc 1 312 37 discriminator 2 view .LVU1233
 5619              	.LBE2318:
 5620              	.LBE2327:
 5621              	.LBE2359:
 5622              		.loc 1 287 3 view .LVU1234
 5623 060c 2C040001 		cmpwi 0,4,1
 5624 0610 40820018 		bne- 0,.L293
 5625              	.LBB2360:
 5626              	.LBB2194:
 5627              	.LBB2183:
 5628              		.loc 1 287 32 discriminator 1 view .LVU1235
 5629 0614 48000001 		bl __cxa_begin_catch
 5630              	.LVL380:
 5631              		.loc 1 287 37 discriminator 2 view .LVU1236
 5632 0618 48000001 		bl __cxa_end_catch
 5633              	.LVL381:
 5634 061c 813F0084 		lwz 9,132(31)
 5635 0620 815F0088 		lwz 10,136(31)
 5636 0624 4BFFFB68 		b .L240
 5637              	.LVL382:
 5638              	.L293:
 5639              	.LEHB34:
 5640              		.loc 1 287 37 discriminator 2 view .LVU1237
 5641 0628 48000001 		bl _Unwind_Resume
 5642              	.LVL383:
 5643              	.L311:
 5644              		.cfi_restore 22
 5645              		.cfi_restore 23
 5646              		.cfi_restore 24
 5647              		.cfi_restore 27
 5648              		.loc 1 287 37 discriminator 2 view .LVU1238
 5649 062c 92C10008 		stw 22,8(1)
 5650              		.cfi_offset 22, -40
 5651 0630 92E1000C 		stw 23,12(1)
 5652              		.cfi_offset 23, -36
 5653 0634 93010010 		stw 24,16(1)
 5654              		.cfi_offset 24, -32
 5655 0638 9361001C 		stw 27,28(1)
 5656              		.cfi_offset 27, -20
 5657 063c 48000001 		bl _Unwind_Resume
 5658              	.LVL384:
 5659              	.LEHE34:
 5660              	.LBE2183:
 5661              	.LBE2194:
 5662              	.LBE2360:
 5663              		.cfi_endproc
 5664              	.LFE2366:
 5665              		.section	.gcc_except_table._ZN9GuiWindow16MoveSelectionHorEi,"a",@progbits
 5666              		.align 2
 5667              	.LLSDA2366:
 5668 0000 FF       		.byte	0xff
 5669 0001 00       		.byte	0
 5670 0002 69       		.uleb128 .LLSDATT2366-.LLSDATTD2366
 5671              	.LLSDATTD2366:
 5672 0003 01       		.byte	0x1
 5673 0004 61       		.uleb128 .LLSDACSE2366-.LLSDACSB2366
 5674              	.LLSDACSB2366:
 5675 0005 8801     		.uleb128 .LEHB18-.LFB2366
 5676 0007 04       		.uleb128 .LEHE18-.LEHB18
 5677 0008 DC0B     		.uleb128 .L273-.LFB2366
 5678 000a 01       		.uleb128 0x1
 5679 000b B801     		.uleb128 .LEHB19-.LFB2366
 5680 000d 28       		.uleb128 .LEHE19-.LEHB19
 5681 000e 00       		.uleb128 0
 5682 000f 00       		.uleb128 0
 5683 0010 A402     		.uleb128 .LEHB20-.LFB2366
 5684 0012 58       		.uleb128 .LEHE20-.LEHB20
 5685 0013 8C0C     		.uleb128 .L271-.LFB2366
 5686 0015 01       		.uleb128 0x1
 5687 0016 D003     		.uleb128 .LEHB21-.LFB2366
 5688 0018 D801     		.uleb128 .LEHE21-.LEHB21
 5689 001a F00B     		.uleb128 .L272-.LFB2366
 5690 001c 01       		.uleb128 0x1
 5691 001d 8006     		.uleb128 .LEHB22-.LFB2366
 5692 001f 70       		.uleb128 .LEHE22-.LEHB22
 5693 0020 00       		.uleb128 0
 5694 0021 00       		.uleb128 0
 5695 0022 CC07     		.uleb128 .LEHB23-.LFB2366
 5696 0024 2C       		.uleb128 .LEHE23-.LEHB23
 5697 0025 8C0C     		.uleb128 .L271-.LFB2366
 5698 0027 01       		.uleb128 0x1
 5699 0028 B008     		.uleb128 .LEHB24-.LFB2366
 5700 002a 04       		.uleb128 .LEHE24-.LEHB24
 5701 002b 00       		.uleb128 0
 5702 002c 00       		.uleb128 0
 5703 002d E408     		.uleb128 .LEHB25-.LFB2366
 5704 002f 28       		.uleb128 .LEHE25-.LEHB25
 5705 0030 F00B     		.uleb128 .L272-.LFB2366
 5706 0032 01       		.uleb128 0x1
 5707 0033 B809     		.uleb128 .LEHB26-.LFB2366
 5708 0035 08       		.uleb128 .LEHE26-.LEHB26
 5709 0036 8C0C     		.uleb128 .L271-.LFB2366
 5710 0038 01       		.uleb128 0x1
 5711 0039 DC09     		.uleb128 .LEHB27-.LFB2366
 5712 003b 08       		.uleb128 .LEHE27-.LEHB27
 5713 003c 00       		.uleb128 0
 5714 003d 00       		.uleb128 0
 5715 003e F409     		.uleb128 .LEHB28-.LFB2366
 5716 0040 08       		.uleb128 .LEHE28-.LEHB28
 5717 0041 8C0C     		.uleb128 .L271-.LFB2366
 5718 0043 01       		.uleb128 0x1
 5719 0044 880A     		.uleb128 .LEHB29-.LFB2366
 5720 0046 30       		.uleb128 .LEHE29-.LEHB29
 5721 0047 F00B     		.uleb128 .L272-.LFB2366
 5722 0049 01       		.uleb128 0x1
 5723 004a C40A     		.uleb128 .LEHB30-.LFB2366
 5724 004c 08       		.uleb128 .LEHE30-.LEHB30
 5725 004d 8C0C     		.uleb128 .L271-.LFB2366
 5726 004f 01       		.uleb128 0x1
 5727 0050 D80A     		.uleb128 .LEHB31-.LFB2366
 5728 0052 44       		.uleb128 .LEHE31-.LEHB31
 5729 0053 F00B     		.uleb128 .L272-.LFB2366
 5730 0055 01       		.uleb128 0x1
 5731 0056 A80B     		.uleb128 .LEHB32-.LFB2366
 5732 0058 1C       		.uleb128 .LEHE32-.LEHB32
 5733 0059 00       		.uleb128 0
 5734 005a 00       		.uleb128 0
 5735 005b D40B     		.uleb128 .LEHB33-.LFB2366
 5736 005d 08       		.uleb128 .LEHE33-.LEHB33
 5737 005e 8C0C     		.uleb128 .L271-.LFB2366
 5738 0060 01       		.uleb128 0x1
 5739 0061 A80C     		.uleb128 .LEHB34-.LFB2366
 5740 0063 18       		.uleb128 .LEHE34-.LEHB34
 5741 0064 00       		.uleb128 0
 5742 0065 00       		.uleb128 0
 5743              	.LLSDACSE2366:
 5744 0066 01       		.byte	0x1
 5745 0067 00       		.byte	0
 5746              		.align 2
 5747 0068 00000000 		.long	_ZTISt9exception
 5748              	.LLSDATT2366:
 5749              		.section	.text._ZN9GuiWindow16MoveSelectionHorEi
 5750              		.size	_ZN9GuiWindow16MoveSelectionHorEi, .-_ZN9GuiWindow16MoveSelectionHorEi
 5751              		.section	.text._ZN9GuiWindow17MoveSelectionVertEi,"ax",@progbits
 5752              		.align 2
 5753              		.globl _ZN9GuiWindow17MoveSelectionVertEi
 5754              		.type	_ZN9GuiWindow17MoveSelectionVertEi, @function
 5755              	_ZN9GuiWindow17MoveSelectionVertEi:
 5756              	.LVL385:
 5757              	.LFB2367:
 5758              		.loc 1 326 1 is_stmt 1 view -0
 5759              		.cfi_startproc
 5760              		.cfi_personality 0,__gxx_personality_v0
 5761              		.cfi_lsda 0,.LLSDA2367
 5762              		.loc 1 327 2 view .LVU1240
 5763              		.loc 1 328 2 view .LVU1241
 5764              		.loc 1 329 2 view .LVU1242
 5765              		.loc 1 330 2 view .LVU1243
 5766              		.loc 1 332 2 view .LVU1244
 5767              		.loc 1 332 34 is_stmt 0 view .LVU1245
 5768 0000 81430000 		lwz 10,0(3)
 5769 0004 3D200000 		lis 9,_ZN9GuiWindow11GetSelectedEv@ha
 5770 0008 39290000 		la 9,_ZN9GuiWindow11GetSelectedEv@l(9)
 5771              		.loc 1 326 1 view .LVU1246
 5772 000c 9421FFC8 		stwu 1,-56(1)
 5773              		.cfi_def_cfa_offset 56
 5774              		.loc 1 332 34 view .LVU1247
 5775 0010 814A0018 		lwz 10,24(10)
 5776              		.loc 1 326 1 view .LVU1248
 5777 0014 7C0802A6 		mflr 0
 5778 0018 93810028 		stw 28,40(1)
 5779              		.cfi_register 65, 0
 5780              		.cfi_offset 28, -16
 5781 001c 7C9C2378 		mr 28,4
 5782 0020 7C0A4800 		cmpw 0,10,9
 5783 0024 93E10034 		stw 31,52(1)
 5784 0028 9001003C 		stw 0,60(1)
 5785              		.cfi_offset 31, -4
 5786              		.cfi_offset 65, 4
 5787 002c 7C7F1B78 		mr 31,3
 5788 0030 9321001C 		stw 25,28(1)
 5789 0034 93A1002C 		stw 29,44(1)
 5790 0038 93C10030 		stw 30,48(1)
 5791              		.cfi_offset 25, -28
 5792              		.cfi_offset 29, -12
 5793              		.cfi_offset 30, -8
 5794 003c 40820354 		bne- 0,.L313
 5795              	.LVL386:
 5796              	.LBB2454:
 5797              	.LBB2455:
 5798              	.LBB2456:
 5799              		.loc 1 239 19 is_stmt 1 discriminator 1 view .LVU1249
 5800              	.LBB2457:
 5801              	.LBI2457:
 5802              		.loc 2 987 7 view .LVU1250
 5803              	.LBB2458:
 5804              		.loc 2 988 66 is_stmt 0 view .LVU1251
 5805 0040 81430084 		lwz 10,132(3)
 5806              	.LVL387:
 5807              		.loc 2 988 66 view .LVU1252
 5808              	.LBE2458:
 5809              	.LBE2457:
 5810              		.loc 1 239 19 discriminator 1 view .LVU1253
 5811 0044 81230088 		lwz 9,136(3)
 5812 0048 7C095000 		cmpw 0,9,10
 5813 004c 41820294 		beq- 0,.L312
 5814              		.loc 1 239 10 view .LVU1254
 5815 0050 3BA00000 		li 29,0
 5816              		.loc 1 239 17 discriminator 1 view .LVU1255
 5817 0054 39200000 		li 9,0
 5818 0058 48000024 		b .L317
 5819              	.LVL388:
 5820              	.L315:
 5821              		.loc 1 239 2 is_stmt 1 discriminator 2 view .LVU1256
 5822              	.LBB2462:
 5823              	.LBB2459:
 5824              		.loc 2 988 40 is_stmt 0 view .LVU1257
 5825 005c 80BF0088 		lwz 5,136(31)
 5826              	.LBE2459:
 5827              	.LBE2462:
 5828              		.loc 1 239 2 discriminator 2 view .LVU1258
 5829 0060 3BBD0001 		addi 29,29,1
 5830              	.LVL389:
 5831              	.LBB2463:
 5832              	.LBB2460:
 5833              		.loc 2 988 66 view .LVU1259
 5834 0064 815F0084 		lwz 10,132(31)
 5835              	.LBE2460:
 5836              	.LBE2463:
 5837              		.loc 1 239 17 discriminator 1 view .LVU1260
 5838 0068 57A9063E 		rlwinm 9,29,0,0xff
 5839              	.LVL390:
 5840              		.loc 1 239 19 is_stmt 1 discriminator 1 view .LVU1261
 5841              	.LBB2464:
 5842              		.loc 2 987 7 view .LVU1262
 5843              	.LBB2461:
 5844              		.loc 2 988 50 is_stmt 0 view .LVU1263
 5845 006c 7D0A2850 		subf 8,10,5
 5846 0070 7D081670 		srawi 8,8,2
 5847              	.LBE2461:
 5848              	.LBE2464:
 5849              		.loc 1 239 19 discriminator 1 view .LVU1264
 5850 0074 7C094040 		cmplw 0,9,8
 5851 0078 40800294 		bge- 0,.L358
 5852              	.LVL391:
 5853              	.L317:
 5854              	.LBB2465:
 5855              		.loc 1 241 3 is_stmt 1 view .LVU1265
 5856              		.loc 1 243 4 view .LVU1266
 5857              	.LBB2466:
 5858              	.LBI2466:
 5859              		.loc 2 1173 7 view .LVU1267
 5860              	.LBB2467:
 5861              	.LBI2467:
 5862              		.loc 2 1121 7 view .LVU1268
 5863              		.loc 2 1121 7 is_stmt 0 view .LVU1269
 5864              	.LBE2467:
 5865              	.LBE2466:
 5866              		.loc 1 243 32 discriminator 1 view .LVU1270
 5867 007c 5529103A 		slwi 9,9,2
 5868 0080 7C6A482E 		lwzx 3,10,9
 5869              	.LEHB35:
 5870 0084 48000001 		bl _ZN10GuiElement8GetStateEv
 5871              	.LVL392:
 5872              	.LEHE35:
 5873              		.loc 1 243 4 discriminator 2 view .LVU1271
 5874 0088 2C030001 		cmpwi 0,3,1
 5875 008c 4082FFD0 		bne+ 0,.L315
 5876              		.loc 1 245 5 is_stmt 1 view .LVU1272
 5877              	.LBE2465:
 5878              	.LBE2456:
 5879              	.LBE2455:
 5880              	.LBE2454:
 5881              	.LBB2476:
 5882              	.LBB2477:
 5883              	.LBB2478:
 5884              	.LBB2479:
 5885              	.LBB2480:
 5886              		.loc 2 988 40 is_stmt 0 view .LVU1273
 5887 0090 80BF0088 		lwz 5,136(31)
 5888              	.LBE2480:
 5889              	.LBE2479:
 5890              	.LBE2478:
 5891              	.LBE2477:
 5892              	.LBE2476:
 5893              	.LBB2499:
 5894              	.LBB2473:
 5895              	.LBB2471:
 5896              	.LBB2469:
 5897              		.loc 1 245 11 view .LVU1274
 5898 0094 57BD063E 		rlwinm 29,29,0,0xff
 5899              	.LVL393:
 5900              		.loc 1 246 5 is_stmt 1 view .LVU1275
 5901              		.loc 1 246 5 is_stmt 0 view .LVU1276
 5902              	.LBE2469:
 5903              	.LBE2471:
 5904              	.LBE2473:
 5905              	.LBE2499:
 5906              		.loc 1 334 2 is_stmt 1 view .LVU1277
 5907              	.LBB2500:
 5908              	.LBB2493:
 5909              	.LBB2489:
 5910              	.LBB2485:
 5911              	.LBB2481:
 5912              		.loc 2 988 66 is_stmt 0 view .LVU1278
 5913 0098 815F0084 		lwz 10,132(31)
 5914              	.LVL394:
 5915              	.L316:
 5916              		.loc 2 988 66 view .LVU1279
 5917              	.LBE2481:
 5918              	.LBE2485:
 5919              	.LBE2489:
 5920              	.LBE2493:
 5921              	.LBE2500:
 5922              		.loc 1 336 3 is_stmt 1 view .LVU1280
 5923              	.LBB2501:
 5924              	.LBI2476:
 5925              		.loc 2 1173 7 view .LVU1281
 5926              	.LBB2494:
 5927              	.LBI2477:
 5928              		.loc 2 1150 7 view .LVU1282
 5929              	.LBB2490:
 5930              	.LBB2486:
 5931              	.LBI2479:
 5932              		.loc 2 987 7 view .LVU1283
 5933              	.LBB2482:
 5934              		.loc 2 988 50 is_stmt 0 view .LVU1284
 5935 009c 7CAA2850 		subf 5,10,5
 5936 00a0 7CA51670 		srawi 5,5,2
 5937              	.LVL395:
 5938              		.loc 2 988 50 view .LVU1285
 5939              	.LBE2482:
 5940              	.LBE2486:
 5941              		.loc 2 1152 2 discriminator 1 view .LVU1286
 5942 00a4 7C1D2840 		cmplw 0,29,5
 5943 00a8 40800334 		bge- 0,.L357
 5944              	.LVL396:
 5945              		.loc 2 1152 2 discriminator 1 view .LVU1287
 5946              	.LBE2490:
 5947              	.LBE2494:
 5948              	.LBB2495:
 5949              	.LBI2495:
 5950              		.loc 2 1121 7 is_stmt 1 view .LVU1288
 5951              	.LBB2496:
 5952              		.loc 2 1124 34 is_stmt 0 view .LVU1289
 5953 00ac 57BE103A 		slwi 30,29,2
 5954              	.LVL397:
 5955              		.loc 2 1124 34 view .LVU1290
 5956              	.LBE2496:
 5957              	.LBE2495:
 5958              	.LBE2501:
 5959              		.loc 1 336 41 discriminator 1 view .LVU1291
 5960 00b0 7C6AF02E 		lwzx 3,10,30
 5961              	.LEHB36:
 5962 00b4 48000001 		bl _ZN10GuiElement7GetLeftEv
 5963              	.LVL398:
 5964              	.LBB2502:
 5965              	.LBB2503:
 5966              	.LBB2504:
 5967              	.LBB2505:
 5968              	.LBB2506:
 5969              		.loc 2 988 66 view .LVU1292
 5970 00b8 813F0084 		lwz 9,132(31)
 5971              		.loc 2 988 50 view .LVU1293
 5972 00bc 80BF0088 		lwz 5,136(31)
 5973              	.LBE2506:
 5974              	.LBE2505:
 5975              	.LBE2504:
 5976              	.LBE2503:
 5977              	.LBE2502:
 5978              		.loc 1 336 8 discriminator 2 view .LVU1294
 5979 00c0 7C791B78 		mr 25,3
 5980              	.LVL399:
 5981              		.loc 1 337 3 is_stmt 1 view .LVU1295
 5982              	.LBB2514:
 5983              	.LBI2502:
 5984              		.loc 2 1173 7 view .LVU1296
 5985              	.LBB2511:
 5986              	.LBI2503:
 5987              		.loc 2 1150 7 view .LVU1297
 5988              	.LBB2509:
 5989              	.LBB2508:
 5990              	.LBI2505:
 5991              		.loc 2 987 7 view .LVU1298
 5992              	.LBB2507:
 5993              		.loc 2 988 50 is_stmt 0 view .LVU1299
 5994 00c4 7CA92850 		subf 5,9,5
 5995 00c8 7CA51670 		srawi 5,5,2
 5996              	.LVL400:
 5997              		.loc 2 988 50 view .LVU1300
 5998              	.LBE2507:
 5999              	.LBE2508:
 6000              		.loc 2 1152 2 discriminator 1 view .LVU1301
 6001 00cc 7C1D2840 		cmplw 0,29,5
 6002 00d0 4080030C 		bge- 0,.L357
 6003              	.LVL401:
 6004              		.loc 2 1152 2 discriminator 1 view .LVU1302
 6005              	.LBE2509:
 6006              	.LBE2511:
 6007              	.LBB2512:
 6008              	.LBI2512:
 6009              		.loc 2 1121 7 is_stmt 1 view .LVU1303
 6010              		.loc 2 1121 7 is_stmt 0 view .LVU1304
 6011              	.LBE2512:
 6012              	.LBE2514:
 6013              		.loc 1 337 39 discriminator 1 view .LVU1305
 6014 00d4 7C69F02E 		lwzx 3,9,30
 6015              	.LVL402:
 6016              		.loc 1 337 39 discriminator 1 view .LVU1306
 6017 00d8 48000001 		bl _ZN10GuiElement6GetTopEv
 6018              	.LVL403:
 6019              	.LEHE36:
 6020              	.LBB2515:
 6021              	.LBB2516:
 6022              	.LBB2517:
 6023              		.loc 2 988 66 view .LVU1307
 6024 00dc 815F0084 		lwz 10,132(31)
 6025              		.loc 2 988 40 view .LVU1308
 6026 00e0 80BF0088 		lwz 5,136(31)
 6027              	.LVL404:
 6028              	.L318:
 6029              		.loc 2 988 40 view .LVU1309
 6030              	.LBE2517:
 6031              	.LBE2516:
 6032              	.LBE2515:
 6033              		.loc 1 341 2 is_stmt 1 view .LVU1310
 6034              	.LBB2663:
 6035              		.loc 1 341 16 discriminator 1 view .LVU1311
 6036              	.LBB2520:
 6037              	.LBI2516:
 6038              		.loc 2 987 7 view .LVU1312
 6039              		.loc 2 987 7 is_stmt 0 view .LVU1313
 6040              	.LBE2520:
 6041              		.loc 1 341 16 discriminator 1 view .LVU1314
 6042 00e4 7C0A2840 		cmplw 0,10,5
 6043 00e8 418201F8 		beq- 0,.L312
 6044              	.LBB2521:
 6045              		.loc 1 347 43 discriminator 2 view .LVU1315
 6046 00ec 5463043E 		rlwinm 3,3,0,0xffff
 6047              		.loc 1 347 43 discriminator 2 view .LVU1316
 6048 00f0 93410020 		stw 26,32(1)
 6049              		.cfi_offset 26, -24
 6050 00f4 7F43E1D6 		mullw 26,3,28
 6051 00f8 92A1000C 		stw 21,12(1)
 6052              		.cfi_offset 21, -44
 6053 00fc 92C10010 		stw 22,16(1)
 6054              		.cfi_offset 22, -40
 6055              	.LBE2521:
 6056              		.loc 1 341 9 view .LVU1317
 6057 0100 3BC00000 		li 30,0
 6058 0104 92E10014 		stw 23,20(1)
 6059              		.cfi_offset 23, -36
 6060 0108 93010018 		stw 24,24(1)
 6061              		.cfi_offset 24, -32
 6062              		.loc 1 341 14 discriminator 1 view .LVU1318
 6063 010c 3B000000 		li 24,0
 6064 0110 93610024 		stw 27,36(1)
 6065              		.cfi_offset 27, -20
 6066              	.LBE2663:
 6067              		.loc 1 327 6 view .LVU1319
 6068 0114 3B60FFFF 		li 27,-1
 6069              	.LVL405:
 6070              	.L334:
 6071              	.LBB2664:
 6072              	.LBB2654:
 6073              		.loc 1 343 3 is_stmt 1 view .LVU1320
 6074              		.loc 1 345 4 view .LVU1321
 6075              	.LBB2522:
 6076              	.LBI2522:
 6077              		.loc 2 1173 7 view .LVU1322
 6078              	.LBB2523:
 6079              	.LBI2523:
 6080              		.loc 2 1121 7 view .LVU1323
 6081              	.LBB2524:
 6082              		.loc 2 1124 34 is_stmt 0 view .LVU1324
 6083 0118 5717103A 		slwi 23,24,2
 6084              	.LVL406:
 6085              		.loc 2 1124 34 view .LVU1325
 6086              	.LBE2524:
 6087              	.LBE2523:
 6088              	.LBE2522:
 6089              		.loc 1 345 36 discriminator 1 view .LVU1326
 6090 011c 7C6AB82E 		lwzx 3,10,23
 6091              	.LEHB37:
 6092 0120 48000001 		bl _ZN10GuiElement12IsSelectableEv
 6093              	.LVL407:
 6094              		.loc 1 345 4 discriminator 2 view .LVU1327
 6095 0124 2C030000 		cmpwi 0,3,0
 6096              	.LBB2525:
 6097              	.LBB2526:
 6098              	.LBB2527:
 6099              	.LBB2528:
 6100              	.LBB2529:
 6101              		.loc 2 988 40 view .LVU1328
 6102 0128 80BF0088 		lwz 5,136(31)
 6103              		.loc 2 988 66 view .LVU1329
 6104 012c 813F0084 		lwz 9,132(31)
 6105              	.LBE2529:
 6106              	.LBE2528:
 6107              	.LBE2527:
 6108              	.LBE2526:
 6109              	.LBE2525:
 6110              		.loc 1 345 4 discriminator 2 view .LVU1330
 6111 0130 418200DC 		beq- 0,.L326
 6112              	.LBB2540:
 6113              	.LBB2536:
 6114              	.LBB2533:
 6115              	.LBB2531:
 6116              	.LBB2530:
 6117              		.loc 2 988 50 view .LVU1331
 6118 0134 7CA92850 		subf 5,9,5
 6119 0138 7CA51670 		srawi 5,5,2
 6120              	.LBE2530:
 6121              	.LBE2531:
 6122              	.LBE2533:
 6123              	.LBE2536:
 6124              	.LBE2540:
 6125              		.loc 1 347 5 is_stmt 1 view .LVU1332
 6126              	.LVL408:
 6127              	.LBB2541:
 6128              	.LBI2525:
 6129              		.loc 2 1173 7 view .LVU1333
 6130              	.LBB2537:
 6131              	.LBI2526:
 6132              		.loc 2 1150 7 view .LVU1334
 6133              	.LBB2534:
 6134              	.LBB2532:
 6135              	.LBI2528:
 6136              		.loc 2 987 7 view .LVU1335
 6137              		.loc 2 987 7 is_stmt 0 view .LVU1336
 6138              	.LBE2532:
 6139              		.loc 2 1152 2 discriminator 1 view .LVU1337
 6140 013c 7C182840 		cmplw 0,24,5
 6141 0140 40800274 		bge- 0,.L359
 6142              	.LVL409:
 6143              		.loc 2 1152 2 discriminator 1 view .LVU1338
 6144              	.LBE2534:
 6145              	.LBE2537:
 6146              	.LBB2538:
 6147              	.LBI2538:
 6148              		.loc 2 1121 7 is_stmt 1 view .LVU1339
 6149              		.loc 2 1121 7 is_stmt 0 view .LVU1340
 6150              	.LBE2538:
 6151              	.LBE2541:
 6152              		.loc 1 347 31 discriminator 1 view .LVU1341
 6153 0144 7C69B82E 		lwzx 3,9,23
 6154 0148 48000001 		bl _ZN10GuiElement6GetTopEv
 6155              	.LVL410:
 6156              		.loc 1 347 33 discriminator 2 view .LVU1342
 6157 014c 7C63E1D6 		mullw 3,3,28
 6158              	.LBB2542:
 6159              	.LBB2543:
 6160              	.LBB2544:
 6161              	.LBB2545:
 6162              	.LBB2546:
 6163              		.loc 2 988 40 view .LVU1343
 6164 0150 80BF0088 		lwz 5,136(31)
 6165              		.loc 2 988 66 view .LVU1344
 6166 0154 813F0084 		lwz 9,132(31)
 6167              	.LBE2546:
 6168              	.LBE2545:
 6169              	.LBE2544:
 6170              	.LBE2543:
 6171              	.LBE2542:
 6172              		.loc 1 347 5 discriminator 2 view .LVU1345
 6173 0158 7C03D000 		cmpw 0,3,26
 6174 015c 408100B0 		ble- 0,.L326
 6175              		.loc 1 349 6 is_stmt 1 view .LVU1346
 6176 0160 2C1BFFFF 		cmpwi 0,27,-1
 6177 0164 418201A0 		beq- 0,.L356
 6178              	.LBB2557:
 6179              	.LBB2553:
 6180              	.LBB2550:
 6181              	.LBB2548:
 6182              	.LBB2547:
 6183              		.loc 2 988 50 is_stmt 0 view .LVU1347
 6184 0168 7CA92850 		subf 5,9,5
 6185 016c 7CA51670 		srawi 5,5,2
 6186              	.LBE2547:
 6187              	.LBE2548:
 6188              	.LBE2550:
 6189              	.LBE2553:
 6190              	.LBE2557:
 6191              		.loc 1 351 11 is_stmt 1 view .LVU1348
 6192              	.LVL411:
 6193              	.LBB2558:
 6194              	.LBI2542:
 6195              		.loc 2 1173 7 view .LVU1349
 6196              	.LBB2554:
 6197              	.LBI2543:
 6198              		.loc 2 1150 7 view .LVU1350
 6199              	.LBB2551:
 6200              	.LBB2549:
 6201              	.LBI2545:
 6202              		.loc 2 987 7 view .LVU1351
 6203              		.loc 2 987 7 is_stmt 0 view .LVU1352
 6204              	.LBE2549:
 6205              		.loc 2 1152 2 discriminator 1 view .LVU1353
 6206 0170 7C182840 		cmplw 0,24,5
 6207 0174 40800254 		bge- 0,.L360
 6208              	.LVL412:
 6209              		.loc 2 1152 2 discriminator 1 view .LVU1354
 6210              	.LBE2551:
 6211              	.LBE2554:
 6212              	.LBB2555:
 6213              	.LBI2555:
 6214              		.loc 2 1121 7 is_stmt 1 view .LVU1355
 6215              		.loc 2 1121 7 is_stmt 0 view .LVU1356
 6216              	.LBE2555:
 6217              	.LBE2558:
 6218              		.loc 1 351 37 discriminator 1 view .LVU1357
 6219 0178 7C69B82E 		lwzx 3,9,23
 6220 017c 48000001 		bl _ZN10GuiElement6GetTopEv
 6221              	.LVL413:
 6222              	.LBB2559:
 6223              	.LBB2560:
 6224              	.LBB2561:
 6225              	.LBB2562:
 6226              	.LBB2563:
 6227              		.loc 2 988 66 view .LVU1358
 6228 0180 813F0084 		lwz 9,132(31)
 6229              	.LBE2563:
 6230              	.LBE2562:
 6231              	.LBE2561:
 6232              	.LBE2560:
 6233              	.LBE2559:
 6234              		.loc 1 351 39 discriminator 2 view .LVU1359
 6235 0184 7EBC19D6 		mullw 21,28,3
 6236              	.LVL414:
 6237              	.LBB2572:
 6238              	.LBI2559:
 6239              		.loc 2 1173 7 is_stmt 1 view .LVU1360
 6240              	.LBB2568:
 6241              	.LBI2560:
 6242              		.loc 2 1150 7 view .LVU1361
 6243              	.LBB2566:
 6244              	.LBB2565:
 6245              	.LBI2562:
 6246              		.loc 2 987 7 view .LVU1362
 6247              	.LBB2564:
 6248              		.loc 2 988 50 is_stmt 0 view .LVU1363
 6249 0188 80BF0088 		lwz 5,136(31)
 6250 018c 7CA92850 		subf 5,9,5
 6251 0190 7CA51670 		srawi 5,5,2
 6252              	.LVL415:
 6253              		.loc 2 988 50 view .LVU1364
 6254              	.LBE2564:
 6255              	.LBE2565:
 6256              		.loc 2 1152 2 discriminator 1 view .LVU1365
 6257 0194 7C1B2840 		cmplw 0,27,5
 6258 0198 40800270 		bge- 0,.L361
 6259              	.LVL416:
 6260              		.loc 2 1152 2 discriminator 1 view .LVU1366
 6261              	.LBE2566:
 6262              	.LBE2568:
 6263              	.LBB2569:
 6264              	.LBI2569:
 6265              		.loc 2 1121 7 is_stmt 1 view .LVU1367
 6266              	.LBB2570:
 6267              		.loc 2 1124 34 is_stmt 0 view .LVU1368
 6268 019c 5776103A 		slwi 22,27,2
 6269              	.LVL417:
 6270              		.loc 2 1124 34 view .LVU1369
 6271              	.LBE2570:
 6272              	.LBE2569:
 6273              	.LBE2572:
 6274              		.loc 1 351 73 discriminator 3 view .LVU1370
 6275 01a0 7C69B02E 		lwzx 3,9,22
 6276 01a4 48000001 		bl _ZN10GuiElement6GetTopEv
 6277              	.LVL418:
 6278              		.loc 1 351 75 discriminator 4 view .LVU1371
 6279 01a8 7C7C19D6 		mullw 3,28,3
 6280              	.LBB2573:
 6281              	.LBB2574:
 6282              	.LBB2575:
 6283              	.LBB2576:
 6284              	.LBB2577:
 6285              		.loc 2 988 40 view .LVU1372
 6286 01ac 80BF0088 		lwz 5,136(31)
 6287              		.loc 2 988 66 view .LVU1373
 6288 01b0 813F0084 		lwz 9,132(31)
 6289              	.LBE2577:
 6290              	.LBE2576:
 6291              	.LBE2575:
 6292              	.LBE2574:
 6293              	.LBE2573:
 6294              		.loc 1 351 11 discriminator 4 view .LVU1374
 6295 01b4 7C151800 		cmpw 0,21,3
 6296 01b8 4180014C 		blt- 0,.L356
 6297              	.LBB2588:
 6298              	.LBB2584:
 6299              	.LBB2581:
 6300              	.LBB2579:
 6301              	.LBB2578:
 6302              		.loc 2 988 50 view .LVU1375
 6303 01bc 7CA92850 		subf 5,9,5
 6304 01c0 7CA51670 		srawi 5,5,2
 6305              	.LBE2578:
 6306              	.LBE2579:
 6307              	.LBE2581:
 6308              	.LBE2584:
 6309              	.LBE2588:
 6310              		.loc 1 353 11 is_stmt 1 view .LVU1376
 6311              	.LVL419:
 6312              	.LBB2589:
 6313              	.LBI2573:
 6314              		.loc 2 1173 7 view .LVU1377
 6315              	.LBB2585:
 6316              	.LBI2574:
 6317              		.loc 2 1150 7 view .LVU1378
 6318              	.LBB2582:
 6319              	.LBB2580:
 6320              	.LBI2576:
 6321              		.loc 2 987 7 view .LVU1379
 6322              		.loc 2 987 7 is_stmt 0 view .LVU1380
 6323              	.LBE2580:
 6324              		.loc 2 1152 2 discriminator 1 view .LVU1381
 6325 01c4 7C182840 		cmplw 0,24,5
 6326 01c8 408002B8 		bge- 0,.L362
 6327              	.LVL420:
 6328              		.loc 2 1152 2 discriminator 1 view .LVU1382
 6329              	.LBE2582:
 6330              	.LBE2585:
 6331              	.LBB2586:
 6332              	.LBI2586:
 6333              		.loc 2 1121 7 is_stmt 1 view .LVU1383
 6334              		.loc 2 1121 7 is_stmt 0 view .LVU1384
 6335              	.LBE2586:
 6336              	.LBE2589:
 6337              		.loc 1 353 37 discriminator 1 view .LVU1385
 6338 01cc 7C69B82E 		lwzx 3,9,23
 6339 01d0 48000001 		bl _ZN10GuiElement6GetTopEv
 6340              	.LVL421:
 6341              	.LBB2590:
 6342              	.LBB2591:
 6343              	.LBB2592:
 6344              	.LBB2593:
 6345              	.LBB2594:
 6346              		.loc 2 988 66 view .LVU1386
 6347 01d4 813F0084 		lwz 9,132(31)
 6348              	.LBE2594:
 6349              	.LBE2593:
 6350              	.LBE2592:
 6351              	.LBE2591:
 6352              	.LBE2590:
 6353              		.loc 1 353 39 discriminator 2 view .LVU1387
 6354 01d8 7EBC19D6 		mullw 21,28,3
 6355              	.LVL422:
 6356              	.LBB2602:
 6357              	.LBI2590:
 6358              		.loc 2 1173 7 is_stmt 1 view .LVU1388
 6359              	.LBB2599:
 6360              	.LBI2591:
 6361              		.loc 2 1150 7 view .LVU1389
 6362              	.LBB2597:
 6363              	.LBB2596:
 6364              	.LBI2593:
 6365              		.loc 2 987 7 view .LVU1390
 6366              	.LBB2595:
 6367              		.loc 2 988 50 is_stmt 0 view .LVU1391
 6368 01dc 80BF0088 		lwz 5,136(31)
 6369 01e0 7CA92850 		subf 5,9,5
 6370 01e4 7CA51670 		srawi 5,5,2
 6371              	.LVL423:
 6372              		.loc 2 988 50 view .LVU1392
 6373              	.LBE2595:
 6374              	.LBE2596:
 6375              		.loc 2 1152 2 discriminator 1 view .LVU1393
 6376 01e8 7C1B2840 		cmplw 0,27,5
 6377 01ec 40800230 		bge- 0,.L363
 6378              	.LVL424:
 6379              		.loc 2 1152 2 discriminator 1 view .LVU1394
 6380              	.LBE2597:
 6381              	.LBE2599:
 6382              	.LBB2600:
 6383              	.LBI2600:
 6384              		.loc 2 1121 7 is_stmt 1 view .LVU1395
 6385              		.loc 2 1121 7 is_stmt 0 view .LVU1396
 6386              	.LBE2600:
 6387              	.LBE2602:
 6388              		.loc 1 353 74 discriminator 3 view .LVU1397
 6389 01f0 7C69B02E 		lwzx 3,9,22
 6390 01f4 48000001 		bl _ZN10GuiElement6GetTopEv
 6391              	.LVL425:
 6392              	.LEHE37:
 6393              		.loc 1 353 76 discriminator 4 view .LVU1398
 6394 01f8 7C7C19D6 		mullw 3,28,3
 6395              	.LBB2603:
 6396              	.LBB2604:
 6397              	.LBB2605:
 6398              	.LBB2606:
 6399              	.LBB2607:
 6400              		.loc 2 988 40 view .LVU1399
 6401 01fc 80BF0088 		lwz 5,136(31)
 6402              		.loc 2 988 66 view .LVU1400
 6403 0200 813F0084 		lwz 9,132(31)
 6404              	.LBE2607:
 6405              	.LBE2606:
 6406              	.LBE2605:
 6407              	.LBE2604:
 6408              	.LBE2603:
 6409              		.loc 1 354 8 view .LVU1401
 6410 0204 7C151800 		cmpw 0,21,3
 6411 0208 41820114 		beq- 0,.L364
 6412              	.L326:
 6413              		.loc 1 354 8 view .LVU1402
 6414              	.LBE2654:
 6415              		.loc 1 341 2 is_stmt 1 discriminator 2 view .LVU1403
 6416 020c 3BDE0001 		addi 30,30,1
 6417              	.LVL426:
 6418              	.LBB2655:
 6419              	.LBB2518:
 6420              		.loc 2 988 50 is_stmt 0 view .LVU1404
 6421 0210 7CA92850 		subf 5,9,5
 6422 0214 7CA51670 		srawi 5,5,2
 6423              	.LBE2518:
 6424              	.LBE2655:
 6425              		.loc 1 341 14 discriminator 1 view .LVU1405
 6426 0218 57D8063E 		rlwinm 24,30,0,0xff
 6427              		.loc 1 341 16 discriminator 1 view .LVU1406
 6428 021c 7C182840 		cmplw 0,24,5
 6429              	.LVL427:
 6430              		.loc 1 341 16 is_stmt 1 discriminator 1 view .LVU1407
 6431              	.LBB2656:
 6432              		.loc 2 987 7 view .LVU1408
 6433              	.LBB2519:
 6434              		.loc 2 988 66 is_stmt 0 view .LVU1409
 6435 0220 7D2A4B78 		mr 10,9
 6436              	.LBE2519:
 6437              	.LBE2656:
 6438              		.loc 1 341 16 discriminator 1 view .LVU1410
 6439 0224 4180FEF4 		blt+ 0,.L334
 6440              		.loc 1 341 16 discriminator 1 view .LVU1411
 6441              	.LBE2664:
 6442              		.loc 1 363 2 is_stmt 1 view .LVU1412
 6443 0228 2C1B0000 		cmpwi 0,27,0
 6444 022c 4180009C 		blt- 0,.L354
 6445              		.loc 1 364 3 view .LVU1413
 6446              		.loc 1 367 2 view .LVU1414
 6447              		.loc 1 368 2 view .LVU1415
 6448              		.loc 1 370 3 view .LVU1416
 6449              	.LVL428:
 6450              	.LBB2665:
 6451              	.LBI2665:
 6452              		.loc 2 1173 7 view .LVU1417
 6453              	.LBB2666:
 6454              	.LBI2666:
 6455              		.loc 2 1150 7 view .LVU1418
 6456              	.LBB2667:
 6457              		.loc 2 1152 2 is_stmt 0 discriminator 1 view .LVU1419
 6458 0230 7C1B2840 		cmplw 0,27,5
 6459 0234 408001FC 		bge- 0,.L365
 6460              	.LVL429:
 6461              		.loc 2 1152 2 discriminator 1 view .LVU1420
 6462              	.LBE2667:
 6463              	.LBE2666:
 6464              	.LBB2669:
 6465              	.LBI2669:
 6466              		.loc 2 1121 7 is_stmt 1 view .LVU1421
 6467              		.loc 2 1121 7 is_stmt 0 view .LVU1422
 6468              	.LBE2669:
 6469              	.LBE2665:
 6470              		.loc 1 370 32 discriminator 1 view .LVU1423
 6471 0238 577B103A 		slwi 27,27,2
 6472              	.LVL430:
 6473              		.loc 1 370 32 discriminator 1 view .LVU1424
 6474 023c 38A0FFFF 		li 5,-1
 6475 0240 7C69D82E 		lwzx 3,9,27
 6476 0244 38800001 		li 4,1
 6477 0248 81230000 		lwz 9,0(3)
 6478 024c 81290010 		lwz 9,16(9)
 6479 0250 7D2903A6 		mtctr 9
 6480              	.LEHB38:
 6481 0254 4E800421 		bctrl
 6482              	.LVL431:
 6483              		.loc 1 371 3 is_stmt 1 view .LVU1425
 6484 0258 2C1D0000 		cmpwi 0,29,0
 6485 025c 4180006C 		blt- 0,.L354
 6486              		.loc 1 372 4 view .LVU1426
 6487              	.LVL432:
 6488              	.LBB2671:
 6489              	.LBI2671:
 6490              		.loc 2 1173 7 view .LVU1427
 6491              	.LBB2672:
 6492              	.LBI2672:
 6493              		.loc 2 1150 7 view .LVU1428
 6494              	.LBB2673:
 6495              	.LBB2674:
 6496              	.LBI2674:
 6497              		.loc 2 987 7 view .LVU1429
 6498              	.LBB2675:
 6499              		.loc 2 988 66 is_stmt 0 view .LVU1430
 6500 0260 813F0084 		lwz 9,132(31)
 6501              		.loc 2 988 50 view .LVU1431
 6502 0264 80BF0088 		lwz 5,136(31)
 6503 0268 7CA92850 		subf 5,9,5
 6504 026c 7CA51670 		srawi 5,5,2
 6505              	.LVL433:
 6506              		.loc 2 988 50 view .LVU1432
 6507              	.LBE2675:
 6508              	.LBE2674:
 6509              		.loc 2 1152 2 discriminator 1 view .LVU1433
 6510 0270 7C1D2840 		cmplw 0,29,5
 6511 0274 408001D0 		bge- 0,.L366
 6512              	.LVL434:
 6513              		.loc 2 1152 2 discriminator 1 view .LVU1434
 6514              	.LBE2673:
 6515              	.LBE2672:
 6516              	.LBB2677:
 6517              	.LBI2677:
 6518              		.loc 2 1121 7 is_stmt 1 view .LVU1435
 6519              		.loc 2 1121 7 is_stmt 0 view .LVU1436
 6520              	.LBE2677:
 6521              	.LBE2671:
 6522              		.loc 1 372 38 discriminator 1 view .LVU1437
 6523 0278 57BD103A 		slwi 29,29,2
 6524              		.loc 1 374 1 view .LVU1438
 6525 027c 8001003C 		lwz 0,60(1)
 6526              		.loc 1 372 38 discriminator 1 view .LVU1439
 6527 0280 7C69E82E 		lwzx 3,9,29
 6528 0284 82A1000C 		lwz 21,12(1)
 6529              		.cfi_remember_state
 6530              		.cfi_restore 21
 6531              		.loc 1 374 1 view .LVU1440
 6532 0288 7C0803A6 		mtlr 0
 6533              		.cfi_restore 65
 6534              		.loc 1 372 38 discriminator 1 view .LVU1441
 6535 028c 81230000 		lwz 9,0(3)
 6536 0290 82C10010 		lwz 22,16(1)
 6537              		.cfi_restore 22
 6538 0294 81290014 		lwz 9,20(9)
 6539 0298 82E10014 		lwz 23,20(1)
 6540              		.cfi_restore 23
 6541 029c 83010018 		lwz 24,24(1)
 6542              		.cfi_restore 24
 6543 02a0 7D2903A6 		mtctr 9
 6544 02a4 83410020 		lwz 26,32(1)
 6545              		.cfi_restore 26
 6546 02a8 83610024 		lwz 27,36(1)
 6547              		.cfi_restore 27
