   1              		.file	"haxx.cpp"
   2              		.machine ppc
   3              		.section	".text"
   4              	.Ltext0:
   5              		.file 1 "F:/GameModding/MarioKartWii/Mods/Distro/RetroRewind6/dev/Launcher/RRLauncher/launcher/sou
   6              		.section	.text._ZL8do_patchi.part.0,"ax",@progbits
   7              		.align 2
   8              		.type	_ZL8do_patchi.part.0, @function
   9              	_ZL8do_patchi.part.0:
  10              	.LVL0:
  11              	.LFB1443:
  12              		.loc 1 470 12 view -0
  13              		.cfi_startproc
  14              		.loc 1 478 2 view .LVU1
  15              		.loc 1 478 8 is_stmt 0 view .LVU2
  16 0000 3D200000 		lis 9,_ZL7patches@ha
  17 0004 54631838 		slwi 3,3,3
  18              	.LVL1:
  19              		.loc 1 478 8 view .LVU3
  20 0008 39290000 		la 9,_ZL7patches@l(9)
  21 000c 7D49182E 		lwzx 10,9,3
  22              	.LVL2:
  23              		.loc 1 480 2 is_stmt 1 view .LVU4
  24              		.loc 1 478 8 is_stmt 0 view .LVU5
  25 0010 7D291A14 		add 9,9,3
  26              		.loc 1 480 2 view .LVU6
  27 0014 A1090004 		lhz 8,4(9)
  28 0018 A0EA0000 		lhz 7,0(10)
  29 001c 7C074000 		cmpw 0,7,8
  30 0020 4182000C 		beq- 0,.L11
  31              		.loc 1 475 10 view .LVU7
  32 0024 38600000 		li 3,0
  33 0028 4E800020 		blr
  34              	.L11:
  35              		.loc 1 482 3 is_stmt 1 view .LVU8
  36              		.loc 1 483 3 is_stmt 0 view .LVU9
  37 002c 3D00C000 		lis 8,0xc000
  38              		.loc 1 482 10 view .LVU10
  39 0030 A1290006 		lhz 9,6(9)
  40              		.loc 1 483 3 view .LVU11
  41 0034 7C0A4040 		cmplw 0,10,8
  42              		.loc 1 482 10 view .LVU12
  43 0038 B12A0000 		sth 9,0(10)
  44              		.loc 1 483 3 is_stmt 1 view .LVU13
  45 003c 4180000C 		blt- 0,.L12
  46              		.loc 1 485 10 is_stmt 0 view .LVU14
  47 0040 38600001 		li 3,1
  48              		.loc 1 489 1 view .LVU15
  49 0044 4E800020 		blr
  50              	.L12:
  51              		.loc 1 484 4 is_stmt 1 view .LVU16
  52              		.loc 1 470 12 is_stmt 0 view .LVU17
  53 0048 9421FFF8 		stwu 1,-8(1)
  54              		.cfi_def_cfa_offset 8
  55 004c 7C0802A6 		mflr 0
  56              		.loc 1 484 16 view .LVU18
  57 0050 55430034 		rlwinm 3,10,0,0,26
  58 0054 38800020 		li 4,32
  59              		.loc 1 470 12 view .LVU19
  60 0058 9001000C 		stw 0,12(1)
  61              		.cfi_offset 65, 4
  62              		.loc 1 484 16 view .LVU20
  63 005c 48000001 		bl DCFlushRange
  64              	.LVL3:
  65              		.loc 1 489 1 view .LVU21
  66 0060 8001000C 		lwz 0,12(1)
  67              		.loc 1 485 10 view .LVU22
  68 0064 38600001 		li 3,1
  69              		.loc 1 489 1 view .LVU23
  70 0068 38210008 		addi 1,1,8
  71              		.cfi_def_cfa_offset 0
  72 006c 7C0803A6 		mtlr 0
  73              		.cfi_restore 65
  74 0070 4E800020 		blr
  75              		.cfi_endproc
  76              	.LFE1443:
  77              		.size	_ZL8do_patchi.part.0, .-_ZL8do_patchi.part.0
  78              		.section	.text._ZL17seeprom_send_bitsii.constprop.0,"ax",@progbits
  79              		.align 2
  80              		.type	_ZL17seeprom_send_bitsii.constprop.0, @function
  81              	_ZL17seeprom_send_bitsii.constprop.0:
  82              	.LVL4:
  83              	.LFB1445:
  84              		.loc 1 1460 13 is_stmt 1 view -0
  85              		.cfi_startproc
  86              		.loc 1 1462 2 view .LVU25
  87              		.loc 1 1462 13 view .LVU26
  88              		.loc 1 1460 13 is_stmt 0 view .LVU27
  89 0000 9421FFE8 		stwu 1,-24(1)
  90              		.cfi_def_cfa_offset 24
  91 0004 7C0802A6 		mflr 0
  92 0008 93E10014 		stw 31,20(1)
  93              		.cfi_register 65, 0
  94              		.cfi_offset 31, -4
  95              	.LBB371:
  96              	.LBB372:
  97              	.LBB373:
  98              	.LBB374:
  99              		.file 2 "C:/devkitPro/libogc/include/ogc/machine/processor.h"
 100              		.loc 2 212 2 view .LVU28
 101 000c 3FE0CD80 		lis 31,0xcd80
 102              	.LBE374:
 103              	.LBE373:
 104              	.LBE372:
 105              	.LBE371:
 106              		.loc 1 1460 13 view .LVU29
 107 0010 93A1000C 		stw 29,12(1)
 108              	.LBB385:
 109              	.LBB383:
 110              	.LBB377:
 111              	.LBB375:
 112              		.loc 2 212 2 view .LVU30
 113 0014 63FF00E0 		ori 31,31,0xe0
 114              	.LBE375:
 115              	.LBE377:
 116              	.LBE383:
 117              	.LBE385:
 118              		.loc 1 1460 13 view .LVU31
 119 0018 93C10010 		stw 30,16(1)
 120              		.cfi_offset 29, -12
 121              		.cfi_offset 30, -8
 122 001c 7C7D1B78 		mr 29,3
 123 0020 9001001C 		stw 0,28(1)
 124              		.cfi_offset 65, 4
 125              		.loc 1 1462 13 view .LVU32
 126 0024 3BC0000A 		li 30,10
 127 0028 48000048 		b .L16
 128              	.LVL5:
 129              	.L20:
 130              	.LBB386:
 131              	.LBB387:
 132              	.LBB388:
 133              	.LBB389:
 134              		.loc 2 212 2 view .LVU33
 135              	#APP
 136              	 # 212 "C:/devkitPro/libogc/include/ogc/machine/processor.h" 1
 137 002c 813F0000 		lwz 9,0(31) ; sync
 137      7C0004AC 
 138              	 # 0 "" 2
 139              	.LVL6:
 140              		.loc 2 213 2 is_stmt 1 view .LVU34
 141              		.loc 2 213 2 is_stmt 0 view .LVU35
 142              	#NO_APP
 143              	.LBE389:
 144              	.LBE388:
 145              	.LBB391:
 146              	.LBI391:
 147              		.loc 2 216 20 is_stmt 1 view .LVU36
 148              	.LBB392:
 149              		.loc 2 218 2 view .LVU37
 150              	.LBE392:
 151              	.LBE391:
 152              		.loc 2 223 9 is_stmt 0 discriminator 1 view .LVU38
 153 0034 61291000 		ori 9,9,0x1000
 154              	.LVL7:
 155              	.LBB394:
 156              	.LBB393:
 157              		.loc 2 218 2 view .LVU39
 158              	#APP
 159              	 # 218 "C:/devkitPro/libogc/include/ogc/machine/processor.h" 1
 160 0038 913F0000 		stw 9,0(31) ; eieio
 160      7C0006AC 
 161              	 # 0 "" 2
 162              	.LVL8:
 163              		.loc 2 218 2 view .LVU40
 164              	#NO_APP
 165              	.LBE393:
 166              	.LBE394:
 167              	.LBE387:
 168              	.LBE386:
 169              		.loc 1 1470 3 is_stmt 1 view .LVU41
 170 0040 38600005 		li 3,5
 171 0044 48000001 		bl usleep
 172              	.LVL9:
 173              		.loc 1 1471 3 view .LVU42
 174              	.LBB397:
 175              	.LBI397:
 176              		.loc 2 221 20 view .LVU43
 177              	.LBB398:
 178              		.loc 2 223 2 view .LVU44
 179              	.LBB399:
 180              	.LBI399:
 181              		.loc 2 209 19 view .LVU45
 182              	.LBB400:
 183              		.loc 2 211 2 view .LVU46
 184              		.loc 2 212 2 view .LVU47
 185              	#APP
 186              	 # 212 "C:/devkitPro/libogc/include/ogc/machine/processor.h" 1
 187 0048 813F0000 		lwz 9,0(31) ; sync
 187      7C0004AC 
 188              	 # 0 "" 2
 189              	.LVL10:
 190              		.loc 2 213 2 view .LVU48
 191              		.loc 2 213 2 is_stmt 0 view .LVU49
 192              	#NO_APP
 193              	.LBE400:
 194              	.LBE399:
 195              	.LBB402:
 196              	.LBI402:
 197              		.loc 2 216 20 is_stmt 1 view .LVU50
 198              	.LBB403:
 199              		.loc 2 218 2 view .LVU51
 200              	.LBE403:
 201              	.LBE402:
 202              		.loc 2 223 9 is_stmt 0 discriminator 1 view .LVU52
 203 0050 61290800 		ori 9,9,0x800
 204              	.LVL11:
 205              	.LBB407:
 206              	.LBB404:
 207              		.loc 2 218 2 view .LVU53
 208              	#APP
 209              	 # 218 "C:/devkitPro/libogc/include/ogc/machine/processor.h" 1
 210 0054 913F0000 		stw 9,0(31) ; eieio
 210      7C0006AC 
 211              	 # 0 "" 2
 212              	.LVL12:
 213              		.loc 2 218 2 view .LVU54
 214              	#NO_APP
 215              	.LBE404:
 216              	.LBE407:
 217              	.LBE398:
 218              	.LBE397:
 219              		.loc 1 1472 3 is_stmt 1 view .LVU55
 220 005c 38600005 		li 3,5
 221              		.loc 1 1462 13 is_stmt 0 view .LVU56
 222 0060 3BDEFFFF 		addi 30,30,-1
 223              	.LVL13:
 224              		.loc 1 1472 3 view .LVU57
 225 0064 48000001 		bl usleep
 226              	.LVL14:
 227              		.loc 1 1462 13 is_stmt 1 view .LVU58
 228              		.loc 1 1462 13 is_stmt 0 view .LVU59
 229 0068 2C1EFFFF 		cmpwi 0,30,-1
 230 006c 4182007C 		beq- 0,.L19
 231              	.LVL15:
 232              	.L16:
 233              		.loc 1 1464 3 is_stmt 1 view .LVU60
 234              	.LBB412:
 235              	.LBI371:
 236              		.loc 2 221 20 view .LVU61
 237              	.LBB384:
 238              		.loc 2 223 2 view .LVU62
 239              	.LBB378:
 240              	.LBI373:
 241              		.loc 2 209 19 view .LVU63
 242              	.LBB376:
 243              		.loc 2 211 2 view .LVU64
 244              		.loc 2 212 2 view .LVU65
 245              	#APP
 246              	 # 212 "C:/devkitPro/libogc/include/ogc/machine/processor.h" 1
 247 0070 813F0000 		lwz 9,0(31) ; sync
 247      7C0004AC 
 248              	 # 0 "" 2
 249              	.LVL16:
 250              		.loc 2 213 2 view .LVU66
 251              		.loc 2 213 2 is_stmt 0 view .LVU67
 252              	#NO_APP
 253              	.LBE376:
 254              	.LBE378:
 255              	.LBB379:
 256              	.LBI379:
 257              		.loc 2 216 20 is_stmt 1 view .LVU68
 258              	.LBB380:
 259              		.loc 2 218 2 view .LVU69
 260              	.LBE380:
 261              	.LBE379:
 262              		.loc 2 223 29 is_stmt 0 discriminator 1 view .LVU70
 263 0078 55290566 		rlwinm 9,9,0,21,19
 264              	.LVL17:
 265              	.LBB382:
 266              	.LBB381:
 267              		.loc 2 218 2 view .LVU71
 268              	#APP
 269              	 # 218 "C:/devkitPro/libogc/include/ogc/machine/processor.h" 1
 270 007c 913F0000 		stw 9,0(31) ; eieio
 270      7C0006AC 
 271              	 # 0 "" 2
 272              	.LVL18:
 273              		.loc 2 218 2 view .LVU72
 274              	#NO_APP
 275              	.LBE381:
 276              	.LBE382:
 277              	.LBE384:
 278              	.LBE412:
 279              		.loc 1 1465 3 is_stmt 1 view .LVU73
 280              	.LBB413:
 281              	.LBI413:
 282              		.loc 2 221 20 view .LVU74
 283              	.LBB414:
 284              		.loc 2 223 2 view .LVU75
 285              	.LBB415:
 286              	.LBI415:
 287              		.loc 2 209 19 view .LVU76
 288              	.LBB416:
 289              		.loc 2 211 2 view .LVU77
 290              		.loc 2 212 2 view .LVU78
 291              	#APP
 292              	 # 212 "C:/devkitPro/libogc/include/ogc/machine/processor.h" 1
 293 0084 813F0000 		lwz 9,0(31) ; sync
 293      7C0004AC 
 294              	 # 0 "" 2
 295              	.LVL19:
 296              		.loc 2 213 2 view .LVU79
 297              		.loc 2 213 2 is_stmt 0 view .LVU80
 298              	#NO_APP
 299              	.LBE416:
 300              	.LBE415:
 301              	.LBB417:
 302              	.LBI417:
 303              		.loc 2 216 20 is_stmt 1 view .LVU81
 304              	.LBB418:
 305              		.loc 2 218 2 view .LVU82
 306              	.LBE418:
 307              	.LBE417:
 308              		.loc 2 223 9 is_stmt 0 discriminator 1 view .LVU83
 309 008c 61290400 		ori 9,9,0x400
 310              	.LVL20:
 311              	.LBB420:
 312              	.LBB419:
 313              		.loc 2 218 2 view .LVU84
 314              	#APP
 315              	 # 218 "C:/devkitPro/libogc/include/ogc/machine/processor.h" 1
 316 0090 913F0000 		stw 9,0(31) ; eieio
 316      7C0006AC 
 317              	 # 0 "" 2
 318              	.LVL21:
 319              		.loc 2 218 2 view .LVU85
 320              	#NO_APP
 321              	.LBE419:
 322              	.LBE420:
 323              	.LBE414:
 324              	.LBE413:
 325              		.loc 1 1466 3 is_stmt 1 view .LVU86
 326              		.loc 1 1467 4 view .LVU87
 327              	.LBB421:
 328              	.LBI386:
 329              		.loc 2 221 20 view .LVU88
 330              	.LBB396:
 331              		.loc 2 223 2 view .LVU89
 332              	.LBB395:
 333              	.LBI388:
 334              		.loc 2 209 19 view .LVU90
 335              	.LBB390:
 336              		.loc 2 211 2 view .LVU91
 337              		.loc 2 212 2 view .LVU92
 338              	.LBE390:
 339              	.LBE395:
 340              	.LBE396:
 341              	.LBE421:
 342              		.loc 1 1469 4 view .LVU93
 343              	.LBB422:
 344              	.LBI422:
 345              		.loc 2 221 20 view .LVU94
 346              	.LBB423:
 347              		.loc 2 223 2 view .LVU95
 348              	.LBB424:
 349              	.LBI424:
 350              		.loc 2 209 19 view .LVU96
 351              	.LBB425:
 352              		.loc 2 211 2 view .LVU97
 353              		.loc 2 212 2 view .LVU98
 354              	.LBE425:
 355              	.LBE424:
 356              	.LBE423:
 357              	.LBE422:
 358              		.loc 1 1466 9 is_stmt 0 view .LVU99
 359 0098 7FA9F630 		sraw 9,29,30
 360              		.loc 1 1466 3 view .LVU100
 361 009c 71290001 		andi. 9,9,0x1
 362 00a0 40A2FF8C 		bne- 0,.L20
 363              	.LBB433:
 364              	.LBB432:
 365              	.LBB427:
 366              	.LBB426:
 367              		.loc 2 212 2 view .LVU101
 368              	#APP
 369              	 # 212 "C:/devkitPro/libogc/include/ogc/machine/processor.h" 1
 370 00a4 813F0000 		lwz 9,0(31) ; sync
 370      7C0004AC 
 371              	 # 0 "" 2
 372              	.LVL22:
 373              		.loc 2 213 2 is_stmt 1 view .LVU102
 374              		.loc 2 213 2 is_stmt 0 view .LVU103
 375              	#NO_APP
 376              	.LBE426:
 377              	.LBE427:
 378              	.LBB428:
 379              	.LBI428:
 380              		.loc 2 216 20 is_stmt 1 view .LVU104
 381              	.LBB429:
 382              		.loc 2 218 2 view .LVU105
 383              	.LBE429:
 384              	.LBE428:
 385              		.loc 2 223 29 is_stmt 0 discriminator 1 view .LVU106
 386 00ac 55290524 		rlwinm 9,9,0,20,18
 387              	.LVL23:
 388              	.LBB431:
 389              	.LBB430:
 390              		.loc 2 218 2 view .LVU107
 391              	#APP
 392              	 # 218 "C:/devkitPro/libogc/include/ogc/machine/processor.h" 1
 393 00b0 913F0000 		stw 9,0(31) ; eieio
 393      7C0006AC 
 394              	 # 0 "" 2
 395              	.LVL24:
 396              		.loc 2 218 2 view .LVU108
 397              	#NO_APP
 398              	.LBE430:
 399              	.LBE431:
 400              	.LBE432:
 401              	.LBE433:
 402              		.loc 1 1470 3 is_stmt 1 view .LVU109
 403 00b8 38600005 		li 3,5
 404 00bc 48000001 		bl usleep
 405              	.LVL25:
 406              		.loc 1 1471 3 view .LVU110
 407              	.LBB434:
 408              		.loc 2 221 20 view .LVU111
 409              	.LBB411:
 410              		.loc 2 223 2 view .LVU112
 411              	.LBB408:
 412              		.loc 2 209 19 view .LVU113
 413              	.LBB401:
 414              		.loc 2 211 2 view .LVU114
 415              		.loc 2 212 2 view .LVU115
 416              	#APP
 417              	 # 212 "C:/devkitPro/libogc/include/ogc/machine/processor.h" 1
 418 00c0 813F0000 		lwz 9,0(31) ; sync
 418      7C0004AC 
 419              	 # 0 "" 2
 420              	.LVL26:
 421              		.loc 2 213 2 view .LVU116
 422              		.loc 2 213 2 is_stmt 0 view .LVU117
 423              	#NO_APP
 424              	.LBE401:
 425              	.LBE408:
 426              	.LBB409:
 427              		.loc 2 216 20 is_stmt 1 view .LVU118
 428              	.LBB405:
 429              		.loc 2 218 2 view .LVU119
 430              	.LBE405:
 431              	.LBE409:
 432              		.loc 2 223 9 is_stmt 0 discriminator 1 view .LVU120
 433 00c8 61290800 		ori 9,9,0x800
 434              	.LVL27:
 435              	.LBB410:
 436              	.LBB406:
 437              		.loc 2 218 2 view .LVU121
 438              	#APP
 439              	 # 218 "C:/devkitPro/libogc/include/ogc/machine/processor.h" 1
 440 00cc 913F0000 		stw 9,0(31) ; eieio
 440      7C0006AC 
 441              	 # 0 "" 2
 442              	.LVL28:
 443              		.loc 2 218 2 view .LVU122
 444              	#NO_APP
 445              	.LBE406:
 446              	.LBE410:
 447              	.LBE411:
 448              	.LBE434:
 449              		.loc 1 1472 3 is_stmt 1 view .LVU123
 450 00d4 38600005 		li 3,5
 451              		.loc 1 1462 13 is_stmt 0 view .LVU124
 452 00d8 3BDEFFFF 		addi 30,30,-1
 453              	.LVL29:
 454              		.loc 1 1472 3 view .LVU125
 455 00dc 48000001 		bl usleep
 456              	.LVL30:
 457              		.loc 1 1462 13 is_stmt 1 view .LVU126
 458              		.loc 1 1462 13 is_stmt 0 view .LVU127
 459 00e0 2C1EFFFF 		cmpwi 0,30,-1
 460 00e4 4082FF8C 		bne+ 0,.L16
 461              	.LVL31:
 462              	.L19:
 463              		.loc 1 1474 1 view .LVU128
 464 00e8 8001001C 		lwz 0,28(1)
 465 00ec 83A1000C 		lwz 29,12(1)
 466              	.LVL32:
 467              		.loc 1 1474 1 view .LVU129
 468 00f0 83C10010 		lwz 30,16(1)
 469              	.LVL33:
 470              		.loc 1 1474 1 view .LVU130
 471 00f4 7C0803A6 		mtlr 0
 472              		.cfi_restore 65
 473 00f8 83E10014 		lwz 31,20(1)
 474 00fc 38210018 		addi 1,1,24
 475              		.cfi_restore 31
 476              		.cfi_restore 30
 477              		.cfi_restore 29
 478              		.cfi_def_cfa_offset 0
 479 0100 4E800020 		blr
 480              		.cfi_endproc
 481              	.LFE1445:
 482              		.size	_ZL17seeprom_send_bitsii.constprop.0, .-_ZL17seeprom_send_bitsii.constprop.0
 483              		.section	.text._ZL9check_rsaPKhS0_S0_j.constprop.0,"ax",@progbits
 484              		.align 2
 485              		.type	_ZL9check_rsaPKhS0_S0_j.constprop.0, @function
 486              	_ZL9check_rsaPKhS0_S0_j.constprop.0:
 487              	.LVL34:
 488              	.LFB1446:
 489              		.loc 1 1831 12 is_stmt 1 view -0
 490              		.cfi_startproc
 491              		.loc 1 1833 2 view .LVU132
 492              		.loc 1 1834 2 view .LVU133
 493              		.loc 1 1837 2 view .LVU134
 494              		.loc 1 1838 2 view .LVU135
 495              		.loc 1 1831 12 is_stmt 0 view .LVU136
 496 0000 9421F9B8 		stwu 1,-1608(1)
 497              		.cfi_def_cfa_offset 1608
 498 0004 7C0802A6 		mflr 0
 499              		.loc 1 1839 8 view .LVU137
 500 0008 38A001DA 		li 5,474
 501              		.loc 1 1831 12 view .LVU138
 502 000c 93410630 		stw 26,1584(1)
 503              		.cfi_register 65, 0
 504              		.cfi_offset 26, -24
 505 0010 7C9A2378 		mr 26,4
 506 0014 93A1063C 		stw 29,1596(1)
 507              		.loc 1 1839 8 view .LVU139
 508 0018 388000FF 		li 4,255
 509              	.LVL35:
 510              		.cfi_offset 29, -12
 511              		.loc 1 1831 12 view .LVU140
 512 001c 7C7D1B78 		mr 29,3
 513 0020 93E10644 		stw 31,1604(1)
 514              		.loc 1 1839 8 view .LVU141
 515 0024 3861040A 		addi 3,1,1034
 516              	.LVL36:
 517              		.cfi_offset 31, -4
 518              		.loc 1 1837 13 view .LVU142
 519 0028 3BE00001 		li 31,1
 520              		.loc 1 1831 12 view .LVU143
 521 002c 9001064C 		stw 0,1612(1)
 522 0030 92810618 		stw 20,1560(1)
 523              		.cfi_offset 65, 4
 524              		.cfi_offset 20, -48
 525 0034 3A810007 		addi 20,1,7
 526 0038 92A1061C 		stw 21,1564(1)
 527              		.cfi_offset 21, -44
 528 003c 3EA00000 		lis 21,root_dat-1@ha
 529 0040 92C10620 		stw 22,1568(1)
 530 0044 3AB50000 		la 21,root_dat-1@l(21)
 531 0048 92E10624 		stw 23,1572(1)
 532              		.cfi_offset 22, -40
 533              		.cfi_offset 23, -36
 534 004c 3AD50001 		addi 22,21,1
 535 0050 93010628 		stw 24,1576(1)
 536 0054 3AE10408 		addi 23,1,1032
 537 0058 93610634 		stw 27,1588(1)
 538              		.cfi_offset 24, -32
 539              		.cfi_offset 27, -20
 540 005c 3B010407 		addi 24,1,1031
 541 0060 93C10640 		stw 30,1600(1)
 542              		.cfi_offset 30, -8
 543              	.LBB493:
 544              	.LBB494:
 545              	.LBB495:
 546              	.LBB496:
 547              		.loc 1 76 8 view .LVU144
 548 0064 3BC10208 		addi 30,1,520
 549              	.LBE496:
 550              	.LBE495:
 551              	.LBE494:
 552              	.LBE493:
 553              		.loc 1 1837 13 view .LVU145
 554 0068 B3E10408 		sth 31,1032(1)
 555              		.loc 1 1839 2 is_stmt 1 view .LVU146
 556              	.LBB618:
 557              	.LBB611:
 558              		.loc 1 155 9 is_stmt 0 view .LVU147
 559 006c 3B600000 		li 27,0
 560              	.LBE611:
 561              	.LBE618:
 562              		.loc 1 1831 12 view .LVU148
 563 0070 92010608 		stw 16,1544(1)
 564 0074 9221060C 		stw 17,1548(1)
 565 0078 92410610 		stw 18,1552(1)
 566 007c 92610614 		stw 19,1556(1)
 567 0080 9321062C 		stw 25,1580(1)
 568 0084 93810638 		stw 28,1592(1)
 569              		.cfi_offset 16, -64
 570              		.cfi_offset 17, -60
 571              		.cfi_offset 18, -56
 572              		.cfi_offset 19, -52
 573              		.cfi_offset 25, -28
 574              		.cfi_offset 28, -16
 575              		.loc 1 1839 8 view .LVU149
 576 0088 48000001 		bl memset
 577              	.LVL37:
 578              		.loc 1 1840 2 is_stmt 1 view .LVU150
 579              		.loc 1 1840 8 is_stmt 0 view .LVU151
 580 008c 3D400000 		lis 10,.LANCHOR0@ha
 581              		.loc 1 1841 8 view .LVU152
 582 0090 80DD0000 		lwz 6,0(29)
 583              		.loc 1 1840 8 view .LVU153
 584 0094 392A0000 		la 9,.LANCHOR0@l(10)
 585 0098 808A0000 		lwz 4,.LANCHOR0@l(10)
 586 009c 81090004 		lwz 8,4(9)
 587              	.LBB619:
 588              	.LBB612:
 589              	.LBB501:
 590              	.LBB497:
 591              		.loc 1 76 8 view .LVU154
 592 00a0 7FC3F378 		mr 3,30
 593              	.LBE497:
 594              	.LBE501:
 595              	.LBE612:
 596              	.LBE619:
 597              		.loc 1 1840 8 view .LVU155
 598 00a4 81490008 		lwz 10,8(9)
 599              	.LBB620:
 600              	.LBB613:
 601              	.LBB502:
 602              	.LBB498:
 603              		.loc 1 76 8 view .LVU156
 604 00a8 38A00200 		li 5,512
 605              	.LBE498:
 606              	.LBE502:
 607              	.LBE613:
 608              	.LBE620:
 609              		.loc 1 1840 8 view .LVU157
 610 00ac 8129000C 		lwz 9,12(9)
 611              		.loc 1 1841 8 view .LVU158
 612 00b0 80FD0004 		lwz 7,4(29)
 613              		.loc 1 1840 8 view .LVU159
 614 00b4 910105E8 		stw 8,1512(1)
 615 00b8 914105EC 		stw 10,1516(1)
 616              		.loc 1 1841 8 view .LVU160
 617 00bc 811D0008 		lwz 8,8(29)
 618 00c0 815D000C 		lwz 10,12(29)
 619              		.loc 1 1840 8 view .LVU161
 620 00c4 912105F0 		stw 9,1520(1)
 621              		.loc 1 1841 2 is_stmt 1 view .LVU162
 622              		.loc 1 1841 8 is_stmt 0 view .LVU163
 623 00c8 813D0010 		lwz 9,16(29)
 624              		.loc 1 1840 8 view .LVU164
 625 00cc 908105E4 		stw 4,1508(1)
 626              	.LBB621:
 627              	.LBB614:
 628              	.LBB503:
 629              	.LBB499:
 630              		.loc 1 76 8 view .LVU165
 631 00d0 38800000 		li 4,0
 632              	.LBE499:
 633              	.LBE503:
 634              	.LBE614:
 635              	.LBE621:
 636              		.loc 1 1841 8 view .LVU166
 637 00d4 90C105F4 		stw 6,1524(1)
 638 00d8 90E105F8 		stw 7,1528(1)
 639 00dc 910105FC 		stw 8,1532(1)
 640 00e0 91410600 		stw 10,1536(1)
 641 00e4 91210604 		stw 9,1540(1)
 642              		.loc 1 1843 2 is_stmt 1 view .LVU167
 643              	.LVL38:
 644              	.LBB622:
 645              	.LBI493:
 646              		.loc 1 147 13 view .LVU168
 647              	.LBB615:
 648              		.loc 1 149 2 view .LVU169
 649              		.loc 1 150 2 view .LVU170
 650              		.loc 1 151 2 view .LVU171
 651              		.loc 1 153 2 view .LVU172
 652              	.LBB504:
 653              	.LBI495:
 654              		.loc 1 74 20 view .LVU173
 655              	.LBB500:
 656              		.loc 1 76 2 view .LVU174
 657              		.loc 1 76 8 is_stmt 0 view .LVU175
 658 00e8 48000001 		bl memset
 659              	.LVL39:
 660              		.loc 1 76 8 view .LVU176
 661              	.LBE500:
 662              	.LBE504:
 663              		.loc 1 154 2 is_stmt 1 view .LVU177
 664              		.loc 1 154 9 is_stmt 0 view .LVU178
 665 00ec 9BE10407 		stb 31,1031(1)
 666              		.loc 1 155 2 is_stmt 1 view .LVU179
 667              	.LVL40:
 668              		.loc 1 155 16 discriminator 1 view .LVU180
 669 00f0 3BF50201 		addi 31,21,513
 670              	.LVL41:
 671              	.L22:
 672              		.loc 1 156 26 discriminator 1 view .LVU181
 673              	.LBE615:
 674              	.LBE622:
 675              		.loc 1 1831 12 is_stmt 0 view .LVU182
 676 00f4 3B200008 		li 25,8
 677              	.LBB623:
 678              	.LBB616:
 679              		.loc 1 156 13 view .LVU183
 680 00f8 3B80FF80 		li 28,-128
 681              	.LVL42:
 682              	.L66:
 683              		.loc 1 157 4 is_stmt 1 view .LVU184
 684              	.LBB505:
 685              	.LBI505:
 686              		.loc 1 132 13 view .LVU185
 687              	.LBB506:
 688              		.loc 1 134 2 view .LVU186
 689              		.loc 1 135 2 view .LVU187
 690              		.loc 1 137 2 view .LVU188
 691              	.LBB507:
 692              	.LBI507:
 693              		.loc 1 74 20 view .LVU189
 694              	.LBB508:
 695              		.loc 1 76 2 view .LVU190
 696              		.loc 1 76 8 is_stmt 0 view .LVU191
 697 00fc 38A00200 		li 5,512
 698 0100 38800000 		li 4,0
 699 0104 38610008 		addi 3,1,8
 700              	.LVL43:
 701              		.loc 1 76 8 view .LVU192
 702 0108 48000001 		bl memset
 703              	.LVL44:
 704              		.loc 1 76 8 view .LVU193
 705              	.LBE508:
 706              	.LBE507:
 707              		.loc 1 139 2 is_stmt 1 view .LVU194
 708              		.loc 1 139 16 discriminator 1 view .LVU195
 709              	.LBB511:
 710              	.LBB509:
 711              		.loc 1 76 8 is_stmt 0 view .LVU196
 712 010c 38A10207 		addi 5,1,519
 713              	.LVL45:
 714              	.L23:
 715              		.loc 1 76 8 view .LVU197
 716              	.LBE509:
 717              	.LBE511:
 718              		.loc 1 140 26 is_stmt 1 discriminator 1 view .LVU198
 719              		.loc 1 142 12 is_stmt 0 view .LVU199
 720 0110 8C850001 		lbzu 4,1(5)
 721              	.LVL46:
 722              		.loc 1 142 12 view .LVU200
 723 0114 38C00008 		li 6,8
 724              		.loc 1 140 13 view .LVU201
 725 0118 3900FF80 		li 8,-128
 726              	.LVL47:
 727              	.L34:
 728              	.LBB512:
 729              	.LBB513:
 730              		.loc 1 119 20 is_stmt 1 discriminator 1 view .LVU202
 731              		.loc 1 118 4 is_stmt 0 view .LVU203
 732 011c 39200200 		li 9,512
 733 0120 7FC7F378 		mr 7,30
 734              	.LBE513:
 735              	.LBE512:
 736              	.LBE506:
 737              	.LBE505:
 738              		.loc 1 156 13 view .LVU204
 739 0124 7FCBF378 		mr 11,30
 740              	.LBB555:
 741              	.LBB551:
 742              	.LBB532:
 743              	.LBB530:
 744              		.loc 1 118 4 view .LVU205
 745 0128 38600000 		li 3,0
 746 012c 7D2903A6 		mtctr 9
 747              	.LVL48:
 748              	.L24:
 749              		.loc 1 120 3 is_stmt 1 view .LVU206
 750              		.loc 1 120 12 is_stmt 0 view .LVU207
 751 0130 894BFFFF 		lbz 10,-1(11)
 752              		.loc 1 120 23 view .LVU208
 753 0134 5463063E 		rlwinm 3,3,0,0xff
 754              		.loc 1 120 23 view .LVU209
 755 0138 7D695B78 		mr 9,11
 756              		.loc 1 120 12 view .LVU210
 757 013c 396BFFFF 		addi 11,11,-1
 758              	.LVL49:
 759              		.loc 1 120 14 view .LVU211
 760 0140 554A083C 		slwi 10,10,1
 761              		.loc 1 120 21 view .LVU212
 762 0144 7D4A1A14 		add 10,10,3
 763              	.LVL50:
 764              		.loc 1 121 3 is_stmt 1 view .LVU213
 765              		.loc 1 121 12 is_stmt 0 view .LVU214
 766 0148 206A00FF 		subfic 3,10,255
 767              	.LVL51:
 768              		.loc 1 122 8 view .LVU215
 769 014c 9949FFFF 		stb 10,-1(9)
 770              		.loc 1 121 12 view .LVU216
 771 0150 7C631910 		subfe 3,3,3
 772 0154 7C6300D0 		neg 3,3
 773              	.LVL52:
 774              		.loc 1 122 3 is_stmt 1 view .LVU217
 775              		.loc 1 119 2 discriminator 3 view .LVU218
 776              		.loc 1 119 20 discriminator 1 view .LVU219
 777 0158 4200FFD8 		bdnz .L24
 778              		.loc 1 125 2 view .LVU220
 779 015c 280A00FF 		cmplwi 0,10,255
 780 0160 4081004C 		ble- 0,.L28
 781              	.LBB514:
 782              	.LBB515:
 783              		.loc 1 104 4 is_stmt 0 view .LVU221
 784 0164 7C76F850 		subf 3,22,31
 785              	.LVL53:
 786              		.loc 1 104 4 view .LVU222
 787 0168 7FF2FB78 		mr 18,31
 788              	.LBE515:
 789              	.LBE514:
 790              		.loc 1 125 2 view .LVU223
 791 016c 7FD3F378 		mr 19,30
 792              	.LBB519:
 793              	.LBB516:
 794              		.loc 1 104 4 view .LVU224
 795 0170 39400000 		li 10,0
 796              	.LVL54:
 797              		.loc 1 104 4 view .LVU225
 798 0174 7C6903A6 		mtctr 3
 799              	.LVL55:
 800              	.L27:
 801              		.loc 1 106 3 is_stmt 1 view .LVU226
 802              		.loc 1 106 12 is_stmt 0 view .LVU227
 803 0178 8D72FFFF 		lbzu 11,-1(18)
 804              	.LVL56:
 805              		.loc 1 107 3 is_stmt 1 view .LVU228
 806              		.loc 1 106 16 is_stmt 0 view .LVU229
 807 017c 5540063E 		rlwinm 0,10,0,0xff
 808              		.loc 1 107 11 view .LVU230
 809 0180 8E33FFFF 		lbzu 17,-1(19)
 810              		.loc 1 106 12 view .LVU231
 811 0184 5563063E 		rlwinm 3,11,0,0xff
 812              		.loc 1 106 14 view .LVU232
 813 0188 7C630214 		add 3,3,0
 814              	.LVL57:
 815              		.loc 1 107 11 view .LVU233
 816 018c 5620063E 		rlwinm 0,17,0,0xff
 817              		.loc 1 108 8 view .LVU234
 818 0190 7D6B8850 		subf 11,11,17
 819              		.loc 1 107 13 view .LVU235
 820 0194 7C630010 		subfc 3,3,0
 821              	.LVL58:
 822              		.loc 1 108 8 view .LVU236
 823 0198 7D4A5850 		subf 10,10,11
 824              	.LVL59:
 825              		.loc 1 107 13 view .LVU237
 826 019c 7C631910 		subfe 3,3,3
 827              		.loc 1 108 8 view .LVU238
 828 01a0 99530000 		stb 10,0(19)
 829              		.loc 1 107 5 view .LVU239
 830 01a4 7D4300D0 		neg 10,3
 831              	.LVL60:
 832              		.loc 1 108 3 is_stmt 1 view .LVU240
 833              		.loc 1 105 2 discriminator 3 view .LVU241
 834              		.loc 1 105 20 discriminator 1 view .LVU242
 835 01a8 4200FFD0 		bdnz .L27
 836              	.LVL61:
 837              	.L28:
 838              		.loc 1 105 20 is_stmt 0 discriminator 1 view .LVU243
 839              	.LBE516:
 840              	.LBE519:
 841              		.loc 1 128 2 is_stmt 1 view .LVU244
 842              	.LBB520:
 843              	.LBI520:
 844              		.loc 1 84 19 view .LVU245
 845              	.LBB521:
 846              		.loc 1 86 2 view .LVU246
 847              		.loc 1 88 2 view .LVU247
 848              		.loc 1 88 16 discriminator 1 view .LVU248
 849 01ac 3A6901FE 		addi 19,9,510
 850 01b0 7E92A378 		mr 18,20
 851              	.LBE521:
 852              	.LBE520:
 853              	.LBB523:
 854              	.LBB517:
 855              		.loc 1 104 4 is_stmt 0 view .LVU249
 856 01b4 7D549850 		subf 10,20,19
 857 01b8 7EA3AB78 		mr 3,21
 858 01bc 7D4903A6 		mtctr 10
 859 01c0 7E8AA378 		mr 10,20
 860 01c4 4800000C 		b .L26
 861              	.LVL62:
 862              	.L112:
 863              		.loc 1 104 4 view .LVU250
 864              	.LBE517:
 865              	.LBE523:
 866              	.LBB524:
 867              	.LBB522:
 868              		.loc 1 91 3 view .LVU251
 869 01c8 4181044C 		bgt- 0,.L30
 870              		.loc 1 88 16 discriminator 1 view .LVU252
 871 01cc 42400448 		bdz .L30
 872              	.LVL63:
 873              	.L26:
 874              		.loc 1 89 3 is_stmt 1 view .LVU253
 875              		.loc 1 91 3 view .LVU254
 876              		.loc 1 88 2 discriminator 2 view .LVU255
 877              		.loc 1 89 3 is_stmt 0 view .LVU256
 878 01d0 8C0A0001 		lbzu 0,1(10)
 879              	.LVL64:
 880              		.loc 1 88 16 is_stmt 1 discriminator 1 view .LVU257
 881              		.loc 1 89 3 is_stmt 0 view .LVU258
 882 01d4 8D630001 		lbzu 11,1(3)
 883 01d8 7C005840 		cmplw 0,0,11
 884 01dc 4080FFEC 		bge+ 0,.L112
 885              	.LVL65:
 886              	.L29:
 887              		.loc 1 89 3 view .LVU259
 888              	.LBE522:
 889              	.LBE524:
 890              	.LBE530:
 891              	.LBE532:
 892              		.loc 1 142 4 is_stmt 1 view .LVU260
 893              		.loc 1 142 14 is_stmt 0 view .LVU261
 894 01e0 7C8A4038 		and 10,4,8
 895              		.loc 1 142 4 view .LVU262
 896 01e4 554A063E 		rlwinm 10,10,0,0xff
 897 01e8 2C0A0000 		cmpwi 0,10,0
 898 01ec 408201C8 		bne- 0,.L113
 899              	.LVL66:
 900              	.L32:
 901              		.loc 1 140 3 is_stmt 1 discriminator 2 view .LVU263
 902              		.loc 1 140 26 is_stmt 0 discriminator 1 view .LVU264
 903 01f0 34C6FFFF 		addic. 6,6,-1
 904              		.loc 1 140 37 discriminator 2 view .LVU265
 905 01f4 5508FE7E 		rlwinm 8,8,31,25,31
 906              	.LVL67:
 907              		.loc 1 140 26 is_stmt 1 discriminator 1 view .LVU266
 908 01f8 4082FF24 		bne+ 0,.L34
 909              		.loc 1 139 2 discriminator 2 view .LVU267
 910              	.LVL68:
 911              		.loc 1 139 16 discriminator 1 view .LVU268
 912 01fc 7C182840 		cmplw 0,24,5
 913 0200 4082FF10 		bne+ 0,.L23
 914              	.LVL69:
 915              		.loc 1 139 16 is_stmt 0 discriminator 1 view .LVU269
 916              	.LBE551:
 917              	.LBE555:
 918              		.loc 1 158 4 is_stmt 1 view .LVU270
 919              		.loc 1 158 14 is_stmt 0 view .LVU271
 920 0204 7D3FD8AE 		lbzx 9,31,27
 921              	.LBB556:
 922              	.LBB557:
 923              	.LBB558:
 924              	.LBB559:
 925              		.loc 1 76 8 view .LVU272
 926 0208 38A00200 		li 5,512
 927              	.LBE559:
 928              	.LBE558:
 929              	.LBE557:
 930              	.LBE556:
 931              		.loc 1 158 14 view .LVU273
 932 020c 7D29E038 		and 9,9,28
 933              		.loc 1 158 4 view .LVU274
 934 0210 5529063E 		rlwinm 9,9,0,0xff
 935 0214 2C090000 		cmpwi 0,9,0
 936 0218 41820448 		beq- 0,.L44
 937              		.loc 1 159 5 is_stmt 1 view .LVU275
 938              	.LVL70:
 939              	.LBB603:
 940              	.LBI556:
 941              		.loc 1 132 13 view .LVU276
 942              	.LBB600:
 943              		.loc 1 134 2 view .LVU277
 944              		.loc 1 135 2 view .LVU278
 945              		.loc 1 137 2 view .LVU279
 946              	.LBB561:
 947              	.LBI558:
 948              		.loc 1 74 20 view .LVU280
 949              	.LBB560:
 950              		.loc 1 76 2 view .LVU281
 951              		.loc 1 76 8 is_stmt 0 view .LVU282
 952 021c 38800000 		li 4,0
 953 0220 7FC3F378 		mr 3,30
 954 0224 48000001 		bl memset
 955              	.LVL71:
 956              		.loc 1 76 8 view .LVU283
 957              	.LBE560:
 958              	.LBE561:
 959              		.loc 1 139 2 is_stmt 1 view .LVU284
 960              		.loc 1 139 16 discriminator 1 view .LVU285
 961              	.L45:
 962              		.loc 1 140 26 discriminator 1 view .LVU286
 963              		.loc 1 142 12 is_stmt 0 view .LVU287
 964 0228 8CB20001 		lbzu 5,1(18)
 965              	.LVL72:
 966              		.loc 1 142 12 view .LVU288
 967 022c 38C00008 		li 6,8
 968              		.loc 1 140 13 view .LVU289
 969 0230 38E0FF80 		li 7,-128
 970              	.LVL73:
 971              	.L56:
 972              	.LBB562:
 973              	.LBB563:
 974              		.loc 1 119 20 is_stmt 1 discriminator 1 view .LVU290
 975              		.loc 1 118 4 is_stmt 0 view .LVU291
 976 0234 39200200 		li 9,512
 977 0238 7EE8BB78 		mr 8,23
 978              	.LBE563:
 979              	.LBE562:
 980              	.LBE600:
 981              	.LBE603:
 982              	.LBB604:
 983              	.LBB552:
 984              	.LBB533:
 985              	.LBB510:
 986              		.loc 1 76 8 view .LVU292
 987 023c 7EE3BB78 		mr 3,23
 988              	.LBE510:
 989              	.LBE533:
 990              	.LBE552:
 991              	.LBE604:
 992              	.LBB605:
 993              	.LBB601:
 994              	.LBB582:
 995              	.LBB580:
 996              		.loc 1 118 4 view .LVU293
 997 0240 38800000 		li 4,0
 998 0244 7D2903A6 		mtctr 9
 999              	.LVL74:
 1000              	.L46:
 1001              		.loc 1 120 3 is_stmt 1 view .LVU294
 1002              		.loc 1 120 12 is_stmt 0 view .LVU295
 1003 0248 8943FFFF 		lbz 10,-1(3)
 1004              		.loc 1 120 23 view .LVU296
 1005 024c 5484063E 		rlwinm 4,4,0,0xff
 1006              		.loc 1 120 23 view .LVU297
 1007 0250 7C691B78 		mr 9,3
 1008              		.loc 1 120 12 view .LVU298
 1009 0254 3863FFFF 		addi 3,3,-1
 1010              	.LVL75:
 1011              		.loc 1 120 14 view .LVU299
 1012 0258 554A083C 		slwi 10,10,1
 1013              		.loc 1 120 21 view .LVU300
 1014 025c 7D4A2214 		add 10,10,4
 1015              	.LVL76:
 1016              		.loc 1 121 3 is_stmt 1 view .LVU301
 1017              		.loc 1 121 12 is_stmt 0 view .LVU302
 1018 0260 208A00FF 		subfic 4,10,255
 1019              	.LVL77:
 1020              		.loc 1 122 8 view .LVU303
 1021 0264 9949FFFF 		stb 10,-1(9)
 1022              		.loc 1 121 12 view .LVU304
 1023 0268 7C842110 		subfe 4,4,4
 1024 026c 7C8400D0 		neg 4,4
 1025              	.LVL78:
 1026              		.loc 1 122 3 is_stmt 1 view .LVU305
 1027              		.loc 1 119 2 discriminator 3 view .LVU306
 1028              		.loc 1 119 20 discriminator 1 view .LVU307
 1029 0270 4200FFD8 		bdnz .L46
 1030              		.loc 1 125 2 view .LVU308
 1031 0274 280A00FF 		cmplwi 0,10,255
 1032 0278 4081004C 		ble- 0,.L50
 1033              	.LBB564:
 1034              	.LBB565:
 1035              		.loc 1 104 4 is_stmt 0 view .LVU309
 1036 027c 7C96F850 		subf 4,22,31
 1037              	.LVL79:
 1038              		.loc 1 104 4 view .LVU310
 1039 0280 7FF1FB78 		mr 17,31
 1040              	.LBE565:
 1041              	.LBE564:
 1042              		.loc 1 125 2 view .LVU311
 1043 0284 7EEBBB78 		mr 11,23
 1044              	.LBB569:
 1045              	.LBB566:
 1046              		.loc 1 104 4 view .LVU312
 1047 0288 39400000 		li 10,0
 1048              	.LVL80:
 1049              		.loc 1 104 4 view .LVU313
 1050 028c 7C8903A6 		mtctr 4
 1051              	.LVL81:
 1052              	.L49:
 1053              		.loc 1 106 3 is_stmt 1 view .LVU314
 1054              		.loc 1 106 12 is_stmt 0 view .LVU315
 1055 0290 8C71FFFF 		lbzu 3,-1(17)
 1056              	.LVL82:
 1057              		.loc 1 107 3 is_stmt 1 view .LVU316
 1058              		.loc 1 106 16 is_stmt 0 view .LVU317
 1059 0294 5540063E 		rlwinm 0,10,0,0xff
 1060              		.loc 1 107 11 view .LVU318
 1061 0298 8E0BFFFF 		lbzu 16,-1(11)
 1062              		.loc 1 106 12 view .LVU319
 1063 029c 5464063E 		rlwinm 4,3,0,0xff
 1064              		.loc 1 106 14 view .LVU320
 1065 02a0 7C840214 		add 4,4,0
 1066              	.LVL83:
 1067              		.loc 1 107 11 view .LVU321
 1068 02a4 5600063E 		rlwinm 0,16,0,0xff
 1069              		.loc 1 108 8 view .LVU322
 1070 02a8 7C638050 		subf 3,3,16
 1071              		.loc 1 107 13 view .LVU323
 1072 02ac 7C840010 		subfc 4,4,0
 1073              	.LVL84:
 1074              		.loc 1 108 8 view .LVU324
 1075 02b0 7D4A1850 		subf 10,10,3
 1076              	.LVL85:
 1077              		.loc 1 107 13 view .LVU325
 1078 02b4 7C842110 		subfe 4,4,4
 1079              		.loc 1 108 8 view .LVU326
 1080 02b8 994B0000 		stb 10,0(11)
 1081              		.loc 1 107 5 view .LVU327
 1082 02bc 7D4400D0 		neg 10,4
 1083              	.LVL86:
 1084              		.loc 1 108 3 is_stmt 1 view .LVU328
 1085              		.loc 1 105 2 discriminator 3 view .LVU329
 1086              		.loc 1 105 20 discriminator 1 view .LVU330
 1087 02c0 4200FFD0 		bdnz .L49
 1088              	.LVL87:
 1089              	.L50:
 1090              		.loc 1 105 20 is_stmt 0 discriminator 1 view .LVU331
 1091              	.LBE566:
 1092              	.LBE569:
 1093              		.loc 1 128 2 is_stmt 1 view .LVU332
 1094              	.LBB570:
 1095              	.LBI570:
 1096              		.loc 1 84 19 view .LVU333
 1097              	.LBB571:
 1098              		.loc 1 86 2 view .LVU334
 1099              		.loc 1 88 2 view .LVU335
 1100              		.loc 1 88 16 discriminator 1 view .LVU336
 1101              	.LBE571:
 1102              	.LBE570:
 1103              	.LBB573:
 1104              	.LBB567:
 1105              		.loc 1 104 4 is_stmt 0 view .LVU337
 1106 02c4 38600200 		li 3,512
 1107 02c8 7EA4AB78 		mr 4,21
 1108 02cc 39410207 		addi 10,1,519
 1109 02d0 7C6903A6 		mtctr 3
 1110 02d4 4800000C 		b .L48
 1111              	.LVL88:
 1112              	.L114:
 1113              		.loc 1 104 4 view .LVU338
 1114              	.LBE567:
 1115              	.LBE573:
 1116              	.LBB574:
 1117              	.LBB572:
 1118              		.loc 1 91 3 view .LVU339
 1119 02d8 418101E0 		bgt- 0,.L52
 1120              		.loc 1 88 16 discriminator 1 view .LVU340
 1121 02dc 424001DC 		bdz .L52
 1122              	.LVL89:
 1123              	.L48:
 1124              		.loc 1 89 3 is_stmt 1 view .LVU341
 1125              		.loc 1 91 3 view .LVU342
 1126              		.loc 1 88 2 discriminator 2 view .LVU343
 1127              		.loc 1 89 3 is_stmt 0 view .LVU344
 1128 02e0 8D6A0001 		lbzu 11,1(10)
 1129              	.LVL90:
 1130              		.loc 1 88 16 is_stmt 1 discriminator 1 view .LVU345
 1131              		.loc 1 89 3 is_stmt 0 view .LVU346
 1132 02e4 8C640001 		lbzu 3,1(4)
 1133 02e8 7C0B1840 		cmplw 0,11,3
 1134 02ec 4080FFEC 		bge+ 0,.L114
 1135              	.LVL91:
 1136              		.loc 1 89 3 view .LVU347
 1137              	.LBE572:
 1138              	.LBE574:
 1139              	.LBE580:
 1140              	.LBE582:
 1141              		.loc 1 142 4 is_stmt 1 view .LVU348
 1142              		.loc 1 142 14 is_stmt 0 view .LVU349
 1143 02f0 7CAA3838 		and 10,5,7
 1144              		.loc 1 142 4 view .LVU350
 1145 02f4 554A063E 		rlwinm 10,10,0,0xff
 1146 02f8 2C0A0000 		cmpwi 0,10,0
 1147 02fc 40820214 		bne- 0,.L115
 1148              	.L54:
 1149              		.loc 1 140 3 is_stmt 1 discriminator 2 view .LVU351
 1150              		.loc 1 140 26 is_stmt 0 discriminator 1 view .LVU352
 1151 0300 34C6FFFF 		addic. 6,6,-1
 1152              		.loc 1 140 37 discriminator 2 view .LVU353
 1153 0304 54E7FE7E 		rlwinm 7,7,31,25,31
 1154              	.LVL92:
 1155              		.loc 1 140 26 is_stmt 1 discriminator 1 view .LVU354
 1156 0308 4082FF2C 		bne+ 0,.L56
 1157              		.loc 1 139 2 discriminator 2 view .LVU355
 1158              	.LVL93:
 1159              		.loc 1 139 16 discriminator 1 view .LVU356
 1160 030c 7C139040 		cmplw 0,19,18
 1161 0310 4082FF18 		bne+ 0,.L45
 1162              	.LVL94:
 1163              		.loc 1 139 16 is_stmt 0 discriminator 1 view .LVU357
 1164              	.LBE601:
 1165              	.LBE605:
 1166              		.loc 1 156 3 is_stmt 1 discriminator 2 view .LVU358
 1167              		.loc 1 156 26 is_stmt 0 discriminator 1 view .LVU359
 1168 0314 3739FFFF 		addic. 25,25,-1
 1169              		.loc 1 156 37 discriminator 2 view .LVU360
 1170 0318 579CFE7E 		rlwinm 28,28,31,25,31
 1171              	.LVL95:
 1172              		.loc 1 156 26 is_stmt 1 discriminator 1 view .LVU361
 1173 031c 4082FDE0 		bne+ 0,.L66
 1174              	.LVL96:
 1175              	.L118:
 1176              		.loc 1 155 2 discriminator 2 view .LVU362
 1177 0320 3B7B0001 		addi 27,27,1
 1178              	.LVL97:
 1179              		.loc 1 155 16 discriminator 1 view .LVU363
 1180 0324 281B0004 		cmplwi 0,27,4
 1181 0328 4082FDCC 		bne+ 0,.L22
 1182              	.LVL98:
 1183              		.loc 1 155 16 is_stmt 0 discriminator 1 view .LVU364
 1184              	.LBE616:
 1185              	.LBE623:
 1186              		.loc 1 1845 2 is_stmt 1 view .LVU365
 1187              		.loc 1 1845 12 is_stmt 0 view .LVU366
 1188 032c 7FC4F378 		mr 4,30
 1189 0330 7EE3BB78 		mr 3,23
 1190 0334 38A00200 		li 5,512
 1191 0338 48000001 		bl memcmp
 1192              	.LVL99:
 1193              		.loc 1 1845 2 discriminator 1 view .LVU367
 1194 033c 2C030000 		cmpwi 0,3,0
 1195 0340 41820024 		beq- 0,.L21
 1196              		.loc 1 1849 2 is_stmt 1 view .LVU368
 1197              		.loc 1 1849 13 is_stmt 0 view .LVU369
 1198 0344 7FA3EB78 		mr 3,29
 1199 0348 38A00014 		li 5,20
 1200 034c 388103F4 		addi 4,1,1012
 1201 0350 48000001 		bl strncmp
 1202              	.LVL100:
 1203              		.loc 1 1849 2 discriminator 1 view .LVU370
 1204 0354 2C030000 		cmpwi 0,3,0
 1205              		.loc 1 1850 11 view .LVU371
 1206 0358 3860FF9C 		li 3,-100
 1207              		.loc 1 1849 2 discriminator 1 view .LVU372
 1208 035c 41820008 		beq- 0,.L21
 1209              		.loc 1 1852 10 view .LVU373
 1210 0360 3860FFFB 		li 3,-5
 1211              	.L21:
 1212              		.loc 1 1853 1 view .LVU374
 1213 0364 8001064C 		lwz 0,1612(1)
 1214 0368 82010608 		lwz 16,1544(1)
 1215 036c 8221060C 		lwz 17,1548(1)
 1216 0370 7C0803A6 		mtlr 0
 1217              		.cfi_remember_state
 1218              		.cfi_restore 65
 1219 0374 82410610 		lwz 18,1552(1)
 1220 0378 82610614 		lwz 19,1556(1)
 1221 037c 82810618 		lwz 20,1560(1)
 1222 0380 82A1061C 		lwz 21,1564(1)
 1223 0384 82C10620 		lwz 22,1568(1)
 1224 0388 82E10624 		lwz 23,1572(1)
 1225 038c 83010628 		lwz 24,1576(1)
 1226 0390 8321062C 		lwz 25,1580(1)
 1227 0394 83410630 		lwz 26,1584(1)
 1228              	.LVL101:
 1229              		.loc 1 1853 1 view .LVU375
 1230 0398 83610634 		lwz 27,1588(1)
 1231 039c 83810638 		lwz 28,1592(1)
 1232 03a0 83A1063C 		lwz 29,1596(1)
 1233              	.LVL102:
 1234              		.loc 1 1853 1 view .LVU376
 1235 03a4 83C10640 		lwz 30,1600(1)
 1236 03a8 83E10644 		lwz 31,1604(1)
 1237 03ac 38210648 		addi 1,1,1608
 1238              		.cfi_restore 31
 1239              		.cfi_restore 30
 1240              		.cfi_restore 29
 1241              		.cfi_restore 28
 1242              		.cfi_restore 27
 1243              		.cfi_restore 26
 1244              		.cfi_restore 25
 1245              		.cfi_restore 24
 1246              		.cfi_restore 23
 1247              		.cfi_restore 22
 1248              		.cfi_restore 21
 1249              		.cfi_restore 20
 1250              		.cfi_restore 19
 1251              		.cfi_restore 18
 1252              		.cfi_restore 17
 1253              		.cfi_restore 16
 1254              		.cfi_def_cfa_offset 0
 1255 03b0 4E800020 		blr
 1256              	.LVL103:
 1257              	.L113:
 1258              		.cfi_restore_state
 1259              	.LBB624:
 1260              	.LBB617:
 1261              	.LBB606:
 1262              	.LBB553:
 1263              	.LBB534:
 1264              	.LBB535:
 1265              		.loc 1 118 4 view .LVU377
 1266 03b4 7D29F050 		subf 9,9,30
 1267 03b8 7EEBBB78 		mr 11,23
 1268 03bc 39290001 		addi 9,9,1
 1269              	.LBE535:
 1270              	.LBE534:
 1271              		.loc 1 142 4 view .LVU378
 1272 03c0 7FC3F378 		mr 3,30
 1273              	.LBB549:
 1274              	.LBB548:
 1275              		.loc 1 118 4 view .LVU379
 1276 03c4 7D2903A6 		mtctr 9
 1277 03c8 39400000 		li 10,0
 1278              	.L36:
 1279              	.LVL104:
 1280              		.loc 1 120 3 is_stmt 1 view .LVU380
 1281              		.loc 1 120 12 is_stmt 0 view .LVU381
 1282 03cc 8D23FFFF 		lbzu 9,-1(3)
 1283              	.LVL105:
 1284              		.loc 1 120 23 view .LVU382
 1285 03d0 554A063E 		rlwinm 10,10,0,0xff
 1286              		.loc 1 120 19 view .LVU383
 1287 03d4 8C0BFFFF 		lbzu 0,-1(11)
 1288              		.loc 1 120 14 view .LVU384
 1289 03d8 7D290214 		add 9,9,0
 1290              		.loc 1 120 21 view .LVU385
 1291 03dc 7D295214 		add 9,9,10
 1292              	.LVL106:
 1293              		.loc 1 121 3 is_stmt 1 view .LVU386
 1294              		.loc 1 121 12 is_stmt 0 view .LVU387
 1295 03e0 214900FF 		subfic 10,9,255
 1296              	.LVL107:
 1297              		.loc 1 122 8 view .LVU388
 1298 03e4 99230000 		stb 9,0(3)
 1299              		.loc 1 121 12 view .LVU389
 1300 03e8 7D4A5110 		subfe 10,10,10
 1301 03ec 7D4A00D0 		neg 10,10
 1302              	.LVL108:
 1303              		.loc 1 122 3 is_stmt 1 view .LVU390
 1304              		.loc 1 119 2 discriminator 3 view .LVU391
 1305              		.loc 1 119 20 discriminator 1 view .LVU392
 1306 03f0 4200FFDC 		bdnz .L36
 1307              		.loc 1 125 2 view .LVU393
 1308 03f4 280900FF 		cmplwi 0,9,255
 1309 03f8 4081004C 		ble- 0,.L40
 1310              	.LBB536:
 1311              	.LBB537:
 1312              		.loc 1 104 4 is_stmt 0 view .LVU394
 1313 03fc 7D56F850 		subf 10,22,31
 1314              	.LVL109:
 1315              		.loc 1 104 4 view .LVU395
 1316 0400 7FF1FB78 		mr 17,31
 1317              	.LBE537:
 1318              	.LBE536:
 1319              		.loc 1 125 2 view .LVU396
 1320 0404 7FCBF378 		mr 11,30
 1321              	.LBB540:
 1322              	.LBB538:
 1323              		.loc 1 104 4 view .LVU397
 1324 0408 39200000 		li 9,0
 1325              	.LVL110:
 1326              		.loc 1 104 4 view .LVU398
 1327 040c 7D4903A6 		mtctr 10
 1328              	.LVL111:
 1329              	.L39:
 1330              		.loc 1 106 3 is_stmt 1 view .LVU399
 1331              		.loc 1 106 12 is_stmt 0 view .LVU400
 1332 0410 8C71FFFF 		lbzu 3,-1(17)
 1333              	.LVL112:
 1334              		.loc 1 107 3 is_stmt 1 view .LVU401
 1335              		.loc 1 106 16 is_stmt 0 view .LVU402
 1336 0414 5520063E 		rlwinm 0,9,0,0xff
 1337              		.loc 1 107 11 view .LVU403
 1338 0418 8D8BFFFF 		lbzu 12,-1(11)
 1339              		.loc 1 106 12 view .LVU404
 1340 041c 546A063E 		rlwinm 10,3,0,0xff
 1341              		.loc 1 106 14 view .LVU405
 1342 0420 7D4A0214 		add 10,10,0
 1343              	.LVL113:
 1344              		.loc 1 107 11 view .LVU406
 1345 0424 5580063E 		rlwinm 0,12,0,0xff
 1346              		.loc 1 108 8 view .LVU407
 1347 0428 7C636050 		subf 3,3,12
 1348              		.loc 1 107 13 view .LVU408
 1349 042c 7D4A0010 		subfc 10,10,0
 1350              	.LVL114:
 1351              		.loc 1 108 8 view .LVU409
 1352 0430 7D291850 		subf 9,9,3
 1353              	.LVL115:
 1354              		.loc 1 107 13 view .LVU410
 1355 0434 7D4A5110 		subfe 10,10,10
 1356              		.loc 1 108 8 view .LVU411
 1357 0438 992B0000 		stb 9,0(11)
 1358              		.loc 1 107 5 view .LVU412
 1359 043c 7D2A00D0 		neg 9,10
 1360              	.LVL116:
 1361              		.loc 1 108 3 is_stmt 1 view .LVU413
 1362              		.loc 1 105 2 discriminator 3 view .LVU414
 1363              		.loc 1 105 20 discriminator 1 view .LVU415
 1364 0440 4200FFD0 		bdnz .L39
 1365              	.LVL117:
 1366              	.L40:
 1367              		.loc 1 105 20 is_stmt 0 discriminator 1 view .LVU416
 1368              	.LBE538:
 1369              	.LBE540:
 1370              		.loc 1 128 2 is_stmt 1 view .LVU417
 1371              	.LBB541:
 1372              	.LBI541:
 1373              		.loc 1 84 19 view .LVU418
 1374              	.LBB542:
 1375              		.loc 1 86 2 view .LVU419
 1376              		.loc 1 88 2 view .LVU420
 1377              		.loc 1 88 16 discriminator 1 view .LVU421
 1378              	.LBE542:
 1379              	.LBE541:
 1380              	.LBB544:
 1381              	.LBB539:
 1382              		.loc 1 104 4 is_stmt 0 view .LVU422
 1383 0444 7C749850 		subf 3,20,19
 1384 0448 7EAAAB78 		mr 10,21
 1385 044c 7E89A378 		mr 9,20
 1386 0450 7C6903A6 		mtctr 3
 1387 0454 48000008 		b .L38
 1388              	.LVL118:
 1389              	.L116:
 1390              		.loc 1 104 4 view .LVU423
 1391              	.LBE539:
 1392              	.LBE544:
 1393              	.LBB545:
 1394              	.LBB543:
 1395              		.loc 1 88 16 discriminator 1 view .LVU424
 1396 0458 42400018 		bdz .L41
 1397              	.LVL119:
 1398              	.L38:
 1399              		.loc 1 89 3 is_stmt 1 view .LVU425
 1400              		.loc 1 91 3 view .LVU426
 1401              		.loc 1 88 2 discriminator 2 view .LVU427
 1402              		.loc 1 89 3 is_stmt 0 view .LVU428
 1403 045c 8D690001 		lbzu 11,1(9)
 1404              	.LVL120:
 1405              		.loc 1 88 16 is_stmt 1 discriminator 1 view .LVU429
 1406              		.loc 1 89 3 is_stmt 0 view .LVU430
 1407 0460 8C6A0001 		lbzu 3,1(10)
 1408 0464 7C0B1840 		cmplw 0,11,3
 1409 0468 41A0FD88 		blt- 0,.L32
 1410              		.loc 1 91 3 view .LVU431
 1411 046c 4081FFEC 		ble+ 0,.L116
 1412              	.L41:
 1413              	.LVL121:
 1414              		.loc 1 91 3 view .LVU432
 1415              	.LBE543:
 1416              	.LBE545:
 1417              	.LBB546:
 1418              	.LBB547:
 1419              		.loc 1 104 4 view .LVU433
 1420 0470 7D56F850 		subf 10,22,31
 1421 0474 7FF1FB78 		mr 17,31
 1422 0478 39200000 		li 9,0
 1423 047c 7D4903A6 		mtctr 10
 1424              	.LVL122:
 1425              	.L42:
 1426              		.loc 1 106 3 is_stmt 1 view .LVU434
 1427              		.loc 1 106 12 is_stmt 0 view .LVU435
 1428 0480 8C71FFFF 		lbzu 3,-1(17)
 1429              	.LVL123:
 1430              		.loc 1 107 3 is_stmt 1 view .LVU436
 1431              		.loc 1 106 16 is_stmt 0 view .LVU437
 1432 0484 552B063E 		rlwinm 11,9,0,0xff
 1433              		.loc 1 107 11 view .LVU438
 1434 0488 8C07FFFF 		lbzu 0,-1(7)
 1435              		.loc 1 106 12 view .LVU439
 1436 048c 546A063E 		rlwinm 10,3,0,0xff
 1437              		.loc 1 106 14 view .LVU440
 1438 0490 7D4A5A14 		add 10,10,11
 1439              	.LVL124:
 1440              		.loc 1 107 11 view .LVU441
 1441 0494 540B063E 		rlwinm 11,0,0,0xff
 1442              		.loc 1 108 8 view .LVU442
 1443 0498 7C630050 		subf 3,3,0
 1444              		.loc 1 107 13 view .LVU443
 1445 049c 7D4A5810 		subfc 10,10,11
 1446              	.LVL125:
 1447              		.loc 1 108 8 view .LVU444
 1448 04a0 7D291850 		subf 9,9,3
 1449              	.LVL126:
 1450              		.loc 1 107 13 view .LVU445
 1451 04a4 7D4A5110 		subfe 10,10,10
 1452              		.loc 1 108 8 view .LVU446
 1453 04a8 99270000 		stb 9,0(7)
 1454              		.loc 1 107 5 view .LVU447
 1455 04ac 7D2A00D0 		neg 9,10
 1456              	.LVL127:
 1457              		.loc 1 108 3 is_stmt 1 view .LVU448
 1458              		.loc 1 105 2 discriminator 3 view .LVU449
 1459              		.loc 1 105 20 discriminator 1 view .LVU450
 1460 04b0 4200FFD0 		bdnz .L42
 1461 04b4 4BFFFD3C 		b .L32
 1462              	.LVL128:
 1463              	.L52:
 1464              		.loc 1 105 20 is_stmt 0 discriminator 1 view .LVU451
 1465              	.LBE547:
 1466              	.LBE546:
 1467              	.LBE548:
 1468              	.LBE549:
 1469              	.LBE553:
 1470              	.LBE606:
 1471              	.LBB607:
 1472              	.LBB602:
 1473              	.LBB583:
 1474              	.LBB581:
 1475              	.LBB575:
 1476              	.LBB576:
 1477              		.loc 1 104 4 view .LVU452
 1478 04b8 7C96F850 		subf 4,22,31
 1479 04bc 7FF1FB78 		mr 17,31
 1480              	.LBE576:
 1481              	.LBE575:
 1482              	.LBB578:
 1483              	.LBB568:
 1484 04c0 7EE3BB78 		mr 3,23
 1485              	.LBE568:
 1486              	.LBE578:
 1487              	.LBB579:
 1488              	.LBB577:
 1489 04c4 39400000 		li 10,0
 1490 04c8 7C8903A6 		mtctr 4
 1491              	.L55:
 1492              	.LVL129:
 1493              		.loc 1 106 3 is_stmt 1 view .LVU453
 1494              		.loc 1 106 12 is_stmt 0 view .LVU454
 1495 04cc 8D71FFFF 		lbzu 11,-1(17)
 1496              	.LVL130:
 1497              		.loc 1 107 3 is_stmt 1 view .LVU455
 1498              		.loc 1 106 16 is_stmt 0 view .LVU456
 1499 04d0 5540063E 		rlwinm 0,10,0,0xff
 1500              		.loc 1 107 11 view .LVU457
 1501 04d4 8E03FFFF 		lbzu 16,-1(3)
 1502              		.loc 1 106 12 view .LVU458
 1503 04d8 5564063E 		rlwinm 4,11,0,0xff
 1504              		.loc 1 106 14 view .LVU459
 1505 04dc 7C840214 		add 4,4,0
 1506              	.LVL131:
 1507              		.loc 1 107 11 view .LVU460
 1508 04e0 5600063E 		rlwinm 0,16,0,0xff
 1509              		.loc 1 108 8 view .LVU461
 1510 04e4 7D6B8050 		subf 11,11,16
 1511              		.loc 1 107 13 view .LVU462
 1512 04e8 7C840010 		subfc 4,4,0
 1513              	.LVL132:
 1514              		.loc 1 108 8 view .LVU463
 1515 04ec 7D4A5850 		subf 10,10,11
 1516              	.LVL133:
 1517              		.loc 1 107 13 view .LVU464
 1518 04f0 7C842110 		subfe 4,4,4
 1519              		.loc 1 108 8 view .LVU465
 1520 04f4 99430000 		stb 10,0(3)
 1521              		.loc 1 107 5 view .LVU466
 1522 04f8 7D4400D0 		neg 10,4
 1523              	.LVL134:
 1524              		.loc 1 108 3 is_stmt 1 view .LVU467
 1525              		.loc 1 105 2 discriminator 3 view .LVU468
 1526              		.loc 1 105 20 discriminator 1 view .LVU469
 1527 04fc 4200FFD0 		bdnz .L55
 1528              	.LVL135:
 1529              		.loc 1 105 20 is_stmt 0 discriminator 1 view .LVU470
 1530              	.LBE577:
 1531              	.LBE579:
 1532              	.LBE581:
 1533              	.LBE583:
 1534              		.loc 1 142 4 is_stmt 1 view .LVU471
 1535              		.loc 1 142 14 is_stmt 0 view .LVU472
 1536 0500 7CAA3838 		and 10,5,7
 1537              		.loc 1 142 4 view .LVU473
 1538 0504 554A063E 		rlwinm 10,10,0,0xff
 1539 0508 2C0A0000 		cmpwi 0,10,0
 1540 050c 4182FDF4 		beq+ 0,.L54
 1541              	.L115:
 1542              	.LBB584:
 1543              	.LBB585:
 1544              		.loc 1 118 4 view .LVU474
 1545 0510 7D29B850 		subf 9,9,23
 1546 0514 387A0200 		addi 3,26,512
 1547 0518 39290001 		addi 9,9,1
 1548              	.LBE585:
 1549              	.LBE584:
 1550              		.loc 1 142 4 view .LVU475
 1551 051c 7EE4BB78 		mr 4,23
 1552              	.LBB599:
 1553              	.LBB598:
 1554              		.loc 1 118 4 view .LVU476
 1555 0520 7D2903A6 		mtctr 9
 1556 0524 39400000 		li 10,0
 1557              	.L58:
 1558              	.LVL136:
 1559              		.loc 1 120 3 is_stmt 1 view .LVU477
 1560              		.loc 1 120 12 is_stmt 0 view .LVU478
 1561 0528 8D24FFFF 		lbzu 9,-1(4)
 1562              	.LVL137:
 1563              		.loc 1 120 23 view .LVU479
 1564 052c 554A063E 		rlwinm 10,10,0,0xff
 1565              		.loc 1 120 19 view .LVU480
 1566 0530 8D63FFFF 		lbzu 11,-1(3)
 1567              		.loc 1 120 14 view .LVU481
 1568 0534 7D295A14 		add 9,9,11
 1569              		.loc 1 120 21 view .LVU482
 1570 0538 7D295214 		add 9,9,10
 1571              	.LVL138:
 1572              		.loc 1 121 3 is_stmt 1 view .LVU483
 1573              		.loc 1 121 12 is_stmt 0 view .LVU484
 1574 053c 214900FF 		subfic 10,9,255
 1575              	.LVL139:
 1576              		.loc 1 122 8 view .LVU485
 1577 0540 99240000 		stb 9,0(4)
 1578              		.loc 1 121 12 view .LVU486
 1579 0544 7D4A5110 		subfe 10,10,10
 1580 0548 7D4A00D0 		neg 10,10
 1581              	.LVL140:
 1582              		.loc 1 122 3 is_stmt 1 view .LVU487
 1583              		.loc 1 119 2 discriminator 3 view .LVU488
 1584              		.loc 1 119 20 discriminator 1 view .LVU489
 1585 054c 4200FFDC 		bdnz .L58
 1586              		.loc 1 125 2 view .LVU490
 1587 0550 280900FF 		cmplwi 0,9,255
 1588 0554 4081004C 		ble- 0,.L62
 1589              	.LBB586:
 1590              	.LBB587:
 1591              		.loc 1 104 4 is_stmt 0 view .LVU491
 1592 0558 7D56F850 		subf 10,22,31
 1593              	.LVL141:
 1594              		.loc 1 104 4 view .LVU492
 1595 055c 7FEBFB78 		mr 11,31
 1596              	.LBE587:
 1597              	.LBE586:
 1598              		.loc 1 125 2 view .LVU493
 1599 0560 7EE3BB78 		mr 3,23
 1600              	.LBB590:
 1601              	.LBB588:
 1602              		.loc 1 104 4 view .LVU494
 1603 0564 39200000 		li 9,0
 1604              	.LVL142:
 1605              		.loc 1 104 4 view .LVU495
 1606 0568 7D4903A6 		mtctr 10
 1607              	.LVL143:
 1608              	.L61:
 1609              		.loc 1 106 3 is_stmt 1 view .LVU496
 1610              		.loc 1 106 12 is_stmt 0 view .LVU497
 1611 056c 8C8BFFFF 		lbzu 4,-1(11)
 1612              	.LVL144:
 1613              		.loc 1 107 3 is_stmt 1 view .LVU498
 1614              		.loc 1 106 16 is_stmt 0 view .LVU499
 1615 0570 5520063E 		rlwinm 0,9,0,0xff
 1616              		.loc 1 107 11 view .LVU500
 1617 0574 8E23FFFF 		lbzu 17,-1(3)
 1618              		.loc 1 106 12 view .LVU501
 1619 0578 548A063E 		rlwinm 10,4,0,0xff
 1620              		.loc 1 106 14 view .LVU502
 1621 057c 7D4A0214 		add 10,10,0
 1622              	.LVL145:
 1623              		.loc 1 107 11 view .LVU503
 1624 0580 5620063E 		rlwinm 0,17,0,0xff
 1625              		.loc 1 108 8 view .LVU504
 1626 0584 7C848850 		subf 4,4,17
 1627              		.loc 1 107 13 view .LVU505
 1628 0588 7D4A0010 		subfc 10,10,0
 1629              	.LVL146:
 1630              		.loc 1 108 8 view .LVU506
 1631 058c 7D292050 		subf 9,9,4
 1632              	.LVL147:
 1633              		.loc 1 107 13 view .LVU507
 1634 0590 7D4A5110 		subfe 10,10,10
 1635              		.loc 1 108 8 view .LVU508
 1636 0594 99230000 		stb 9,0(3)
 1637              		.loc 1 107 5 view .LVU509
 1638 0598 7D2A00D0 		neg 9,10
 1639              	.LVL148:
 1640              		.loc 1 108 3 is_stmt 1 view .LVU510
 1641              		.loc 1 105 2 discriminator 3 view .LVU511
 1642              		.loc 1 105 20 discriminator 1 view .LVU512
 1643 059c 4200FFD0 		bdnz .L61
 1644              	.LVL149:
 1645              	.L62:
 1646              		.loc 1 105 20 is_stmt 0 discriminator 1 view .LVU513
 1647              	.LBE588:
 1648              	.LBE590:
 1649              		.loc 1 128 2 is_stmt 1 view .LVU514
 1650              	.LBB591:
 1651              	.LBI591:
 1652              		.loc 1 84 19 view .LVU515
 1653              	.LBB592:
 1654              		.loc 1 86 2 view .LVU516
 1655              		.loc 1 88 2 view .LVU517
 1656              		.loc 1 88 16 discriminator 1 view .LVU518
 1657              	.LBE592:
 1658              	.LBE591:
 1659              	.LBB594:
 1660              	.LBB589:
 1661              		.loc 1 104 4 is_stmt 0 view .LVU519
 1662 05a0 38800200 		li 4,512
 1663 05a4 7EAAAB78 		mr 10,21
 1664 05a8 39210207 		addi 9,1,519
 1665 05ac 7C8903A6 		mtctr 4
 1666 05b0 48000008 		b .L60
 1667              	.LVL150:
 1668              	.L117:
 1669              		.loc 1 104 4 view .LVU520
 1670              	.LBE589:
 1671              	.LBE594:
 1672              	.LBB595:
 1673              	.LBB593:
 1674              		.loc 1 88 16 discriminator 1 view .LVU521
 1675 05b4 42400018 		bdz .L63
 1676              	.LVL151:
 1677              	.L60:
 1678              		.loc 1 89 3 is_stmt 1 view .LVU522
 1679              		.loc 1 91 3 view .LVU523
 1680              		.loc 1 88 2 discriminator 2 view .LVU524
 1681              		.loc 1 89 3 is_stmt 0 view .LVU525
 1682 05b8 8C690001 		lbzu 3,1(9)
 1683              	.LVL152:
 1684              		.loc 1 88 16 is_stmt 1 discriminator 1 view .LVU526
 1685              		.loc 1 89 3 is_stmt 0 view .LVU527
 1686 05bc 8C8A0001 		lbzu 4,1(10)
 1687 05c0 7C032040 		cmplw 0,3,4
 1688 05c4 41A0FD3C 		blt- 0,.L54
 1689              		.loc 1 91 3 view .LVU528
 1690 05c8 4081FFEC 		ble+ 0,.L117
 1691              	.L63:
 1692              	.LVL153:
 1693              		.loc 1 91 3 view .LVU529
 1694              	.LBE593:
 1695              	.LBE595:
 1696              	.LBB596:
 1697              	.LBB597:
 1698              		.loc 1 104 4 view .LVU530
 1699 05cc 7D56F850 		subf 10,22,31
 1700 05d0 7FF1FB78 		mr 17,31
 1701 05d4 39200000 		li 9,0
 1702 05d8 7D4903A6 		mtctr 10
 1703              	.L64:
 1704              	.LVL154:
 1705              		.loc 1 106 3 is_stmt 1 view .LVU531
 1706              		.loc 1 106 12 is_stmt 0 view .LVU532
 1707 05dc 8C91FFFF 		lbzu 4,-1(17)
 1708              	.LVL155:
 1709              		.loc 1 107 3 is_stmt 1 view .LVU533
 1710              		.loc 1 106 16 is_stmt 0 view .LVU534
 1711 05e0 5523063E 		rlwinm 3,9,0,0xff
 1712              		.loc 1 107 11 view .LVU535
 1713 05e4 8D68FFFF 		lbzu 11,-1(8)
 1714              		.loc 1 106 12 view .LVU536
 1715 05e8 548A063E 		rlwinm 10,4,0,0xff
 1716              		.loc 1 106 14 view .LVU537
 1717 05ec 7D4A1A14 		add 10,10,3
 1718              	.LVL156:
 1719              		.loc 1 107 11 view .LVU538
 1720 05f0 5563063E 		rlwinm 3,11,0,0xff
 1721              		.loc 1 108 8 view .LVU539
 1722 05f4 7C845850 		subf 4,4,11
 1723              		.loc 1 107 13 view .LVU540
 1724 05f8 7D4A1810 		subfc 10,10,3
 1725              	.LVL157:
 1726              		.loc 1 108 8 view .LVU541
 1727 05fc 7D292050 		subf 9,9,4
 1728              	.LVL158:
 1729              		.loc 1 107 13 view .LVU542
 1730 0600 7D4A5110 		subfe 10,10,10
 1731              		.loc 1 108 8 view .LVU543
 1732 0604 99280000 		stb 9,0(8)
 1733              		.loc 1 107 5 view .LVU544
 1734 0608 7D2A00D0 		neg 9,10
 1735              	.LVL159:
 1736              		.loc 1 108 3 is_stmt 1 view .LVU545
 1737              		.loc 1 105 2 discriminator 3 view .LVU546
 1738              		.loc 1 105 20 discriminator 1 view .LVU547
 1739 060c 4200FFD0 		bdnz .L64
 1740 0610 4BFFFCF0 		b .L54
 1741              	.LVL160:
 1742              	.L30:
 1743              		.loc 1 105 20 is_stmt 0 discriminator 1 view .LVU548
 1744              	.LBE597:
 1745              	.LBE596:
 1746              	.LBE598:
 1747              	.LBE599:
 1748              	.LBE602:
 1749              	.LBE607:
 1750              	.LBB608:
 1751              	.LBB554:
 1752              	.LBB550:
 1753              	.LBB531:
 1754              	.LBB525:
 1755              	.LBB526:
 1756              		.loc 1 104 4 view .LVU549
 1757 0614 7C76F850 		subf 3,22,31
 1758 0618 7FF1FB78 		mr 17,31
 1759              	.LBE526:
 1760              	.LBE525:
 1761              	.LBB528:
 1762              	.LBB518:
 1763 061c 7FCCF378 		mr 12,30
 1764              	.LBE518:
 1765              	.LBE528:
 1766              	.LBB529:
 1767              	.LBB527:
 1768 0620 39400000 		li 10,0
 1769 0624 7C6903A6 		mtctr 3
 1770              	.L33:
 1771              	.LVL161:
 1772              		.loc 1 106 3 is_stmt 1 view .LVU550
 1773              		.loc 1 106 12 is_stmt 0 view .LVU551
 1774 0628 8D71FFFF 		lbzu 11,-1(17)
 1775              	.LVL162:
 1776              		.loc 1 107 3 is_stmt 1 view .LVU552
 1777              		.loc 1 106 16 is_stmt 0 view .LVU553
 1778 062c 5540063E 		rlwinm 0,10,0,0xff
 1779              		.loc 1 107 11 view .LVU554
 1780 0630 8E0CFFFF 		lbzu 16,-1(12)
 1781              		.loc 1 106 12 view .LVU555
 1782 0634 5563063E 		rlwinm 3,11,0,0xff
 1783              		.loc 1 106 14 view .LVU556
 1784 0638 7C630214 		add 3,3,0
 1785              	.LVL163:
 1786              		.loc 1 107 11 view .LVU557
 1787 063c 5600063E 		rlwinm 0,16,0,0xff
 1788              		.loc 1 108 8 view .LVU558
 1789 0640 7D6B8050 		subf 11,11,16
 1790              		.loc 1 107 13 view .LVU559
 1791 0644 7C630010 		subfc 3,3,0
 1792              	.LVL164:
 1793              		.loc 1 108 8 view .LVU560
 1794 0648 7D4A5850 		subf 10,10,11
 1795              	.LVL165:
 1796              		.loc 1 107 13 view .LVU561
 1797 064c 7C631910 		subfe 3,3,3
 1798              		.loc 1 108 8 view .LVU562
 1799 0650 994C0000 		stb 10,0(12)
 1800              		.loc 1 107 5 view .LVU563
 1801 0654 7D4300D0 		neg 10,3
 1802              	.LVL166:
 1803              		.loc 1 108 3 is_stmt 1 view .LVU564
 1804              		.loc 1 105 2 discriminator 3 view .LVU565
 1805              		.loc 1 105 20 discriminator 1 view .LVU566
 1806 0658 4200FFD0 		bdnz .L33
 1807 065c 4BFFFB84 		b .L29
 1808              	.LVL167:
 1809              	.L44:
 1810              		.loc 1 105 20 is_stmt 0 discriminator 1 view .LVU567
 1811              	.LBE527:
 1812              	.LBE529:
 1813              	.LBE531:
 1814              	.LBE550:
 1815              	.LBE554:
 1816              	.LBE608:
 1817              		.loc 1 161 5 is_stmt 1 view .LVU568
 1818              	.LBB609:
 1819              	.LBI609:
 1820              		.loc 1 79 20 view .LVU569
 1821              	.LBB610:
 1822              		.loc 1 81 2 view .LVU570
 1823              		.loc 1 81 8 is_stmt 0 view .LVU571
 1824 0660 38810008 		addi 4,1,8
 1825              	.LVL168:
 1826              		.loc 1 81 8 view .LVU572
 1827 0664 7FC3F378 		mr 3,30
 1828 0668 48000001 		bl memcpy
 1829              	.LVL169:
 1830              		.loc 1 81 8 view .LVU573
 1831              	.LBE610:
 1832              	.LBE609:
 1833              		.loc 1 156 3 is_stmt 1 discriminator 2 view .LVU574
 1834              		.loc 1 156 26 is_stmt 0 discriminator 1 view .LVU575
 1835 066c 3739FFFF 		addic. 25,25,-1
 1836              		.loc 1 156 37 discriminator 2 view .LVU576
 1837 0670 579CFE7E 		rlwinm 28,28,31,25,31
 1838              	.LVL170:
 1839              		.loc 1 156 26 is_stmt 1 discriminator 1 view .LVU577
 1840 0674 4082FA88 		bne+ 0,.L66
 1841 0678 4BFFFCA8 		b .L118
 1842              	.LBE617:
 1843              	.LBE624:
 1844              		.cfi_endproc
 1845              	.LFE1446:
 1846              		.size	_ZL9check_rsaPKhS0_S0_j.constprop.0, .-_ZL9check_rsaPKhS0_S0_j.constprop.0
 1847              		.section	.text._ZL9check_rsaPKhS0_S0_j.constprop.1,"ax",@progbits
 1848              		.align 2
 1849              		.type	_ZL9check_rsaPKhS0_S0_j.constprop.1, @function
 1850              	_ZL9check_rsaPKhS0_S0_j.constprop.1:
 1851              	.LVL171:
 1852              	.LFB1450:
 1853              		.loc 1 1831 12 view -0
 1854              		.cfi_startproc
 1855              		.loc 1 1831 12 is_stmt 0 view .LVU579
 1856 0000 9421F9B8 		stwu 1,-1608(1)
 1857              		.cfi_def_cfa_offset 1608
 1858 0004 7C0802A6 		mflr 0
 1859 0008 93410630 		stw 26,1584(1)
 1860              		.cfi_register 65, 0
 1861              		.cfi_offset 26, -24
 1862 000c 7C9A2378 		mr 26,4
 1863 0010 93810638 		stw 28,1592(1)
 1864              		.loc 1 1839 8 view .LVU580
 1865 0014 388000FF 		li 4,255
 1866              	.LVL172:
 1867              		.loc 1 1831 12 view .LVU581
 1868 0018 93A1063C 		stw 29,1596(1)
 1869              		.cfi_offset 28, -16
 1870              		.cfi_offset 29, -12
 1871              		.loc 1 1837 13 view .LVU582
 1872 001c 3B800001 		li 28,1
 1873              		.loc 1 1831 12 view .LVU583
 1874 0020 7C7D1B78 		mr 29,3
 1875 0024 93C10640 		stw 30,1600(1)
 1876              		.loc 1 1839 8 view .LVU584
 1877 0028 3861040A 		addi 3,1,1034
 1878              	.LVL173:
 1879              		.loc 1 1833 2 is_stmt 1 view .LVU585
 1880              		.loc 1 1834 2 view .LVU586
 1881              		.loc 1 1837 2 view .LVU587
 1882              		.loc 1 1838 2 view .LVU588
 1883              		.cfi_offset 30, -8
 1884              		.loc 1 1831 12 is_stmt 0 view .LVU589
 1885 002c 7CBE2B78 		mr 30,5
 1886              		.loc 1 1839 8 view .LVU590
 1887 0030 38A000DA 		li 5,218
 1888              	.LVL174:
 1889              		.loc 1 1831 12 view .LVU591
 1890 0034 9001064C 		stw 0,1612(1)
 1891 0038 92810618 		stw 20,1560(1)
 1892              		.cfi_offset 65, 4
 1893              		.cfi_offset 20, -48
 1894 003c 3A810308 		addi 20,1,776
 1895 0040 92A1061C 		stw 21,1564(1)
 1896              		.cfi_offset 21, -44
 1897 0044 3ABEFFFF 		addi 21,30,-1
 1898 0048 92C10620 		stw 22,1568(1)
 1899              		.cfi_offset 22, -40
 1900 004c 3AC10108 		addi 22,1,264
 1901 0050 92E10624 		stw 23,1572(1)
 1902              		.cfi_offset 23, -36
 1903 0054 3AFE0104 		addi 23,30,260
 1904 0058 93010628 		stw 24,1576(1)
 1905              		.cfi_offset 24, -32
 1906 005c 3B010307 		addi 24,1,775
 1907 0060 93610634 		stw 27,1588(1)
 1908 0064 93E10644 		stw 31,1604(1)
 1909 0068 9221060C 		stw 17,1548(1)
 1910 006c 92410610 		stw 18,1552(1)
 1911 0070 92610614 		stw 19,1556(1)
 1912 0074 9321062C 		stw 25,1580(1)
 1913              		.cfi_offset 27, -20
 1914              		.cfi_offset 31, -4
 1915              		.cfi_offset 17, -60
 1916              		.cfi_offset 18, -56
 1917              		.cfi_offset 19, -52
 1918              		.cfi_offset 25, -28
 1919              		.loc 1 1837 13 view .LVU592
 1920 0078 B3810408 		sth 28,1032(1)
 1921              		.loc 1 1839 2 is_stmt 1 view .LVU593
 1922              		.loc 1 1839 8 is_stmt 0 view .LVU594
 1923 007c 48000001 		bl memset
 1924              	.LVL175:
 1925              		.loc 1 1840 2 is_stmt 1 view .LVU595
 1926              		.loc 1 1840 8 is_stmt 0 view .LVU596
 1927 0080 3D400000 		lis 10,.LANCHOR0@ha
 1928              		.loc 1 1841 8 view .LVU597
 1929 0084 80DD0000 		lwz 6,0(29)
 1930              		.loc 1 1840 8 view .LVU598
 1931 0088 392A0000 		la 9,.LANCHOR0@l(10)
 1932 008c 83EA0000 		lwz 31,.LANCHOR0@l(10)
 1933 0090 81490004 		lwz 10,4(9)
 1934              	.LBB683:
 1935              	.LBB684:
 1936              	.LBB685:
 1937              	.LBB686:
 1938              		.loc 1 76 8 view .LVU599
 1939 0094 38610208 		addi 3,1,520
 1940              	.LBE686:
 1941              	.LBE685:
 1942              	.LBE684:
 1943              	.LBE683:
 1944              		.loc 1 1840 8 view .LVU600
 1945 0098 80090008 		lwz 0,8(9)
 1946              	.LBB799:
 1947              	.LBB793:
 1948              	.LBB690:
 1949              	.LBB687:
 1950              		.loc 1 76 8 view .LVU601
 1951 009c 38A00100 		li 5,256
 1952              	.LBE687:
 1953              	.LBE690:
 1954              	.LBE793:
 1955              	.LBE799:
 1956              		.loc 1 1840 8 view .LVU602
 1957 00a0 8169000C 		lwz 11,12(9)
 1958              	.LBB800:
 1959              	.LBB794:
 1960              	.LBB691:
 1961              	.LBB688:
 1962              		.loc 1 76 8 view .LVU603
 1963 00a4 38800000 		li 4,0
 1964              	.LBE688:
 1965              	.LBE691:
 1966              	.LBE794:
 1967              	.LBE800:
 1968              		.loc 1 1841 8 view .LVU604
 1969 00a8 80FD0004 		lwz 7,4(29)
 1970 00ac 811D0008 		lwz 8,8(29)
 1971              		.loc 1 1840 8 view .LVU605
 1972 00b0 914104E8 		stw 10,1256(1)
 1973              		.loc 1 1841 8 view .LVU606
 1974 00b4 813D0010 		lwz 9,16(29)
 1975 00b8 815D000C 		lwz 10,12(29)
 1976              		.loc 1 1840 8 view .LVU607
 1977 00bc 93E104E4 		stw 31,1252(1)
 1978 00c0 3BFE0100 		addi 31,30,256
 1979 00c4 900104EC 		stw 0,1260(1)
 1980              	.LBB801:
 1981              	.LBB795:
 1982              		.loc 1 154 9 view .LVU608
 1983 00c8 7FFBFB78 		mr 27,31
 1984              	.LBE795:
 1985              	.LBE801:
 1986              		.loc 1 1840 8 view .LVU609
 1987 00cc 916104F0 		stw 11,1264(1)
 1988              		.loc 1 1841 2 is_stmt 1 view .LVU610
 1989 00d0 3BDE00FF 		addi 30,30,255
 1990              	.LVL176:
 1991              		.loc 1 1841 8 is_stmt 0 view .LVU611
 1992 00d4 90C104F4 		stw 6,1268(1)
 1993 00d8 90E104F8 		stw 7,1272(1)
 1994 00dc 910104FC 		stw 8,1276(1)
 1995 00e0 91410500 		stw 10,1280(1)
 1996 00e4 91210504 		stw 9,1284(1)
 1997              		.loc 1 1843 2 is_stmt 1 view .LVU612
 1998              	.LVL177:
 1999              	.LBB802:
 2000              	.LBI683:
 2001              		.loc 1 147 13 view .LVU613
 2002              	.LBB796:
 2003              		.loc 1 149 2 view .LVU614
 2004              		.loc 1 150 2 view .LVU615
 2005              		.loc 1 151 2 view .LVU616
 2006              		.loc 1 153 2 view .LVU617
 2007              	.LBB692:
 2008              	.LBI685:
 2009              		.loc 1 74 20 view .LVU618
 2010              	.LBB689:
 2011              		.loc 1 76 2 view .LVU619
 2012              		.loc 1 76 8 is_stmt 0 view .LVU620
 2013 00e8 48000001 		bl memset
 2014              	.LVL178:
 2015              		.loc 1 76 8 view .LVU621
 2016              	.LBE689:
 2017              	.LBE692:
 2018              		.loc 1 154 2 is_stmt 1 view .LVU622
 2019              		.loc 1 154 9 is_stmt 0 view .LVU623
 2020 00ec 9B810307 		stb 28,775(1)
 2021              		.loc 1 155 2 is_stmt 1 view .LVU624
 2022              	.LVL179:
 2023              		.loc 1 155 16 discriminator 1 view .LVU625
 2024              	.L120:
 2025              		.loc 1 156 26 discriminator 1 view .LVU626
 2026              	.LBE796:
 2027              	.LBE802:
 2028              		.loc 1 1831 12 is_stmt 0 view .LVU627
 2029 00f0 3B200008 		li 25,8
 2030              	.LBB803:
 2031              	.LBB797:
 2032              		.loc 1 156 13 view .LVU628
 2033 00f4 3B80FF80 		li 28,-128
 2034              	.LVL180:
 2035              	.L160:
 2036              		.loc 1 157 4 is_stmt 1 view .LVU629
 2037              	.LBB693:
 2038              	.LBI693:
 2039              		.loc 1 132 13 view .LVU630
 2040              	.LBB694:
 2041              		.loc 1 134 2 view .LVU631
 2042              		.loc 1 135 2 view .LVU632
 2043              		.loc 1 137 2 view .LVU633
 2044              	.LBB695:
 2045              	.LBI695:
 2046              		.loc 1 74 20 view .LVU634
 2047              	.LBB696:
 2048              		.loc 1 76 2 view .LVU635
 2049              		.loc 1 76 8 is_stmt 0 view .LVU636
 2050 00f8 38A00100 		li 5,256
 2051 00fc 38800000 		li 4,0
 2052 0100 38610008 		addi 3,1,8
 2053              	.LVL181:
 2054              		.loc 1 76 8 view .LVU637
 2055 0104 48000001 		bl memset
 2056              	.LVL182:
 2057              		.loc 1 76 8 view .LVU638
 2058              	.LBE696:
 2059              	.LBE695:
 2060              		.loc 1 139 2 is_stmt 1 view .LVU639
 2061              		.loc 1 139 16 discriminator 1 view .LVU640
 2062              	.LBB699:
 2063              	.LBB697:
 2064              		.loc 1 76 8 is_stmt 0 view .LVU641
 2065 0108 38C10207 		addi 6,1,519
 2066              	.LVL183:
 2067              	.L121:
 2068              		.loc 1 76 8 view .LVU642
 2069              	.LBE697:
 2070              	.LBE699:
 2071              		.loc 1 140 26 is_stmt 1 discriminator 1 view .LVU643
 2072              		.loc 1 142 12 is_stmt 0 view .LVU644
 2073 010c 8CA60001 		lbzu 5,1(6)
 2074              	.LVL184:
 2075              		.loc 1 142 12 view .LVU645
 2076 0110 38E00008 		li 7,8
 2077              		.loc 1 140 13 view .LVU646
 2078 0114 3940FF80 		li 10,-128
 2079              	.LVL185:
 2080              	.L131:
 2081              	.LBB700:
 2082              	.LBB701:
 2083              		.loc 1 119 20 is_stmt 1 discriminator 1 view .LVU647
 2084              		.loc 1 118 4 is_stmt 0 view .LVU648
 2085 0118 39200100 		li 9,256
 2086 011c 7EC8B378 		mr 8,22
 2087              	.LBE701:
 2088              	.LBE700:
 2089              	.LBE694:
 2090              	.LBE693:
 2091              		.loc 1 156 13 view .LVU649
 2092 0120 7EC3B378 		mr 3,22
 2093              	.LBB740:
 2094              	.LBB737:
 2095              	.LBB718:
 2096              	.LBB716:
 2097              		.loc 1 118 4 view .LVU650
 2098 0124 38800000 		li 4,0
 2099 0128 7D2903A6 		mtctr 9
 2100              	.LVL186:
 2101              	.L122:
 2102              		.loc 1 120 3 is_stmt 1 view .LVU651
 2103              		.loc 1 120 12 is_stmt 0 view .LVU652
 2104 012c 8923FFFF 		lbz 9,-1(3)
 2105              		.loc 1 120 23 view .LVU653
 2106 0130 5484063E 		rlwinm 4,4,0,0xff
 2107              		.loc 1 120 23 view .LVU654
 2108 0134 7C721B78 		mr 18,3
 2109              		.loc 1 120 12 view .LVU655
 2110 0138 3863FFFF 		addi 3,3,-1
 2111              	.LVL187:
 2112              		.loc 1 120 14 view .LVU656
 2113 013c 5529083C 		slwi 9,9,1
 2114              		.loc 1 120 21 view .LVU657
 2115 0140 7D292214 		add 9,9,4
 2116              	.LVL188:
 2117              		.loc 1 121 3 is_stmt 1 view .LVU658
 2118              		.loc 1 121 12 is_stmt 0 view .LVU659
 2119 0144 208900FF 		subfic 4,9,255
 2120              	.LVL189:
 2121              		.loc 1 122 8 view .LVU660
 2122 0148 9932FFFF 		stb 9,-1(18)
 2123              		.loc 1 121 12 view .LVU661
 2124 014c 7C842110 		subfe 4,4,4
 2125 0150 7C8400D0 		neg 4,4
 2126              	.LVL190:
 2127              		.loc 1 122 3 is_stmt 1 view .LVU662
 2128              		.loc 1 119 2 discriminator 3 view .LVU663
 2129              		.loc 1 119 20 discriminator 1 view .LVU664
 2130 0154 4200FFD8 		bdnz .L122
 2131              		.loc 1 125 2 view .LVU665
 2132 0158 280900FF 		cmplwi 0,9,255
 2133 015c 4081004C 		ble- 0,.L125
 2134              	.LBB702:
 2135              	.LBB703:
 2136              		.loc 1 104 4 is_stmt 0 view .LVU666
 2137 0160 38800100 		li 4,256
 2138              	.LVL191:
 2139              		.loc 1 104 4 view .LVU667
 2140              	.LBE703:
 2141              	.LBE702:
 2142 0164 7ECBB378 		mr 11,22
 2143 0168 7FF3FB78 		mr 19,31
 2144              	.LBB706:
 2145              	.LBB704:
 2146 016c 39200000 		li 9,0
 2147              	.LVL192:
 2148              		.loc 1 104 4 view .LVU668
 2149 0170 7C8903A6 		mtctr 4
 2150              	.LVL193:
 2151              	.L123:
 2152              		.loc 1 106 3 is_stmt 1 view .LVU669
 2153              		.loc 1 106 12 is_stmt 0 view .LVU670
 2154 0174 8C73FFFF 		lbzu 3,-1(19)
 2155              	.LVL194:
 2156              		.loc 1 107 3 is_stmt 1 view .LVU671
 2157              		.loc 1 106 16 is_stmt 0 view .LVU672
 2158 0178 5520063E 		rlwinm 0,9,0,0xff
 2159              		.loc 1 107 11 view .LVU673
 2160 017c 8E2BFFFF 		lbzu 17,-1(11)
 2161              		.loc 1 106 12 view .LVU674
 2162 0180 5464063E 		rlwinm 4,3,0,0xff
 2163              		.loc 1 106 14 view .LVU675
 2164 0184 7C840214 		add 4,4,0
 2165              	.LVL195:
 2166              		.loc 1 107 11 view .LVU676
 2167 0188 5620063E 		rlwinm 0,17,0,0xff
 2168              		.loc 1 108 8 view .LVU677
 2169 018c 7C638850 		subf 3,3,17
 2170              		.loc 1 107 13 view .LVU678
 2171 0190 7C840010 		subfc 4,4,0
 2172              	.LVL196:
 2173              		.loc 1 108 8 view .LVU679
 2174 0194 7D291850 		subf 9,9,3
 2175              	.LVL197:
 2176              		.loc 1 107 13 view .LVU680
 2177 0198 7C842110 		subfe 4,4,4
 2178              		.loc 1 108 8 view .LVU681
 2179 019c 992B0000 		stb 9,0(11)
 2180              		.loc 1 107 5 view .LVU682
 2181 01a0 7D2400D0 		neg 9,4
 2182              	.LVL198:
 2183              		.loc 1 108 3 is_stmt 1 view .LVU683
 2184              		.loc 1 105 2 discriminator 3 view .LVU684
 2185              		.loc 1 105 20 discriminator 1 view .LVU685
 2186 01a4 4200FFD0 		bdnz .L123
 2187              	.LVL199:
 2188              	.L125:
 2189              		.loc 1 105 20 is_stmt 0 discriminator 1 view .LVU686
 2190              	.LBE704:
 2191              	.LBE706:
 2192              		.loc 1 128 2 is_stmt 1 view .LVU687
 2193              	.LBB707:
 2194              	.LBI707:
 2195              		.loc 1 84 19 view .LVU688
 2196              	.LBB708:
 2197              		.loc 1 86 2 view .LVU689
 2198              		.loc 1 88 2 view .LVU690
 2199              		.loc 1 88 16 discriminator 1 view .LVU691
 2200 01a8 3A610007 		addi 19,1,7
 2201              	.LBE708:
 2202              	.LBE707:
 2203              	.LBB711:
 2204              	.LBB705:
 2205              		.loc 1 104 4 is_stmt 0 view .LVU692
 2206 01ac 7C75F050 		subf 3,21,30
 2207 01b0 7EA4AB78 		mr 4,21
 2208 01b4 7E699B78 		mr 9,19
 2209 01b8 7C6903A6 		mtctr 3
 2210 01bc 4800000C 		b .L124
 2211              	.LVL200:
 2212              	.L214:
 2213              		.loc 1 104 4 view .LVU693
 2214              	.LBE705:
 2215              	.LBE711:
 2216              	.LBB712:
 2217              	.LBB709:
 2218              		.loc 1 91 3 view .LVU694
 2219 01c0 418102F0 		bgt- 0,.L164
 2220              		.loc 1 88 16 discriminator 1 view .LVU695
 2221 01c4 424002EC 		bdz .L164
 2222              	.LVL201:
 2223              	.L124:
 2224              		.loc 1 89 3 is_stmt 1 view .LVU696
 2225              		.loc 1 91 3 view .LVU697
 2226              		.loc 1 88 2 discriminator 2 view .LVU698
 2227              		.loc 1 89 3 is_stmt 0 view .LVU699
 2228 01c8 8D690001 		lbzu 11,1(9)
 2229              	.LVL202:
 2230              		.loc 1 88 16 is_stmt 1 discriminator 1 view .LVU700
 2231              		.loc 1 89 3 is_stmt 0 view .LVU701
 2232 01cc 8C640001 		lbzu 3,1(4)
 2233 01d0 7C0B1840 		cmplw 0,11,3
 2234 01d4 4080FFEC 		bge+ 0,.L214
 2235              	.LVL203:
 2236              	.L126:
 2237              		.loc 1 89 3 view .LVU702
 2238              	.LBE709:
 2239              	.LBE712:
 2240              	.LBE716:
 2241              	.LBE718:
 2242              		.loc 1 142 4 is_stmt 1 view .LVU703
 2243              		.loc 1 142 14 is_stmt 0 view .LVU704
 2244 01d8 7CA95038 		and 9,5,10
 2245              		.loc 1 142 4 view .LVU705
 2246 01dc 5529063E 		rlwinm 9,9,0,0xff
 2247 01e0 2C090000 		cmpwi 0,9,0
 2248 01e4 408201C8 		bne- 0,.L215
 2249              	.L129:
 2250              		.loc 1 140 3 is_stmt 1 discriminator 2 view .LVU706
 2251              		.loc 1 140 26 is_stmt 0 discriminator 1 view .LVU707
 2252 01e8 34E7FFFF 		addic. 7,7,-1
 2253              		.loc 1 140 37 discriminator 2 view .LVU708
 2254 01ec 554AFE7E 		rlwinm 10,10,31,25,31
 2255              	.LVL204:
 2256              		.loc 1 140 26 is_stmt 1 discriminator 1 view .LVU709
 2257 01f0 4082FF28 		bne+ 0,.L131
 2258              		.loc 1 139 2 discriminator 2 view .LVU710
 2259              	.LVL205:
 2260              		.loc 1 139 16 discriminator 1 view .LVU711
 2261 01f4 7C183040 		cmplw 0,24,6
 2262 01f8 4082FF14 		bne+ 0,.L121
 2263              	.LVL206:
 2264              		.loc 1 139 16 is_stmt 0 discriminator 1 view .LVU712
 2265              	.LBE737:
 2266              	.LBE740:
 2267              		.loc 1 158 4 is_stmt 1 view .LVU713
 2268              		.loc 1 158 14 is_stmt 0 view .LVU714
 2269 01fc 893B0000 		lbz 9,0(27)
 2270              	.LBB741:
 2271              	.LBB742:
 2272              	.LBB743:
 2273              	.LBB744:
 2274              		.loc 1 76 8 view .LVU715
 2275 0200 38A00100 		li 5,256
 2276              	.LBE744:
 2277              	.LBE743:
 2278              	.LBE742:
 2279              	.LBE741:
 2280              		.loc 1 158 14 view .LVU716
 2281 0204 7D29E038 		and 9,9,28
 2282              		.loc 1 158 4 view .LVU717
 2283 0208 5529063E 		rlwinm 9,9,0,0xff
 2284 020c 2C090000 		cmpwi 0,9,0
 2285 0210 4182043C 		beq- 0,.L140
 2286              		.loc 1 159 5 is_stmt 1 view .LVU718
 2287              	.LVL207:
 2288              	.LBB786:
 2289              	.LBI741:
 2290              		.loc 1 132 13 view .LVU719
 2291              	.LBB783:
 2292              		.loc 1 134 2 view .LVU720
 2293              		.loc 1 135 2 view .LVU721
 2294              		.loc 1 137 2 view .LVU722
 2295              	.LBB746:
 2296              	.LBI743:
 2297              		.loc 1 74 20 view .LVU723
 2298              	.LBB745:
 2299              		.loc 1 76 2 view .LVU724
 2300              		.loc 1 76 8 is_stmt 0 view .LVU725
 2301 0214 38800000 		li 4,0
 2302 0218 38610208 		addi 3,1,520
 2303              	.LVL208:
 2304              		.loc 1 76 8 view .LVU726
 2305 021c 48000001 		bl memset
 2306              	.LVL209:
 2307              		.loc 1 76 8 view .LVU727
 2308              	.LBE745:
 2309              	.LBE746:
 2310              		.loc 1 139 2 is_stmt 1 view .LVU728
 2311              		.loc 1 139 16 discriminator 1 view .LVU729
 2312 0220 3A5200FE 		addi 18,18,254
 2313              	.LVL210:
 2314              	.L141:
 2315              		.loc 1 140 26 discriminator 1 view .LVU730
 2316              		.loc 1 142 12 is_stmt 0 view .LVU731
 2317 0224 8CD30001 		lbzu 6,1(19)
 2318              	.LVL211:
 2319              		.loc 1 142 12 view .LVU732
 2320 0228 38E00008 		li 7,8
 2321              		.loc 1 140 13 view .LVU733
 2322 022c 3900FF80 		li 8,-128
 2323              	.LVL212:
 2324              	.L151:
 2325              	.LBB747:
 2326              	.LBB748:
 2327              		.loc 1 119 20 is_stmt 1 discriminator 1 view .LVU734
 2328              		.loc 1 118 4 is_stmt 0 view .LVU735
 2329 0230 39200100 		li 9,256
 2330 0234 7E8AA378 		mr 10,20
 2331              	.LBE748:
 2332              	.LBE747:
 2333              	.LBE783:
 2334              	.LBE786:
 2335              	.LBB787:
 2336              	.LBB738:
 2337              	.LBB719:
 2338              	.LBB698:
 2339              		.loc 1 76 8 view .LVU736
 2340 0238 7E83A378 		mr 3,20
 2341              	.LBE698:
 2342              	.LBE719:
 2343              	.LBE738:
 2344              	.LBE787:
 2345              	.LBB788:
 2346              	.LBB784:
 2347              	.LBB765:
 2348              	.LBB763:
 2349              		.loc 1 118 4 view .LVU737
 2350 023c 38800000 		li 4,0
 2351 0240 7D2903A6 		mtctr 9
 2352              	.LVL213:
 2353              	.L142:
 2354              		.loc 1 120 3 is_stmt 1 view .LVU738
 2355              		.loc 1 120 12 is_stmt 0 view .LVU739
 2356 0244 88A3FFFF 		lbz 5,-1(3)
 2357              		.loc 1 120 23 view .LVU740
 2358 0248 5484063E 		rlwinm 4,4,0,0xff
 2359              		.loc 1 120 23 view .LVU741
 2360 024c 7C691B78 		mr 9,3
 2361              		.loc 1 120 12 view .LVU742
 2362 0250 3863FFFF 		addi 3,3,-1
 2363              	.LVL214:
 2364              		.loc 1 120 14 view .LVU743
 2365 0254 54A5083C 		slwi 5,5,1
 2366              		.loc 1 120 21 view .LVU744
 2367 0258 7CA52214 		add 5,5,4
 2368              	.LVL215:
 2369              		.loc 1 121 3 is_stmt 1 view .LVU745
 2370              		.loc 1 121 12 is_stmt 0 view .LVU746
 2371 025c 208500FF 		subfic 4,5,255
 2372              	.LVL216:
 2373              		.loc 1 122 8 view .LVU747
 2374 0260 98A9FFFF 		stb 5,-1(9)
 2375              		.loc 1 121 12 view .LVU748
 2376 0264 7C842110 		subfe 4,4,4
 2377 0268 7C8400D0 		neg 4,4
 2378              	.LVL217:
 2379              		.loc 1 122 3 is_stmt 1 view .LVU749
 2380              		.loc 1 119 2 discriminator 3 view .LVU750
 2381              		.loc 1 119 20 discriminator 1 view .LVU751
 2382 026c 4200FFD8 		bdnz .L142
 2383              		.loc 1 125 2 view .LVU752
 2384 0270 280500FF 		cmplwi 0,5,255
 2385 0274 4081004C 		ble- 0,.L145
 2386              	.LBB749:
 2387              	.LBB750:
 2388              		.loc 1 104 4 is_stmt 0 view .LVU753
 2389 0278 38800100 		li 4,256
 2390              	.LVL218:
 2391              		.loc 1 104 4 view .LVU754
 2392              	.LBE750:
 2393              	.LBE749:
 2394 027c 7E8BA378 		mr 11,20
 2395 0280 7FF1FB78 		mr 17,31
 2396              	.LBB753:
 2397              	.LBB751:
 2398 0284 38A00000 		li 5,0
 2399              	.LVL219:
 2400              		.loc 1 104 4 view .LVU755
 2401 0288 7C8903A6 		mtctr 4
 2402              	.LVL220:
 2403              	.L143:
 2404              		.loc 1 106 3 is_stmt 1 view .LVU756
 2405              		.loc 1 106 12 is_stmt 0 view .LVU757
 2406 028c 8C71FFFF 		lbzu 3,-1(17)
 2407              	.LVL221:
 2408              		.loc 1 107 3 is_stmt 1 view .LVU758
 2409              		.loc 1 106 16 is_stmt 0 view .LVU759
 2410 0290 54A0063E 		rlwinm 0,5,0,0xff
 2411              		.loc 1 107 11 view .LVU760
 2412 0294 8D8BFFFF 		lbzu 12,-1(11)
 2413              		.loc 1 106 12 view .LVU761
 2414 0298 5464063E 		rlwinm 4,3,0,0xff
 2415              		.loc 1 106 14 view .LVU762
 2416 029c 7C840214 		add 4,4,0
 2417              	.LVL222:
 2418              		.loc 1 107 11 view .LVU763
 2419 02a0 5580063E 		rlwinm 0,12,0,0xff
 2420              		.loc 1 108 8 view .LVU764
 2421 02a4 7C636050 		subf 3,3,12
 2422              		.loc 1 107 13 view .LVU765
 2423 02a8 7C840010 		subfc 4,4,0
 2424              	.LVL223:
 2425              		.loc 1 108 8 view .LVU766
 2426 02ac 7CA51850 		subf 5,5,3
 2427              	.LVL224:
 2428              		.loc 1 107 13 view .LVU767
 2429 02b0 7C842110 		subfe 4,4,4
 2430              		.loc 1 108 8 view .LVU768
 2431 02b4 98AB0000 		stb 5,0(11)
 2432              		.loc 1 107 5 view .LVU769
 2433 02b8 7CA400D0 		neg 5,4
 2434              	.LVL225:
 2435              		.loc 1 108 3 is_stmt 1 view .LVU770
 2436              		.loc 1 105 2 discriminator 3 view .LVU771
 2437              		.loc 1 105 20 discriminator 1 view .LVU772
 2438 02bc 4200FFD0 		bdnz .L143
 2439              	.LVL226:
 2440              	.L145:
 2441              		.loc 1 105 20 is_stmt 0 discriminator 1 view .LVU773
 2442              	.LBE751:
 2443              	.LBE753:
 2444              		.loc 1 128 2 is_stmt 1 view .LVU774
 2445              	.LBB754:
 2446              	.LBI754:
 2447              		.loc 1 84 19 view .LVU775
 2448              	.LBB755:
 2449              		.loc 1 86 2 view .LVU776
 2450              		.loc 1 88 2 view .LVU777
 2451              		.loc 1 88 16 discriminator 1 view .LVU778
 2452              	.LBE755:
 2453              	.LBE754:
 2454              	.LBB758:
 2455              	.LBB752:
 2456              		.loc 1 104 4 is_stmt 0 view .LVU779
 2457 02c0 7C75F050 		subf 3,21,30
 2458 02c4 7EA4AB78 		mr 4,21
 2459 02c8 38A10207 		addi 5,1,519
 2460 02cc 7C6903A6 		mtctr 3
 2461 02d0 4800000C 		b .L144
 2462              	.LVL227:
 2463              	.L216:
 2464              		.loc 1 104 4 view .LVU780
 2465              	.LBE752:
 2466              	.LBE758:
 2467              	.LBB759:
 2468              	.LBB756:
 2469              		.loc 1 91 3 view .LVU781
 2470 02d4 4181032C 		bgt- 0,.L168
 2471              		.loc 1 88 16 discriminator 1 view .LVU782
 2472 02d8 42400328 		bdz .L168
 2473              	.LVL228:
 2474              	.L144:
 2475              		.loc 1 89 3 is_stmt 1 view .LVU783
 2476              		.loc 1 91 3 view .LVU784
 2477              		.loc 1 88 2 discriminator 2 view .LVU785
 2478              		.loc 1 89 3 is_stmt 0 view .LVU786
 2479 02dc 8D650001 		lbzu 11,1(5)
 2480              	.LVL229:
 2481              		.loc 1 88 16 is_stmt 1 discriminator 1 view .LVU787
 2482              		.loc 1 89 3 is_stmt 0 view .LVU788
 2483 02e0 8C640001 		lbzu 3,1(4)
 2484 02e4 7C0B1840 		cmplw 0,11,3
 2485 02e8 4080FFEC 		bge+ 0,.L216
 2486              	.LVL230:
 2487              	.L146:
 2488              		.loc 1 89 3 view .LVU789
 2489              	.LBE756:
 2490              	.LBE759:
 2491              	.LBE763:
 2492              	.LBE765:
 2493              		.loc 1 142 4 is_stmt 1 view .LVU790
 2494              		.loc 1 142 14 is_stmt 0 view .LVU791
 2495 02ec 7CC54038 		and 5,6,8
 2496              		.loc 1 142 4 view .LVU792
 2497 02f0 54A5063E 		rlwinm 5,5,0,0xff
 2498 02f4 2C050000 		cmpwi 0,5,0
 2499 02f8 40820204 		bne- 0,.L217
 2500              	.L149:
 2501              		.loc 1 140 3 is_stmt 1 discriminator 2 view .LVU793
 2502              		.loc 1 140 26 is_stmt 0 discriminator 1 view .LVU794
 2503 02fc 34E7FFFF 		addic. 7,7,-1
 2504              		.loc 1 140 37 discriminator 2 view .LVU795
 2505 0300 5508FE7E 		rlwinm 8,8,31,25,31
 2506              	.LVL231:
 2507              		.loc 1 140 26 is_stmt 1 discriminator 1 view .LVU796
 2508 0304 4082FF2C 		bne+ 0,.L151
 2509              		.loc 1 139 2 discriminator 2 view .LVU797
 2510              	.LVL232:
 2511              		.loc 1 139 16 discriminator 1 view .LVU798
 2512 0308 7C129840 		cmplw 0,18,19
 2513 030c 4082FF18 		bne+ 0,.L141
 2514              	.LVL233:
 2515              		.loc 1 139 16 is_stmt 0 discriminator 1 view .LVU799
 2516              	.LBE784:
 2517              	.LBE788:
 2518              		.loc 1 156 3 is_stmt 1 discriminator 2 view .LVU800
 2519              		.loc 1 156 26 is_stmt 0 discriminator 1 view .LVU801
 2520 0310 3739FFFF 		addic. 25,25,-1
 2521              		.loc 1 156 37 discriminator 2 view .LVU802
 2522 0314 579CFE7E 		rlwinm 28,28,31,25,31
 2523              	.LVL234:
 2524              		.loc 1 156 26 is_stmt 1 discriminator 1 view .LVU803
 2525 0318 4082FDE0 		bne+ 0,.L160
 2526              	.LVL235:
 2527              	.L220:
 2528              		.loc 1 155 2 discriminator 2 view .LVU804
 2529              		.loc 1 155 16 discriminator 1 view .LVU805
 2530 031c 3B7B0001 		addi 27,27,1
 2531              		.loc 1 155 16 is_stmt 0 discriminator 1 view .LVU806
 2532 0320 7C17D840 		cmplw 0,23,27
 2533 0324 4082FDCC 		bne+ 0,.L120
 2534              	.LVL236:
 2535              		.loc 1 155 16 discriminator 1 view .LVU807
 2536              	.LBE797:
 2537              	.LBE803:
 2538              		.loc 1 1845 2 is_stmt 1 view .LVU808
 2539              		.loc 1 1845 12 is_stmt 0 view .LVU809
 2540 0328 38810208 		addi 4,1,520
 2541 032c 38A00100 		li 5,256
 2542 0330 38610408 		addi 3,1,1032
 2543 0334 48000001 		bl memcmp
 2544              	.LVL237:
 2545              		.loc 1 1845 2 discriminator 1 view .LVU810
 2546 0338 2C030000 		cmpwi 0,3,0
 2547 033c 41820024 		beq- 0,.L119
 2548              		.loc 1 1849 2 is_stmt 1 view .LVU811
 2549              		.loc 1 1849 13 is_stmt 0 view .LVU812
 2550 0340 7FA3EB78 		mr 3,29
 2551 0344 38A00014 		li 5,20
 2552 0348 388102F4 		addi 4,1,756
 2553 034c 48000001 		bl strncmp
 2554              	.LVL238:
 2555              		.loc 1 1849 2 discriminator 1 view .LVU813
 2556 0350 2C030000 		cmpwi 0,3,0
 2557              		.loc 1 1850 11 view .LVU814
 2558 0354 3860FF9C 		li 3,-100
 2559              		.loc 1 1849 2 discriminator 1 view .LVU815
 2560 0358 41820008 		beq- 0,.L119
 2561              		.loc 1 1852 10 view .LVU816
 2562 035c 3860FFFB 		li 3,-5
 2563              	.L119:
 2564              		.loc 1 1853 1 view .LVU817
 2565 0360 8001064C 		lwz 0,1612(1)
 2566 0364 8221060C 		lwz 17,1548(1)
 2567 0368 82410610 		lwz 18,1552(1)
 2568 036c 7C0803A6 		mtlr 0
 2569              		.cfi_remember_state
 2570              		.cfi_restore 65
 2571 0370 82610614 		lwz 19,1556(1)
 2572 0374 82810618 		lwz 20,1560(1)
 2573 0378 82A1061C 		lwz 21,1564(1)
 2574 037c 82C10620 		lwz 22,1568(1)
 2575 0380 82E10624 		lwz 23,1572(1)
 2576 0384 83010628 		lwz 24,1576(1)
 2577 0388 8321062C 		lwz 25,1580(1)
 2578 038c 83410630 		lwz 26,1584(1)
 2579              	.LVL239:
 2580              		.loc 1 1853 1 view .LVU818
 2581 0390 83610634 		lwz 27,1588(1)
 2582 0394 83810638 		lwz 28,1592(1)
 2583 0398 83A1063C 		lwz 29,1596(1)
 2584              	.LVL240:
 2585              		.loc 1 1853 1 view .LVU819
 2586 039c 83C10640 		lwz 30,1600(1)
 2587              	.LVL241:
 2588              		.loc 1 1853 1 view .LVU820
 2589 03a0 83E10644 		lwz 31,1604(1)
 2590              	.LVL242:
 2591              		.loc 1 1853 1 view .LVU821
 2592 03a4 38210648 		addi 1,1,1608
 2593              		.cfi_restore 31
 2594              		.cfi_restore 30
 2595              		.cfi_restore 29
 2596              		.cfi_restore 28
 2597              		.cfi_restore 27
 2598              		.cfi_restore 26
 2599              		.cfi_restore 25
 2600              		.cfi_restore 24
 2601              		.cfi_restore 23
 2602              		.cfi_restore 22
 2603              		.cfi_restore 21
 2604              		.cfi_restore 20
 2605              		.cfi_restore 19
 2606              		.cfi_restore 18
 2607              		.cfi_restore 17
 2608              		.cfi_def_cfa_offset 0
 2609 03a8 4E800020 		blr
 2610              	.LVL243:
 2611              	.L215:
 2612              		.cfi_restore_state
 2613              	.LBB804:
 2614              	.LBB798:
 2615              	.LBB789:
 2616              	.LBB739:
 2617              	.LBB720:
 2618              	.LBB721:
 2619              		.loc 1 118 4 view .LVU822
 2620 03ac 7D32B050 		subf 9,18,22
 2621 03b0 39610308 		addi 11,1,776
 2622 03b4 39290001 		addi 9,9,1
 2623              	.LBE721:
 2624              	.LBE720:
 2625              		.loc 1 142 4 view .LVU823
 2626 03b8 7EC3B378 		mr 3,22
 2627              	.LBB735:
 2628              	.LBB734:
 2629              		.loc 1 118 4 view .LVU824
 2630 03bc 7D2903A6 		mtctr 9
 2631 03c0 38800000 		li 4,0
 2632              	.L133:
 2633              	.LVL244:
 2634              		.loc 1 120 3 is_stmt 1 view .LVU825
 2635              		.loc 1 120 12 is_stmt 0 view .LVU826
 2636 03c4 8D23FFFF 		lbzu 9,-1(3)
 2637              	.LVL245:
 2638              		.loc 1 120 23 view .LVU827
 2639 03c8 5484063E 		rlwinm 4,4,0,0xff
 2640              		.loc 1 120 19 view .LVU828
 2641 03cc 8C0BFFFF 		lbzu 0,-1(11)
 2642              		.loc 1 120 14 view .LVU829
 2643 03d0 7D290214 		add 9,9,0
 2644              		.loc 1 120 21 view .LVU830
 2645 03d4 7D292214 		add 9,9,4
 2646              	.LVL246:
 2647              		.loc 1 121 3 is_stmt 1 view .LVU831
 2648              		.loc 1 121 12 is_stmt 0 view .LVU832
 2649 03d8 208900FF 		subfic 4,9,255
 2650              	.LVL247:
 2651              		.loc 1 122 8 view .LVU833
 2652 03dc 99230000 		stb 9,0(3)
 2653              		.loc 1 121 12 view .LVU834
 2654 03e0 7C842110 		subfe 4,4,4
 2655 03e4 7C8400D0 		neg 4,4
 2656              	.LVL248:
 2657              		.loc 1 122 3 is_stmt 1 view .LVU835
 2658              		.loc 1 119 2 discriminator 3 view .LVU836
 2659              		.loc 1 119 20 discriminator 1 view .LVU837
 2660 03e8 4200FFDC 		bdnz .L133
 2661              		.loc 1 125 2 view .LVU838
 2662 03ec 280900FF 		cmplwi 0,9,255
 2663 03f0 4081004C 		ble- 0,.L136
 2664              	.LBB722:
 2665              	.LBB723:
 2666              		.loc 1 104 4 is_stmt 0 view .LVU839
 2667 03f4 38800100 		li 4,256
 2668              	.LVL249:
 2669              		.loc 1 104 4 view .LVU840
 2670              	.LBE723:
 2671              	.LBE722:
 2672 03f8 7ECBB378 		mr 11,22
 2673 03fc 7FECFB78 		mr 12,31
 2674              	.LBB726:
 2675              	.LBB724:
 2676 0400 39200000 		li 9,0
 2677              	.LVL250:
 2678              		.loc 1 104 4 view .LVU841
 2679 0404 7C8903A6 		mtctr 4
 2680              	.LVL251:
 2681              	.L134:
 2682              		.loc 1 106 3 is_stmt 1 view .LVU842
 2683              		.loc 1 106 12 is_stmt 0 view .LVU843
 2684 0408 8C6CFFFF 		lbzu 3,-1(12)
 2685              	.LVL252:
 2686              		.loc 1 107 3 is_stmt 1 view .LVU844
 2687              		.loc 1 106 16 is_stmt 0 view .LVU845
 2688 040c 5520063E 		rlwinm 0,9,0,0xff
 2689              		.loc 1 107 11 view .LVU846
 2690 0410 8E2BFFFF 		lbzu 17,-1(11)
 2691              		.loc 1 106 12 view .LVU847
 2692 0414 5464063E 		rlwinm 4,3,0,0xff
 2693              		.loc 1 106 14 view .LVU848
 2694 0418 7C840214 		add 4,4,0
 2695              	.LVL253:
 2696              		.loc 1 107 11 view .LVU849
 2697 041c 5620063E 		rlwinm 0,17,0,0xff
 2698              		.loc 1 108 8 view .LVU850
 2699 0420 7C638850 		subf 3,3,17
 2700              		.loc 1 107 13 view .LVU851
 2701 0424 7C840010 		subfc 4,4,0
 2702              	.LVL254:
 2703              		.loc 1 108 8 view .LVU852
 2704 0428 7D291850 		subf 9,9,3
 2705              	.LVL255:
 2706              		.loc 1 107 13 view .LVU853
 2707 042c 7C842110 		subfe 4,4,4
 2708              		.loc 1 108 8 view .LVU854
 2709 0430 992B0000 		stb 9,0(11)
 2710              		.loc 1 107 5 view .LVU855
 2711 0434 7D2400D0 		neg 9,4
 2712              	.LVL256:
 2713              		.loc 1 108 3 is_stmt 1 view .LVU856
 2714              		.loc 1 105 2 discriminator 3 view .LVU857
 2715              		.loc 1 105 20 discriminator 1 view .LVU858
 2716 0438 4200FFD0 		bdnz .L134
 2717              	.LVL257:
 2718              	.L136:
 2719              		.loc 1 105 20 is_stmt 0 discriminator 1 view .LVU859
 2720              	.LBE724:
 2721              	.LBE726:
 2722              		.loc 1 128 2 is_stmt 1 view .LVU860
 2723              	.LBB727:
 2724              	.LBI727:
 2725              		.loc 1 84 19 view .LVU861
 2726              	.LBB728:
 2727              		.loc 1 86 2 view .LVU862
 2728              		.loc 1 88 2 view .LVU863
 2729              		.loc 1 88 16 discriminator 1 view .LVU864
 2730              	.LBE728:
 2731              	.LBE727:
 2732              	.LBB730:
 2733              	.LBB725:
 2734              		.loc 1 104 4 is_stmt 0 view .LVU865
 2735 043c 7C75F050 		subf 3,21,30
 2736 0440 7EA4AB78 		mr 4,21
 2737 0444 39210007 		addi 9,1,7
 2738 0448 7C6903A6 		mtctr 3
 2739 044c 48000008 		b .L135
 2740              	.LVL258:
 2741              	.L218:
 2742              		.loc 1 104 4 view .LVU866
 2743              	.LBE725:
 2744              	.LBE730:
 2745              	.LBB731:
 2746              	.LBB729:
 2747              		.loc 1 88 16 discriminator 1 view .LVU867
 2748 0450 42400018 		bdz .L166
 2749              	.LVL259:
 2750              	.L135:
 2751              		.loc 1 89 3 is_stmt 1 view .LVU868
 2752              		.loc 1 91 3 view .LVU869
 2753              		.loc 1 88 2 discriminator 2 view .LVU870
 2754              		.loc 1 89 3 is_stmt 0 view .LVU871
 2755 0454 8D690001 		lbzu 11,1(9)
 2756              	.LVL260:
 2757              		.loc 1 88 16 is_stmt 1 discriminator 1 view .LVU872
 2758              		.loc 1 89 3 is_stmt 0 view .LVU873
 2759 0458 8C640001 		lbzu 3,1(4)
 2760 045c 7C0B1840 		cmplw 0,11,3
 2761 0460 41A0FD88 		blt- 0,.L129
 2762              		.loc 1 91 3 view .LVU874
 2763 0464 4081FFEC 		ble+ 0,.L218
 2764              	.L166:
 2765 0468 38800100 		li 4,256
 2766 046c 7FEBFB78 		mr 11,31
 2767 0470 39200000 		li 9,0
 2768              	.LVL261:
 2769              		.loc 1 91 3 view .LVU875
 2770 0474 7C8903A6 		mtctr 4
 2771              	.LVL262:
 2772              	.L138:
 2773              		.loc 1 91 3 view .LVU876
 2774              	.LBE729:
 2775              	.LBE731:
 2776              	.LBB732:
 2777              	.LBB733:
 2778              		.loc 1 106 3 is_stmt 1 view .LVU877
 2779              		.loc 1 106 12 is_stmt 0 view .LVU878
 2780 0478 8C6BFFFF 		lbzu 3,-1(11)
 2781              	.LVL263:
 2782              		.loc 1 107 3 is_stmt 1 view .LVU879
 2783              		.loc 1 106 16 is_stmt 0 view .LVU880
 2784 047c 5520063E 		rlwinm 0,9,0,0xff
 2785              		.loc 1 107 11 view .LVU881
 2786 0480 8D88FFFF 		lbzu 12,-1(8)
 2787              		.loc 1 106 12 view .LVU882
 2788 0484 5464063E 		rlwinm 4,3,0,0xff
 2789              		.loc 1 106 14 view .LVU883
 2790 0488 7C840214 		add 4,4,0
 2791              	.LVL264:
 2792              		.loc 1 107 11 view .LVU884
 2793 048c 5580063E 		rlwinm 0,12,0,0xff
 2794              		.loc 1 108 8 view .LVU885
 2795 0490 7C636050 		subf 3,3,12
 2796              		.loc 1 107 13 view .LVU886
 2797 0494 7C840010 		subfc 4,4,0
 2798              	.LVL265:
 2799              		.loc 1 108 8 view .LVU887
 2800 0498 7D291850 		subf 9,9,3
 2801              	.LVL266:
 2802              		.loc 1 107 13 view .LVU888
 2803 049c 7C842110 		subfe 4,4,4
 2804              		.loc 1 108 8 view .LVU889
 2805 04a0 99280000 		stb 9,0(8)
 2806              		.loc 1 107 5 view .LVU890
 2807 04a4 7D2400D0 		neg 9,4
 2808              	.LVL267:
 2809              		.loc 1 108 3 is_stmt 1 view .LVU891
 2810              		.loc 1 105 2 discriminator 3 view .LVU892
 2811              		.loc 1 105 20 discriminator 1 view .LVU893
 2812 04a8 4200FFD0 		bdnz .L138
 2813 04ac 4BFFFD3C 		b .L129
 2814              	.LVL268:
 2815              	.L164:
 2816              		.loc 1 105 20 is_stmt 0 discriminator 1 view .LVU894
 2817 04b0 38800100 		li 4,256
 2818              	.LBE733:
 2819              	.LBE732:
 2820              	.LBE734:
 2821              	.LBE735:
 2822              	.LBB736:
 2823              	.LBB717:
 2824              	.LBB713:
 2825              	.LBB710:
 2826 04b4 7ECBB378 		mr 11,22
 2827 04b8 7FECFB78 		mr 12,31
 2828 04bc 39200000 		li 9,0
 2829              	.LVL269:
 2830              		.loc 1 105 20 discriminator 1 view .LVU895
 2831 04c0 7C8903A6 		mtctr 4
 2832              	.LVL270:
 2833              	.L130:
 2834              		.loc 1 105 20 discriminator 1 view .LVU896
 2835              	.LBE710:
 2836              	.LBE713:
 2837              	.LBB714:
 2838              	.LBB715:
 2839              		.loc 1 106 3 is_stmt 1 view .LVU897
 2840              		.loc 1 106 12 is_stmt 0 view .LVU898
 2841 04c4 8C6CFFFF 		lbzu 3,-1(12)
 2842              	.LVL271:
 2843              		.loc 1 107 3 is_stmt 1 view .LVU899
 2844              		.loc 1 106 16 is_stmt 0 view .LVU900
 2845 04c8 5520063E 		rlwinm 0,9,0,0xff
 2846              		.loc 1 107 11 view .LVU901
 2847 04cc 8E2BFFFF 		lbzu 17,-1(11)
 2848              		.loc 1 106 12 view .LVU902
 2849 04d0 5464063E 		rlwinm 4,3,0,0xff
 2850              		.loc 1 106 14 view .LVU903
 2851 04d4 7C840214 		add 4,4,0
 2852              	.LVL272:
 2853              		.loc 1 107 11 view .LVU904
 2854 04d8 5620063E 		rlwinm 0,17,0,0xff
 2855              		.loc 1 108 8 view .LVU905
 2856 04dc 7C638850 		subf 3,3,17
 2857              		.loc 1 107 13 view .LVU906
 2858 04e0 7C840010 		subfc 4,4,0
 2859              	.LVL273:
 2860              		.loc 1 108 8 view .LVU907
 2861 04e4 7D291850 		subf 9,9,3
 2862              	.LVL274:
 2863              		.loc 1 107 13 view .LVU908
 2864 04e8 7C842110 		subfe 4,4,4
 2865              		.loc 1 108 8 view .LVU909
 2866 04ec 992B0000 		stb 9,0(11)
 2867              		.loc 1 107 5 view .LVU910
 2868 04f0 7D2400D0 		neg 9,4
 2869              	.LVL275:
 2870              		.loc 1 108 3 is_stmt 1 view .LVU911
 2871              		.loc 1 105 2 discriminator 3 view .LVU912
 2872              		.loc 1 105 20 discriminator 1 view .LVU913
 2873 04f4 4200FFD0 		bdnz .L130
 2874 04f8 4BFFFCE0 		b .L126
 2875              	.LVL276:
 2876              	.L217:
 2877              		.loc 1 105 20 is_stmt 0 discriminator 1 view .LVU914
 2878              	.LBE715:
 2879              	.LBE714:
 2880              	.LBE717:
 2881              	.LBE736:
 2882              	.LBE739:
 2883              	.LBE789:
 2884              	.LBB790:
 2885              	.LBB785:
 2886              	.LBB766:
 2887              	.LBB767:
 2888              		.loc 1 118 4 view .LVU915
 2889 04fc 7D29A050 		subf 9,9,20
 2890 0500 387A0100 		addi 3,26,256
 2891 0504 39290001 		addi 9,9,1
 2892              	.LBE767:
 2893              	.LBE766:
 2894              		.loc 1 142 4 view .LVU916
 2895 0508 7E84A378 		mr 4,20
 2896              	.LBB781:
 2897              	.LBB780:
 2898              		.loc 1 118 4 view .LVU917
 2899 050c 7D2903A6 		mtctr 9
 2900 0510 38A00000 		li 5,0
 2901              	.L153:
 2902              	.LVL277:
 2903              		.loc 1 120 3 is_stmt 1 view .LVU918
 2904              		.loc 1 120 12 is_stmt 0 view .LVU919
 2905 0514 8D24FFFF 		lbzu 9,-1(4)
 2906              	.LVL278:
 2907              		.loc 1 120 23 view .LVU920
 2908 0518 54A5063E 		rlwinm 5,5,0,0xff
 2909              		.loc 1 120 19 view .LVU921
 2910 051c 8D63FFFF 		lbzu 11,-1(3)
 2911              		.loc 1 120 14 view .LVU922
 2912 0520 7D295A14 		add 9,9,11
 2913              		.loc 1 120 21 view .LVU923
 2914 0524 7D292A14 		add 9,9,5
 2915              	.LVL279:
 2916              		.loc 1 121 3 is_stmt 1 view .LVU924
 2917              		.loc 1 121 12 is_stmt 0 view .LVU925
 2918 0528 20A900FF 		subfic 5,9,255
 2919              	.LVL280:
 2920              		.loc 1 122 8 view .LVU926
 2921 052c 99240000 		stb 9,0(4)
 2922              		.loc 1 121 12 view .LVU927
 2923 0530 7CA52910 		subfe 5,5,5
 2924 0534 7CA500D0 		neg 5,5
 2925              	.LVL281:
 2926              		.loc 1 122 3 is_stmt 1 view .LVU928
 2927              		.loc 1 119 2 discriminator 3 view .LVU929
 2928              		.loc 1 119 20 discriminator 1 view .LVU930
 2929 0538 4200FFDC 		bdnz .L153
 2930              		.loc 1 125 2 view .LVU931
 2931 053c 280900FF 		cmplwi 0,9,255
 2932 0540 4081004C 		ble- 0,.L156
 2933              	.LBB768:
 2934              	.LBB769:
 2935              		.loc 1 104 4 is_stmt 0 view .LVU932
 2936 0544 38A00100 		li 5,256
 2937              	.LVL282:
 2938              		.loc 1 104 4 view .LVU933
 2939              	.LBE769:
 2940              	.LBE768:
 2941 0548 7E83A378 		mr 3,20
 2942 054c 7FEBFB78 		mr 11,31
 2943              	.LBB772:
 2944              	.LBB770:
 2945 0550 39200000 		li 9,0
 2946              	.LVL283:
 2947              		.loc 1 104 4 view .LVU934
 2948 0554 7CA903A6 		mtctr 5
 2949              	.LVL284:
 2950              	.L154:
 2951              		.loc 1 106 3 is_stmt 1 view .LVU935
 2952              		.loc 1 106 12 is_stmt 0 view .LVU936
 2953 0558 8C8BFFFF 		lbzu 4,-1(11)
 2954              	.LVL285:
 2955              		.loc 1 107 3 is_stmt 1 view .LVU937
 2956              		.loc 1 106 16 is_stmt 0 view .LVU938
 2957 055c 5520063E 		rlwinm 0,9,0,0xff
 2958              		.loc 1 107 11 view .LVU939
 2959 0560 8D83FFFF 		lbzu 12,-1(3)
 2960              		.loc 1 106 12 view .LVU940
 2961 0564 5485063E 		rlwinm 5,4,0,0xff
 2962              		.loc 1 106 14 view .LVU941
 2963 0568 7CA50214 		add 5,5,0
 2964              	.LVL286:
 2965              		.loc 1 107 11 view .LVU942
 2966 056c 5580063E 		rlwinm 0,12,0,0xff
 2967              		.loc 1 108 8 view .LVU943
 2968 0570 7C846050 		subf 4,4,12
 2969              		.loc 1 107 13 view .LVU944
 2970 0574 7CA50010 		subfc 5,5,0
 2971              	.LVL287:
 2972              		.loc 1 108 8 view .LVU945
 2973 0578 7D292050 		subf 9,9,4
 2974              	.LVL288:
 2975              		.loc 1 107 13 view .LVU946
 2976 057c 7CA52910 		subfe 5,5,5
 2977              		.loc 1 108 8 view .LVU947
 2978 0580 99230000 		stb 9,0(3)
 2979              		.loc 1 107 5 view .LVU948
 2980 0584 7D2500D0 		neg 9,5
 2981              	.LVL289:
 2982              		.loc 1 108 3 is_stmt 1 view .LVU949
 2983              		.loc 1 105 2 discriminator 3 view .LVU950
 2984              		.loc 1 105 20 discriminator 1 view .LVU951
 2985 0588 4200FFD0 		bdnz .L154
 2986              	.LVL290:
 2987              	.L156:
 2988              		.loc 1 105 20 is_stmt 0 discriminator 1 view .LVU952
 2989              	.LBE770:
 2990              	.LBE772:
 2991              		.loc 1 128 2 is_stmt 1 view .LVU953
 2992              	.LBB773:
 2993              	.LBI773:
 2994              		.loc 1 84 19 view .LVU954
 2995              	.LBB774:
 2996              		.loc 1 86 2 view .LVU955
 2997              		.loc 1 88 2 view .LVU956
 2998              		.loc 1 88 16 discriminator 1 view .LVU957
 2999              	.LBE774:
 3000              	.LBE773:
 3001              	.LBB776:
 3002              	.LBB771:
 3003              		.loc 1 104 4 is_stmt 0 view .LVU958
 3004 058c 7C95F050 		subf 4,21,30
 3005 0590 7EA5AB78 		mr 5,21
 3006 0594 39210207 		addi 9,1,519
 3007 0598 7C8903A6 		mtctr 4
 3008 059c 48000008 		b .L155
 3009              	.LVL291:
 3010              	.L219:
 3011              		.loc 1 104 4 view .LVU959
 3012              	.LBE771:
 3013              	.LBE776:
 3014              	.LBB777:
 3015              	.LBB775:
 3016              		.loc 1 88 16 discriminator 1 view .LVU960
 3017 05a0 42400018 		bdz .L170
 3018              	.LVL292:
 3019              	.L155:
 3020              		.loc 1 89 3 is_stmt 1 view .LVU961
 3021              		.loc 1 91 3 view .LVU962
 3022              		.loc 1 88 2 discriminator 2 view .LVU963
 3023              		.loc 1 89 3 is_stmt 0 view .LVU964
 3024 05a4 8C690001 		lbzu 3,1(9)
 3025              	.LVL293:
 3026              		.loc 1 88 16 is_stmt 1 discriminator 1 view .LVU965
 3027              		.loc 1 89 3 is_stmt 0 view .LVU966
 3028 05a8 8C850001 		lbzu 4,1(5)
 3029 05ac 7C032040 		cmplw 0,3,4
 3030 05b0 41A0FD4C 		blt- 0,.L149
 3031              		.loc 1 91 3 view .LVU967
 3032 05b4 4081FFEC 		ble+ 0,.L219
 3033              	.L170:
 3034 05b8 38A00100 		li 5,256
 3035 05bc 7FE3FB78 		mr 3,31
 3036 05c0 39200000 		li 9,0
 3037              	.LVL294:
 3038              		.loc 1 91 3 view .LVU968
 3039 05c4 7CA903A6 		mtctr 5
 3040              	.LVL295:
 3041              	.L158:
 3042              		.loc 1 91 3 view .LVU969
 3043              	.LBE775:
 3044              	.LBE777:
 3045              	.LBB778:
 3046              	.LBB779:
 3047              		.loc 1 106 3 is_stmt 1 view .LVU970
 3048              		.loc 1 106 12 is_stmt 0 view .LVU971
 3049 05c8 8C83FFFF 		lbzu 4,-1(3)
 3050              	.LVL296:
 3051              		.loc 1 107 3 is_stmt 1 view .LVU972
 3052              		.loc 1 106 16 is_stmt 0 view .LVU973
 3053 05cc 552B063E 		rlwinm 11,9,0,0xff
 3054              		.loc 1 107 11 view .LVU974
 3055 05d0 8C0AFFFF 		lbzu 0,-1(10)
 3056              		.loc 1 106 12 view .LVU975
 3057 05d4 5485063E 		rlwinm 5,4,0,0xff
 3058              		.loc 1 106 14 view .LVU976
 3059 05d8 7CA55A14 		add 5,5,11
 3060              	.LVL297:
 3061              		.loc 1 107 11 view .LVU977
 3062 05dc 540B063E 		rlwinm 11,0,0,0xff
 3063              		.loc 1 108 8 view .LVU978
 3064 05e0 7C840050 		subf 4,4,0
 3065              		.loc 1 107 13 view .LVU979
 3066 05e4 7CA55810 		subfc 5,5,11
 3067              	.LVL298:
 3068              		.loc 1 108 8 view .LVU980
 3069 05e8 7D292050 		subf 9,9,4
 3070              	.LVL299:
 3071              		.loc 1 107 13 view .LVU981
 3072 05ec 7CA52910 		subfe 5,5,5
 3073              		.loc 1 108 8 view .LVU982
 3074 05f0 992A0000 		stb 9,0(10)
 3075              		.loc 1 107 5 view .LVU983
 3076 05f4 7D2500D0 		neg 9,5
 3077              	.LVL300:
 3078              		.loc 1 108 3 is_stmt 1 view .LVU984
 3079              		.loc 1 105 2 discriminator 3 view .LVU985
 3080              		.loc 1 105 20 discriminator 1 view .LVU986
 3081 05f8 4200FFD0 		bdnz .L158
 3082 05fc 4BFFFD00 		b .L149
 3083              	.LVL301:
 3084              	.L168:
 3085              		.loc 1 105 20 is_stmt 0 discriminator 1 view .LVU987
 3086 0600 38800100 		li 4,256
 3087              	.LBE779:
 3088              	.LBE778:
 3089              	.LBE780:
 3090              	.LBE781:
 3091              	.LBB782:
 3092              	.LBB764:
 3093              	.LBB760:
 3094              	.LBB757:
 3095 0604 7E83A378 		mr 3,20
 3096 0608 7FF1FB78 		mr 17,31
 3097 060c 38A00000 		li 5,0
 3098              	.LVL302:
 3099              		.loc 1 105 20 discriminator 1 view .LVU988
 3100 0610 7C8903A6 		mtctr 4
 3101              	.LVL303:
 3102              	.L150:
 3103              		.loc 1 105 20 discriminator 1 view .LVU989
 3104              	.LBE757:
 3105              	.LBE760:
 3106              	.LBB761:
 3107              	.LBB762:
 3108              		.loc 1 106 3 is_stmt 1 view .LVU990
 3109              		.loc 1 106 12 is_stmt 0 view .LVU991
 3110 0614 8D71FFFF 		lbzu 11,-1(17)
 3111              	.LVL304:
 3112              		.loc 1 107 3 is_stmt 1 view .LVU992
 3113              		.loc 1 106 16 is_stmt 0 view .LVU993
 3114 0618 54A0063E 		rlwinm 0,5,0,0xff
 3115              		.loc 1 107 11 view .LVU994
 3116 061c 8D83FFFF 		lbzu 12,-1(3)
 3117              		.loc 1 106 12 view .LVU995
 3118 0620 5564063E 		rlwinm 4,11,0,0xff
 3119              		.loc 1 106 14 view .LVU996
 3120 0624 7C840214 		add 4,4,0
 3121              	.LVL305:
 3122              		.loc 1 107 11 view .LVU997
 3123 0628 5580063E 		rlwinm 0,12,0,0xff
 3124              		.loc 1 108 8 view .LVU998
 3125 062c 7D6B6050 		subf 11,11,12
 3126              		.loc 1 107 13 view .LVU999
 3127 0630 7C840010 		subfc 4,4,0
 3128              	.LVL306:
 3129              		.loc 1 108 8 view .LVU1000
 3130 0634 7CA55850 		subf 5,5,11
 3131              	.LVL307:
 3132              		.loc 1 107 13 view .LVU1001
 3133 0638 7C842110 		subfe 4,4,4
 3134              		.loc 1 108 8 view .LVU1002
 3135 063c 98A30000 		stb 5,0(3)
 3136              		.loc 1 107 5 view .LVU1003
 3137 0640 7CA400D0 		neg 5,4
 3138              	.LVL308:
 3139              		.loc 1 108 3 is_stmt 1 view .LVU1004
 3140              		.loc 1 105 2 discriminator 3 view .LVU1005
 3141              		.loc 1 105 20 discriminator 1 view .LVU1006
 3142 0644 4200FFD0 		bdnz .L150
 3143 0648 4BFFFCA4 		b .L146
 3144              	.LVL309:
 3145              	.L140:
 3146              		.loc 1 105 20 is_stmt 0 discriminator 1 view .LVU1007
 3147              	.LBE762:
 3148              	.LBE761:
 3149              	.LBE764:
 3150              	.LBE782:
 3151              	.LBE785:
 3152              	.LBE790:
 3153              		.loc 1 161 5 is_stmt 1 view .LVU1008
 3154              	.LBB791:
 3155              	.LBI791:
 3156              		.loc 1 79 20 view .LVU1009
 3157              	.LBB792:
 3158              		.loc 1 81 2 view .LVU1010
 3159              		.loc 1 81 8 is_stmt 0 view .LVU1011
 3160 064c 38810008 		addi 4,1,8
 3161              	.LVL310:
 3162              		.loc 1 81 8 view .LVU1012
 3163 0650 38610208 		addi 3,1,520
 3164              	.LVL311:
 3165              		.loc 1 81 8 view .LVU1013
 3166 0654 48000001 		bl memcpy
 3167              	.LVL312:
 3168              		.loc 1 81 8 view .LVU1014
 3169              	.LBE792:
 3170              	.LBE791:
 3171              		.loc 1 156 3 is_stmt 1 discriminator 2 view .LVU1015
 3172              		.loc 1 156 26 is_stmt 0 discriminator 1 view .LVU1016
 3173 0658 3739FFFF 		addic. 25,25,-1
 3174              		.loc 1 156 37 discriminator 2 view .LVU1017
 3175 065c 579CFE7E 		rlwinm 28,28,31,25,31
 3176              	.LVL313:
 3177              		.loc 1 156 26 is_stmt 1 discriminator 1 view .LVU1018
 3178 0660 4082FA98 		bne+ 0,.L160
 3179 0664 4BFFFCB8 		b .L220
 3180              	.LBE798:
 3181              	.LBE804:
 3182              		.cfi_endproc
 3183              	.LFE1450:
 3184              		.size	_ZL9check_rsaPKhS0_S0_j.constprop.1, .-_ZL9check_rsaPKhS0_S0_j.constprop.1
 3185              		.section	.rodata._ZL16load_module_codePhS_.str1.4,"aMS",@progbits,1
 3186              		.align 2
 3187              	.LC3:
 3188 0000 2F646576 		.string	"/dev/es"
 3188      2F657300 
 3189              		.section	.text._ZL16load_module_codePhS_,"ax",@progbits
 3190              		.align 2
 3191              		.type	_ZL16load_module_codePhS_, @function
 3192              	_ZL16load_module_codePhS_:
 3193              	.LVL314:
 3194              	.LFB1381:
 3195              		.loc 1 1273 1 view -0
 3196              		.cfi_startproc
 3197              		.loc 1 1274 2 view .LVU1020
 3198              		.loc 1 1275 2 view .LVU1021
 3199              		.loc 1 1276 2 view .LVU1022
 3200              		.loc 1 1277 2 view .LVU1023
 3201              		.loc 1 1278 2 view .LVU1024
 3202              		.loc 1 1279 2 view .LVU1025
 3203              		.loc 1 1280 2 view .LVU1026
 3204              		.loc 1 1281 2 view .LVU1027
 3205              		.loc 1 1282 2 view .LVU1028
 3206              		.loc 1 1273 1 is_stmt 0 view .LVU1029
 3207 0000 9421FF28 		stwu 1,-216(1)
 3208              		.cfi_def_cfa_offset 216
 3209 0004 93C100D0 		stw 30,208(1)
 3210              		.cfi_offset 30, -8
 3211              		.loc 1 1282 6 view .LVU1030
 3212 0008 7FC32050 		subf 30,3,4
 3213              	.LVL315:
 3214              		.loc 1 1283 2 is_stmt 1 view .LVU1031
 3215              		.loc 1 1285 2 view .LVU1032
 3216 000c 2C1E000F 		cmpwi 0,30,15
 3217              		.loc 1 1273 1 is_stmt 0 view .LVU1033
 3218 0010 936100C4 		stw 27,196(1)
 3219              		.cfi_offset 27, -20
 3220              		.loc 1 1285 2 view .LVU1034
 3221 0014 40810404 		ble- 0,.L223
 3222 0018 7C0802A6 		mflr 0
 3223              		.cfi_register 65, 0
 3224 001c 93E100D4 		stw 31,212(1)
 3225              		.cfi_offset 31, -4
 3226 0020 900100DC 		stw 0,220(1)
 3227              		.cfi_offset 65, 4
 3228              		.loc 1 1288 12 view .LVU1035
 3229 0024 3D207F45 		lis 9,0x7f45
 3230 0028 93A100CC 		stw 29,204(1)
 3231              		.cfi_offset 29, -12
 3232 002c 61294C46 		ori 9,9,0x4c46
 3233 0030 7C7F1B78 		mr 31,3
 3234              		.loc 1 1288 2 is_stmt 1 view .LVU1036
 3235              		.loc 1 1288 12 is_stmt 0 view .LVU1037
 3236 0034 81430000 		lwz 10,0(3)
 3237 0038 7C0A4800 		cmpw 0,10,9
 3238 003c 418202C8 		beq- 0,.L302
 3239              	.L224:
 3240              		.loc 1 1289 3 is_stmt 1 view .LVU1038
 3241              		.loc 1 1289 22 is_stmt 0 view .LVU1039
 3242 0040 389E0020 		addi 4,30,32
 3243              	.LVL316:
 3244              		.loc 1 1289 22 view .LVU1040
 3245 0044 38600020 		li 3,32
 3246              	.LVL317:
 3247              		.loc 1 1289 22 view .LVU1041
 3248 0048 48000001 		bl memalign
 3249              	.LVL318:
 3250              		.loc 1 1290 3 is_stmt 1 view .LVU1042
 3251 004c 7C7D1B79 		mr. 29,3
 3252 0050 418203B8 		beq- 0,.L297
 3253              		.loc 1 1292 9 is_stmt 0 view .LVU1043
 3254 0054 39610048 		addi 11,1,72
 3255 0058 938100C8 		stw 28,200(1)
 3256              		.cfi_offset 28, -16
 3257              		.loc 1 1292 3 is_stmt 1 view .LVU1044
 3258              		.loc 1 1293 9 is_stmt 0 view .LVU1045
 3259 005c 3F800000 		lis 28,.LANCHOR0@ha
 3260              		.loc 1 1292 9 view .LVU1046
 3261 0060 7D635B78 		mr 3,11
 3262              	.LVL319:
 3263              		.loc 1 1293 9 view .LVU1047
 3264 0064 3B9C0000 		la 28,.LANCHOR0@l(28)
 3265              		.loc 1 1292 9 view .LVU1048
 3266 0068 388000FF 		li 4,255
 3267 006c 38A00020 		li 5,32
 3268 0070 92A100AC 		stw 21,172(1)
 3269              		.cfi_offset 21, -44
 3270 0074 92C100B0 		stw 22,176(1)
 3271              		.cfi_offset 22, -40
 3272 0078 92E100B4 		stw 23,180(1)
 3273              		.cfi_offset 23, -36
 3274 007c 930100B8 		stw 24,184(1)
 3275              		.cfi_offset 24, -32
 3276 0080 932100BC 		stw 25,188(1)
 3277              		.cfi_offset 25, -28
 3278 0084 934100C0 		stw 26,192(1)
 3279              		.cfi_offset 26, -24
 3280 0088 48000001 		bl memset
 3281              	.LVL320:
 3282              		.loc 1 1293 9 view .LVU1049
 3283 008c A15C0018 		lhz 10,24(28)
 3284 0090 39200000 		li 9,0
 3285 0094 80FC0010 		lwz 7,16(28)
 3286              		.loc 1 1292 9 view .LVU1050
 3287 0098 7C6B1B78 		mr 11,3
 3288              		.loc 1 1293 3 is_stmt 1 view .LVU1051
 3289              		.loc 1 1293 9 is_stmt 0 view .LVU1052
 3290 009c 811C0014 		lwz 8,20(28)
 3291 00a0 39810007 		addi 12,1,7
 3292 00a4 90FD0000 		stw 7,0(29)
 3293 00a8 38810027 		addi 4,1,39
 3294 00ac 911D0004 		stw 8,4(29)
 3295 00b0 B15D0008 		sth 10,8(29)
 3296 00b4 913D000A 		stw 9,10(29)
 3297 00b8 B13D000E 		sth 9,14(29)
 3298              		.loc 1 1294 3 is_stmt 1 view .LVU1053
 3299              		.loc 1 1295 9 is_stmt 0 view .LVU1054
 3300 00bc 91210008 		stw 9,8(1)
 3301              		.loc 1 1294 9 view .LVU1055
 3302 00c0 815F0000 		lwz 10,0(31)
 3303              		.loc 1 1295 9 view .LVU1056
 3304 00c4 9121000C 		stw 9,12(1)
 3305              		.loc 1 1294 9 view .LVU1057
 3306 00c8 91410018 		stw 10,24(1)
 3307 00cc 815F0004 		lwz 10,4(31)
 3308              		.loc 1 1295 9 view .LVU1058
 3309 00d0 91210010 		stw 9,16(1)
 3310              		.loc 1 1294 9 view .LVU1059
 3311 00d4 9141001C 		stw 10,28(1)
 3312 00d8 815F0008 		lwz 10,8(31)
 3313              		.loc 1 1295 9 view .LVU1060
 3314 00dc 91210014 		stw 9,20(1)
 3315              		.loc 1 1294 9 view .LVU1061
 3316 00e0 91410020 		stw 10,32(1)
 3317 00e4 815F000C 		lwz 10,12(31)
 3318              	.LBB835:
 3319              	.LBB836:
 3320              	.LBB837:
 3321              	.LBB838:
 3322              		.loc 1 76 8 view .LVU1062
 3323 00e8 91210028 		stw 9,40(1)
 3324 00ec 9121002C 		stw 9,44(1)
 3325 00f0 91210030 		stw 9,48(1)
 3326 00f4 91210034 		stw 9,52(1)
 3327              	.LBE838:
 3328              	.LBE837:
 3329              	.LBE836:
 3330              	.LBE835:
 3331              		.loc 1 1294 9 view .LVU1063
 3332 00f8 91410024 		stw 10,36(1)
 3333              		.loc 1 1295 3 is_stmt 1 view .LVU1064
 3334              		.loc 1 1296 3 view .LVU1065
 3335              	.LVL321:
 3336              	.LBB878:
 3337              	.LBI835:
 3338              		.loc 1 132 13 view .LVU1066
 3339              	.LBB875:
 3340              		.loc 1 134 2 view .LVU1067
 3341              		.loc 1 135 2 view .LVU1068
 3342              		.loc 1 137 2 view .LVU1069
 3343              	.LBB840:
 3344              	.LBI837:
 3345              		.loc 1 74 20 view .LVU1070
 3346              	.LBB839:
 3347              		.loc 1 76 2 view .LVU1071
 3348              		.loc 1 76 8 is_stmt 0 view .LVU1072
 3349 00fc 91210038 		stw 9,56(1)
 3350 0100 9121003C 		stw 9,60(1)
 3351 0104 91210040 		stw 9,64(1)
 3352 0108 91210044 		stw 9,68(1)
 3353              	.LVL322:
 3354              		.loc 1 76 8 view .LVU1073
 3355              	.LBE839:
 3356              	.LBE840:
 3357              		.loc 1 139 2 is_stmt 1 view .LVU1074
 3358              		.loc 1 139 16 discriminator 1 view .LVU1075
 3359              	.L229:
 3360              		.loc 1 140 26 discriminator 1 view .LVU1076
 3361              		.loc 1 142 12 is_stmt 0 view .LVU1077
 3362 010c 8C0C0001 		lbzu 0,1(12)
 3363              	.LVL323:
 3364              		.loc 1 142 12 view .LVU1078
 3365 0110 38600008 		li 3,8
 3366              		.loc 1 140 13 view .LVU1079
 3367 0114 38A0FF80 		li 5,-128
 3368              	.LVL324:
 3369              	.L240:
 3370              	.LBB841:
 3371              	.LBB842:
 3372              		.loc 1 119 20 is_stmt 1 discriminator 1 view .LVU1080
 3373              		.loc 1 118 4 is_stmt 0 view .LVU1081
 3374 0118 39200020 		li 9,32
 3375 011c 7D665B78 		mr 6,11
 3376              	.LBE842:
 3377              	.LBE841:
 3378              	.LBE875:
 3379              	.LBE878:
 3380              		.loc 1 1273 1 view .LVU1082
 3381 0120 7D675B78 		mr 7,11
 3382              	.LBB879:
 3383              	.LBB876:
 3384              	.LBB861:
 3385              	.LBB859:
 3386              		.loc 1 118 4 view .LVU1083
 3387 0124 39400000 		li 10,0
 3388 0128 7D2903A6 		mtctr 9
 3389              	.LVL325:
 3390              	.L230:
 3391              		.loc 1 120 3 is_stmt 1 view .LVU1084
 3392              		.loc 1 120 12 is_stmt 0 view .LVU1085
 3393 012c 8927FFFF 		lbz 9,-1(7)
 3394              		.loc 1 120 23 view .LVU1086
 3395 0130 554A063E 		rlwinm 10,10,0,0xff
 3396              		.loc 1 120 23 view .LVU1087
 3397 0134 7CE83B78 		mr 8,7
 3398              		.loc 1 120 12 view .LVU1088
 3399 0138 38E7FFFF 		addi 7,7,-1
 3400              	.LVL326:
 3401              		.loc 1 120 14 view .LVU1089
 3402 013c 5529083C 		slwi 9,9,1
 3403              		.loc 1 120 21 view .LVU1090
 3404 0140 7D295214 		add 9,9,10
 3405              	.LVL327:
 3406              		.loc 1 121 3 is_stmt 1 view .LVU1091
 3407              		.loc 1 121 12 is_stmt 0 view .LVU1092
 3408 0144 214900FF 		subfic 10,9,255
 3409              	.LVL328:
 3410              		.loc 1 122 8 view .LVU1093
 3411 0148 9928FFFF 		stb 9,-1(8)
 3412              		.loc 1 121 12 view .LVU1094
 3413 014c 7D4A5110 		subfe 10,10,10
 3414 0150 7D4A00D0 		neg 10,10
 3415              	.LVL329:
 3416              		.loc 1 122 3 is_stmt 1 view .LVU1095
 3417              		.loc 1 119 2 discriminator 3 view .LVU1096
 3418              		.loc 1 119 20 discriminator 1 view .LVU1097
 3419 0154 4200FFD8 		bdnz .L230
 3420              		.loc 1 125 2 view .LVU1098
 3421 0158 280900FF 		cmplwi 0,9,255
 3422 015c 4081004C 		ble- 0,.L234
 3423              	.LBB843:
 3424              	.LBB844:
 3425              		.loc 1 104 4 is_stmt 0 view .LVU1099
 3426 0160 39400020 		li 10,32
 3427              	.LVL330:
 3428              		.loc 1 104 4 view .LVU1100
 3429 0164 3B010068 		addi 24,1,104
 3430              	.LBE844:
 3431              	.LBE843:
 3432              		.loc 1 125 2 view .LVU1101
 3433 0168 7D7B5B78 		mr 27,11
 3434              	.LBB848:
 3435              	.LBB845:
 3436              		.loc 1 104 4 view .LVU1102
 3437 016c 39200000 		li 9,0
 3438              	.LVL331:
 3439              		.loc 1 104 4 view .LVU1103
 3440 0170 7D4903A6 		mtctr 10
 3441              	.LVL332:
 3442              	.L233:
 3443              		.loc 1 106 3 is_stmt 1 view .LVU1104
 3444              		.loc 1 106 12 is_stmt 0 view .LVU1105
 3445 0174 8CF8FFFF 		lbzu 7,-1(24)
 3446              	.LVL333:
 3447              		.loc 1 107 3 is_stmt 1 view .LVU1106
 3448              		.loc 1 106 16 is_stmt 0 view .LVU1107
 3449 0178 553A063E 		rlwinm 26,9,0,0xff
 3450              		.loc 1 107 11 view .LVU1108
 3451 017c 8F3BFFFF 		lbzu 25,-1(27)
 3452              		.loc 1 106 12 view .LVU1109
 3453 0180 54EA063E 		rlwinm 10,7,0,0xff
 3454              		.loc 1 106 14 view .LVU1110
 3455 0184 7D4AD214 		add 10,10,26
 3456              	.LVL334:
 3457              		.loc 1 107 11 view .LVU1111
 3458 0188 573A063E 		rlwinm 26,25,0,0xff
 3459              		.loc 1 108 8 view .LVU1112
 3460 018c 7CE7C850 		subf 7,7,25
 3461              		.loc 1 107 13 view .LVU1113
 3462 0190 7D4AD010 		subfc 10,10,26
 3463              	.LVL335:
 3464              		.loc 1 108 8 view .LVU1114
 3465 0194 7D293850 		subf 9,9,7
 3466              	.LVL336:
 3467              		.loc 1 107 13 view .LVU1115
 3468 0198 7D4A5110 		subfe 10,10,10
 3469              		.loc 1 108 8 view .LVU1116
 3470 019c 993B0000 		stb 9,0(27)
 3471              		.loc 1 107 5 view .LVU1117
 3472 01a0 7D2A00D0 		neg 9,10
 3473              	.LVL337:
 3474              		.loc 1 108 3 is_stmt 1 view .LVU1118
 3475              		.loc 1 105 2 discriminator 3 view .LVU1119
 3476              		.loc 1 105 20 discriminator 1 view .LVU1120
 3477 01a4 4200FFD0 		bdnz .L233
 3478              	.LVL338:
 3479              	.L234:
 3480              		.loc 1 105 20 is_stmt 0 discriminator 1 view .LVU1121
 3481              	.LBE845:
 3482              	.LBE848:
 3483              		.loc 1 128 2 is_stmt 1 view .LVU1122
 3484              	.LBB849:
 3485              	.LBI849:
 3486              		.loc 1 84 19 view .LVU1123
 3487              	.LBB850:
 3488              		.loc 1 86 2 view .LVU1124
 3489              		.loc 1 88 2 view .LVU1125
 3490              		.loc 1 88 16 discriminator 1 view .LVU1126
 3491 01a8 3B48001E 		addi 26,8,30
 3492 01ac 3B210047 		addi 25,1,71
 3493              	.LBE850:
 3494              	.LBE849:
 3495              	.LBB852:
 3496              	.LBB846:
 3497              		.loc 1 104 4 is_stmt 0 view .LVU1127
 3498 01b0 7D24D050 		subf 9,4,26
 3499 01b4 7C982378 		mr 24,4
 3500 01b8 7D2903A6 		mtctr 9
 3501 01bc 7F2ACB78 		mr 10,25
 3502 01c0 7C892378 		mr 9,4
 3503 01c4 4800000C 		b .L232
 3504              	.LVL339:
 3505              	.L303:
 3506              		.loc 1 104 4 view .LVU1128
 3507              	.LBE846:
 3508              	.LBE852:
 3509              	.LBB853:
 3510              	.LBB851:
 3511              		.loc 1 91 3 view .LVU1129
 3512 01c8 41810258 		bgt- 0,.L236
 3513              		.loc 1 88 16 discriminator 1 view .LVU1130
 3514 01cc 42400254 		bdz .L236
 3515              	.LVL340:
 3516              	.L232:
 3517              		.loc 1 89 3 is_stmt 1 view .LVU1131
 3518              		.loc 1 91 3 view .LVU1132
 3519              		.loc 1 88 2 discriminator 2 view .LVU1133
 3520              		.loc 1 89 3 is_stmt 0 view .LVU1134
 3521 01d0 8F690001 		lbzu 27,1(9)
 3522              	.LVL341:
 3523              		.loc 1 88 16 is_stmt 1 discriminator 1 view .LVU1135
 3524              		.loc 1 89 3 is_stmt 0 view .LVU1136
 3525 01d4 8CEA0001 		lbzu 7,1(10)
 3526 01d8 7C1B3840 		cmplw 0,27,7
 3527 01dc 4080FFEC 		bge+ 0,.L303
 3528              	.LVL342:
 3529              		.loc 1 89 3 view .LVU1137
 3530              	.LBE851:
 3531              	.LBE853:
 3532              	.LBE859:
 3533              	.LBE861:
 3534              		.loc 1 142 4 is_stmt 1 view .LVU1138
 3535              		.loc 1 142 14 is_stmt 0 view .LVU1139
 3536 01e0 7C092838 		and 9,0,5
 3537              		.loc 1 142 4 view .LVU1140
 3538 01e4 5529063E 		rlwinm 9,9,0,0xff
 3539 01e8 2C090000 		cmpwi 0,9,0
 3540 01ec 4082028C 		bne- 0,.L304
 3541              	.L238:
 3542              		.loc 1 140 3 is_stmt 1 discriminator 2 view .LVU1141
 3543              		.loc 1 140 26 is_stmt 0 discriminator 1 view .LVU1142
 3544 01f0 3463FFFF 		addic. 3,3,-1
 3545              		.loc 1 140 37 discriminator 2 view .LVU1143
 3546 01f4 54A5FE7E 		rlwinm 5,5,31,25,31
 3547              	.LVL343:
 3548              		.loc 1 140 26 is_stmt 1 discriminator 1 view .LVU1144
 3549 01f8 4082FF20 		bne+ 0,.L240
 3550              		.loc 1 139 2 discriminator 2 view .LVU1145
 3551              	.LVL344:
 3552              		.loc 1 139 16 discriminator 1 view .LVU1146
 3553 01fc 7C046040 		cmplw 0,4,12
 3554 0200 4082FF0C 		bne+ 0,.L229
 3555              	.LVL345:
 3556              		.loc 1 139 16 is_stmt 0 discriminator 1 view .LVU1147
 3557              	.LBE876:
 3558              	.LBE879:
 3559              		.loc 1 1297 18 is_stmt 1 view .LVU1148
 3560              		.loc 1 1298 3 view .LVU1149
 3561              		.loc 1 1298 15 discriminator 1 view .LVU1150
 3562              		.loc 1 1300 15 view .LVU1151
 3563              		.loc 1 1301 3 view .LVU1152
 3564              		.loc 1 1301 12 is_stmt 0 view .LVU1153
 3565 0204 48000001 		bl gentables
 3566              	.LVL346:
 3567              		.loc 1 1302 3 is_stmt 1 view .LVU1154
 3568              		.loc 1 1302 7 is_stmt 0 view .LVU1155
 3569 0208 38A10028 		addi 5,1,40
 3570 020c 38800008 		li 4,8
 3571 0210 38600004 		li 3,4
 3572 0214 48000001 		bl gkey
 3573              	.LVL347:
 3574              		.loc 1 1303 3 is_stmt 1 view .LVU1156
 3575              		.loc 1 1303 64 is_stmt 0 view .LVU1157
 3576 0218 391EFFF0 		addi 8,30,-16
 3577              		.loc 1 1303 14 view .LVU1158
 3578 021c 38BD0010 		addi 5,29,16
 3579 0220 7D07FE70 		srawi 7,8,31
 3580 0224 389F0010 		addi 4,31,16
 3581 0228 38610038 		addi 3,1,56
 3582 022c 48000001 		bl aes_decrypt
 3583              	.LVL348:
 3584              		.loc 1 1307 2 is_stmt 1 view .LVU1159
 3585              		.loc 1 1307 18 is_stmt 0 view .LVU1160
 3586 0230 3C600000 		lis 3,.LC3@ha
 3587 0234 38630000 		la 3,.LC3@l(3)
 3588 0238 38800000 		li 4,0
 3589 023c 48000001 		bl IOS_Open
 3590              	.LVL349:
 3591              		.loc 1 1308 2 is_stmt 1 view .LVU1161
 3592 0240 7C791B79 		mr. 25,3
 3593 0244 41800198 		blt- 0,.L301
 3594              		.loc 1 1314 2 view .LVU1162
 3595              		.loc 1 1315 17 is_stmt 0 view .LVU1163
 3596 0248 3F400000 		lis 26,_ZL16LOAD_MODULE_PATH@ha
 3597              		.loc 1 1314 17 view .LVU1164
 3598 024c 48000001 		bl ISFS_Initialize
 3599              	.LVL350:
 3600              		.loc 1 1315 2 is_stmt 1 view .LVU1165
 3601              		.loc 1 1315 17 is_stmt 0 view .LVU1166
 3602 0250 3B5A0000 		la 26,_ZL16LOAD_MODULE_PATH@l(26)
 3603 0254 38E00001 		li 7,1
 3604 0258 38C00001 		li 6,1
 3605 025c 38A00003 		li 5,3
 3606 0260 38800000 		li 4,0
 3607 0264 7F43D378 		mr 3,26
 3608 0268 48000001 		bl ISFS_CreateFile
 3609              	.LVL351:
 3610              		.loc 1 1316 2 is_stmt 1 view .LVU1167
 3611              		.loc 1 1316 15 is_stmt 0 view .LVU1168
 3612 026c 38800002 		li 4,2
 3613 0270 7F43D378 		mr 3,26
 3614 0274 48000001 		bl IOS_Open
 3615              	.LVL352:
 3616              		.loc 1 1317 2 is_stmt 1 view .LVU1169
 3617 0278 7C7B1B79 		mr. 27,3
 3618 027c 41800150 		blt- 0,.L305
 3619              		.loc 1 1328 2 view .LVU1170
 3620              		.loc 1 1328 21 is_stmt 0 view .LVU1171
 3621 0280 7FC5F378 		mr 5,30
 3622 0284 7FA4EB78 		mr 4,29
 3623 0288 48000001 		bl IOS_Write
 3624              	.LVL353:
 3625              		.loc 1 1328 21 view .LVU1172
 3626 028c 7C781B78 		mr 24,3
 3627              		.loc 1 1329 11 view .LVU1173
 3628 0290 7F63DB78 		mr 3,27
 3629              	.LVL354:
 3630              		.loc 1 1329 2 is_stmt 1 view .LVU1174
 3631              		.loc 1 1329 11 is_stmt 0 view .LVU1175
 3632 0294 48000001 		bl IOS_Close
 3633              	.LVL355:
 3634              		.loc 1 1330 2 is_stmt 1 view .LVU1176
 3635              		.loc 1 1331 2 view .LVU1177
 3636 0298 7C1EC000 		cmpw 0,30,24
 3637 029c 82A100AC 		lwz 21,172(1)
 3638              		.cfi_restore 21
 3639              		.loc 1 1330 5 is_stmt 0 view .LVU1178
 3640 02a0 3B600000 		li 27,0
 3641 02a4 82C100B0 		lwz 22,176(1)
 3642              		.cfi_restore 22
 3643 02a8 82E100B4 		lwz 23,180(1)
 3644              		.cfi_restore 23
 3645 02ac 830100B8 		lwz 24,184(1)
 3646              		.cfi_restore 24
 3647              	.LVL356:
 3648              		.loc 1 1331 2 view .LVU1179
 3649 02b0 408102D0 		ble- 0,.L262
 3650              	.LVL357:
 3651              	.L252:
 3652              		.loc 1 1334 2 is_stmt 1 view .LVU1180
 3653              		.loc 1 1334 11 is_stmt 0 view .LVU1181
 3654 02b4 7F23CB78 		mr 3,25
 3655 02b8 48000001 		bl IOS_Close
 3656              	.LVL358:
 3657              		.loc 1 1335 2 is_stmt 1 view .LVU1182
 3658              		.loc 1 1335 13 is_stmt 0 view .LVU1183
 3659 02bc 7F43D378 		mr 3,26
 3660 02c0 48000001 		bl ISFS_Delete
 3661              	.LVL359:
 3662              		.loc 1 1336 2 is_stmt 1 view .LVU1184
 3663 02c4 7C1FE840 		cmplw 0,31,29
 3664 02c8 4182000C 		beq- 0,.L296
 3665              		.loc 1 1337 3 view .LVU1185
 3666              		.loc 1 1337 7 is_stmt 0 view .LVU1186
 3667 02cc 7FA3EB78 		mr 3,29
 3668 02d0 48000001 		bl free
 3669              	.LVL360:
 3670              	.L296:
 3671              		.loc 1 1337 7 view .LVU1187
 3672 02d4 800100DC 		lwz 0,220(1)
 3673 02d8 832100BC 		lwz 25,188(1)
 3674              		.cfi_restore 25
 3675              	.LVL361:
 3676              		.loc 1 1337 7 view .LVU1188
 3677 02dc 834100C0 		lwz 26,192(1)
 3678              		.cfi_restore 26
 3679 02e0 7C0803A6 		mtlr 0
 3680              		.cfi_restore 65
 3681 02e4 838100C8 		lwz 28,200(1)
 3682              		.cfi_restore 28
 3683 02e8 83A100CC 		lwz 29,204(1)
 3684              		.cfi_restore 29
 3685 02ec 83E100D4 		lwz 31,212(1)
 3686              		.cfi_restore 31
 3687              	.LVL362:
 3688              	.L221:
 3689              		.loc 1 1339 1 view .LVU1189
 3690 02f0 7F63DB78 		mr 3,27
 3691 02f4 83C100D0 		lwz 30,208(1)
 3692 02f8 836100C4 		lwz 27,196(1)
 3693 02fc 382100D8 		addi 1,1,216
 3694              		.cfi_restore 30
 3695              		.cfi_restore 27
 3696              		.cfi_def_cfa_offset 0
 3697 0300 4E800020 		blr
 3698              	.LVL363:
 3699              	.L302:
 3700              		.cfi_def_cfa_offset 216
 3701              		.cfi_offset 27, -20
 3702              		.cfi_offset 29, -12
 3703              		.cfi_offset 30, -8
 3704              		.cfi_offset 31, -4
 3705              		.cfi_offset 65, 4
 3706              		.loc 1 1288 12 view .LVU1190
 3707 0304 81430004 		lwz 10,4(3)
 3708 0308 3D200102 		lis 9,0x102
 3709 030c 61290161 		ori 9,9,0x161
 3710 0310 7C0A4800 		cmpw 0,10,9
 3711 0314 4082FD2C 		bne+ 0,.L224
 3712 0318 81430008 		lwz 10,8(3)
 3713 031c 3D200100 		lis 9,0x100
 3714 0320 7C0A4800 		cmpw 0,10,9
 3715 0324 4082FD1C 		bne+ 0,.L224
 3716 0328 8123000C 		lwz 9,12(3)
 3717 032c 2C090000 		cmpwi 0,9,0
 3718 0330 40A2FD10 		bne- 0,.L224
 3719              		.loc 1 1307 18 view .LVU1191
 3720 0334 3C600000 		lis 3,.LC3@ha
 3721              	.LVL364:
 3722              		.loc 1 1307 18 view .LVU1192
 3723 0338 38800000 		li 4,0
 3724              	.LVL365:
 3725              		.loc 1 1307 18 view .LVU1193
 3726 033c 38630000 		la 3,.LC3@l(3)
 3727 0340 932100BC 		stw 25,188(1)
 3728              		.cfi_offset 25, -28
 3729 0344 934100C0 		stw 26,192(1)
 3730              		.cfi_offset 26, -24
 3731              		.loc 1 1288 12 view .LVU1194
 3732 0348 3B600000 		li 27,0
 3733              	.LVL366:
 3734              		.loc 1 1307 2 is_stmt 1 view .LVU1195
 3735 034c 938100C8 		stw 28,200(1)
 3736              		.cfi_offset 28, -16
 3737              		.loc 1 1307 18 is_stmt 0 view .LVU1196
 3738 0350 48000001 		bl IOS_Open
 3739              	.LVL367:
 3740              		.loc 1 1308 2 is_stmt 1 view .LVU1197
 3741 0354 7C791B79 		mr. 25,3
 3742 0358 418000A4 		blt- 0,.L298
 3743              		.loc 1 1314 2 view .LVU1198
 3744              		.loc 1 1315 17 is_stmt 0 view .LVU1199
 3745 035c 3F400000 		lis 26,_ZL16LOAD_MODULE_PATH@ha
 3746              		.loc 1 1314 17 view .LVU1200
 3747 0360 48000001 		bl ISFS_Initialize
 3748              	.LVL368:
 3749              		.loc 1 1315 2 is_stmt 1 view .LVU1201
 3750              		.loc 1 1315 17 is_stmt 0 view .LVU1202
 3751 0364 3B5A0000 		la 26,_ZL16LOAD_MODULE_PATH@l(26)
 3752 0368 38E00001 		li 7,1
 3753 036c 38C00001 		li 6,1
 3754 0370 38A00003 		li 5,3
 3755 0374 38800000 		li 4,0
 3756 0378 7F43D378 		mr 3,26
 3757 037c 48000001 		bl ISFS_CreateFile
 3758              	.LVL369:
 3759              		.loc 1 1316 2 is_stmt 1 view .LVU1203
 3760              		.loc 1 1316 15 is_stmt 0 view .LVU1204
 3761 0380 38800002 		li 4,2
 3762 0384 7F43D378 		mr 3,26
 3763 0388 48000001 		bl IOS_Open
 3764              	.LVL370:
 3765              		.loc 1 1317 2 is_stmt 1 view .LVU1205
 3766 038c 7C7D1B79 		mr. 29,3
 3767 0390 41800334 		blt- 0,.L306
 3768              		.loc 1 1328 2 view .LVU1206
 3769              		.loc 1 1328 21 is_stmt 0 view .LVU1207
 3770 0394 7FC5F378 		mr 5,30
 3771 0398 7FE4FB78 		mr 4,31
 3772 039c 48000001 		bl IOS_Write
 3773              	.LVL371:
 3774              		.loc 1 1328 21 view .LVU1208
 3775 03a0 7C691B78 		mr 9,3
 3776              		.loc 1 1329 11 view .LVU1209
 3777 03a4 7FA3EB78 		mr 3,29
 3778              		.loc 1 1328 21 view .LVU1210
 3779 03a8 7D3D4B78 		mr 29,9
 3780              	.LVL372:
 3781              		.loc 1 1329 2 is_stmt 1 view .LVU1211
 3782              		.loc 1 1329 11 is_stmt 0 view .LVU1212
 3783 03ac 48000001 		bl IOS_Close
 3784              	.LVL373:
 3785              		.loc 1 1330 2 is_stmt 1 view .LVU1213
 3786              		.loc 1 1331 2 view .LVU1214
 3787 03b0 7C1EE800 		cmpw 0,30,29
 3788 03b4 408101C0 		ble- 0,.L307
 3789              		.loc 1 1334 2 view .LVU1215
 3790              		.loc 1 1334 11 is_stmt 0 view .LVU1216
 3791 03b8 7F23CB78 		mr 3,25
 3792 03bc 48000001 		bl IOS_Close
 3793              	.LVL374:
 3794              		.loc 1 1335 2 is_stmt 1 view .LVU1217
 3795              		.loc 1 1335 13 is_stmt 0 view .LVU1218
 3796 03c0 7F43D378 		mr 3,26
 3797 03c4 48000001 		bl ISFS_Delete
 3798              	.LVL375:
 3799              		.loc 1 1336 2 is_stmt 1 view .LVU1219
 3800 03c8 4BFFFF0C 		b .L296
 3801              	.LVL376:
 3802              	.L305:
 3803              		.cfi_offset 21, -44
 3804              		.cfi_offset 22, -40
 3805              		.cfi_offset 23, -36
 3806              		.cfi_offset 24, -32
 3807              		.loc 1 1319 3 view .LVU1220
 3808              		.loc 1 1319 14 is_stmt 0 view .LVU1221
 3809 03cc 7F43D378 		mr 3,26
 3810              	.LVL377:
 3811              		.loc 1 1319 14 view .LVU1222
 3812 03d0 48000001 		bl ISFS_Delete
 3813              	.LVL378:
 3814              		.loc 1 1320 3 is_stmt 1 view .LVU1223
 3815              		.loc 1 1320 12 is_stmt 0 view .LVU1224
 3816 03d4 7F23CB78 		mr 3,25
 3817 03d8 48000001 		bl IOS_Close
 3818              	.LVL379:
 3819              	.L301:
 3820              		.loc 1 1321 3 is_stmt 1 view .LVU1225
 3821 03dc 7C1FE840 		cmplw 0,31,29
 3822 03e0 4182000C 		beq- 0,.L294
 3823              		.loc 1 1322 4 view .LVU1226
 3824              		.loc 1 1322 8 is_stmt 0 view .LVU1227
 3825 03e4 7FA3EB78 		mr 3,29
 3826 03e8 48000001 		bl free
 3827              	.LVL380:
 3828              	.L294:
 3829 03ec 82A100AC 		lwz 21,172(1)
 3830              		.cfi_restore 21
 3831 03f0 82C100B0 		lwz 22,176(1)
 3832              		.cfi_restore 22
 3833 03f4 82E100B4 		lwz 23,180(1)
 3834              		.cfi_restore 23
 3835 03f8 830100B8 		lwz 24,184(1)
 3836              		.cfi_restore 24
 3837              	.LVL381:
 3838              	.L298:
 3839              		.loc 1 1322 8 view .LVU1228
 3840 03fc 832100BC 		lwz 25,188(1)
 3841              		.cfi_restore 25
 3842              	.LVL382:
 3843              		.loc 1 1322 8 view .LVU1229
 3844 0400 834100C0 		lwz 26,192(1)
 3845              		.cfi_restore 26
 3846 0404 838100C8 		lwz 28,200(1)
 3847              		.cfi_restore 28
 3848              	.LVL383:
 3849              	.L297:
 3850              		.loc 1 1322 8 view .LVU1230
 3851 0408 800100DC 		lwz 0,220(1)
 3852 040c 83A100CC 		lwz 29,204(1)
 3853              		.cfi_restore 29
 3854 0410 83E100D4 		lwz 31,212(1)
 3855              		.cfi_restore 31
 3856              	.LVL384:
 3857              		.loc 1 1322 8 view .LVU1231
 3858 0414 7C0803A6 		mtlr 0
 3859              		.cfi_restore 65
 3860              	.L223:
 3861              		.loc 1 1286 10 view .LVU1232
 3862 0418 3B600000 		li 27,0
 3863 041c 4BFFFED4 		b .L221
 3864              	.LVL385:
 3865              	.L236:
 3866              		.cfi_offset 21, -44
 3867              		.cfi_offset 22, -40
 3868              		.cfi_offset 23, -36
 3869              		.cfi_offset 24, -32
 3870              		.cfi_offset 25, -28
 3871              		.cfi_offset 26, -24
 3872              		.cfi_offset 28, -16
 3873              		.cfi_offset 29, -12
 3874              		.cfi_offset 31, -4
 3875              		.cfi_offset 65, 4
 3876              	.LBB880:
 3877              	.LBB877:
 3878              	.LBB862:
 3879              	.LBB860:
 3880              	.LBB854:
 3881              	.LBB855:
 3882              		.loc 1 104 4 view .LVU1233
 3883 0420 39400020 		li 10,32
 3884 0424 3AA10068 		addi 21,1,104
 3885              	.LBE855:
 3886              	.LBE854:
 3887              	.LBB857:
 3888              	.LBB847:
 3889 0428 7D7B5B78 		mr 27,11
 3890              	.LBE847:
 3891              	.LBE857:
 3892              	.LBB858:
 3893              	.LBB856:
 3894 042c 39200000 		li 9,0
 3895 0430 7D4903A6 		mtctr 10
 3896              	.L239:
 3897              	.LVL386:
 3898              		.loc 1 106 3 is_stmt 1 view .LVU1234
 3899              		.loc 1 106 12 is_stmt 0 view .LVU1235
 3900 0434 8CF5FFFF 		lbzu 7,-1(21)
 3901              	.LVL387:
 3902              		.loc 1 107 3 is_stmt 1 view .LVU1236
 3903              		.loc 1 106 16 is_stmt 0 view .LVU1237
 3904 0438 5537063E 		rlwinm 23,9,0,0xff
 3905              		.loc 1 107 11 view .LVU1238
 3906 043c 8EDBFFFF 		lbzu 22,-1(27)
 3907              		.loc 1 106 12 view .LVU1239
 3908 0440 54EA063E 		rlwinm 10,7,0,0xff
 3909              		.loc 1 106 14 view .LVU1240
 3910 0444 7D4ABA14 		add 10,10,23
 3911              	.LVL388:
 3912              		.loc 1 107 11 view .LVU1241
 3913 0448 56D7063E 		rlwinm 23,22,0,0xff
 3914              		.loc 1 108 8 view .LVU1242
 3915 044c 7CE7B050 		subf 7,7,22
 3916              		.loc 1 107 13 view .LVU1243
 3917 0450 7D4AB810 		subfc 10,10,23
 3918              	.LVL389:
 3919              		.loc 1 108 8 view .LVU1244
 3920 0454 7D293850 		subf 9,9,7
 3921              	.LVL390:
 3922              		.loc 1 107 13 view .LVU1245
 3923 0458 7D4A5110 		subfe 10,10,10
 3924              		.loc 1 108 8 view .LVU1246
 3925 045c 993B0000 		stb 9,0(27)
 3926              		.loc 1 107 5 view .LVU1247
 3927 0460 7D2A00D0 		neg 9,10
 3928              	.LVL391:
 3929              		.loc 1 108 3 is_stmt 1 view .LVU1248
 3930              		.loc 1 105 2 discriminator 3 view .LVU1249
 3931              		.loc 1 105 20 discriminator 1 view .LVU1250
 3932 0464 4200FFD0 		bdnz .L239
 3933              	.LVL392:
 3934              		.loc 1 105 20 is_stmt 0 discriminator 1 view .LVU1251
 3935              	.LBE856:
 3936              	.LBE858:
 3937              	.LBE860:
 3938              	.LBE862:
 3939              		.loc 1 142 4 is_stmt 1 view .LVU1252
 3940              		.loc 1 142 14 is_stmt 0 view .LVU1253
 3941 0468 7C092838 		and 9,0,5
 3942              		.loc 1 142 4 view .LVU1254
 3943 046c 5529063E 		rlwinm 9,9,0,0xff
 3944 0470 2C090000 		cmpwi 0,9,0
 3945 0474 4182FD7C 		beq+ 0,.L238
 3946              	.L304:
 3947              	.LBB863:
 3948              	.LBB864:
 3949              		.loc 1 118 4 view .LVU1255
 3950 0478 7D085850 		subf 8,8,11
 3951 047c 38E10028 		addi 7,1,40
 3952              	.LVL393:
 3953              		.loc 1 118 4 view .LVU1256
 3954 0480 39280001 		addi 9,8,1
 3955 0484 39400000 		li 10,0
 3956 0488 7D2903A6 		mtctr 9
 3957              	.LBE864:
 3958              	.LBE863:
 3959              		.loc 1 142 4 view .LVU1257
 3960 048c 7D685B78 		mr 8,11
 3961              	.LVL394:
 3962              	.L242:
 3963              	.LBB874:
 3964              	.LBB873:
 3965              		.loc 1 120 3 is_stmt 1 view .LVU1258
 3966              		.loc 1 120 12 is_stmt 0 view .LVU1259
 3967 0490 8D28FFFF 		lbzu 9,-1(8)
 3968              	.LVL395:
 3969              		.loc 1 120 23 view .LVU1260
 3970 0494 554A063E 		rlwinm 10,10,0,0xff
 3971              		.loc 1 120 19 view .LVU1261
 3972 0498 8F67FFFF 		lbzu 27,-1(7)
 3973              		.loc 1 120 14 view .LVU1262
 3974 049c 7D29DA14 		add 9,9,27
 3975              		.loc 1 120 21 view .LVU1263
 3976 04a0 7D295214 		add 9,9,10
 3977              	.LVL396:
 3978              		.loc 1 121 3 is_stmt 1 view .LVU1264
 3979              		.loc 1 121 12 is_stmt 0 view .LVU1265
 3980 04a4 214900FF 		subfic 10,9,255
 3981              	.LVL397:
 3982              		.loc 1 122 8 view .LVU1266
 3983 04a8 99280000 		stb 9,0(8)
 3984              		.loc 1 121 12 view .LVU1267
 3985 04ac 7D4A5110 		subfe 10,10,10
 3986 04b0 7D4A00D0 		neg 10,10
 3987              	.LVL398:
 3988              		.loc 1 122 3 is_stmt 1 view .LVU1268
 3989              		.loc 1 119 2 discriminator 3 view .LVU1269
 3990              		.loc 1 119 20 discriminator 1 view .LVU1270
 3991 04b4 4200FFDC 		bdnz .L242
 3992              		.loc 1 125 2 view .LVU1271
 3993 04b8 280900FF 		cmplwi 0,9,255
 3994 04bc 4081004C 		ble- 0,.L246
 3995              	.LBB865:
 3996              	.LBB866:
 3997              		.loc 1 104 4 is_stmt 0 view .LVU1272
 3998 04c0 39400020 		li 10,32
 3999              	.LVL399:
 4000              		.loc 1 104 4 view .LVU1273
 4001 04c4 3AC10068 		addi 22,1,104
 4002              	.LBE866:
 4003              	.LBE865:
 4004              		.loc 1 125 2 view .LVU1274
 4005 04c8 7D675B78 		mr 7,11
 4006              	.LBB868:
 4007              	.LBB867:
 4008              		.loc 1 104 4 view .LVU1275
 4009 04cc 39200000 		li 9,0
 4010              	.LVL400:
 4011              		.loc 1 104 4 view .LVU1276
 4012 04d0 7D4903A6 		mtctr 10
 4013              	.LVL401:
 4014              	.L245:
 4015              		.loc 1 106 3 is_stmt 1 view .LVU1277
 4016              		.loc 1 106 12 is_stmt 0 view .LVU1278
 4017 04d4 8D16FFFF 		lbzu 8,-1(22)
 4018              	.LVL402:
 4019              		.loc 1 107 3 is_stmt 1 view .LVU1279
 4020              		.loc 1 106 16 is_stmt 0 view .LVU1280
 4021 04d8 553B063E 		rlwinm 27,9,0,0xff
 4022              		.loc 1 107 11 view .LVU1281
 4023 04dc 8EE7FFFF 		lbzu 23,-1(7)
 4024              		.loc 1 106 12 view .LVU1282
 4025 04e0 550A063E 		rlwinm 10,8,0,0xff
 4026              		.loc 1 106 14 view .LVU1283
 4027 04e4 7D4ADA14 		add 10,10,27
 4028              	.LVL403:
 4029              		.loc 1 107 11 view .LVU1284
 4030 04e8 56FB063E 		rlwinm 27,23,0,0xff
 4031              		.loc 1 108 8 view .LVU1285
 4032 04ec 7D08B850 		subf 8,8,23
 4033              		.loc 1 107 13 view .LVU1286
 4034 04f0 7D4AD810 		subfc 10,10,27
 4035              	.LVL404:
 4036              		.loc 1 108 8 view .LVU1287
 4037 04f4 7D294050 		subf 9,9,8
 4038              	.LVL405:
 4039              		.loc 1 107 13 view .LVU1288
 4040 04f8 7D4A5110 		subfe 10,10,10
 4041              		.loc 1 108 8 view .LVU1289
 4042 04fc 99270000 		stb 9,0(7)
 4043              		.loc 1 107 5 view .LVU1290
 4044 0500 7D2A00D0 		neg 9,10
 4045              	.LVL406:
 4046              		.loc 1 108 3 is_stmt 1 view .LVU1291
 4047              		.loc 1 105 2 discriminator 3 view .LVU1292
 4048              		.loc 1 105 20 discriminator 1 view .LVU1293
 4049 0504 4200FFD0 		bdnz .L245
 4050              	.LVL407:
 4051              	.L246:
 4052              		.loc 1 105 20 is_stmt 0 discriminator 1 view .LVU1294
 4053              	.LBE867:
 4054              	.LBE868:
 4055              		.loc 1 128 2 is_stmt 1 view .LVU1295
 4056              	.LBB869:
 4057              	.LBI869:
 4058              		.loc 1 84 19 view .LVU1296
 4059              	.LBB870:
 4060              		.loc 1 86 2 view .LVU1297
 4061              		.loc 1 88 2 view .LVU1298
 4062              		.loc 1 88 16 discriminator 1 view .LVU1299
 4063 0508 7D24D050 		subf 9,4,26
 4064 050c 7D2903A6 		mtctr 9
 4065 0510 48000008 		b .L244
 4066              	.LVL408:
 4067              	.L308:
 4068              		.loc 1 88 16 is_stmt 0 discriminator 1 view .LVU1300
 4069 0514 42400018 		bdz .L247
 4070              	.LVL409:
 4071              	.L244:
 4072              		.loc 1 89 3 is_stmt 1 view .LVU1301
 4073              		.loc 1 91 3 view .LVU1302
 4074              		.loc 1 88 2 discriminator 2 view .LVU1303
 4075              		.loc 1 89 3 is_stmt 0 view .LVU1304
 4076 0518 8D580001 		lbzu 10,1(24)
 4077              	.LVL410:
 4078              		.loc 1 88 16 is_stmt 1 discriminator 1 view .LVU1305
 4079              		.loc 1 89 3 is_stmt 0 view .LVU1306
 4080 051c 8D390001 		lbzu 9,1(25)
 4081 0520 7C0A4840 		cmplw 0,10,9
 4082 0524 41A0FCCC 		blt- 0,.L238
 4083              		.loc 1 91 3 view .LVU1307
 4084 0528 4081FFEC 		ble+ 0,.L308
 4085              	.L247:
 4086              	.LVL411:
 4087              		.loc 1 91 3 view .LVU1308
 4088              	.LBE870:
 4089              	.LBE869:
 4090              	.LBB871:
 4091              	.LBB872:
 4092              		.loc 1 104 4 view .LVU1309
 4093 052c 39400020 		li 10,32
 4094 0530 3B410068 		addi 26,1,104
 4095 0534 39200000 		li 9,0
 4096 0538 7D4903A6 		mtctr 10
 4097              	.L248:
 4098              	.LVL412:
 4099              		.loc 1 106 3 is_stmt 1 view .LVU1310
 4100              		.loc 1 106 12 is_stmt 0 view .LVU1311
 4101 053c 8D1AFFFF 		lbzu 8,-1(26)
 4102              	.LVL413:
 4103              		.loc 1 107 3 is_stmt 1 view .LVU1312
 4104              		.loc 1 106 16 is_stmt 0 view .LVU1313
 4105 0540 5527063E 		rlwinm 7,9,0,0xff
 4106              		.loc 1 107 11 view .LVU1314
 4107 0544 8F66FFFF 		lbzu 27,-1(6)
 4108              		.loc 1 106 12 view .LVU1315
 4109 0548 550A063E 		rlwinm 10,8,0,0xff
 4110              		.loc 1 106 14 view .LVU1316
 4111 054c 7D4A3A14 		add 10,10,7
 4112              	.LVL414:
 4113              		.loc 1 107 11 view .LVU1317
 4114 0550 5767063E 		rlwinm 7,27,0,0xff
 4115              		.loc 1 108 8 view .LVU1318
 4116 0554 7D08D850 		subf 8,8,27
 4117              		.loc 1 107 13 view .LVU1319
 4118 0558 7D4A3810 		subfc 10,10,7
 4119              	.LVL415:
 4120              		.loc 1 108 8 view .LVU1320
 4121 055c 7D294050 		subf 9,9,8
 4122              	.LVL416:
 4123              		.loc 1 107 13 view .LVU1321
 4124 0560 7D4A5110 		subfe 10,10,10
 4125              		.loc 1 108 8 view .LVU1322
 4126 0564 99260000 		stb 9,0(6)
 4127              		.loc 1 107 5 view .LVU1323
 4128 0568 7D2A00D0 		neg 9,10
 4129              	.LVL417:
 4130              		.loc 1 108 3 is_stmt 1 view .LVU1324
 4131              		.loc 1 105 2 discriminator 3 view .LVU1325
 4132              		.loc 1 105 20 discriminator 1 view .LVU1326
 4133 056c 4200FFD0 		bdnz .L248
 4134 0570 4BFFFC80 		b .L238
 4135              	.LVL418:
 4136              	.L307:
 4137              		.cfi_restore 21
 4138              		.cfi_restore 22
 4139              		.cfi_restore 23
 4140              		.cfi_restore 24
 4141              		.loc 1 105 20 is_stmt 0 discriminator 1 view .LVU1327
 4142 0574 3F800000 		lis 28,.LANCHOR0@ha
 4143              	.LBE872:
 4144              	.LBE871:
 4145              	.LBE873:
 4146              	.LBE874:
 4147              	.LBE877:
 4148              	.LBE880:
 4149              		.loc 1 1305 7 view .LVU1328
 4150 0578 7FFDFB78 		mr 29,31
 4151              	.LVL419:
 4152              		.loc 1 1305 7 view .LVU1329
 4153 057c 3B9C0000 		la 28,.LANCHOR0@l(28)
 4154              	.LVL420:
 4155              	.L262:
 4156              		.loc 1 1332 3 is_stmt 1 view .LVU1330
 4157              	.LBB881:
 4158              	.LBI881:
 4159              		.loc 1 1193 12 view .LVU1331
 4160              	.LBB882:
 4161              		.loc 1 1195 2 view .LVU1332
 4162              		.loc 1 1195 11 is_stmt 0 view .LVU1333
 4163 0580 813C0024 		lwz 9,36(28)
 4164              		.loc 1 1216 33 discriminator 1 view .LVU1334
 4165 0584 3F6093A0 		lis 27,0x93a0
 4166              		.loc 1 1195 11 view .LVU1335
 4167 0588 811C0028 		lwz 8,40(28)
 4168              		.loc 1 1216 33 discriminator 1 view .LVU1336
 4169 058c 637BFFE8 		ori 27,27,0xffe8
 4170              		.loc 1 1195 11 view .LVU1337
 4171 0590 815C002C 		lwz 10,44(28)
 4172              		.loc 1 1216 11 view .LVU1338
 4173 0594 3FC0939F 		lis 30,0x939f
 4174              	.LVL421:
 4175              		.loc 1 1195 11 view .LVU1339
 4176 0598 91210084 		stw 9,132(1)
 4177 059c 813C0030 		lwz 9,48(28)
 4178 05a0 80FC0020 		lwz 7,32(28)
 4179 05a4 91010088 		stw 8,136(1)
 4180 05a8 9141008C 		stw 10,140(1)
 4181 05ac 811C0034 		lwz 8,52(28)
 4182              		.loc 1 1200 12 view .LVU1340
 4183 05b0 815C0038 		lwz 10,56(28)
 4184              		.loc 1 1195 11 view .LVU1341
 4185 05b4 91210090 		stw 9,144(1)
 4186              		.loc 1 1200 12 view .LVU1342
 4187 05b8 813C003C 		lwz 9,60(28)
 4188              		.loc 1 1195 11 view .LVU1343
 4189 05bc 90E10080 		stw 7,128(1)
 4190 05c0 91010094 		stw 8,148(1)
 4191              		.loc 1 1200 2 is_stmt 1 view .LVU1344
 4192              		.loc 1 1200 12 is_stmt 0 view .LVU1345
 4193 05c4 80FC0040 		lwz 7,64(28)
 4194 05c8 91410068 		stw 10,104(1)
 4195 05cc 811C0044 		lwz 8,68(28)
 4196 05d0 9121006C 		stw 9,108(1)
 4197 05d4 815C0048 		lwz 10,72(28)
 4198 05d8 813C004C 		lwz 9,76(28)
 4199 05dc 90E10070 		stw 7,112(1)
 4200 05e0 91010074 		stw 8,116(1)
 4201 05e4 91410078 		stw 10,120(1)
 4202 05e8 9121007C 		stw 9,124(1)
 4203              		.loc 1 1212 2 is_stmt 1 view .LVU1346
 4204              		.loc 1 1213 2 view .LVU1347
 4205              	.LVL422:
 4206              		.loc 1 1214 2 view .LVU1348
 4207              		.loc 1 1216 2 view .LVU1349
 4208              		.loc 1 1216 33 discriminator 1 view .LVU1350
 4209 05ec 48000010 		b .L255
 4210              	.LVL423:
 4211              	.L253:
 4212              		.loc 1 1216 2 is_stmt 0 discriminator 2 view .LVU1351
 4213 05f0 3BDE0001 		addi 30,30,1
 4214              	.LVL424:
 4215              		.loc 1 1216 33 is_stmt 1 discriminator 1 view .LVU1352
 4216 05f4 7C1ED800 		cmpw 0,30,27
 4217 05f8 418200E0 		beq- 0,.L309
 4218              	.LVL425:
 4219              	.L255:
 4220              		.loc 1 1217 3 view .LVU1353
 4221              		.loc 1 1217 14 is_stmt 0 view .LVU1354
 4222 05fc 38A00018 		li 5,24
 4223 0600 38810080 		addi 4,1,128
 4224 0604 7FC3F378 		mr 3,30
 4225 0608 48000001 		bl memcmp
 4226              	.LVL426:
 4227              		.loc 1 1216 2 is_stmt 1 discriminator 2 view .LVU1355
 4228              		.loc 1 1217 3 is_stmt 0 discriminator 1 view .LVU1356
 4229 060c 2C030000 		cmpwi 0,3,0
 4230 0610 4082FFE0 		bne+ 0,.L253
 4231              		.loc 1 1218 4 is_stmt 1 view .LVU1357
 4232              		.loc 1 1218 10 is_stmt 0 view .LVU1358
 4233 0614 81010070 		lwz 8,112(1)
 4234              		.loc 1 1219 34 view .LVU1359
 4235 0618 57DB0034 		rlwinm 27,30,0,0,26
 4236              		.loc 1 1218 10 view .LVU1360
 4237 061c 81210068 		lwz 9,104(1)
 4238              		.loc 1 1219 16 view .LVU1361
 4239 0620 7F63DB78 		mr 3,27
 4240              		.loc 1 1218 10 view .LVU1362
 4241 0624 80E1006C 		lwz 7,108(1)
 4242              		.loc 1 1219 16 view .LVU1363
 4243 0628 38800020 		li 4,32
 4244              		.loc 1 1218 10 view .LVU1364
 4245 062c 81410074 		lwz 10,116(1)
 4246 0630 911E0008 		stw 8,8(30)
 4247 0634 90FE0004 		stw 7,4(30)
 4248 0638 915E000C 		stw 10,12(30)
 4249 063c 913E0000 		stw 9,0(30)
 4250 0640 81410078 		lwz 10,120(1)
 4251 0644 8121007C 		lwz 9,124(1)
 4252 0648 915E0010 		stw 10,16(30)
 4253 064c 913E0014 		stw 9,20(30)
 4254              		.loc 1 1219 4 is_stmt 1 view .LVU1365
 4255              		.loc 1 1219 16 is_stmt 0 view .LVU1366
 4256 0650 48000001 		bl DCFlushRange
 4257              	.LVL427:
 4258              		.loc 1 1220 4 is_stmt 1 view .LVU1367
 4259              		.loc 1 1221 12 is_stmt 0 discriminator 1 view .LVU1368
 4260 0654 3920000F 		li 9,15
 4261              		.loc 1 1222 20 view .LVU1369
 4262 0658 38E10098 		addi 7,1,152
 4263 065c 38C00000 		li 6,0
 4264 0660 38A00001 		li 5,1
 4265 0664 3880001F 		li 4,31
 4266 0668 7F23CB78 		mr 3,25
 4267              		.loc 1 1221 12 discriminator 1 view .LVU1370
 4268 066c 9121009C 		stw 9,156(1)
 4269              		.loc 1 1220 13 view .LVU1371
 4270 0670 93410098 		stw 26,152(1)
 4271              		.loc 1 1221 4 is_stmt 1 view .LVU1372
 4272              		.loc 1 1222 4 view .LVU1373
 4273              		.loc 1 1222 20 is_stmt 0 view .LVU1374
 4274 0674 48000001 		bl IOS_Ioctlv
 4275              	.LVL428:
 4276              		.loc 1 1225 10 view .LVU1375
 4277 0678 81410088 		lwz 10,136(1)
 4278              		.loc 1 1222 20 view .LVU1376
 4279 067c 7C7C1B78 		mr 28,3
 4280              	.LVL429:
 4281              		.loc 1 1225 4 is_stmt 1 view .LVU1377
 4282              		.loc 1 1225 10 is_stmt 0 view .LVU1378
 4283 0680 8121008C 		lwz 9,140(1)
 4284              		.loc 1 1226 16 view .LVU1379
 4285 0684 7F63DB78 		mr 3,27
 4286              	.LVL430:
 4287              		.loc 1 1225 10 view .LVU1380
 4288 0688 80E10080 		lwz 7,128(1)
 4289              		.loc 1 1226 16 view .LVU1381
 4290 068c 38800020 		li 4,32
 4291              		.loc 1 1225 10 view .LVU1382
 4292 0690 81010084 		lwz 8,132(1)
 4293              		.loc 1 1231 10 view .LVU1383
 4294 0694 7F9C0034 		cntlzw 28,28
 4295              	.LVL431:
 4296              		.loc 1 1225 10 view .LVU1384
 4297 0698 90FE0000 		stw 7,0(30)
 4298              		.loc 1 1231 10 view .LVU1385
 4299 069c 579BD97E 		srwi 27,28,5
 4300              		.loc 1 1225 10 view .LVU1386
 4301 06a0 911E0004 		stw 8,4(30)
 4302 06a4 915E0008 		stw 10,8(30)
 4303 06a8 913E000C 		stw 9,12(30)
 4304 06ac 81410090 		lwz 10,144(1)
 4305 06b0 81210094 		lwz 9,148(1)
 4306 06b4 915E0010 		stw 10,16(30)
 4307 06b8 913E0014 		stw 9,20(30)
 4308              		.loc 1 1226 4 is_stmt 1 view .LVU1387
 4309              		.loc 1 1226 16 is_stmt 0 view .LVU1388
 4310 06bc 48000001 		bl DCFlushRange
 4311              	.LVL432:
 4312 06c0 4BFFFBF4 		b .L252
 4313              	.LVL433:
 4314              	.L306:
 4315              		.loc 1 1226 16 view .LVU1389
 4316              	.LBE882:
 4317              	.LBE881:
 4318              		.loc 1 1319 3 is_stmt 1 view .LVU1390
 4319              		.loc 1 1319 14 is_stmt 0 view .LVU1391
 4320 06c4 7F43D378 		mr 3,26
 4321              	.LVL434:
 4322              		.loc 1 1319 14 view .LVU1392
 4323 06c8 48000001 		bl ISFS_Delete
 4324              	.LVL435:
 4325              		.loc 1 1320 3 is_stmt 1 view .LVU1393
 4326              		.loc 1 1320 12 is_stmt 0 view .LVU1394
 4327 06cc 7F23CB78 		mr 3,25
 4328 06d0 48000001 		bl IOS_Close
 4329              	.LVL436:
 4330              		.loc 1 1321 3 is_stmt 1 view .LVU1395
 4331 06d4 4BFFFD28 		b .L298
 4332              	.LVL437:
 4333              	.L309:
 4334              	.LBB884:
 4335              	.LBB883:
 4336              		.loc 1 1321 3 is_stmt 0 view .LVU1396
 4337 06d8 3B600000 		li 27,0
 4338              	.LVL438:
 4339              		.loc 1 1231 2 is_stmt 1 view .LVU1397
 4340              		.loc 1 1231 2 is_stmt 0 view .LVU1398
 4341 06dc 4BFFFBD8 		b .L252
 4342              	.LBE883:
 4343              	.LBE884:
 4344              		.cfi_endproc
 4345              	.LFE1381:
 4346              		.size	_ZL16load_module_codePhS_, .-_ZL16load_module_codePhS_
 4347              		.section	.text._Z12Haxx_UnMountPSt6vectorIiSaIiEE,"ax",@progbits
 4348              		.align 2
 4349              		.globl _Z12Haxx_UnMountPSt6vectorIiSaIiEE
 4350              		.type	_Z12Haxx_UnMountPSt6vectorIiSaIiEE, @function
 4351              	_Z12Haxx_UnMountPSt6vectorIiSaIiEE:
 4352              	.LVL439:
 4353              	.LFB1360:
 4354              		.loc 1 263 1 is_stmt 1 view -0
 4355              		.cfi_startproc
 4356              		.loc 1 264 2 view .LVU1400
 4357              		.loc 1 263 1 is_stmt 0 view .LVU1401
 4358 0000 9421FFF8 		stwu 1,-8(1)
 4359              		.cfi_def_cfa_offset 8
 4360 0004 7C0802A6 		mflr 0
 4361              		.loc 1 264 14 view .LVU1402
 4362 0008 38600000 		li 3,0
 4363              	.LVL440:
 4364              		.loc 1 263 1 view .LVU1403
 4365 000c 9001000C 		stw 0,12(1)
 4366              		.cfi_offset 65, 4
 4367              		.loc 1 264 14 view .LVU1404
 4368 0010 48000001 		bl File_Unmount
 4369              	.LVL441:
 4370              		.loc 1 265 2 is_stmt 1 view .LVU1405
 4371              		.loc 1 266 1 is_stmt 0 view .LVU1406
 4372 0014 8001000C 		lwz 0,12(1)
 4373              		.loc 1 265 14 view .LVU1407
 4374 0018 38600001 		li 3,1
 4375              		.loc 1 266 1 view .LVU1408
 4376 001c 38210008 		addi 1,1,8
 4377              		.cfi_def_cfa_offset 0
 4378 0020 7C0803A6 		mtlr 0
 4379              		.cfi_restore 65
 4380              		.loc 1 265 14 view .LVU1409
 4381 0024 48000000 		b File_Unmount
 4382              	.LVL442:
 4383              		.cfi_endproc
 4384              	.LFE1360:
 4385              		.size	_Z12Haxx_UnMountPSt6vectorIiSaIiEE, .-_Z12Haxx_UnMountPSt6vectorIiSaIiEE
 4386              		.section	.text._Z10fetch_filePKcj,"ax",@progbits
 4387              		.align 2
 4388              		.globl _Z10fetch_filePKcj
 4389              		.type	_Z10fetch_filePKcj, @function
 4390              	_Z10fetch_filePKcj:
 4391              	.LVL443:
 4392              	.LFB1362:
 4393              		.loc 1 492 1 is_stmt 1 view -0
 4394              		.cfi_startproc
 4395              		.loc 1 493 2 view .LVU1411
 4396              		.loc 1 494 2 view .LVU1412
 4397              		.loc 1 492 1 is_stmt 0 view .LVU1413
 4398 0000 9421FFE8 		stwu 1,-24(1)
 4399              		.cfi_def_cfa_offset 24
 4400 0004 7C0802A6 		mflr 0
 4401 0008 93C10010 		stw 30,16(1)
 4402              		.cfi_register 65, 0
 4403              		.cfi_offset 30, -8
 4404 000c 7C9E2378 		mr 30,4
 4405              		.loc 1 494 19 view .LVU1414
 4406 0010 38800001 		li 4,1
 4407              	.LVL444:
 4408              		.loc 1 492 1 view .LVU1415
 4409 0014 93E10014 		stw 31,20(1)
 4410 0018 9001001C 		stw 0,28(1)
 4411              		.cfi_offset 31, -4
 4412              		.cfi_offset 65, 4
 4413              		.loc 1 494 19 view .LVU1416
 4414 001c 48000001 		bl IOS_Open
 4415              	.LVL445:
 4416              		.loc 1 495 2 is_stmt 1 view .LVU1417
 4417              	.LBB887:
 4418 0020 7C7F1B79 		mr. 31,3
 4419 0024 4180009C 		blt- 0,.L317
 4420              	.LBB888:
 4421              		.loc 1 497 27 is_stmt 0 view .LVU1418
 4422 0028 38A00002 		li 5,2
 4423 002c 38800000 		li 4,0
 4424 0030 93810008 		stw 28,8(1)
 4425              		.cfi_offset 28, -16
 4426 0034 93A1000C 		stw 29,12(1)
 4427              		.cfi_offset 29, -12
 4428              		.loc 1 497 3 is_stmt 1 view .LVU1419
 4429              		.loc 1 497 27 is_stmt 0 view .LVU1420
 4430 0038 48000001 		bl IOS_Seek
 4431              	.LVL446:
 4432              		.loc 1 498 3 view .LVU1421
 4433 003c 2C1E0000 		cmpwi 0,30,0
 4434              		.loc 1 497 27 view .LVU1422
 4435 0040 7C7D1B78 		mr 29,3
 4436              		.loc 1 497 43 discriminator 1 view .LVU1423
 4437 0044 7C7C1B78 		mr 28,3
 4438              	.LVL447:
 4439              		.loc 1 498 3 is_stmt 1 view .LVU1424
 4440 0048 40820068 		bne- 0,.L322
 4441              	.L314:
 4442              	.LVL448:
 4443              		.loc 1 502 4 view .LVU1425
 4444              		.loc 1 502 12 is_stmt 0 view .LVU1426
 4445 004c 38A00000 		li 5,0
 4446 0050 38800000 		li 4,0
 4447 0054 7FE3FB78 		mr 3,31
 4448              	.LVL449:
 4449              		.loc 1 502 12 view .LVU1427
 4450 0058 48000001 		bl IOS_Seek
 4451              	.LVL450:
 4452              		.loc 1 503 4 is_stmt 1 view .LVU1428
 4453              		.loc 1 503 27 is_stmt 0 view .LVU1429
 4454 005c 389C0020 		addi 4,28,32
 4455 0060 38600020 		li 3,32
 4456 0064 48000001 		bl memalign
 4457              	.LVL451:
 4458              		.loc 1 504 24 view .LVU1430
 4459 0068 7FA5EB78 		mr 5,29
 4460              		.loc 1 503 27 view .LVU1431
 4461 006c 7C7E1B78 		mr 30,3
 4462              	.LVL452:
 4463              		.loc 1 504 4 is_stmt 1 view .LVU1432
 4464              		.loc 1 504 24 is_stmt 0 view .LVU1433
 4465 0070 7FE3FB78 		mr 3,31
 4466              	.LVL453:
 4467              		.loc 1 504 24 view .LVU1434
 4468 0074 7FC4F378 		mr 4,30
 4469 0078 48000001 		bl IOS_Read
 4470              	.LVL454:
 4471              		.loc 1 505 4 is_stmt 1 view .LVU1435
 4472 007c 7C03E040 		cmplw 0,3,28
 4473 0080 41800060 		blt- 0,.L323
 4474              	.LVL455:
 4475              	.L316:
 4476              		.loc 1 511 3 view .LVU1436
 4477              		.loc 1 511 12 is_stmt 0 view .LVU1437
 4478 0084 7FE3FB78 		mr 3,31
 4479 0088 48000001 		bl IOS_Close
 4480              	.LVL456:
 4481              	.LBE888:
 4482              	.LBE887:
 4483              		.loc 1 517 1 view .LVU1438
 4484 008c 8001001C 		lwz 0,28(1)
 4485 0090 7FC3F378 		mr 3,30
 4486              	.LBB892:
 4487 0094 83810008 		lwz 28,8(1)
 4488              		.cfi_remember_state
 4489              		.cfi_restore 28
 4490 0098 83A1000C 		lwz 29,12(1)
 4491              		.cfi_restore 29
 4492              	.LBE892:
 4493 009c 7C0803A6 		mtlr 0
 4494              		.cfi_restore 65
 4495 00a0 83C10010 		lwz 30,16(1)
 4496              	.LVL457:
 4497              		.loc 1 517 1 view .LVU1439
 4498 00a4 83E10014 		lwz 31,20(1)
 4499              	.LVL458:
 4500              		.loc 1 517 1 view .LVU1440
 4501 00a8 38210018 		addi 1,1,24
 4502              		.cfi_restore 31
 4503              		.cfi_restore 30
 4504              		.cfi_def_cfa_offset 0
 4505 00ac 4E800020 		blr
 4506              	.LVL459:
 4507              	.L322:
 4508              		.cfi_restore_state
 4509              	.LBB893:
 4510              	.LBB889:
 4511              		.loc 1 500 3 is_stmt 1 view .LVU1441
 4512 00b0 7C03F040 		cmplw 0,3,30
 4513 00b4 4080003C 		bge- 0,.L324
 4514              	.LBE889:
 4515              	.LBE893:
 4516              		.loc 1 493 6 is_stmt 0 view .LVU1442
 4517 00b8 3BC00000 		li 30,0
 4518              	.LVL460:
 4519              		.loc 1 493 6 view .LVU1443
 4520 00bc 4BFFFFC8 		b .L316
 4521              	.LVL461:
 4522              	.L317:
 4523              		.cfi_restore 28
 4524              		.cfi_restore 29
 4525              		.loc 1 517 1 view .LVU1444
 4526 00c0 8001001C 		lwz 0,28(1)
 4527              		.loc 1 493 6 view .LVU1445
 4528 00c4 3BC00000 		li 30,0
 4529              	.LVL462:
 4530              	.LBB894:
 4531              		.loc 1 515 40 is_stmt 1 view .LVU1446
 4532              	.LBE894:
 4533              		.loc 1 516 4 view .LVU1447
 4534              		.loc 1 517 1 is_stmt 0 view .LVU1448
 4535 00c8 7FC3F378 		mr 3,30
 4536              	.LVL463:
 4537              		.loc 1 517 1 view .LVU1449
 4538 00cc 83E10014 		lwz 31,20(1)
 4539              	.LVL464:
 4540              		.loc 1 517 1 view .LVU1450
 4541 00d0 83C10010 		lwz 30,16(1)
 4542 00d4 7C0803A6 		mtlr 0
 4543              		.cfi_restore 65
 4544 00d8 38210018 		addi 1,1,24
 4545              		.cfi_restore 31
 4546              		.cfi_restore 30
 4547              		.cfi_def_cfa_offset 0
 4548 00dc 4E800020 		blr
 4549              	.LVL465:
 4550              	.L323:
 4551              		.cfi_def_cfa_offset 24
 4552              		.cfi_offset 28, -16
 4553              		.cfi_offset 29, -12
 4554              		.cfi_offset 30, -8
 4555              		.cfi_offset 31, -4
 4556              		.cfi_offset 65, 4
 4557              	.LBB895:
 4558              	.LBB890:
 4559              		.loc 1 507 5 is_stmt 1 view .LVU1451
 4560              		.loc 1 507 9 is_stmt 0 view .LVU1452
 4561 00e0 7FC3F378 		mr 3,30
 4562              	.LVL466:
 4563              		.loc 1 507 9 view .LVU1453
 4564              	.LBE890:
 4565              	.LBE895:
 4566              		.loc 1 493 6 view .LVU1454
 4567 00e4 3BC00000 		li 30,0
 4568              	.LVL467:
 4569              	.LBB896:
 4570              	.LBB891:
 4571              		.loc 1 507 9 view .LVU1455
 4572 00e8 48000001 		bl free
 4573              	.LVL468:
 4574              		.loc 1 508 5 is_stmt 1 view .LVU1456
 4575              		.loc 1 508 5 is_stmt 0 view .LVU1457
 4576 00ec 4BFFFF98 		b .L316
 4577              	.LVL469:
 4578              	.L324:
 4579              		.loc 1 504 24 view .LVU1458
 4580 00f0 7FDDF378 		mr 29,30
 4581 00f4 7FDCF378 		mr 28,30
 4582 00f8 4BFFFF54 		b .L314
 4583              	.LBE891:
 4584              	.LBE896:
 4585              		.cfi_endproc
 4586              	.LFE1362:
 4587              		.size	_Z10fetch_filePKcj, .-_Z10fetch_filePKcj
 4588              		.section	.rodata._ZL16load_tmd_contentP4_tmdt.str1.4,"aMS",@progbits,1
 4589              		.align 2
 4590              	.LC6:
 4591 0000 2F736861 		.string	"/shared1/content.map"
 4591      72656431 
 4591      2F636F6E 
 4591      74656E74 
 4591      2E6D6170 
 4592 0015 000000   		.align 2
 4593              	.LC7:
 4594 0018 2F736861 		.string	"/shared1/00000000.app"
 4594      72656431 
 4594      2F303030 
 4594      30303030 
 4594      302E6170 
 4595 002e 0000     		.align 2
 4596              	.LC8:
 4597 0030 2F746974 		.string	"/title/%08x/%08x/content/%08x.app"
 4597      6C652F25 
 4597      3038782F 
 4597      25303878 
 4597      2F636F6E 
 4598              		.section	.text._ZL16load_tmd_contentP4_tmdt,"ax",@progbits
 4599              		.align 2
 4600              		.type	_ZL16load_tmd_contentP4_tmdt, @function
 4601              	_ZL16load_tmd_contentP4_tmdt:
 4602              	.LVL470:
 4603              	.LFB1375:
 4604              		.loc 1 988 1 is_stmt 1 view -0
 4605              		.cfi_startproc
 4606              		.loc 1 989 2 view .LVU1460
 4607              		.loc 1 990 2 view .LVU1461
 4608              		.loc 1 991 2 view .LVU1462
 4609              		.loc 1 993 2 view .LVU1463
 4610              		.loc 1 988 1 is_stmt 0 view .LVU1464
 4611 0000 9421FF80 		stwu 1,-128(1)
 4612              		.cfi_def_cfa_offset 128
 4613              		.loc 1 993 14 view .LVU1465
 4614 0004 39400000 		li 10,0
 4615              		.loc 1 988 1 view .LVU1466
 4616 0008 7C0802A6 		mflr 0
 4617 000c 93E1007C 		stw 31,124(1)
 4618              		.cfi_register 65, 0
 4619              		.cfi_offset 31, -4
 4620              	.LBB897:
 4621              		.loc 1 995 33 view .LVU1467
 4622 0010 1FE40024 		mulli 31,4,36
 4623              	.LBE897:
 4624              		.loc 1 993 14 view .LVU1468
 4625 0014 99410008 		stb 10,8(1)
 4626              		.loc 1 995 2 is_stmt 1 view .LVU1469
 4627              	.LBB899:
 4628              		.loc 1 995 33 is_stmt 0 view .LVU1470
 4629 0018 7D23FA14 		add 9,3,31
 4630              	.LBE899:
 4631              		.loc 1 988 1 view .LVU1471
 4632 001c 93A10074 		stw 29,116(1)
 4633              	.LBB900:
 4634              		.loc 1 995 2 view .LVU1472
 4635 0020 A94900AA 		lha 10,170(9)
 4636              		.cfi_offset 29, -12
 4637              	.LBE900:
 4638              		.loc 1 988 1 view .LVU1473
 4639 0024 7C7D1B78 		mr 29,3
 4640 0028 90010084 		stw 0,132(1)
 4641              	.LBB901:
 4642              		.loc 1 995 2 view .LVU1474
 4643 002c 2C0A0000 		cmpwi 0,10,0
 4644              	.LBE901:
 4645              		.loc 1 988 1 view .LVU1475
 4646 0030 93810070 		stw 28,112(1)
 4647 0034 93C10078 		stw 30,120(1)
 4648              		.cfi_offset 65, 4
 4649              		.cfi_offset 28, -16
 4650              		.cfi_offset 30, -8
 4651              	.LBB902:
 4652              		.loc 1 995 2 view .LVU1476
 4653 0038 418000C4 		blt- 0,.L344
 4654              		.loc 1 1022 3 is_stmt 1 view .LVU1477
 4655              		.loc 1 1022 10 is_stmt 0 view .LVU1478
 4656 003c 80C30050 		lwz 6,80(3)
 4657 0040 3C800000 		lis 4,.LC8@ha
 4658              	.LVL471:
 4659              		.loc 1 1022 10 view .LVU1479
 4660 0044 80A3004C 		lwz 5,76(3)
 4661 0048 3BC10008 		addi 30,1,8
 4662 004c 80E900A4 		lwz 7,164(9)
 4663 0050 38840000 		la 4,.LC8@l(4)
 4664 0054 7FC3F378 		mr 3,30
 4665              	.LVL472:
 4666              		.loc 1 1022 10 view .LVU1480
 4667 0058 392900A0 		addi 9,9,160
 4668 005c 4CC63182 		crxor 6,6,6
 4669 0060 48000001 		bl sprintf
 4670              	.LVL473:
 4671              	.L332:
 4672              	.LBE902:
 4673              		.loc 1 1024 2 is_stmt 1 view .LVU1481
 4674              		.loc 1 1024 36 is_stmt 0 view .LVU1482
 4675 0064 7D3DFA14 		add 9,29,31
 4676              		.loc 1 1025 22 view .LVU1483
 4677 0068 7FC3F378 		mr 3,30
 4678              		.loc 1 1024 7 view .LVU1484
 4679 006c 838900B0 		lwz 28,176(9)
 4680              	.LVL474:
 4681              		.loc 1 1025 2 is_stmt 1 view .LVU1485
 4682              		.loc 1 1025 22 is_stmt 0 view .LVU1486
 4683 0070 7F84E378 		mr 4,28
 4684 0074 48000001 		bl _Z10fetch_filePKcj
 4685              	.LVL475:
 4686              		.loc 1 1027 2 is_stmt 1 view .LVU1487
 4687              	.LBB903:
 4688 0078 7C7E1B79 		mr. 30,3
 4689 007c 41820058 		beq- 0,.L343
 4690              	.LBB904:
 4691              		.loc 1 1030 3 view .LVU1488
 4692              		.loc 1 1031 3 view .LVU1489
 4693              		.loc 1 1031 7 is_stmt 0 view .LVU1490
 4694 0080 7F84E378 		mr 4,28
 4695 0084 38A1004C 		addi 5,1,76
 4696              		.loc 1 1032 41 view .LVU1491
 4697 0088 3BFF00B4 		addi 31,31,180
 4698              		.loc 1 1031 7 view .LVU1492
 4699 008c 48000001 		bl _Z4SHA1PKhjPh
 4700              	.LVL476:
 4701              		.loc 1 1032 3 is_stmt 1 view .LVU1493
 4702              		.loc 1 1032 13 is_stmt 0 view .LVU1494
 4703 0090 38A00014 		li 5,20
 4704 0094 3881004C 		addi 4,1,76
 4705 0098 7C7DFA14 		add 3,29,31
 4706 009c 48000001 		bl memcmp
 4707              	.LVL477:
 4708              		.loc 1 1032 3 discriminator 1 view .LVU1495
 4709 00a0 2C030000 		cmpwi 0,3,0
 4710 00a4 40820028 		bne- 0,.L345
 4711              	.LBE904:
 4712              	.LBE903:
 4713              		.loc 1 1044 1 view .LVU1496
 4714 00a8 80010084 		lwz 0,132(1)
 4715 00ac 7FC3F378 		mr 3,30
 4716 00b0 83810070 		lwz 28,112(1)
 4717              	.LVL478:
 4718              		.loc 1 1044 1 view .LVU1497
 4719 00b4 83A10074 		lwz 29,116(1)
 4720              	.LVL479:
 4721              		.loc 1 1044 1 view .LVU1498
 4722 00b8 7C0803A6 		mtlr 0
 4723              		.cfi_remember_state
 4724              		.cfi_restore 65
 4725 00bc 83C10078 		lwz 30,120(1)
 4726              	.LVL480:
 4727              		.loc 1 1044 1 view .LVU1499
 4728 00c0 83E1007C 		lwz 31,124(1)
 4729 00c4 38210080 		addi 1,1,128
 4730              		.cfi_restore 31
 4731              		.cfi_restore 30
 4732              		.cfi_restore 29
 4733              		.cfi_restore 28
 4734              		.cfi_def_cfa_offset 0
 4735 00c8 4E800020 		blr
 4736              	.LVL481:
 4737              	.L345:
 4738              		.cfi_restore_state
 4739              	.LBB907:
 4740              	.LBB905:
 4741              		.loc 1 1034 54 is_stmt 1 view .LVU1500
 4742              		.loc 1 1035 4 view .LVU1501
 4743              		.loc 1 1035 8 is_stmt 0 view .LVU1502
 4744 00cc 7FC3F378 		mr 3,30
 4745 00d0 48000001 		bl free
 4746              	.LVL482:
 4747              	.L343:
 4748              		.loc 1 1036 4 is_stmt 1 view .LVU1503
 4749              		.loc 1 1036 4 is_stmt 0 view .LVU1504
 4750              	.LBE905:
 4751              	.LBE907:
 4752              		.loc 1 1044 1 view .LVU1505
 4753 00d4 80010084 		lwz 0,132(1)
 4754              	.LBB908:
 4755              	.LBB906:
 4756              		.loc 1 1036 12 view .LVU1506
 4757 00d8 3BC00000 		li 30,0
 4758              	.LVL483:
 4759              		.loc 1 1036 12 view .LVU1507
 4760              	.LBE906:
 4761              	.LBE908:
 4762              		.loc 1 1044 1 view .LVU1508
 4763 00dc 7FC3F378 		mr 3,30
 4764 00e0 83810070 		lwz 28,112(1)
 4765 00e4 83A10074 		lwz 29,116(1)
 4766              	.LVL484:
 4767              		.loc 1 1044 1 view .LVU1509
 4768 00e8 7C0803A6 		mtlr 0
 4769              		.cfi_remember_state
 4770              		.cfi_restore 65
 4771 00ec 83C10078 		lwz 30,120(1)
 4772 00f0 83E1007C 		lwz 31,124(1)
 4773 00f4 38210080 		addi 1,1,128
 4774              		.cfi_restore 31
 4775              		.cfi_restore 30
 4776              		.cfi_restore 29
 4777              		.cfi_restore 28
 4778              		.cfi_def_cfa_offset 0
 4779 00f8 4E800020 		blr
 4780              	.LVL485:
 4781              	.L344:
 4782              		.cfi_restore_state
 4783              	.LBB909:
 4784              	.LBB898:
 4785              		.loc 1 998 3 is_stmt 1 view .LVU1510
 4786              		.loc 1 1004 3 view .LVU1511
 4787              		.loc 1 1004 20 is_stmt 0 view .LVU1512
 4788 00fc 3C600000 		lis 3,.LC6@ha
 4789              	.LVL486:
 4790              		.loc 1 1004 20 view .LVU1513
 4791 0100 38800001 		li 4,1
 4792              	.LVL487:
 4793              		.loc 1 1004 20 view .LVU1514
 4794 0104 38630000 		la 3,.LC6@l(3)
 4795 0108 48000001 		bl IOS_Open
 4796              	.LVL488:
 4797              		.loc 1 1006 3 is_stmt 1 view .LVU1515
 4798 010c 7C7E1B79 		mr. 30,3
 4799 0110 41A0FFC4 		blt- 0,.L343
 4800 0114 9361006C 		stw 27,108(1)
 4801              		.cfi_offset 27, -20
 4802 0118 3F600000 		lis 27,_ZZL16load_tmd_contentP4_tmdtE6shared@ha
 4803              		.loc 1 1011 61 is_stmt 0 view .LVU1516
 4804 011c 3B9F00B4 		addi 28,31,180
 4805 0120 3B7B0000 		la 27,_ZZL16load_tmd_contentP4_tmdtE6shared@l(27)
 4806 0124 93410068 		stw 26,104(1)
 4807              		.cfi_offset 26, -24
 4808              		.loc 1 1011 61 view .LVU1517
 4809 0128 7F9DE214 		add 28,29,28
 4810              		.loc 1 1011 15 view .LVU1518
 4811 012c 3B5B0008 		addi 26,27,8
 4812 0130 48000010 		b .L329
 4813              	.LVL489:
 4814              	.L331:
 4815              		.loc 1 1011 15 view .LVU1519
 4816 0134 48000001 		bl memcmp
 4817              	.LVL490:
 4818              		.loc 1 1011 4 discriminator 1 view .LVU1520
 4819 0138 2C030000 		cmpwi 0,3,0
 4820 013c 41820044 		beq- 0,.L346
 4821              	.L329:
 4822              		.loc 1 1009 51 is_stmt 1 view .LVU1521
 4823              		.loc 1 1009 18 is_stmt 0 view .LVU1522
 4824 0140 38A0001C 		li 5,28
 4825 0144 7F64DB78 		mr 4,27
 4826 0148 7FC3F378 		mr 3,30
 4827 014c 48000001 		bl IOS_Read
 4828              	.LVL491:
 4829              		.loc 1 1011 4 is_stmt 1 view .LVU1523
 4830              		.loc 1 1011 15 is_stmt 0 view .LVU1524
 4831 0150 38A00014 		li 5,20
 4832              		.loc 1 1009 18 view .LVU1525
 4833 0154 7C691B78 		mr 9,3
 4834              		.loc 1 1011 15 view .LVU1526
 4835 0158 7F84E378 		mr 4,28
 4836              		.loc 1 1009 51 discriminator 1 view .LVU1527
 4837 015c 2C09001C 		cmpwi 0,9,28
 4838              		.loc 1 1011 15 view .LVU1528
 4839 0160 7F43D378 		mr 3,26
 4840              		.loc 1 1009 51 discriminator 1 view .LVU1529
 4841 0164 4182FFD0 		beq+ 0,.L331
 4842              		.loc 1 1019 3 is_stmt 1 view .LVU1530
 4843              		.loc 1 1019 12 is_stmt 0 view .LVU1531
 4844 0168 7FC3F378 		mr 3,30
 4845 016c 3BC10008 		addi 30,1,8
 4846              	.LVL492:
 4847              		.loc 1 1019 12 view .LVU1532
 4848 0170 48000001 		bl IOS_Close
 4849              	.LVL493:
 4850              		.loc 1 1019 12 view .LVU1533
 4851 0174 83410068 		lwz 26,104(1)
 4852              		.cfi_remember_state
 4853              		.cfi_restore 26
 4854 0178 8361006C 		lwz 27,108(1)
 4855              		.cfi_restore 27
 4856 017c 4BFFFEE8 		b .L332
 4857              	.LVL494:
 4858              	.L346:
 4859              		.cfi_restore_state
 4860              		.loc 1 1013 5 is_stmt 1 view .LVU1534
 4861              		.loc 1 1013 11 is_stmt 0 view .LVU1535
 4862 0180 3D400000 		lis 10,.LC7@ha
 4863              		.loc 1 1014 11 view .LVU1536
 4864 0184 80DB0000 		lwz 6,0(27)
 4865              		.loc 1 1013 11 view .LVU1537
 4866 0188 392A0000 		la 9,.LC7@l(10)
 4867              		.loc 1 1014 11 view .LVU1538
 4868 018c 80FB0004 		lwz 7,4(27)
 4869              		.loc 1 1013 11 view .LVU1539
 4870 0190 808A0000 		lwz 4,.LC7@l(10)
 4871              		.loc 1 1019 12 view .LVU1540
 4872 0194 7FC3F378 		mr 3,30
 4873              		.loc 1 1013 11 view .LVU1541
 4874 0198 80A90008 		lwz 5,8(9)
 4875 019c 3BC10008 		addi 30,1,8
 4876              	.LVL495:
 4877              		.loc 1 1013 11 view .LVU1542
 4878 01a0 81090010 		lwz 8,16(9)
 4879 01a4 81490004 		lwz 10,4(9)
 4880 01a8 A1290014 		lhz 9,20(9)
 4881 01ac 90A10010 		stw 5,16(1)
 4882 01b0 91010018 		stw 8,24(1)
 4883 01b4 90810008 		stw 4,8(1)
 4884 01b8 9141000C 		stw 10,12(1)
 4885 01bc B121001C 		sth 9,28(1)
 4886              		.loc 1 1014 5 is_stmt 1 view .LVU1543
 4887              		.loc 1 1014 11 is_stmt 0 view .LVU1544
 4888 01c0 90C10011 		stw 6,17(1)
 4889 01c4 90E10015 		stw 7,21(1)
 4890              		.loc 1 1015 5 is_stmt 1 view .LVU1545
 4891              		.loc 1 1019 3 view .LVU1546
 4892              		.loc 1 1019 12 is_stmt 0 view .LVU1547
 4893 01c8 48000001 		bl IOS_Close
 4894              	.LVL496:
 4895              		.loc 1 1019 12 view .LVU1548
 4896 01cc 83410068 		lwz 26,104(1)
 4897              		.cfi_restore 26
 4898 01d0 8361006C 		lwz 27,108(1)
 4899              		.cfi_restore 27
 4900 01d4 4BFFFE90 		b .L332
 4901              	.LBE898:
 4902              	.LBE909:
 4903              		.cfi_endproc
 4904              	.LFE1375:
 4905              		.size	_ZL16load_tmd_contentP4_tmdt, .-_ZL16load_tmd_contentP4_tmdt
 4906              		.section	.rodata._Z9get_certsv.str1.4,"aMS",@progbits,1
 4907              		.align 2
 4908              	.LC9:
 4909 0000 2F737973 		.string	"/sys/cert.sys"
 4909      2F636572 
 4909      742E7379 
 4909      7300
 4910              		.section	.text._Z9get_certsv,"ax",@progbits
 4911              		.align 2
 4912              		.globl _Z9get_certsv
 4913              		.type	_Z9get_certsv, @function
 4914              	_Z9get_certsv:
 4915              	.LFB1363:
 4916              		.loc 1 520 1 is_stmt 1 view -0
 4917              		.cfi_startproc
 4918              		.loc 1 521 2 view .LVU1550
 4919              		.loc 1 522 2 view .LVU1551
 4920              		.loc 1 520 1 is_stmt 0 view .LVU1552
 4921 0000 9421FFF0 		stwu 1,-16(1)
 4922              		.cfi_def_cfa_offset 16
 4923              		.loc 1 522 19 view .LVU1553
 4924 0004 3C600000 		lis 3,.LC9@ha
 4925              		.loc 1 520 1 view .LVU1554
 4926 0008 7C0802A6 		mflr 0
 4927              		.loc 1 522 19 view .LVU1555
 4928 000c 38800001 		li 4,1
 4929 0010 38630000 		la 3,.LC9@l(3)
 4930              		.loc 1 520 1 view .LVU1556
 4931 0014 93C10008 		stw 30,8(1)
 4932 0018 90010014 		stw 0,20(1)
 4933              		.cfi_offset 65, 4
 4934              		.cfi_offset 30, -8
 4935              		.loc 1 522 19 view .LVU1557
 4936 001c 48000001 		bl IOS_Open
 4937              	.LVL497:
 4938              		.loc 1 523 2 is_stmt 1 view .LVU1558
 4939 0020 7C7E1B79 		mr. 30,3
 4940 0024 39200000 		li 9,0
 4941 0028 41800034 		blt- 0,.L347
 4942              		.loc 1 526 2 view .LVU1559
 4943              		.loc 1 526 19 is_stmt 0 view .LVU1560
 4944 002c 3C800000 		lis 4,sys_certs@ha
 4945 0030 38A00A00 		li 5,2560
 4946 0034 38840000 		la 4,sys_certs@l(4)
 4947 0038 93E1000C 		stw 31,12(1)
 4948              		.cfi_offset 31, -4
 4949              		.loc 1 526 19 view .LVU1561
 4950 003c 48000001 		bl IOS_Read
 4951              	.LVL498:
 4952              		.loc 1 526 19 view .LVU1562
 4953 0040 7C7F1B78 		mr 31,3
 4954              		.loc 1 527 11 view .LVU1563
 4955 0044 7FC3F378 		mr 3,30
 4956              	.LVL499:
 4957              		.loc 1 527 2 is_stmt 1 view .LVU1564
 4958              		.loc 1 527 11 is_stmt 0 view .LVU1565
 4959 0048 48000001 		bl IOS_Close
 4960              	.LVL500:
 4961              		.loc 1 529 2 is_stmt 1 view .LVU1566
 4962              		.loc 1 529 32 is_stmt 0 view .LVU1567
 4963 004c 6BE90A00 		xori 9,31,0xa00
 4964 0050 7D290034 		cntlzw 9,9
 4965 0054 83E1000C 		lwz 31,12(1)
 4966              		.cfi_restore 31
 4967              	.LVL501:
 4968              		.loc 1 529 32 view .LVU1568
 4969 0058 5529D97E 		srwi 9,9,5
 4970              	.LVL502:
 4971              	.L347:
 4972              		.loc 1 530 1 view .LVU1569
 4973 005c 80010014 		lwz 0,20(1)
 4974 0060 7D234B78 		mr 3,9
 4975 0064 83C10008 		lwz 30,8(1)
 4976              	.LVL503:
 4977              		.loc 1 530 1 view .LVU1570
 4978 0068 38210010 		addi 1,1,16
 4979              		.cfi_restore 30
 4980              		.cfi_def_cfa_offset 0
 4981 006c 7C0803A6 		mtlr 0
 4982              		.cfi_restore 65
 4983 0070 4E800020 		blr
 4984              		.cfi_endproc
 4985              	.LFE1363:
 4986              		.size	_Z9get_certsv, .-_Z9get_certsv
 4987              		.section	.text._Z9forge_sigPhj,"ax",@progbits
 4988              		.align 2
 4989              		.globl _Z9forge_sigPhj
 4990              		.type	_Z9forge_sigPhj, @function
 4991              	_Z9forge_sigPhj:
 4992              	.LVL504:
 4993              	.LFB1364:
 4994              		.loc 1 533 1 is_stmt 1 view -0
 4995              		.cfi_startproc
 4996              		.loc 1 534 2 view .LVU1572
 4997              		.loc 1 535 2 view .LVU1573
 4998              		.loc 1 536 2 view .LVU1574
 4999 0000 81230000 		lwz 9,0(3)
 5000              		.loc 1 533 1 is_stmt 0 view .LVU1575
 5001 0004 7C0802A6 		mflr 0
 5002 0008 9421FFB8 		stwu 1,-72(1)
 5003              		.cfi_def_cfa_offset 72
 5004              		.cfi_register 65, 0
 5005 000c 3D29FFFF 		addis 9,9,0xffff
 5006 0010 28090002 		cmplwi 0,9,2
 5007 0014 93C10040 		stw 30,64(1)
 5008 0018 9001004C 		stw 0,76(1)
 5009              		.cfi_offset 30, -8
 5010              		.cfi_offset 65, 4
 5011 001c 7C7E1B78 		mr 30,3
 5012 0020 93610034 		stw 27,52(1)
 5013 0024 93810038 		stw 28,56(1)
 5014 0028 93A1003C 		stw 29,60(1)
 5015              		.cfi_offset 27, -20
 5016              		.cfi_offset 28, -16
 5017              		.cfi_offset 29, -12
 5018 002c 41810150 		bgt- 0,.L363
 5019 0030 3D400000 		lis 10,CSWTCH.182@ha
 5020              		.loc 1 542 2 view .LVU1576
 5021 0034 280402A4 		cmplwi 0,4,676
 5022 0038 5529103A 		slwi 9,9,2
 5023 003c 394A0000 		la 10,CSWTCH.182@l(10)
 5024 0040 7D2A482E 		lwzx 9,10,9
 5025              		.loc 1 536 6 discriminator 12 view .LVU1577
 5026 0044 7F692050 		subf 27,9,4
 5027              		.loc 1 537 6 view .LVU1578
 5028 0048 7F834A14 		add 28,3,9
 5029              	.LVL505:
 5030              		.loc 1 537 2 is_stmt 1 view .LVU1579
 5031              		.loc 1 538 2 view .LVU1580
 5032              		.loc 1 539 2 view .LVU1581
 5033              		.loc 1 540 2 view .LVU1582
 5034              		.loc 1 542 2 view .LVU1583
 5035 004c 41820144 		beq- 0,.L375
 5036              	.LVL506:
 5037              	.L354:
 5038              		.loc 1 554 3 view .LVU1584
 5039              		.loc 1 554 16 is_stmt 0 discriminator 12 view .LVU1585
 5040 0050 A15C009E 		lhz 10,158(28)
 5041              		.loc 1 554 16 discriminator 24 view .LVU1586
 5042 0054 392900A4 		addi 9,9,164
 5043              		.loc 1 554 16 discriminator 12 view .LVU1587
 5044 0058 1D4A0024 		mulli 10,10,36
 5045              		.loc 1 554 16 discriminator 24 view .LVU1588
 5046 005c 7D2A4A14 		add 9,10,9
 5047              		.loc 1 554 3 discriminator 24 view .LVU1589
 5048 0060 7C092040 		cmplw 0,9,4
 5049 0064 41810178 		bgt- 0,.L362
 5050              		.loc 1 559 3 is_stmt 1 view .LVU1590
 5051              		.loc 1 559 9 is_stmt 0 view .LVU1591
 5052 0068 3C800000 		lis 4,.LANCHOR0@ha
 5053              	.LVL507:
 5054              		.loc 1 559 9 view .LVU1592
 5055 006c 7FC3F378 		mr 3,30
 5056              	.LVL508:
 5057              		.loc 1 559 9 view .LVU1593
 5058 0070 38840000 		la 4,.LANCHOR0@l(4)
 5059 0074 38A00104 		li 5,260
 5060 0078 38840154 		addi 4,4,340
 5061              		.loc 1 561 14 view .LVU1594
 5062 007c 3FA00000 		lis 29,_ZL8tmd_hash@ha
 5063 0080 9321002C 		stw 25,44(1)
 5064              		.cfi_offset 25, -28
 5065              		.loc 1 560 16 view .LVU1595
 5066 0084 3BDE01E2 		addi 30,30,482
 5067              	.LVL509:
 5068              		.loc 1 560 16 view .LVU1596
 5069 0088 93410030 		stw 26,48(1)
 5070              		.cfi_offset 26, -24
 5071              		.loc 1 561 14 view .LVU1597
 5072 008c 3BBD0000 		la 29,_ZL8tmd_hash@l(29)
 5073 0090 93E10044 		stw 31,68(1)
 5074              		.cfi_offset 31, -4
 5075              		.loc 1 559 9 view .LVU1598
 5076 0094 48000001 		bl memcpy
 5077              	.LVL510:
 5078              		.loc 1 560 3 is_stmt 1 view .LVU1599
 5079              		.loc 1 561 3 view .LVU1600
 5080              	.L356:
 5081              		.loc 1 564 2 view .LVU1601
 5082              		.loc 1 564 14 discriminator 1 view .LVU1602
 5083              		.loc 1 564 8 is_stmt 0 view .LVU1603
 5084 0098 3BE00000 		li 31,0
 5085 009c 3B3D0013 		addi 25,29,19
 5086              		.loc 1 564 14 discriminator 1 view .LVU1604
 5087 00a0 3F400001 		lis 26,0x1
 5088 00a4 48000010 		b .L361
 5089              	.LVL511:
 5090              	.L359:
 5091              		.loc 1 564 2 is_stmt 1 discriminator 2 view .LVU1605
 5092 00a8 3BFF0001 		addi 31,31,1
 5093              	.LVL512:
 5094              		.loc 1 564 14 discriminator 1 view .LVU1606
 5095 00ac 7C1FD000 		cmpw 0,31,26
 5096 00b0 41820120 		beq- 0,.L376
 5097              	.LVL513:
 5098              	.L361:
 5099              		.loc 1 566 3 view .LVU1607
 5100              		.loc 1 566 17 is_stmt 0 view .LVU1608
 5101 00b4 B3FE0000 		sth 31,0(30)
 5102              		.loc 1 567 3 is_stmt 1 view .LVU1609
 5103              		.loc 1 567 7 is_stmt 0 view .LVU1610
 5104 00b8 38A10008 		addi 5,1,8
 5105 00bc 7F64DB78 		mr 4,27
 5106 00c0 7F83E378 		mr 3,28
 5107 00c4 48000001 		bl _Z4SHA1PKhjPh
 5108              	.LVL514:
 5109              		.loc 1 568 3 is_stmt 1 view .LVU1611
 5110 00c8 89210008 		lbz 9,8(1)
 5111 00cc 2C090000 		cmpwi 0,9,0
 5112 00d0 4082FFD8 		bne+ 0,.L359
 5113 00d4 7D3DC850 		subf 9,29,25
 5114 00d8 39010008 		addi 8,1,8
 5115 00dc 712A0001 		andi. 10,9,0x1
 5116 00e0 7FAAEB78 		mr 10,29
 5117 00e4 41820024 		beq- 0,.L368
 5118              	.LVL515:
 5119              		.loc 1 572 5 view .LVU1612
 5120 00e8 88C10009 		lbz 6,9(1)
 5121              		.loc 1 572 15 is_stmt 0 view .LVU1613
 5122 00ec 39010009 		addi 8,1,9
 5123              		.loc 1 572 5 view .LVU1614
 5124 00f0 88FD0001 		lbz 7,1(29)
 5125              		.loc 1 572 16 view .LVU1615
 5126 00f4 395D0001 		addi 10,29,1
 5127              	.LVL516:
 5128              		.loc 1 572 5 view .LVU1616
 5129 00f8 7C063800 		cmpw 0,6,7
 5130 00fc 4182004C 		beq- 0,.L364
 5131              		.loc 1 570 4 is_stmt 1 discriminator 2 view .LVU1617
 5132              	.LVL517:
 5133              		.loc 1 570 16 discriminator 1 view .LVU1618
 5134 0100 7C0AC840 		cmplw 0,10,25
 5135 0104 41A2FFA4 		beq- 0,.L359
 5136              	.LVL518:
 5137              	.L368:
 5138              		.loc 1 570 16 is_stmt 0 discriminator 1 view .LVU1619
 5139 0108 5529F87E 		srwi 9,9,1
 5140 010c 7D2903A6 		mtctr 9
 5141 0110 48000018 		b .L360
 5142              	.LVL519:
 5143              	.L377:
 5144              		.loc 1 572 5 view .LVU1620
 5145 0114 88E70001 		lbz 7,1(7)
 5146 0118 89290001 		lbz 9,1(9)
 5147 011c 7C074800 		cmpw 0,7,9
 5148 0120 41820028 		beq- 0,.L364
 5149              		.loc 1 570 16 discriminator 1 view .LVU1621
 5150 0124 4240FF84 		bdz .L359
 5151              	.LVL520:
 5152              	.L360:
 5153              		.loc 1 572 5 is_stmt 1 view .LVU1622
 5154              		.loc 1 570 4 discriminator 2 view .LVU1623
 5155              		.loc 1 570 16 discriminator 1 view .LVU1624
 5156              		.loc 1 572 5 view .LVU1625
 5157              		.loc 1 570 4 discriminator 2 view .LVU1626
 5158              		.loc 1 572 5 is_stmt 0 view .LVU1627
 5159 0128 88A80001 		lbz 5,1(8)
 5160              		.loc 1 572 15 view .LVU1628
 5161 012c 38E80001 		addi 7,8,1
 5162              		.loc 1 572 5 view .LVU1629
 5163 0130 88CA0001 		lbz 6,1(10)
 5164              		.loc 1 572 16 view .LVU1630
 5165 0134 392A0001 		addi 9,10,1
 5166              		.loc 1 572 15 view .LVU1631
 5167 0138 39080002 		addi 8,8,2
 5168              	.LVL521:
 5169              		.loc 1 570 16 is_stmt 1 discriminator 1 view .LVU1632
 5170              		.loc 1 572 16 is_stmt 0 view .LVU1633
 5171 013c 394A0002 		addi 10,10,2
 5172              		.loc 1 572 5 view .LVU1634
 5173 0140 7C053000 		cmpw 0,5,6
 5174 0144 4082FFD0 		bne+ 0,.L377
 5175              	.LVL522:
 5176              	.L364:
 5177              		.loc 1 582 1 view .LVU1635
 5178 0148 8001004C 		lwz 0,76(1)
 5179              		.loc 1 575 13 view .LVU1636
 5180 014c 38600001 		li 3,1
 5181 0150 8321002C 		lwz 25,44(1)
 5182              		.cfi_restore 25
 5183              		.loc 1 582 1 view .LVU1637
 5184 0154 546307FE 		rlwinm 3,3,0,31,31
 5185              		.loc 1 575 13 view .LVU1638
 5186 0158 83410030 		lwz 26,48(1)
 5187              		.cfi_restore 26
 5188              		.loc 1 582 1 view .LVU1639
 5189 015c 7C0803A6 		mtlr 0
 5190              		.cfi_restore 65
 5191              		.loc 1 575 13 view .LVU1640
 5192 0160 83E10044 		lwz 31,68(1)
 5193              		.cfi_restore 31
 5194              	.LVL523:
 5195              		.loc 1 582 1 view .LVU1641
 5196 0164 83610034 		lwz 27,52(1)
 5197 0168 83810038 		lwz 28,56(1)
 5198 016c 83A1003C 		lwz 29,60(1)
 5199              	.LVL524:
 5200              		.loc 1 582 1 view .LVU1642
 5201 0170 83C10040 		lwz 30,64(1)
 5202              	.LVL525:
 5203              		.loc 1 582 1 view .LVU1643
 5204 0174 38210048 		addi 1,1,72
 5205              		.cfi_restore 30
 5206              		.cfi_restore 29
 5207              		.cfi_restore 28
 5208              		.cfi_restore 27
 5209              		.cfi_def_cfa_offset 0
 5210 0178 4E800020 		blr
 5211              	.LVL526:
 5212              	.L363:
 5213              		.cfi_def_cfa_offset 72
 5214              		.cfi_offset 27, -20
 5215              		.cfi_offset 28, -16
 5216              		.cfi_offset 29, -12
 5217              		.cfi_offset 30, -8
 5218              		.cfi_offset 65, 4
 5219              		.loc 1 542 2 view .LVU1644
 5220 017c 280402A4 		cmplwi 0,4,676
 5221              		.loc 1 536 29 view .LVU1645
 5222 0180 7C7C1B78 		mr 28,3
 5223 0184 7C9B2378 		mr 27,4
 5224 0188 39200000 		li 9,0
 5225              	.LVL527:
 5226              		.loc 1 537 2 is_stmt 1 view .LVU1646
 5227              		.loc 1 538 2 view .LVU1647
 5228              		.loc 1 539 2 view .LVU1648
 5229              		.loc 1 540 2 view .LVU1649
 5230              		.loc 1 542 2 view .LVU1650
 5231 018c 4082FEC4 		bne+ 0,.L354
 5232              	.LVL528:
 5233              	.L375:
 5234              		.loc 1 544 3 view .LVU1651
 5235              		.loc 1 544 9 is_stmt 0 view .LVU1652
 5236 0190 3C800000 		lis 4,.LANCHOR0@ha
 5237              	.LVL529:
 5238              		.loc 1 544 9 view .LVU1653
 5239 0194 38A00104 		li 5,260
 5240 0198 38840000 		la 4,.LANCHOR0@l(4)
 5241 019c 7FC3F378 		mr 3,30
 5242              	.LVL530:
 5243              		.loc 1 544 9 view .LVU1654
 5244 01a0 38840050 		addi 4,4,80
 5245 01a4 9321002C 		stw 25,44(1)
 5246              		.cfi_offset 25, -28
 5247 01a8 93410030 		stw 26,48(1)
 5248              		.cfi_offset 26, -24
 5249              		.loc 1 550 14 view .LVU1655
 5250 01ac 3FA00000 		lis 29,_ZL8tik_hash@ha
 5251 01b0 93E10044 		stw 31,68(1)
 5252              		.cfi_offset 31, -4
 5253              		.loc 1 544 9 view .LVU1656
 5254 01b4 48000001 		bl memcpy
 5255              	.LVL531:
 5256              		.loc 1 546 3 is_stmt 1 view .LVU1657
 5257 01b8 813E01D8 		lwz 9,472(30)
 5258 01bc 2C090000 		cmpwi 0,9,0
 5259 01c0 41820044 		beq- 0,.L355
 5260              		.loc 1 547 4 view .LVU1658
 5261              		.loc 1 547 17 is_stmt 0 view .LVU1659
 5262 01c4 3BDE01D6 		addi 30,30,470
 5263              	.LVL532:
 5264              		.loc 1 550 14 view .LVU1660
 5265 01c8 3BBD0000 		la 29,_ZL8tik_hash@l(29)
 5266 01cc 4BFFFECC 		b .L356
 5267              	.LVL533:
 5268              	.L376:
 5269              		.loc 1 550 14 view .LVU1661
 5270 01d0 8321002C 		lwz 25,44(1)
 5271              		.cfi_restore 25
 5272 01d4 83410030 		lwz 26,48(1)
 5273              		.cfi_restore 26
 5274 01d8 83E10044 		lwz 31,68(1)
 5275              		.cfi_restore 31
 5276              	.LVL534:
 5277              	.L362:
 5278              		.loc 1 582 1 view .LVU1662
 5279 01dc 8001004C 		lwz 0,76(1)
 5280              		.loc 1 557 11 view .LVU1663
 5281 01e0 38600000 		li 3,0
 5282              		.loc 1 582 1 view .LVU1664
 5283 01e4 83610034 		lwz 27,52(1)
 5284 01e8 546307FE 		rlwinm 3,3,0,31,31
 5285 01ec 83810038 		lwz 28,56(1)
 5286 01f0 7C0803A6 		mtlr 0
 5287              		.cfi_restore 65
 5288 01f4 83A1003C 		lwz 29,60(1)
 5289 01f8 83C10040 		lwz 30,64(1)
 5290 01fc 38210048 		addi 1,1,72
 5291              		.cfi_restore 30
 5292              		.cfi_restore 29
 5293              		.cfi_restore 28
 5294              		.cfi_restore 27
 5295              		.cfi_def_cfa_offset 0
 5296 0200 4E800020 		blr
 5297              	.LVL535:
 5298              	.L355:
 5299              		.cfi_def_cfa_offset 72
 5300              		.cfi_offset 25, -28
 5301              		.cfi_offset 26, -24
 5302              		.cfi_offset 27, -20
 5303              		.cfi_offset 28, -16
 5304              		.cfi_offset 29, -12
 5305              		.cfi_offset 30, -8
 5306              		.cfi_offset 31, -4
 5307              		.cfi_offset 65, 4
 5308              		.loc 1 549 4 is_stmt 1 view .LVU1665
 5309              		.loc 1 549 17 is_stmt 0 view .LVU1666
 5310 0204 3BDE0262 		addi 30,30,610
 5311              	.LVL536:
 5312              		.loc 1 550 14 view .LVU1667
 5313 0208 3BBD0000 		la 29,_ZL8tik_hash@l(29)
 5314 020c 4BFFFE8C 		b .L356
 5315              		.cfi_endproc
 5316              	.LFE1364:
 5317              		.size	_Z9forge_sigPhj, .-_Z9forge_sigPhj
 5318              		.section	.rodata._Z11make_tickety.str1.4,"aMS",@progbits,1
 5319              		.align 2
 5320              	.LC12:
 5321 0000 526F6F74 		.string	"Root-CA00000001-XS00000003"
 5321      2D434130 
 5321      30303030 
 5321      3030312D 
 5321      58533030 
 5322              		.section	.text._Z11make_tickety,"ax",@progbits
 5323              		.align 2
 5324              		.globl _Z11make_tickety
 5325              		.type	_Z11make_tickety, @function
 5326              	_Z11make_tickety:
 5327              	.LVL537:
 5328              	.LFB1365:
 5329              		.loc 1 585 1 is_stmt 1 view -0
 5330              		.cfi_startproc
 5331              		.loc 1 586 2 view .LVU1669
 5332              		.loc 1 585 1 is_stmt 0 view .LVU1670
 5333 0000 9421FFE0 		stwu 1,-32(1)
 5334              		.cfi_def_cfa_offset 32
 5335 0004 7C0802A6 		mflr 0
 5336 0008 93A10014 		stw 29,20(1)
 5337              		.cfi_register 65, 0
 5338              		.cfi_offset 29, -12
 5339 000c 7C7D1B78 		mr 29,3
 5340 0010 93C10018 		stw 30,24(1)
 5341              		.loc 1 586 30 view .LVU1671
 5342 0014 38600020 		li 3,32
 5343              	.LVL538:
 5344              		.cfi_offset 30, -8
 5345              		.loc 1 585 1 view .LVU1672
 5346 0018 7C9E2378 		mr 30,4
 5347              		.loc 1 586 30 view .LVU1673
 5348 001c 388002A4 		li 4,676
 5349              		.loc 1 585 1 view .LVU1674
 5350 0020 93E1001C 		stw 31,28(1)
 5351 0024 90010024 		stw 0,36(1)
 5352              		.cfi_offset 31, -4
 5353              		.cfi_offset 65, 4
 5354              		.loc 1 586 30 view .LVU1675
 5355 0028 48000001 		bl memalign
 5356              	.LVL539:
 5357              		.loc 1 587 2 is_stmt 1 view .LVU1676
 5358              	.LBB912:
 5359 002c 7C7F1B79 		mr. 31,3
 5360 0030 418200C0 		beq- 0,.L378
 5361              	.LBB913:
 5362              		.loc 1 589 3 view .LVU1677
 5363              		.loc 1 590 3 view .LVU1678
 5364              		.loc 1 590 9 is_stmt 0 view .LVU1679
 5365 0034 38A002A4 		li 5,676
 5366 0038 38800000 		li 4,0
 5367 003c 93410008 		stw 26,8(1)
 5368              		.cfi_offset 26, -24
 5369              		.loc 1 596 25 view .LVU1680
 5370 0040 3F400123 		lis 26,0x123
 5371 0044 9361000C 		stw 27,12(1)
 5372              		.cfi_offset 27, -20
 5373              		.loc 1 590 9 view .LVU1681
 5374 0048 48000001 		bl memset
 5375              	.LVL540:
 5376              		.loc 1 591 3 is_stmt 1 view .LVU1682
 5377              		.loc 1 595 9 is_stmt 0 view .LVU1683
 5378 004c 3D200000 		lis 9,.LC12@ha
 5379              		.loc 1 591 11 view .LVU1684
 5380 0050 3D000001 		lis 8,0x1
 5381              		.loc 1 595 9 view .LVU1685
 5382 0054 39490000 		la 10,.LC12@l(9)
 5383              		.loc 1 591 11 view .LVU1686
 5384 0058 61080001 		ori 8,8,0x1
 5385              		.loc 1 595 9 view .LVU1687
 5386 005c 80AA000C 		lwz 5,12(10)
 5387              		.loc 1 596 25 view .LVU1688
 5388 0060 3F6089AB 		lis 27,0x89ab
 5389              		.loc 1 591 11 view .LVU1689
 5390 0064 911F0000 		stw 8,0(31)
 5391              		.loc 1 593 3 is_stmt 1 view .LVU1690
 5392              	.LVL541:
 5393              		.loc 1 595 3 view .LVU1691
 5394              		.loc 1 598 28 is_stmt 0 view .LVU1692
 5395 0068 38C0FFFF 		li 6,-1
 5396              		.loc 1 595 9 view .LVU1693
 5397 006c 810A0014 		lwz 8,20(10)
 5398              		.loc 1 599 31 view .LVU1694
 5399 0070 38E00001 		li 7,1
 5400              		.loc 1 595 9 view .LVU1695
 5401 0074 806A0004 		lwz 3,4(10)
 5402              		.loc 1 596 25 view .LVU1696
 5403 0078 635A4567 		ori 26,26,0x4567
 5404              		.loc 1 595 9 view .LVU1697
 5405 007c 808A0008 		lwz 4,8(10)
 5406              		.loc 1 596 25 view .LVU1698
 5407 0080 637BCDEF 		ori 27,27,0xcdef
 5408              		.loc 1 595 9 view .LVU1699
 5409 0084 81690000 		lwz 11,.LC12@l(9)
 5410 0088 90BF014C 		stw 5,332(31)
 5411 008c 911F0154 		stw 8,340(31)
 5412 0090 80AA0010 		lwz 5,16(10)
 5413 0094 A10A0018 		lhz 8,24(10)
 5414 0098 894A001A 		lbz 10,26(10)
 5415 009c 917F0140 		stw 11,320(31)
 5416 00a0 907F0144 		stw 3,324(31)
 5417              		.loc 1 600 9 view .LVU1700
 5418 00a4 387F0222 		addi 3,31,546
 5419              		.loc 1 595 9 view .LVU1701
 5420 00a8 909F0148 		stw 4,328(31)
 5421              		.loc 1 600 9 view .LVU1702
 5422 00ac 388000FF 		li 4,255
 5423              		.loc 1 595 9 view .LVU1703
 5424 00b0 90BF0150 		stw 5,336(31)
 5425              		.loc 1 600 9 view .LVU1704
 5426 00b4 38A00020 		li 5,32
 5427              		.loc 1 595 9 view .LVU1705
 5428 00b8 B11F0158 		sth 8,344(31)
 5429 00bc 995F015A 		stb 10,346(31)
 5430              		.loc 1 596 3 is_stmt 1 view .LVU1706
 5431              		.loc 1 596 25 is_stmt 0 view .LVU1707
 5432 00c0 935F01D0 		stw 26,464(31)
 5433 00c4 937F01D4 		stw 27,468(31)
 5434              		.loc 1 597 3 is_stmt 1 view .LVU1708
 5435              		.loc 1 598 3 view .LVU1709
 5436              		.loc 1 598 28 is_stmt 0 view .LVU1710
 5437 00c8 B0DF01E4 		sth 6,484(31)
 5438              		.loc 1 599 3 is_stmt 1 view .LVU1711
 5439              		.loc 1 599 31 is_stmt 0 view .LVU1712
 5440 00cc 98FF0221 		stb 7,545(31)
 5441              		.loc 1 600 3 is_stmt 1 view .LVU1713
 5442              		.loc 1 597 24 is_stmt 0 view .LVU1714
 5443 00d0 93BF01DC 		stw 29,476(31)
 5444 00d4 93DF01E0 		stw 30,480(31)
 5445              		.loc 1 600 9 view .LVU1715
 5446 00d8 48000001 		bl memset
 5447              	.LVL542:
 5448              		.loc 1 602 3 is_stmt 1 view .LVU1716
 5449              		.loc 1 602 12 is_stmt 0 view .LVU1717
 5450 00dc 388002A4 		li 4,676
 5451 00e0 7FE3FB78 		mr 3,31
 5452 00e4 48000001 		bl _Z9forge_sigPhj
 5453              	.LVL543:
 5454              	.LBE913:
 5455              	.LBE912:
 5456              		.loc 1 605 2 is_stmt 1 view .LVU1718
 5457              	.LBB915:
 5458              	.LBB914:
 5459              		.loc 1 602 12 is_stmt 0 view .LVU1719
 5460 00e8 83410008 		lwz 26,8(1)
 5461              		.cfi_restore 26
 5462 00ec 8361000C 		lwz 27,12(1)
 5463              		.cfi_restore 27
 5464              	.LVL544:
 5465              	.L378:
 5466              		.loc 1 602 12 view .LVU1720
 5467              	.LBE914:
 5468              	.LBE915:
 5469              		.loc 1 606 1 view .LVU1721
 5470 00f0 80010024 		lwz 0,36(1)
 5471 00f4 7FE3FB78 		mr 3,31
 5472 00f8 83A10014 		lwz 29,20(1)
 5473 00fc 83C10018 		lwz 30,24(1)
 5474 0100 7C0803A6 		mtlr 0
 5475              		.cfi_restore 65
 5476 0104 83E1001C 		lwz 31,28(1)
 5477              	.LVL545:
 5478              		.loc 1 606 1 view .LVU1722
 5479 0108 38210020 		addi 1,1,32
 5480              		.cfi_restore 31
 5481              		.cfi_restore 30
 5482              		.cfi_restore 29
 5483              		.cfi_def_cfa_offset 0
 5484 010c 4E800020 		blr
 5485              		.cfi_endproc
 5486              	.LFE1365:
 5487              		.size	_Z11make_tickety, .-_Z11make_tickety
 5488              		.section	.rodata._Z8make_tmdy.str1.4,"aMS",@progbits,1
 5489              		.align 2
 5490              	.LC13:
 5491 0000 526F6F74 		.string	"Root-CA00000001-CP00000004"
 5491      2D434130 
 5491      30303030 
 5491      3030312D 
 5491      43503030 
 5492              		.section	.text._Z8make_tmdy,"ax",@progbits
 5493              		.align 2
 5494              		.globl _Z8make_tmdy
 5495              		.type	_Z8make_tmdy, @function
 5496              	_Z8make_tmdy:
 5497              	.LVL546:
 5498              	.LFB1366:
 5499              		.loc 1 609 1 is_stmt 1 view -0
 5500              		.cfi_startproc
 5501              		.loc 1 610 2 view .LVU1724
 5502              		.loc 1 609 1 is_stmt 0 view .LVU1725
 5503 0000 9421FFE8 		stwu 1,-24(1)
 5504              		.cfi_def_cfa_offset 24
 5505 0004 7C0802A6 		mflr 0
 5506 0008 93A1000C 		stw 29,12(1)
 5507              		.cfi_register 65, 0
 5508              		.cfi_offset 29, -12
 5509 000c 7C7D1B78 		mr 29,3
 5510 0010 93C10010 		stw 30,16(1)
 5511              		.loc 1 610 27 view .LVU1726
 5512 0014 38600020 		li 3,32
 5513              	.LVL547:
 5514              		.cfi_offset 30, -8
 5515              		.loc 1 609 1 view .LVU1727
 5516 0018 7C9E2378 		mr 30,4
 5517              		.loc 1 610 27 view .LVU1728
 5518 001c 38800208 		li 4,520
 5519              		.loc 1 609 1 view .LVU1729
 5520 0020 93E10014 		stw 31,20(1)
 5521 0024 9001001C 		stw 0,28(1)
 5522              		.cfi_offset 31, -4
 5523              		.cfi_offset 65, 4
 5524              		.loc 1 610 27 view .LVU1730
 5525 0028 48000001 		bl memalign
 5526              	.LVL548:
 5527              		.loc 1 611 2 is_stmt 1 view .LVU1731
 5528              	.LBB916:
 5529 002c 7C7F1B79 		mr. 31,3
 5530 0030 418200A0 		beq- 0,.L384
 5531              	.LBB917:
 5532              		.loc 1 613 3 view .LVU1732
 5533              		.loc 1 614 3 view .LVU1733
 5534              		.loc 1 614 9 is_stmt 0 view .LVU1734
 5535 0034 38A00208 		li 5,520
 5536 0038 38800000 		li 4,0
 5537 003c 48000001 		bl memset
 5538              	.LVL549:
 5539              		.loc 1 615 3 is_stmt 1 view .LVU1735
 5540              		.loc 1 619 9 is_stmt 0 view .LVU1736
 5541 0040 3D200000 		lis 9,.LC13@ha
 5542 0044 39490000 		la 10,.LC13@l(9)
 5543 0048 81690000 		lwz 11,.LC13@l(9)
 5544 004c 80AA000C 		lwz 5,12(10)
 5545              		.loc 1 615 8 view .LVU1737
 5546 0050 3CE00001 		lis 7,0x1
 5547              		.loc 1 619 9 view .LVU1738
 5548 0054 806A0004 		lwz 3,4(10)
 5549              		.loc 1 615 8 view .LVU1739
 5550 0058 60E70001 		ori 7,7,0x1
 5551              		.loc 1 619 9 view .LVU1740
 5552 005c 90BF014C 		stw 5,332(31)
 5553              		.loc 1 622 27 view .LVU1741
 5554 0060 3D00FFFF 		lis 8,0xffff
 5555              		.loc 1 619 9 view .LVU1742
 5556 0064 80AA0014 		lwz 5,20(10)
 5557              		.loc 1 622 27 view .LVU1743
 5558 0068 61080001 		ori 8,8,0x1
 5559              		.loc 1 619 9 view .LVU1744
 5560 006c 808A0008 		lwz 4,8(10)
 5561              		.loc 1 621 27 view .LVU1745
 5562 0070 38C0FFFF 		li 6,-1
 5563              		.loc 1 619 9 view .LVU1746
 5564 0074 917F0140 		stw 11,320(31)
 5565 0078 90BF0154 		stw 5,340(31)
 5566 007c 816A0010 		lwz 11,16(10)
 5567 0080 A0AA0018 		lhz 5,24(10)
 5568 0084 894A001A 		lbz 10,26(10)
 5569              		.loc 1 615 8 view .LVU1747
 5570 0088 90FF0000 		stw 7,0(31)
 5571              		.loc 1 617 3 is_stmt 1 view .LVU1748
 5572              	.LVL550:
 5573              		.loc 1 619 3 view .LVU1749
 5574              		.loc 1 625 24 is_stmt 0 view .LVU1750
 5575 008c 38E00001 		li 7,1
 5576              		.loc 1 619 9 view .LVU1751
 5577 0090 907F0144 		stw 3,324(31)
 5578              		.loc 1 628 12 discriminator 24 view .LVU1752
 5579 0094 7FE3FB78 		mr 3,31
 5580              		.loc 1 619 9 view .LVU1753
 5581 0098 909F0148 		stw 4,328(31)
 5582              		.loc 1 628 12 discriminator 24 view .LVU1754
 5583 009c 38800208 		li 4,520
 5584              		.loc 1 619 9 view .LVU1755
 5585 00a0 917F0150 		stw 11,336(31)
 5586 00a4 B0BF0158 		sth 5,344(31)
 5587 00a8 995F015A 		stb 10,346(31)
 5588              		.loc 1 620 3 is_stmt 1 view .LVU1756
 5589              		.loc 1 621 3 view .LVU1757
 5590              		.loc 1 622 3 view .LVU1758
 5591              		.loc 1 623 22 is_stmt 0 view .LVU1759
 5592 00ac 93BF018C 		stw 29,396(31)
 5593 00b0 93DF0190 		stw 30,400(31)
 5594              		.loc 1 624 25 view .LVU1760
 5595 00b4 93BF0184 		stw 29,388(31)
 5596 00b8 93DF0188 		stw 30,392(31)
 5597              		.loc 1 621 27 view .LVU1761
 5598 00bc 90DF01D8 		stw 6,472(31)
 5599              		.loc 1 622 27 view .LVU1762
 5600 00c0 911F01DC 		stw 8,476(31)
 5601              		.loc 1 623 3 is_stmt 1 view .LVU1763
 5602              		.loc 1 624 3 view .LVU1764
 5603              		.loc 1 625 3 view .LVU1765
 5604              		.loc 1 625 24 is_stmt 0 view .LVU1766
 5605 00c4 90FF0194 		stw 7,404(31)
 5606              		.loc 1 626 3 is_stmt 1 view .LVU1767
 5607              		.loc 1 626 22 is_stmt 0 view .LVU1768
 5608 00c8 B0FF0198 		sth 7,408(31)
 5609              		.loc 1 628 3 is_stmt 1 view .LVU1769
 5610              		.loc 1 628 12 is_stmt 0 discriminator 24 view .LVU1770
 5611 00cc 48000001 		bl _Z9forge_sigPhj
 5612              	.LVL551:
 5613              	.LBE917:
 5614              	.LBE916:
 5615              		.loc 1 631 2 is_stmt 1 view .LVU1771
 5616              	.L384:
 5617              		.loc 1 632 1 is_stmt 0 view .LVU1772
 5618 00d0 8001001C 		lwz 0,28(1)
 5619 00d4 7FE3FB78 		mr 3,31
 5620 00d8 83A1000C 		lwz 29,12(1)
 5621 00dc 83C10010 		lwz 30,16(1)
 5622 00e0 7C0803A6 		mtlr 0
 5623              		.cfi_restore 65
 5624 00e4 83E10014 		lwz 31,20(1)
 5625              	.LVL552:
 5626              		.loc 1 632 1 view .LVU1773
 5627 00e8 38210018 		addi 1,1,24
 5628              		.cfi_restore 31
 5629              		.cfi_restore 30
 5630              		.cfi_restore 29
 5631              		.cfi_def_cfa_offset 0
 5632 00ec 4E800020 		blr
 5633              		.cfi_endproc
 5634              	.LFE1366:
 5635              		.size	_Z8make_tmdy, .-_Z8make_tmdy
 5636              		.section	.rodata._Z15check_for_sneeki.str1.4,"aMS",@progbits,1
 5637              		.align 2
 5638              	.LC14:
 5639 0000 2F646576 		.string	"/dev/sdio/slot/lrn2strcmp"
 5639      2F736469 
 5639      6F2F736C 
 5639      6F742F6C 
 5639      726E3273 
 5640              		.section	.text._Z15check_for_sneeki,"ax",@progbits
 5641              		.align 2
 5642              		.globl _Z15check_for_sneeki
 5643              		.type	_Z15check_for_sneeki, @function
 5644              	_Z15check_for_sneeki:
 5645              	.LVL553:
 5646              	.LFB1367:
 5647              		.loc 1 635 1 is_stmt 1 view -0
 5648              		.cfi_startproc
 5649              		.loc 1 636 2 view .LVU1775
 5650              		.loc 1 637 2 view .LVU1776
 5651              		.loc 1 639 2 view .LVU1777
 5652              		.loc 1 639 6 is_stmt 0 view .LVU1778
 5653 0000 3D20CD8B 		lis 9,0xcd8b
 5654 0004 6129420A 		ori 9,9,0x420a
 5655              		.loc 1 639 2 view .LVU1779
 5656 0008 A1290000 		lhz 9,0(9)
 5657 000c 2C090001 		cmpwi 0,9,1
 5658 0010 4182008C 		beq- 0,.L393
 5659              		.loc 1 642 2 is_stmt 1 view .LVU1780
 5660              		.loc 1 635 1 is_stmt 0 view .LVU1781
 5661 0014 9421FFE0 		stwu 1,-32(1)
 5662              		.cfi_def_cfa_offset 32
 5663 0018 7C0802A6 		mflr 0
 5664              		.loc 1 642 16 view .LVU1782
 5665 001c 38800000 		li 4,0
 5666              		.loc 1 635 1 view .LVU1783
 5667 0020 93E1001C 		stw 31,28(1)
 5668              		.cfi_register 65, 0
 5669              		.cfi_offset 31, -4
 5670 0024 7C7F1B78 		mr 31,3
 5671              		.loc 1 642 16 view .LVU1784
 5672 0028 3C600000 		lis 3,.LC14@ha
 5673              	.LVL554:
 5674              		.loc 1 635 1 view .LVU1785
 5675 002c 90010024 		stw 0,36(1)
 5676              		.cfi_offset 65, 4
 5677              		.loc 1 642 16 view .LVU1786
 5678 0030 38630000 		la 3,.LC14@l(3)
 5679 0034 48000001 		bl IOS_Open
 5680              	.LVL555:
 5681              		.loc 1 643 2 is_stmt 1 view .LVU1787
 5682 0038 2C030000 		cmpwi 0,3,0
 5683 003c 40800044 		bge- 0,.L399
 5684              		.loc 1 648 2 view .LVU1788
 5685              		.loc 1 648 24 is_stmt 0 view .LVU1789
 5686 0040 38610008 		addi 3,1,8
 5687              	.LVL556:
 5688              		.loc 1 648 24 view .LVU1790
 5689 0044 48000001 		bl ES_GetBoot2Version
 5690              	.LVL557:
 5691              		.loc 1 648 39 discriminator 1 view .LVU1791
 5692 0048 2C030000 		cmpwi 0,3,0
 5693 004c 40820058 		bne- 0,.L394
 5694              		.loc 1 648 39 discriminator 2 view .LVU1792
 5695 0050 81210008 		lwz 9,8(1)
 5696 0054 28090003 		cmplwi 0,9,3
 5697 0058 40A10030 		ble+ 0,.L390
 5698              		.loc 1 650 30 is_stmt 1 view .LVU1793
 5699              		.loc 1 651 3 view .LVU1794
 5700              		.loc 1 651 18 is_stmt 0 view .LVU1795
 5701 005c 7FE3FB78 		mr 3,31
 5702 0060 38E00000 		li 7,0
 5703 0064 38C00000 		li 6,0
 5704 0068 38A00000 		li 5,0
 5705 006c 3880001F 		li 4,31
 5706 0070 48000001 		bl IOS_Ioctlv
 5707              	.LVL558:
 5708              		.loc 1 651 3 discriminator 1 view .LVU1796
 5709 0074 7C630034 		cntlzw 3,3
 5710 0078 5463D97E 		srwi 3,3,5
 5711 007c 4800000C 		b .L390
 5712              	.LVL559:
 5713              	.L399:
 5714              		.loc 1 644 3 is_stmt 1 view .LVU1797
 5715              		.loc 1 644 12 is_stmt 0 view .LVU1798
 5716 0080 48000001 		bl IOS_Close
 5717              	.LVL560:
 5718              		.loc 1 645 3 is_stmt 1 view .LVU1799
 5719              		.loc 1 645 10 is_stmt 0 view .LVU1800
 5720 0084 38600001 		li 3,1
 5721              	.L390:
 5722              		.loc 1 660 1 view .LVU1801
 5723 0088 80010024 		lwz 0,36(1)
 5724 008c 83E1001C 		lwz 31,28(1)
 5725              	.LVL561:
 5726              		.loc 1 660 1 view .LVU1802
 5727 0090 38210020 		addi 1,1,32
 5728              		.cfi_restore 31
 5729              		.cfi_def_cfa_offset 0
 5730 0094 7C0803A6 		mtlr 0
 5731              		.cfi_restore 65
 5732 0098 4E800020 		blr
 5733              	.LVL562:
 5734              	.L393:
 5735              		.loc 1 640 10 view .LVU1803
 5736 009c 38600002 		li 3,2
 5737              	.LVL563:
 5738              		.loc 1 660 1 view .LVU1804
 5739 00a0 4E800020 		blr
 5740              	.LVL564:
 5741              	.L394:
 5742              		.cfi_def_cfa_offset 32
 5743              		.cfi_offset 31, -4
 5744              		.cfi_offset 65, 4
 5745              		.loc 1 660 1 view .LVU1805
 5746 00a4 80010024 		lwz 0,36(1)
 5747              		.loc 1 659 9 view .LVU1806
 5748 00a8 38600000 		li 3,0
 5749              		.loc 1 660 1 view .LVU1807
 5750 00ac 83E1001C 		lwz 31,28(1)
 5751              	.LVL565:
 5752              		.loc 1 660 1 view .LVU1808
 5753 00b0 38210020 		addi 1,1,32
 5754              		.cfi_restore 31
 5755              		.cfi_def_cfa_offset 0
 5756 00b4 7C0803A6 		mtlr 0
 5757              		.cfi_restore 65
 5758 00b8 4E800020 		blr
 5759              		.cfi_endproc
 5760              	.LFE1367:
 5761              		.size	_Z15check_for_sneeki, .-_Z15check_for_sneeki
 5762              		.section	.rodata._Z23disable_mem2_protectioni.str1.4,"aMS",@progbits,1
 5763              		.align 2
 5764              	.LC15:
 5765 0000 24494F53 		.string	"$IOSVersion: ES:"
 5765      56657273 
 5765      696F6E3A 
 5765      2045533A 
 5765      00
 5766              		.section	.text._Z23disable_mem2_protectioni,"ax",@progbits
 5767              		.align 2
 5768              		.globl _Z23disable_mem2_protectioni
 5769              		.type	_Z23disable_mem2_protectioni, @function
 5770              	_Z23disable_mem2_protectioni:
 5771              	.LVL566:
 5772              	.LFB1368:
 5773              		.loc 1 663 1 is_stmt 1 view -0
 5774              		.cfi_startproc
 5775              		.loc 1 664 2 view .LVU1810
 5776              		.loc 1 677 2 view .LVU1811
 5777              		.loc 1 678 2 view .LVU1812
 5778              		.loc 1 679 2 view .LVU1813
 5779              		.loc 1 680 2 view .LVU1814
 5780              		.loc 1 681 2 view .LVU1815
 5781              	.LBB942:
 5782              	.LBB943:
 5783              		.loc 1 639 6 is_stmt 0 view .LVU1816
 5784 0000 3D20CD8B 		lis 9,0xcd8b
 5785              	.LBE943:
 5786              	.LBE942:
 5787              		.loc 1 663 1 view .LVU1817
 5788 0004 9421FFB8 		stwu 1,-72(1)
 5789              		.cfi_def_cfa_offset 72
 5790              	.LBB948:
 5791              	.LBB944:
 5792              		.loc 1 639 6 view .LVU1818
 5793 0008 6129420A 		ori 9,9,0x420a
 5794              	.LVL567:
 5795              		.loc 1 639 6 view .LVU1819
 5796              	.LBE944:
 5797              	.LBI942:
 5798              		.loc 1 634 5 is_stmt 1 view .LVU1820
 5799              	.LBB945:
 5800              		.loc 1 636 2 view .LVU1821
 5801              		.loc 1 637 2 view .LVU1822
 5802              		.loc 1 639 2 view .LVU1823
 5803 000c A1290000 		lhz 9,0(9)
 5804 0010 2C090001 		cmpwi 0,9,1
 5805 0014 41820348 		beq- 0,.L402
 5806              		.loc 1 642 2 view .LVU1824
 5807 0018 93E10044 		stw 31,68(1)
 5808              		.cfi_offset 31, -4
 5809 001c 7C7F1B78 		mr 31,3
 5810              		.loc 1 642 16 is_stmt 0 view .LVU1825
 5811 0020 3C600000 		lis 3,.LC14@ha
 5812              	.LVL568:
 5813              		.loc 1 642 16 view .LVU1826
 5814 0024 7C0802A6 		mflr 0
 5815              		.cfi_register 65, 0
 5816 0028 38800000 		li 4,0
 5817 002c 38630000 		la 3,.LC14@l(3)
 5818 0030 9001004C 		stw 0,76(1)
 5819              		.cfi_offset 65, 4
 5820 0034 48000001 		bl IOS_Open
 5821              	.LVL569:
 5822              		.loc 1 643 2 is_stmt 1 view .LVU1827
 5823 0038 2C030000 		cmpwi 0,3,0
 5824 003c 408000FC 		bge- 0,.L461
 5825              		.loc 1 648 2 view .LVU1828
 5826              		.loc 1 648 24 is_stmt 0 view .LVU1829
 5827 0040 38610008 		addi 3,1,8
 5828              	.LVL570:
 5829              		.loc 1 648 24 view .LVU1830
 5830 0044 48000001 		bl ES_GetBoot2Version
 5831              	.LVL571:
 5832              		.loc 1 648 39 discriminator 1 view .LVU1831
 5833 0048 2C030000 		cmpwi 0,3,0
 5834 004c 40820010 		bne- 0,.L408
 5835              		.loc 1 648 39 discriminator 2 view .LVU1832
 5836 0050 81210008 		lwz 9,8(1)
 5837 0054 28090003 		cmplwi 0,9,3
 5838 0058 41810544 		bgt- 0,.L462
 5839              	.L408:
 5840              	.LVL572:
 5841              		.loc 1 648 39 discriminator 2 view .LVU1833
 5842              	.LBE945:
 5843              	.LBE948:
 5844              		.loc 1 682 2 is_stmt 1 view .LVU1834
 5845              		.loc 1 683 2 view .LVU1835
 5846              		.loc 1 741 2 view .LVU1836
 5847              	.LBB949:
 5848              	.LBI949:
 5849              		.loc 2 209 19 view .LVU1837
 5850              	.LBB950:
 5851              		.loc 2 211 2 view .LVU1838
 5852              		.loc 2 212 2 view .LVU1839
 5853 005c 3D20CD80 		lis 9,0xcd80
 5854 0060 61290038 		ori 9,9,0x38
 5855              	#APP
 5856              	 # 212 "C:/devkitPro/libogc/include/ogc/machine/processor.h" 1
 5857 0064 81290000 		lwz 9,0(9) ; sync
 5857      7C0004AC 
 5858              	 # 0 "" 2
 5859              	.LVL573:
 5860              		.loc 2 213 2 view .LVU1840
 5861              		.loc 2 213 2 is_stmt 0 view .LVU1841
 5862              	#NO_APP
 5863              	.LBE950:
 5864              	.LBE949:
 5865              		.loc 1 741 28 discriminator 1 view .LVU1842
 5866 006c 2C090000 		cmpwi 0,9,0
 5867 0070 4182001C 		beq- 0,.L456
 5868              	.LVL574:
 5869              	.LBB951:
 5870              	.LBI951:
 5871              		.loc 2 209 19 is_stmt 1 view .LVU1843
 5872              	.LBB952:
 5873              		.loc 2 211 2 view .LVU1844
 5874              		.loc 2 212 2 view .LVU1845
 5875 0074 3D20CD80 		lis 9,0xcd80
 5876 0078 6129003C 		ori 9,9,0x3c
 5877              	#APP
 5878              	 # 212 "C:/devkitPro/libogc/include/ogc/machine/processor.h" 1
 5879 007c 81290000 		lwz 9,0(9) ; sync
 5879      7C0004AC 
 5880              	 # 0 "" 2
 5881              	.LVL575:
 5882              		.loc 2 213 2 view .LVU1846
 5883              		.loc 2 213 2 is_stmt 0 view .LVU1847
 5884              	#NO_APP
 5885              	.LBE952:
 5886              	.LBE951:
 5887              		.loc 1 741 28 discriminator 1 view .LVU1848
 5888 0084 2C090000 		cmpwi 0,9,0
 5889 0088 408204E4 		bne- 0,.L428
 5890              	.L456:
 5891              		.loc 1 743 3 is_stmt 1 view .LVU1849
 5892 008c 93A1003C 		stw 29,60(1)
 5893              		.cfi_offset 29, -12
 5894              		.loc 1 743 15 is_stmt 0 view .LVU1850
 5895 0090 3FA00000 		lis 29,_ZZ23disable_mem2_protectioniE5title@ha
 5896 0094 93610034 		stw 27,52(1)
 5897              		.cfi_offset 27, -20
 5898 0098 3D200000 		lis 9,_ZZ23disable_mem2_protectioniE3vec@ha
 5899 009c 3BBD0000 		la 29,_ZZ23disable_mem2_protectioniE5title@l(29)
 5900              		.loc 1 745 15 view .LVU1851
 5901 00a0 3F600000 		lis 27,_ZZ23disable_mem2_protectioniE3cnt@ha
 5902 00a4 93810038 		stw 28,56(1)
 5903              		.cfi_offset 28, -16
 5904              		.loc 1 744 14 view .LVU1852
 5905 00a8 39000008 		li 8,8
 5906 00ac 93C10040 		stw 30,64(1)
 5907              		.cfi_offset 30, -8
 5908              		.loc 1 746 14 view .LVU1853
 5909 00b0 39400004 		li 10,4
 5910              		.loc 1 743 15 view .LVU1854
 5911 00b4 3BC90000 		la 30,_ZZ23disable_mem2_protectioniE3vec@l(9)
 5912              		.loc 1 748 15 view .LVU1855
 5913 00b8 7FA3EB78 		mr 3,29
 5914 00bc 38800004 		li 4,4
 5915              		.loc 1 745 15 view .LVU1856
 5916 00c0 3B9B0000 		la 28,_ZZ23disable_mem2_protectioniE3cnt@l(27)
 5917              		.loc 1 743 15 view .LVU1857
 5918 00c4 93A90000 		stw 29,_ZZ23disable_mem2_protectioniE3vec@l(9)
 5919              		.loc 1 744 3 is_stmt 1 view .LVU1858
 5920              		.loc 1 744 14 is_stmt 0 view .LVU1859
 5921 00c8 911E0004 		stw 8,4(30)
 5922              		.loc 1 745 3 is_stmt 1 view .LVU1860
 5923              		.loc 1 746 14 is_stmt 0 view .LVU1861
 5924 00cc 915E000C 		stw 10,12(30)
 5925              		.loc 1 745 15 view .LVU1862
 5926 00d0 939E0008 		stw 28,8(30)
 5927              		.loc 1 746 3 is_stmt 1 view .LVU1863
 5928              		.loc 1 748 3 view .LVU1864
 5929              		.loc 1 748 15 is_stmt 0 view .LVU1865
 5930 00d4 48000001 		bl DCFlushRange
 5931              	.LVL576:
 5932              		.loc 1 749 3 is_stmt 1 view .LVU1866
 5933              		.loc 1 749 15 is_stmt 0 view .LVU1867
 5934 00d8 387D0004 		addi 3,29,4
 5935 00dc 38800004 		li 4,4
 5936 00e0 48000001 		bl DCFlushRange
 5937              	.LVL577:
 5938              		.loc 1 750 3 is_stmt 1 view .LVU1868
 5939              		.loc 1 750 19 is_stmt 0 view .LVU1869
 5940 00e4 7FC7F378 		mr 7,30
 5941 00e8 7FE3FB78 		mr 3,31
 5942 00ec 38C00001 		li 6,1
 5943 00f0 38A00001 		li 5,1
 5944 00f4 38800012 		li 4,18
 5945 00f8 48000001 		bl IOS_Ioctlv
 5946              	.LVL578:
 5947              		.loc 1 751 3 is_stmt 1 view .LVU1870
 5948 00fc 2C030000 		cmpwi 0,3,0
 5949 0100 40820010 		bne- 0,.L458
 5950              		.loc 1 756 3 view .LVU1871
 5951 0104 813B0000 		lwz 9,_ZZ23disable_mem2_protectioniE3cnt@l(27)
 5952 0108 2C090001 		cmpwi 0,9,1
 5953 010c 418202F4 		beq- 0,.L463
 5954              	.L458:
 5955 0110 83610034 		lwz 27,52(1)
 5956              		.cfi_restore 27
 5957 0114 83810038 		lwz 28,56(1)
 5958              		.cfi_restore 28
 5959 0118 83A1003C 		lwz 29,60(1)
 5960              		.cfi_restore 29
 5961 011c 83C10040 		lwz 30,64(1)
 5962              		.cfi_restore 30
 5963              	.LVL579:
 5964              	.L410:
 5965              		.loc 1 756 3 is_stmt 0 view .LVU1872
 5966 0120 8001004C 		lwz 0,76(1)
 5967              	.LBB953:
 5968              		.loc 1 692 12 view .LVU1873
 5969 0124 38600000 		li 3,0
 5970 0128 83E10044 		lwz 31,68(1)
 5971              		.cfi_restore 31
 5972 012c 7C0803A6 		mtlr 0
 5973              		.cfi_restore 65
 5974              	.LVL580:
 5975              	.L400:
 5976              		.loc 1 692 12 view .LVU1874
 5977              	.LBE953:
 5978              		.loc 1 818 1 view .LVU1875
 5979 0130 38210048 		addi 1,1,72
 5980              		.cfi_def_cfa_offset 0
 5981 0134 4E800020 		blr
 5982              	.LVL581:
 5983              	.L461:
 5984              		.cfi_def_cfa_offset 72
 5985              		.cfi_offset 31, -4
 5986              		.cfi_offset 65, 4
 5987              	.LBB980:
 5988              	.LBB946:
 5989              		.loc 1 644 3 is_stmt 1 view .LVU1876
 5990              		.loc 1 644 12 is_stmt 0 view .LVU1877
 5991 0138 48000001 		bl IOS_Close
 5992              	.LVL582:
 5993              		.loc 1 645 3 is_stmt 1 view .LVU1878
 5994              		.loc 1 645 3 is_stmt 0 view .LVU1879
 5995              	.LBE946:
 5996              	.LBE980:
 5997              		.loc 1 682 2 is_stmt 1 view .LVU1880
 5998              		.loc 1 683 2 view .LVU1881
 5999              	.L404:
 6000              	.LBB981:
 6001              		.loc 1 689 4 view .LVU1882
 6002              	.LBB954:
 6003              	.LBI954:
 6004              		.loc 1 519 5 view .LVU1883
 6005              	.LBB955:
 6006              		.loc 1 521 2 view .LVU1884
 6007              		.loc 1 522 2 view .LVU1885
 6008              		.loc 1 522 19 is_stmt 0 view .LVU1886
 6009 013c 3C600000 		lis 3,.LC9@ha
 6010 0140 38800001 		li 4,1
 6011 0144 38630000 		la 3,.LC9@l(3)
 6012 0148 48000001 		bl IOS_Open
 6013              	.LVL583:
 6014              		.loc 1 523 2 is_stmt 1 view .LVU1887
 6015 014c 7C7F1B79 		mr. 31,3
 6016              	.LVL584:
 6017              		.loc 1 523 2 is_stmt 0 view .LVU1888
 6018 0150 41A0FFD0 		blt- 0,.L410
 6019 0154 93A1003C 		stw 29,60(1)
 6020              		.cfi_offset 29, -12
 6021              		.loc 1 526 2 is_stmt 1 view .LVU1889
 6022              		.loc 1 526 19 is_stmt 0 view .LVU1890
 6023 0158 3FA00000 		lis 29,sys_certs@ha
 6024 015c 3BBD0000 		la 29,sys_certs@l(29)
 6025 0160 38A00A00 		li 5,2560
 6026 0164 7FA4EB78 		mr 4,29
 6027 0168 48000001 		bl IOS_Read
 6028              	.LVL585:
 6029              		.loc 1 526 19 view .LVU1891
 6030 016c 7C691B78 		mr 9,3
 6031              		.loc 1 527 11 view .LVU1892
 6032 0170 7FE3FB78 		mr 3,31
 6033              		.loc 1 526 19 view .LVU1893
 6034 0174 7D3F4B78 		mr 31,9
 6035              	.LVL586:
 6036              		.loc 1 527 2 is_stmt 1 view .LVU1894
 6037              		.loc 1 527 11 is_stmt 0 view .LVU1895
 6038 0178 48000001 		bl IOS_Close
 6039              	.LVL587:
 6040              		.loc 1 529 2 is_stmt 1 view .LVU1896
 6041              	.LBE955:
 6042              	.LBE954:
 6043              		.loc 1 689 4 is_stmt 0 discriminator 1 view .LVU1897
 6044 017c 2C1F0A00 		cmpwi 0,31,2560
 6045 0180 40820440 		bne- 0,.L453
 6046              		.loc 1 695 4 is_stmt 1 view .LVU1898
 6047              	.LVL588:
 6048              	.LBB956:
 6049              	.LBI956:
 6050              		.loc 1 584 5 view .LVU1899
 6051              	.LBB957:
 6052              		.loc 1 586 2 view .LVU1900
 6053              		.loc 1 586 30 is_stmt 0 view .LVU1901
 6054 0184 388002A4 		li 4,676
 6055 0188 38600020 		li 3,32
 6056 018c 48000001 		bl memalign
 6057              	.LVL589:
 6058              		.loc 1 587 2 is_stmt 1 view .LVU1902
 6059              	.LBB958:
 6060 0190 7C7F1B79 		mr. 31,3
 6061              	.LVL590:
 6062              		.loc 1 587 2 is_stmt 0 view .LVU1903
 6063 0194 4182042C 		beq- 0,.L453
 6064              	.LBB959:
 6065              		.loc 1 589 3 is_stmt 1 view .LVU1904
 6066              		.loc 1 590 3 view .LVU1905
 6067              		.loc 1 590 9 is_stmt 0 view .LVU1906
 6068 0198 38A002A4 		li 5,676
 6069 019c 38800000 		li 4,0
 6070 01a0 93010028 		stw 24,40(1)
 6071              		.cfi_offset 24, -32
 6072              		.loc 1 596 25 view .LVU1907
 6073 01a4 3F000123 		lis 24,0x123
 6074 01a8 9321002C 		stw 25,44(1)
 6075              		.cfi_offset 25, -28
 6076 01ac 3F2089AB 		lis 25,0x89ab
 6077 01b0 93410030 		stw 26,48(1)
 6078              		.cfi_offset 26, -24
 6079 01b4 63184567 		ori 24,24,0x4567
 6080 01b8 93610034 		stw 27,52(1)
 6081              		.cfi_offset 27, -20
 6082              		.loc 1 597 24 view .LVU1908
 6083 01bc 3B400001 		li 26,1
 6084 01c0 93C10040 		stw 30,64(1)
 6085              		.cfi_offset 30, -8
 6086              		.loc 1 590 9 view .LVU1909
 6087 01c4 48000001 		bl memset
 6088              	.LVL591:
 6089              		.loc 1 591 3 is_stmt 1 view .LVU1910
 6090              		.loc 1 595 9 is_stmt 0 view .LVU1911
 6091 01c8 3D200000 		lis 9,.LC12@ha
 6092              		.loc 1 591 11 view .LVU1912
 6093 01cc 3D000001 		lis 8,0x1
 6094              		.loc 1 595 9 view .LVU1913
 6095 01d0 39490000 		la 10,.LC12@l(9)
 6096 01d4 80690000 		lwz 3,.LC12@l(9)
 6097 01d8 80CA000C 		lwz 6,12(10)
 6098              		.loc 1 591 11 view .LVU1914
 6099 01dc 61080001 		ori 8,8,0x1
 6100              		.loc 1 595 9 view .LVU1915
 6101 01e0 80AA0008 		lwz 5,8(10)
 6102              		.loc 1 598 28 view .LVU1916
 6103 01e4 38E0FFFF 		li 7,-1
 6104              		.loc 1 595 9 view .LVU1917
 6105 01e8 90DF014C 		stw 6,332(31)
 6106              		.loc 1 597 24 view .LVU1918
 6107 01ec 3B600001 		li 27,1
 6108              		.loc 1 595 9 view .LVU1919
 6109 01f0 80CA0014 		lwz 6,20(10)
 6110              		.loc 1 596 25 view .LVU1920
 6111 01f4 6339CDEF 		ori 25,25,0xcdef
 6112              		.loc 1 595 9 view .LVU1921
 6113 01f8 808A0004 		lwz 4,4(10)
 6114 01fc 90BF0148 		stw 5,328(31)
 6115 0200 90DF0154 		stw 6,340(31)
 6116 0204 80AA0010 		lwz 5,16(10)
 6117 0208 A0CA0018 		lhz 6,24(10)
 6118 020c 894A001A 		lbz 10,26(10)
 6119              		.loc 1 591 11 view .LVU1922
 6120 0210 911F0000 		stw 8,0(31)
 6121              		.loc 1 593 3 is_stmt 1 view .LVU1923
 6122              	.LVL592:
 6123              		.loc 1 595 3 view .LVU1924
 6124              		.loc 1 599 31 is_stmt 0 view .LVU1925
 6125 0214 39000001 		li 8,1
 6126              		.loc 1 595 9 view .LVU1926
 6127 0218 B0DF0158 		sth 6,344(31)
 6128 021c 995F015A 		stb 10,346(31)
 6129              		.loc 1 596 3 is_stmt 1 view .LVU1927
 6130              		.loc 1 598 28 is_stmt 0 view .LVU1928
 6131 0220 B0FF01E4 		sth 7,484(31)
 6132              		.loc 1 599 31 view .LVU1929
 6133 0224 991F0221 		stb 8,545(31)
 6134              		.loc 1 595 9 view .LVU1930
 6135 0228 907F0140 		stw 3,320(31)
 6136              		.loc 1 600 9 view .LVU1931
 6137 022c 387F0222 		addi 3,31,546
 6138              		.loc 1 595 9 view .LVU1932
 6139 0230 909F0144 		stw 4,324(31)
 6140              		.loc 1 600 9 view .LVU1933
 6141 0234 388000FF 		li 4,255
 6142              		.loc 1 595 9 view .LVU1934
 6143 0238 90BF0150 		stw 5,336(31)
 6144              		.loc 1 600 9 view .LVU1935
 6145 023c 38A00020 		li 5,32
 6146              		.loc 1 596 25 view .LVU1936
 6147 0240 931F01D0 		stw 24,464(31)
 6148 0244 933F01D4 		stw 25,468(31)
 6149              		.loc 1 597 3 is_stmt 1 view .LVU1937
 6150              		.loc 1 597 24 is_stmt 0 view .LVU1938
 6151 0248 935F01DC 		stw 26,476(31)
 6152 024c 937F01E0 		stw 27,480(31)
 6153              		.loc 1 598 3 is_stmt 1 view .LVU1939
 6154              		.loc 1 599 3 view .LVU1940
 6155              		.loc 1 600 3 view .LVU1941
 6156              		.loc 1 600 9 is_stmt 0 view .LVU1942
 6157 0250 48000001 		bl memset
 6158              	.LVL593:
 6159              		.loc 1 602 3 is_stmt 1 view .LVU1943
 6160              		.loc 1 602 12 is_stmt 0 view .LVU1944
 6161 0254 388002A4 		li 4,676
 6162 0258 7FE3FB78 		mr 3,31
 6163 025c 48000001 		bl _Z9forge_sigPhj
 6164              	.LVL594:
 6165              	.LBE959:
 6166              	.LBE958:
 6167              		.loc 1 605 2 is_stmt 1 view .LVU1945
 6168              		.loc 1 605 2 is_stmt 0 view .LVU1946
 6169              	.LBE957:
 6170              	.LBE956:
 6171              		.loc 1 696 4 is_stmt 1 view .LVU1947
 6172              		.loc 1 701 4 view .LVU1948
 6173              		.loc 1 701 23 is_stmt 0 view .LVU1949
 6174 0260 7F43D378 		mr 3,26
 6175 0264 7F64DB78 		mr 4,27
 6176 0268 48000001 		bl _Z8make_tmdy
 6177              	.LVL595:
 6178              		.loc 1 702 4 is_stmt 1 view .LVU1950
 6179 026c 7C7E1B79 		mr. 30,3
 6180 0270 4182044C 		beq- 0,.L464
 6181              		.loc 1 709 4 view .LVU1951
 6182 0274 813E0000 		lwz 9,0(30)
 6183 0278 3D29FFFF 		addis 9,9,0xffff
 6184 027c 28090002 		cmplwi 0,9,2
 6185 0280 418103B0 		bgt- 0,.L429
 6186 0284 3D400000 		lis 10,CSWTCH.188@ha
 6187 0288 5529103A 		slwi 9,9,2
 6188 028c 394A0000 		la 10,CSWTCH.188@l(10)
 6189 0290 7D4A482E 		lwzx 10,10,9
 6190              		.loc 1 709 87 is_stmt 0 discriminator 12 view .LVU1952
 6191 0294 7CFE5214 		add 7,30,10
 6192 0298 394A00A4 		addi 10,10,164
 6193              	.L414:
 6194 029c 813F0000 		lwz 9,0(31)
 6195              		.loc 1 709 144 discriminator 24 view .LVU1953
 6196 02a0 39000164 		li 8,356
 6197              		.loc 1 709 87 discriminator 12 view .LVU1954
 6198 02a4 A0C7009E 		lhz 6,158(7)
 6199 02a8 3D29FFFF 		addis 9,9,0xffff
 6200 02ac 28090002 		cmplwi 0,9,2
 6201 02b0 1CC60024 		mulli 6,6,36
 6202              		.loc 1 709 21 discriminator 24 view .LVU1955
 6203 02b4 7CC65214 		add 6,6,10
 6204 02b8 41810014 		bgt- 0,.L415
 6205 02bc 3D400000 		lis 10,CSWTCH.189@ha
 6206 02c0 5529103A 		slwi 9,9,2
 6207 02c4 394A0000 		la 10,CSWTCH.189@l(10)
 6208 02c8 7D0A482E 		lwzx 8,10,9
 6209              	.L415:
 6210              		.loc 1 709 21 discriminator 36 view .LVU1956
 6211 02cc 3D200000 		lis 9,_ZZ23disable_mem2_protectioniE3cnt@ha
 6212 02d0 7FE7FB78 		mr 7,31
 6213 02d4 7FC5F378 		mr 5,30
 6214 02d8 38800A00 		li 4,2560
 6215 02dc 39290000 		la 9,_ZZ23disable_mem2_protectioniE3cnt@l(9)
 6216 02e0 7FA3EB78 		mr 3,29
 6217              	.LVL596:
 6218              		.loc 1 709 21 discriminator 36 view .LVU1957
 6219 02e4 48000001 		bl ES_Identify
 6220              	.LVL597:
 6221 02e8 7C691B78 		mr 9,3
 6222              		.loc 1 711 8 view .LVU1958
 6223 02ec 7FE3FB78 		mr 3,31
 6224              		.loc 1 709 21 discriminator 36 view .LVU1959
 6225 02f0 7D3F4B78 		mr 31,9
 6226              	.LVL598:
 6227              		.loc 1 711 4 is_stmt 1 view .LVU1960
 6228              		.loc 1 711 8 is_stmt 0 view .LVU1961
 6229 02f4 48000001 		bl free
 6230              	.LVL599:
 6231              		.loc 1 712 4 is_stmt 1 view .LVU1962
 6232              		.loc 1 712 8 is_stmt 0 view .LVU1963
 6233 02f8 7FC3F378 		mr 3,30
 6234 02fc 48000001 		bl free
 6235              	.LVL600:
 6236              		.loc 1 714 4 is_stmt 1 view .LVU1964
 6237 0300 2C1F0000 		cmpwi 0,31,0
 6238 0304 40820018 		bne- 0,.L455
 6239              		.loc 1 718 3 view .LVU1965
 6240              	.LVL601:
 6241              	.LBB960:
 6242              	.LBI960:
 6243              		.loc 1 470 12 view .LVU1966
 6244              	.LBB961:
 6245              		.loc 1 472 2 view .LVU1967
 6246              		.loc 1 473 2 view .LVU1968
 6247              	.LBB962:
 6248              	.LBI962:
 6249              		.loc 1 470 12 view .LVU1969
 6250              	.LBB963:
 6251              		.loc 1 478 2 view .LVU1970
 6252              		.loc 1 480 2 view .LVU1971
 6253              		.loc 1 480 6 is_stmt 0 view .LVU1972
 6254 0308 3D20CD8B 		lis 9,0xcd8b
 6255 030c 6129420A 		ori 9,9,0x420a
 6256              		.loc 1 480 2 view .LVU1973
 6257 0310 A1290000 		lhz 9,0(9)
 6258 0314 2C090001 		cmpwi 0,9,1
 6259 0318 41820020 		beq- 0,.L465
 6260              	.LVL602:
 6261              	.L455:
 6262              		.loc 1 480 2 view .LVU1974
 6263 031c 83010028 		lwz 24,40(1)
 6264              		.cfi_remember_state
 6265              		.cfi_restore 24
 6266 0320 8321002C 		lwz 25,44(1)
 6267              		.cfi_restore 25
 6268 0324 83410030 		lwz 26,48(1)
 6269              		.cfi_restore 26
 6270 0328 83610034 		lwz 27,52(1)
 6271              		.cfi_restore 27
 6272 032c 83A1003C 		lwz 29,60(1)
 6273              		.cfi_restore 29
 6274 0330 83C10040 		lwz 30,64(1)
 6275              		.cfi_restore 30
 6276              	.LVL603:
 6277              		.loc 1 480 2 view .LVU1975
 6278 0334 4BFFFDEC 		b .L410
 6279              	.LVL604:
 6280              	.L465:
 6281              		.cfi_restore_state
 6282              		.loc 1 480 2 view .LVU1976
 6283 0338 8001004C 		lwz 0,76(1)
 6284 033c 83010028 		lwz 24,40(1)
 6285              		.cfi_restore 24
 6286 0340 8321002C 		lwz 25,44(1)
 6287              		.cfi_restore 25
 6288 0344 7C0803A6 		mtlr 0
 6289              		.cfi_restore 65
 6290 0348 83410030 		lwz 26,48(1)
 6291              		.cfi_restore 26
 6292 034c 83610034 		lwz 27,52(1)
 6293              		.cfi_restore 27
 6294 0350 83A1003C 		lwz 29,60(1)
 6295              		.cfi_restore 29
 6296 0354 83C10040 		lwz 30,64(1)
 6297              		.cfi_restore 30
 6298              	.LVL605:
 6299              		.loc 1 480 2 view .LVU1977
 6300 0358 83E10044 		lwz 31,68(1)
 6301              		.cfi_restore 31
 6302              	.LVL606:
 6303              	.L402:
 6304              		.loc 1 482 3 is_stmt 1 view .LVU1978
 6305              	.LBE963:
 6306              	.LBE962:
 6307              	.LBE961:
 6308              	.LBE960:
 6309              	.LBB973:
 6310              		.loc 1 726 15 is_stmt 0 view .LVU1979
 6311 035c 3D200000 		lis 9,.LC15@ha
 6312              	.LBE973:
 6313              	.LBB974:
