   1              		.file	"init.cpp"
   2              		.machine ppc
   3              		.section	".text"
   4              	.Ltext0:
   5              		.file 1 "F:/GameModding/MarioKartWii/Mods/Distro/RetroRewind6/dev/Launcher/RRLauncher/launcher/sou
   6              		.section	.rodata._Z6PressAv.str1.4,"aMS",@progbits,1
   7              		.align 2
   8              	.LC0:
   9 0000 09507265 		.string	"\tPress A to continue or press Home to exit."
   9      73732041 
   9      20746F20 
   9      636F6E74 
   9      696E7565 
  10              		.section	.text._Z6PressAv,"ax",@progbits
  11              		.align 2
  12              		.globl _Z6PressAv
  13              		.type	_Z6PressAv, @function
  14              	_Z6PressAv:
  15              	.LFB1339:
  16              		.loc 1 23 1 view -0
  17              		.cfi_startproc
  18              		.loc 1 24 2 view .LVU1
  19              		.loc 1 23 1 is_stmt 0 view .LVU2
  20 0000 9421FFF0 		stwu 1,-16(1)
  21              		.cfi_def_cfa_offset 16
  22              		.loc 1 24 8 view .LVU3
  23 0004 3C600000 		lis 3,.LC0@ha
  24              		.loc 1 23 1 view .LVU4
  25 0008 7C0802A6 		mflr 0
  26              		.loc 1 24 8 view .LVU5
  27 000c 38630000 		la 3,.LC0@l(3)
  28              		.loc 1 23 1 view .LVU6
  29 0010 90010014 		stw 0,20(1)
  30 0014 93E1000C 		stw 31,12(1)
  31              		.cfi_offset 65, 4
  32              		.cfi_offset 31, -4
  33              		.loc 1 24 8 view .LVU7
  34 0018 48000001 		bl puts
  35              	.LVL0:
  36 001c 48000008 		b .L3
  37              	.LVL1:
  38              	.L10:
  39              	.LBB5:
  40              		.loc 1 35 3 view .LVU8
  41 0020 40820070 		bne- 0,.L9
  42              	.LVL2:
  43              	.L3:
  44              		.loc 1 35 3 view .LVU9
  45              	.LBE5:
  46              		.loc 1 25 2 is_stmt 1 view .LVU10
  47              	.LBB6:
  48              		.loc 1 26 3 view .LVU11
  49              		.loc 1 26 18 is_stmt 0 view .LVU12
  50 0024 48000001 		bl VIDEO_WaitVSync
  51              	.LVL3:
  52              		.loc 1 27 3 is_stmt 1 view .LVU13
  53              		.loc 1 27 16 is_stmt 0 view .LVU14
  54 0028 48000001 		bl WPAD_ScanPads
  55              	.LVL4:
  56              		.loc 1 29 3 is_stmt 1 view .LVU15
  57              		.loc 1 29 30 is_stmt 0 view .LVU16
  58 002c 38600000 		li 3,0
  59 0030 48000001 		bl WPAD_ButtonsDown
  60              	.LVL5:
  61 0034 7C7F1B78 		mr 31,3
  62              		.loc 1 30 20 view .LVU17
  63 0038 38600001 		li 3,1
  64 003c 48000001 		bl WPAD_ButtonsDown
  65              	.LVL6:
  66 0040 7C691B78 		mr 9,3
  67              		.loc 1 31 20 view .LVU18
  68 0044 38600002 		li 3,2
  69              		.loc 1 29 34 view .LVU19
  70 0048 7FFF4B78 		or 31,31,9
  71              		.loc 1 31 20 view .LVU20
  72 004c 48000001 		bl WPAD_ButtonsDown
  73              	.LVL7:
  74 0050 7C691B78 		mr 9,3
  75              		.loc 1 32 20 view .LVU21
  76 0054 38600003 		li 3,3
  77              		.loc 1 30 24 view .LVU22
  78 0058 7FFF4B78 		or 31,31,9
  79              		.loc 1 32 20 view .LVU23
  80 005c 48000001 		bl WPAD_ButtonsDown
  81              	.LVL8:
  82              		.loc 1 35 3 is_stmt 1 view .LVU24
  83              		.loc 1 31 24 is_stmt 0 view .LVU25
  84 0060 7FE31B78 		or 3,31,3
  85              	.LVL9:
  86              		.loc 1 33 3 is_stmt 1 view .LVU26
  87 0064 70690008 		andi. 9,3,0x8
  88 0068 4F800000 		mcrf 7,0
  89              		.loc 1 35 3 is_stmt 0 view .LVU27
  90 006c 70630080 		andi. 3,3,0x80
  91              	.LVL10:
  92              		.loc 1 33 3 view .LVU28
  93 0070 419EFFB0 		beq+ 7,.L10
  94              	.LBE6:
  95              		.loc 1 38 1 view .LVU29
  96 0074 80010014 		lwz 0,20(1)
  97              	.LBB7:
  98              		.loc 1 34 11 view .LVU30
  99 0078 38600001 		li 3,1
 100              	.LBE7:
 101              		.loc 1 38 1 view .LVU31
 102 007c 83E1000C 		lwz 31,12(1)
 103              		.loc 1 38 1 view .LVU32
 104 0080 546307FE 		rlwinm 3,3,0,31,31
 105 0084 7C0803A6 		mtlr 0
 106              		.cfi_remember_state
 107              		.cfi_restore 65
 108 0088 38210010 		addi 1,1,16
 109              		.cfi_restore 31
 110              		.cfi_def_cfa_offset 0
 111 008c 4E800020 		blr
 112              	.L9:
 113              		.cfi_restore_state
 114              		.loc 1 38 1 view .LVU33
 115 0090 80010014 		lwz 0,20(1)
 116              	.LBB8:
 117              		.loc 1 36 11 view .LVU34
 118 0094 38600000 		li 3,0
 119              	.LBE8:
 120              		.loc 1 38 1 view .LVU35
 121 0098 83E1000C 		lwz 31,12(1)
 122              		.loc 1 38 1 view .LVU36
 123 009c 546307FE 		rlwinm 3,3,0,31,31
 124 00a0 7C0803A6 		mtlr 0
 125              		.cfi_restore 65
 126 00a4 38210010 		addi 1,1,16
 127              		.cfi_restore 31
 128              		.cfi_def_cfa_offset 0
 129 00a8 4E800020 		blr
 130              		.cfi_endproc
 131              	.LFE1339:
 132              		.size	_Z6PressAv, .-_Z6PressAv
 133              		.section	.rodata._Z9PressHomev.str1.4,"aMS",@progbits,1
 134              		.align 2
 135              	.LC1:
 136 0000 09507265 		.string	"\tPress Home to exit."
 136      73732048 
 136      6F6D6520 
 136      746F2065 
 136      7869742E 
 137              		.section	.text._Z9PressHomev,"ax",@progbits
 138              		.align 2
 139              		.globl _Z9PressHomev
 140              		.type	_Z9PressHomev, @function
 141              	_Z9PressHomev:
 142              	.LFB1340:
 143              		.loc 1 41 1 is_stmt 1 view -0
 144              		.cfi_startproc
 145              		.loc 1 42 2 view .LVU38
 146              		.loc 1 41 1 is_stmt 0 view .LVU39
 147 0000 9421FFF0 		stwu 1,-16(1)
 148              		.cfi_def_cfa_offset 16
 149              		.loc 1 42 8 view .LVU40
 150 0004 3C600000 		lis 3,.LC1@ha
 151              		.loc 1 41 1 view .LVU41
 152 0008 7C0802A6 		mflr 0
 153              		.loc 1 42 8 view .LVU42
 154 000c 38630000 		la 3,.LC1@l(3)
 155              		.loc 1 41 1 view .LVU43
 156 0010 90010014 		stw 0,20(1)
 157 0014 93E1000C 		stw 31,12(1)
 158              		.cfi_offset 65, 4
 159              		.cfi_offset 31, -4
 160              		.loc 1 42 8 view .LVU44
 161 0018 48000001 		bl puts
 162              	.LVL11:
 163              	.L12:
 164              		.loc 1 43 2 is_stmt 1 view .LVU45
 165              		.loc 1 44 3 view .LVU46
 166              		.loc 1 44 18 is_stmt 0 view .LVU47
 167 001c 48000001 		bl VIDEO_WaitVSync
 168              	.LVL12:
 169              		.loc 1 45 3 is_stmt 1 view .LVU48
 170              		.loc 1 45 16 is_stmt 0 view .LVU49
 171 0020 48000001 		bl WPAD_ScanPads
 172              	.LVL13:
 173              		.loc 1 46 11 is_stmt 1 discriminator 1 view .LVU50
 174              		.loc 1 46 30 is_stmt 0 discriminator 1 view .LVU51
 175 0024 38600000 		li 3,0
 176 0028 48000001 		bl WPAD_ButtonsDown
 177              	.LVL14:
 178 002c 7C7F1B78 		mr 31,3
 179              		.loc 1 47 19 view .LVU52
 180 0030 38600001 		li 3,1
 181 0034 48000001 		bl WPAD_ButtonsDown
 182              	.LVL15:
 183 0038 7C691B78 		mr 9,3
 184              		.loc 1 48 19 view .LVU53
 185 003c 38600002 		li 3,2
 186              		.loc 1 46 34 discriminator 1 view .LVU54
 187 0040 7FFF4B78 		or 31,31,9
 188              		.loc 1 48 19 view .LVU55
 189 0044 48000001 		bl WPAD_ButtonsDown
 190              	.LVL16:
 191 0048 7C691B78 		mr 9,3
 192              		.loc 1 49 19 view .LVU56
 193 004c 38600003 		li 3,3
 194              		.loc 1 47 23 view .LVU57
 195 0050 7FFF4B78 		or 31,31,9
 196              		.loc 1 49 19 view .LVU58
 197 0054 48000001 		bl WPAD_ButtonsDown
 198              	.LVL17:
 199              		.loc 1 48 23 view .LVU59
 200 0058 7FFF1B78 		or 31,31,3
 201              		.loc 1 46 11 discriminator 1 view .LVU60
 202 005c 73FF0080 		andi. 31,31,0x80
 203 0060 4182FFBC 		beq+ 0,.L12
 204              		.loc 1 50 1 view .LVU61
 205 0064 80010014 		lwz 0,20(1)
 206 0068 83E1000C 		lwz 31,12(1)
 207 006c 38210010 		addi 1,1,16
 208              		.cfi_restore 31
 209              		.cfi_def_cfa_offset 0
 210 0070 7C0803A6 		mtlr 0
 211              		.cfi_restore 65
 212 0074 4E800020 		blr
 213              		.cfi_endproc
 214              	.LFE1340:
 215              		.size	_Z9PressHomev, .-_Z9PressHomev
 216              		.section	.rodata._Z13CheckShutdownv.str1.4,"aMS",@progbits,1
 217              		.align 2
 218              	.LC2:
 219 0000 2F6D6E74 		.string	"/mnt/isfs/title/00000001/00000002/data/state.dat"
 219      2F697366 
 219      732F7469 
 219      746C652F 
 219      30303030 
 220              		.section	.text._Z13CheckShutdownv,"ax",@progbits
 221              		.align 2
 222              		.globl _Z13CheckShutdownv
 223              		.type	_Z13CheckShutdownv, @function
 224              	_Z13CheckShutdownv:
 225              	.LFB1341:
 226              		.loc 1 55 1 is_stmt 1 view -0
 227              		.cfi_startproc
 228              		.loc 1 56 2 view .LVU63
 229              		.loc 1 57 2 view .LVU64
 230              		.loc 1 58 2 view .LVU65
 231              		.loc 1 69 2 view .LVU66
 232              		.loc 1 55 1 is_stmt 0 view .LVU67
 233 0000 9421FFD0 		stwu 1,-48(1)
 234              		.cfi_def_cfa_offset 48
 235 0004 93C10028 		stw 30,40(1)
 236              		.cfi_offset 30, -8
 237              		.loc 1 69 10 view .LVU68
 238 0008 3FC00000 		lis 30,_ZL13ShutdownParam@ha
 239 000c 813E0000 		lwz 9,_ZL13ShutdownParam@l(30)
 240              		.loc 1 69 2 view .LVU69
 241 0010 2C090003 		cmpwi 0,9,3
 242 0014 41820130 		beq- 0,.L29
 243 0018 2C090004 		cmpwi 0,9,4
 244 001c 41820010 		beq- 0,.L30
 245              		.loc 1 97 1 view .LVU70
 246 0020 83C10028 		lwz 30,40(1)
 247 0024 38210030 		addi 1,1,48
 248              		.cfi_remember_state
 249              		.cfi_restore 30
 250              		.cfi_def_cfa_offset 0
 251 0028 4E800020 		blr
 252              	.L30:
 253              		.cfi_restore_state
 254              		.loc 1 70 3 is_stmt 1 view .LVU71
 255              		.loc 1 71 4 view .LVU72
 256 002c 93A10024 		stw 29,36(1)
 257              		.cfi_offset 29, -12
 258              		.loc 1 72 17 is_stmt 0 view .LVU73
 259 0030 3FA00000 		lis 29,.LC2@ha
 260 0034 9361001C 		stw 27,28(1)
 261              		.cfi_offset 27, -20
 262 0038 3BBD0000 		la 29,.LC2@l(29)
 263              		.loc 1 71 10 view .LVU74
 264 003c 3F600000 		lis 27,_ZZ13CheckShutdownvE5state@ha
 265 0040 93E1002C 		stw 31,44(1)
 266              		.cfi_offset 31, -4
 267 0044 39200000 		li 9,0
 268 0048 3BFB0000 		la 31,_ZZ13CheckShutdownvE5state@l(27)
 269 004c 7C0802A6 		mflr 0
 270              		.cfi_register 65, 0
 271              		.loc 1 72 17 view .LVU75
 272 0050 7FA3EB78 		mr 3,29
 273 0054 38800000 		li 4,0
 274 0058 93810020 		stw 28,32(1)
 275              		.cfi_offset 28, -16
 276 005c 90010034 		stw 0,52(1)
 277              		.cfi_offset 65, 4
 278              		.loc 1 71 10 view .LVU76
 279 0060 913F0004 		stw 9,4(31)
 280 0064 913F0008 		stw 9,8(31)
 281 0068 913F000C 		stw 9,12(31)
 282 006c 913F0010 		stw 9,16(31)
 283 0070 913F0014 		stw 9,20(31)
 284 0074 913F0018 		stw 9,24(31)
 285 0078 913F001C 		stw 9,28(31)
 286              		.loc 1 72 4 is_stmt 1 view .LVU77
 287              		.loc 1 71 10 is_stmt 0 view .LVU78
 288 007c 913B0000 		stw 9,_ZZ13CheckShutdownvE5state@l(27)
 289              		.loc 1 72 17 view .LVU79
 290 0080 48000001 		bl File_Open
 291              	.LVL18:
 292              		.loc 1 73 4 is_stmt 1 view .LVU80
 293 0084 7C7C1B79 		mr. 28,3
 294 0088 408000C8 		bge- 0,.L31
 295              		.loc 1 78 4 view .LVU81
 296              		.loc 1 79 4 view .LVU82
 297              		.loc 1 78 15 is_stmt 0 view .LVU83
 298 008c 39200500 		li 9,1280
 299              		.loc 1 80 25 view .LVU84
 300 0090 38610008 		addi 3,1,8
 301              	.LVL19:
 302              		.loc 1 78 15 view .LVU85
 303 0094 B13F0005 		sth 9,5(31)
 304              		.loc 1 80 4 is_stmt 1 view .LVU86
 305              		.loc 1 80 25 is_stmt 0 view .LVU87
 306 0098 48000001 		bl WDVD_VerifyCover
 307              	.LVL20:
 308              		.loc 1 80 33 discriminator 1 view .LVU88
 309 009c 2C030000 		cmpwi 0,3,0
 310 00a0 40820018 		bne- 0,.L20
 311              	.L33:
 312              		.loc 1 80 33 discriminator 2 view .LVU89
 313 00a4 89210008 		lbz 9,8(1)
 314 00a8 2C090000 		cmpwi 0,9,0
 315 00ac 4182000C 		beq- 0,.L20
 316              		.loc 1 81 5 is_stmt 1 view .LVU90
 317              		.loc 1 81 21 is_stmt 0 view .LVU91
 318 00b0 39200001 		li 9,1
 319 00b4 993F0006 		stb 9,6(31)
 320              	.L20:
 321              		.loc 1 83 4 is_stmt 1 view .LVU92
 322              		.loc 1 84 4 view .LVU93
 323              	.LVL21:
 324              		.loc 1 84 16 discriminator 1 view .LVU94
 325              		.loc 1 85 5 view .LVU95
 326              		.loc 1 84 4 discriminator 3 view .LVU96
 327              		.loc 1 84 16 discriminator 1 view .LVU97
 328              		.loc 1 85 5 view .LVU98
 329              		.loc 1 84 4 discriminator 3 view .LVU99
 330              		.loc 1 84 16 discriminator 1 view .LVU100
 331              		.loc 1 85 5 view .LVU101
 332              		.loc 1 84 4 discriminator 3 view .LVU102
 333              		.loc 1 84 16 discriminator 1 view .LVU103
 334              		.loc 1 85 5 view .LVU104
 335              		.loc 1 84 4 discriminator 3 view .LVU105
 336              		.loc 1 84 16 discriminator 1 view .LVU106
 337              		.loc 1 85 5 view .LVU107
 338              		.loc 1 84 4 discriminator 3 view .LVU108
 339              		.loc 1 84 16 discriminator 1 view .LVU109
 340              		.loc 1 85 5 view .LVU110
 341              		.loc 1 84 4 discriminator 3 view .LVU111
 342              		.loc 1 84 16 discriminator 1 view .LVU112
 343              		.loc 1 85 5 view .LVU113
 344              		.loc 1 84 4 discriminator 3 view .LVU114
 345              		.loc 1 84 16 discriminator 1 view .LVU115
 346              		.loc 1 85 22 is_stmt 0 view .LVU116
 347 00b8 811F0008 		lwz 8,8(31)
 348              		.loc 1 87 17 view .LVU117
 349 00bc 7FA3EB78 		mr 3,29
 350              		.loc 1 85 22 view .LVU118
 351 00c0 813F0004 		lwz 9,4(31)
 352              		.loc 1 87 17 view .LVU119
 353 00c4 38800001 		li 4,1
 354              		.loc 1 85 22 view .LVU120
 355 00c8 815F000C 		lwz 10,12(31)
 356 00cc 7D294214 		add 9,9,8
 357 00d0 811F0010 		lwz 8,16(31)
 358 00d4 7D295214 		add 9,9,10
 359 00d8 815F0014 		lwz 10,20(31)
 360 00dc 7D294214 		add 9,9,8
 361 00e0 811F0018 		lwz 8,24(31)
 362 00e4 7D295214 		add 9,9,10
 363 00e8 815F001C 		lwz 10,28(31)
 364 00ec 7D294214 		add 9,9,8
 365 00f0 7D295214 		add 9,9,10
 366 00f4 913B0000 		stw 9,_ZZ13CheckShutdownvE5state@l(27)
 367              		.loc 1 87 4 is_stmt 1 view .LVU121
 368              		.loc 1 87 17 is_stmt 0 view .LVU122
 369 00f8 48000001 		bl File_Open
 370              	.LVL22:
 371              		.loc 1 88 4 is_stmt 1 view .LVU123
 372 00fc 7C7D1B79 		mr. 29,3
 373 0100 40800080 		bge- 0,.L32
 374              	.LVL23:
 375              	.L21:
 376              		.loc 1 92 4 view .LVU124
 377              		.loc 1 92 19 is_stmt 0 view .LVU125
 378 0104 38600001 		li 3,1
 379 0108 38800002 		li 4,2
 380 010c 48000001 		bl WII_LaunchTitle
 381              	.LVL24:
 382 0110 8361001C 		lwz 27,28(1)
 383              		.cfi_restore 27
 384 0114 83810020 		lwz 28,32(1)
 385              		.cfi_restore 28
 386 0118 83A10024 		lwz 29,36(1)
 387              		.cfi_restore 29
 388              	.LVL25:
 389              		.loc 1 92 19 view .LVU126
 390 011c 83E1002C 		lwz 31,44(1)
 391              		.cfi_restore 31
 392              	.LVL26:
 393              	.L17:
 394              		.loc 1 94 3 is_stmt 1 view .LVU127
 395              		.loc 1 95 4 view .LVU128
 396              		.loc 1 95 19 is_stmt 0 view .LVU129
 397 0120 807E0000 		lwz 3,_ZL13ShutdownParam@l(30)
 398 0124 38A00000 		li 5,0
 399 0128 38800000 		li 4,0
 400 012c 48000001 		bl SYS_ResetSystem
 401              	.LVL27:
 402 0130 80010034 		lwz 0,52(1)
 403              		.loc 1 97 1 view .LVU130
 404 0134 83C10028 		lwz 30,40(1)
 405 0138 38210030 		addi 1,1,48
 406              		.cfi_restore 30
 407              		.cfi_def_cfa_offset 0
 408              		.loc 1 95 19 view .LVU131
 409 013c 7C0803A6 		mtlr 0
 410              		.cfi_restore 65
 411              		.loc 1 97 1 view .LVU132
 412 0140 4E800020 		blr
 413              	.L29:
 414              		.cfi_def_cfa_offset 48
 415              		.cfi_offset 30, -8
 416 0144 7C0802A6 		mflr 0
 417              		.cfi_register 65, 0
 418 0148 90010034 		stw 0,52(1)
 419              		.cfi_offset 65, 4
 420 014c 4BFFFFD4 		b .L17
 421              	.LVL28:
 422              	.L31:
 423              		.cfi_offset 27, -20
 424              		.cfi_offset 28, -16
 425              		.cfi_offset 29, -12
 426              		.cfi_offset 31, -4
 427              		.loc 1 74 5 is_stmt 1 view .LVU133
 428              		.loc 1 74 14 is_stmt 0 view .LVU134
 429 0150 38A00020 		li 5,32
 430 0154 7FE4FB78 		mr 4,31
 431 0158 48000001 		bl File_Read
 432              	.LVL29:
 433              		.loc 1 75 5 is_stmt 1 view .LVU135
 434              		.loc 1 75 15 is_stmt 0 view .LVU136
 435 015c 7F83E378 		mr 3,28
 436 0160 48000001 		bl File_Close
 437              	.LVL30:
 438              		.loc 1 78 4 is_stmt 1 view .LVU137
 439              		.loc 1 79 4 view .LVU138
 440              		.loc 1 78 15 is_stmt 0 view .LVU139
 441 0164 39200500 		li 9,1280
 442              		.loc 1 80 25 view .LVU140
 443 0168 38610008 		addi 3,1,8
 444              		.loc 1 78 15 view .LVU141
 445 016c B13F0005 		sth 9,5(31)
 446              		.loc 1 80 4 is_stmt 1 view .LVU142
 447              		.loc 1 80 25 is_stmt 0 view .LVU143
 448 0170 48000001 		bl WDVD_VerifyCover
 449              	.LVL31:
 450              		.loc 1 80 33 discriminator 1 view .LVU144
 451 0174 2C030000 		cmpwi 0,3,0
 452 0178 40A2FF40 		bne- 0,.L20
 453 017c 4BFFFF28 		b .L33
 454              	.LVL32:
 455              	.L32:
 456              		.loc 1 89 5 is_stmt 1 view .LVU145
 457              		.loc 1 89 15 is_stmt 0 view .LVU146
 458 0180 7FE4FB78 		mr 4,31
 459 0184 38A00020 		li 5,32
 460 0188 48000001 		bl File_Write
 461              	.LVL33:
 462              		.loc 1 90 5 is_stmt 1 view .LVU147
 463              		.loc 1 90 15 is_stmt 0 view .LVU148
 464 018c 7FA3EB78 		mr 3,29
 465 0190 48000001 		bl File_Close
 466              	.LVL34:
 467 0194 4BFFFF70 		b .L21
 468              		.cfi_endproc
 469              	.LFE1341:
 470              		.size	_Z13CheckShutdownv, .-_Z13CheckShutdownv
 471              		.section	.rodata._Z10Initialisev.str1.4,"aMS",@progbits,1
 472              		.align 2
 473              	.LC3:
 474 0000 0A00     		.string	"\n"
 475 0002 0000     		.align 2
 476              	.LC4:
 477 0004 494F5320 		.string	"IOS Error. Please try relaunching this program from HBC."
 477      4572726F 
 477      722E2050 
 477      6C656173 
 477      65207472 
 478 003d 000000   		.align 2
 479              	.LC5:
 480 0040 09494F53 		.string	"\tIOS%d does not seem to be installed on your system.\n\tIt's perfectly safe to install i
 480      25642064 
 480      6F657320 
 480      6E6F7420 
 480      7365656D 
 481              		.align 2
 482              	.LC6:
 483 00b4 09494F53 		.string	"\tIOS%d must be updated to continue.\n\tIt's perfectly safe to update it; do you want to 
 483      2564206D 
 483      75737420 
 483      62652075 
 483      70646174 
 484 0116 0000     		.align 2
 485              	.LC7:
 486 0118 09494F53 		.string	"\tIOS%d must be reinstalled to continue.\n\tThis is a perfectly safe to do; do you want t
 486      2564206D 
 486      75737420 
 486      62652072 
 486      65696E73 
 487              		.section	.text._Z10Initialisev,"ax",@progbits
 488              		.align 2
 489              		.globl _Z10Initialisev
 490              		.type	_Z10Initialisev, @function
 491              	_Z10Initialisev:
 492              	.LFB1343:
 493              		.loc 1 107 1 is_stmt 1 view -0
 494              		.cfi_startproc
 495              		.loc 1 108 2 view .LVU150
 496              	.LBB22:
 497              	.LBI22:
 498              		.loc 1 99 13 view .LVU151
 499              	.LBB23:
 500              		.loc 1 101 2 view .LVU152
 501              	.LBE23:
 502              	.LBE22:
 503              		.loc 1 107 1 is_stmt 0 view .LVU153
 504 0000 9421FFF0 		stwu 1,-16(1)
 505              		.cfi_def_cfa_offset 16
 506              	.LBB27:
 507              	.LBB24:
 508              		.loc 1 101 53 view .LVU154
 509 0004 3CA00000 		lis 5,__RO_END@ha
 510 0008 3C800000 		lis 4,_start@ha
 511 000c 38A50000 		la 5,__RO_END@l(5)
 512 0010 38840000 		la 4,_start@l(4)
 513              	.LBE24:
 514              	.LBE27:
 515              		.loc 1 107 1 view .LVU155
 516 0014 7C0802A6 		mflr 0
 517 0018 93E1000C 		stw 31,12(1)
 518              	.LBB28:
 519              	.LBB25:
 520              		.loc 1 101 18 view .LVU156
 521 001c 7CA42850 		subf 5,4,5
 522 0020 38C00001 		li 6,1
 523 0024 38600003 		li 3,3
 524              		.cfi_register 65, 0
 525              		.cfi_offset 31, -4
 526              	.LBE25:
 527              	.LBE28:
 528              		.loc 1 110 10 view .LVU157
 529 0028 3FE00000 		lis 31,is_wiiu@ha
 530              		.loc 1 107 1 view .LVU158
 531 002c 90010014 		stw 0,20(1)
 532              		.cfi_offset 65, 4
 533              	.LBB29:
 534              	.LBB26:
 535              		.loc 1 101 18 view .LVU159
 536 0030 48000001 		bl SYS_ProtectRange
 537              	.LVL35:
 538              	.LBE26:
 539              	.LBE29:
 540              		.loc 1 110 2 is_stmt 1 view .LVU160
 541              		.loc 1 110 10 is_stmt 0 view .LVU161
 542 0034 39200000 		li 9,0
 543              		.loc 1 111 20 view .LVU162
 544 0038 387F0000 		la 3,is_wiiu@l(31)
 545              		.loc 1 110 10 view .LVU163
 546 003c 913F0000 		stw 9,is_wiiu@l(31)
 547              		.loc 1 111 2 is_stmt 1 view .LVU164
 548              		.loc 1 111 20 is_stmt 0 view .LVU165
 549 0040 48000001 		bl ES_GetDeviceID
 550              	.LVL36:
 551 0044 39200001 		li 9,1
 552              		.loc 1 111 33 discriminator 1 view .LVU166
 553 0048 2C030000 		cmpwi 0,3,0
 554 004c 41800018 		blt- 0,.L35
 555              		.loc 1 111 33 discriminator 2 view .LVU167
 556 0050 815F0000 		lwz 10,is_wiiu@l(31)
 557 0054 3D202000 		lis 9,0x2000
 558 0058 7D295010 		subfc 9,9,10
 559 005c 7D294910 		subfe 9,9,9
 560 0060 39290001 		addi 9,9,1
 561              	.L35:
 562 0064 913F0000 		stw 9,is_wiiu@l(31)
 563              		.loc 1 116 2 is_stmt 1 view .LVU168
 564              		.loc 1 116 11 is_stmt 0 view .LVU169
 565 0068 48000001 		bl _Z9InitVideov
 566              	.LVL37:
 567              		.loc 1 118 2 is_stmt 1 view .LVU170
 568              		.loc 1 118 15 is_stmt 0 view .LVU171
 569 006c 48000001 		bl _Z9Haxx_Initv
 570              	.LVL38:
 571              		.loc 1 118 2 discriminator 1 view .LVU172
 572 0070 2C030000 		cmpwi 0,3,0
 573 0074 41800028 		blt- 0,.L50
 574              	.L36:
 575              		.loc 1 146 2 is_stmt 1 view .LVU173
 576 0078 38800000 		li 4,0
 577 007c 38600000 		li 3,0
 578 0080 48000001 		bl Init_DebugConsole
 579              	.LVL39:
 580              		.loc 1 148 2 view .LVU174
 581              		.loc 1 148 11 is_stmt 0 view .LVU175
 582 0084 48000001 		bl _Z9SetupPadsv
 583              	.LVL40:
 584              		.loc 1 149 2 is_stmt 1 view .LVU176
 585              		.loc 1 150 1 is_stmt 0 view .LVU177
 586 0088 80010014 		lwz 0,20(1)
 587 008c 83E1000C 		lwz 31,12(1)
 588 0090 38210010 		addi 1,1,16
 589              		.cfi_remember_state
 590              		.cfi_restore 31
 591              		.cfi_def_cfa_offset 0
 592 0094 7C0803A6 		mtlr 0
 593              		.cfi_restore 65
 594              		.loc 1 149 11 view .LVU178
 595 0098 48000000 		b _Z9InitAudiov
 596              	.LVL41:
 597              	.L50:
 598              		.cfi_restore_state
 599              		.loc 1 119 3 is_stmt 1 view .LVU179
 600              		.loc 1 119 12 is_stmt 0 view .LVU180
 601 009c 48000001 		bl WPAD_Init
 602              	.LVL42:
 603              		.loc 1 120 3 is_stmt 1 view .LVU181
 604              		.loc 1 120 9 is_stmt 0 view .LVU182
 605 00a0 3C600000 		lis 3,.LC3@ha
 606 00a4 38630000 		la 3,.LC3@l(3)
 607 00a8 48000001 		bl puts
 608              	.LVL43:
 609              		.loc 1 121 3 is_stmt 1 view .LVU183
 610 00ac 813F0000 		lwz 9,is_wiiu@l(31)
 611 00b0 2C090000 		cmpwi 0,9,0
 612 00b4 4182006C 		beq- 0,.L37
 613              		.loc 1 122 4 view .LVU184
 614              		.loc 1 122 10 is_stmt 0 view .LVU185
 615 00b8 3C600000 		lis 3,.LC4@ha
 616 00bc 38630000 		la 3,.LC4@l(3)
 617 00c0 48000001 		bl puts
 618              	.LVL44:
 619              		.loc 1 123 4 is_stmt 1 view .LVU186
 620              	.LBB30:
 621              	.LBI30:
 622              		.loc 1 40 6 view .LVU187
 623              	.LBB31:
 624              		.loc 1 42 2 view .LVU188
 625              		.loc 1 42 8 is_stmt 0 view .LVU189
 626 00c4 3C600000 		lis 3,.LC1@ha
 627 00c8 38630000 		la 3,.LC1@l(3)
 628 00cc 48000001 		bl puts
 629              	.LVL45:
 630              	.L38:
 631              		.loc 1 43 2 is_stmt 1 view .LVU190
 632              		.loc 1 44 3 view .LVU191
 633              		.loc 1 44 18 is_stmt 0 view .LVU192
 634 00d0 48000001 		bl VIDEO_WaitVSync
 635              	.LVL46:
 636              		.loc 1 45 3 is_stmt 1 view .LVU193
 637              		.loc 1 45 16 is_stmt 0 view .LVU194
 638 00d4 48000001 		bl WPAD_ScanPads
 639              	.LVL47:
 640              		.loc 1 46 11 is_stmt 1 discriminator 1 view .LVU195
 641              		.loc 1 46 30 is_stmt 0 discriminator 1 view .LVU196
 642 00d8 38600000 		li 3,0
 643 00dc 48000001 		bl WPAD_ButtonsDown
 644              	.LVL48:
 645 00e0 7C7F1B78 		mr 31,3
 646              		.loc 1 47 19 view .LVU197
 647 00e4 38600001 		li 3,1
 648 00e8 48000001 		bl WPAD_ButtonsDown
 649              	.LVL49:
 650 00ec 7C691B78 		mr 9,3
 651              		.loc 1 48 19 view .LVU198
 652 00f0 38600002 		li 3,2
 653              		.loc 1 46 34 discriminator 1 view .LVU199
 654 00f4 7FFF4B78 		or 31,31,9
 655              		.loc 1 48 19 view .LVU200
 656 00f8 48000001 		bl WPAD_ButtonsDown
 657              	.LVL50:
 658 00fc 7C691B78 		mr 9,3
 659              		.loc 1 49 19 view .LVU201
 660 0100 38600003 		li 3,3
 661              		.loc 1 47 23 view .LVU202
 662 0104 7FFF4B78 		or 31,31,9
 663              		.loc 1 49 19 view .LVU203
 664 0108 48000001 		bl WPAD_ButtonsDown
 665              	.LVL51:
 666              		.loc 1 48 23 view .LVU204
 667 010c 7FFF1B78 		or 31,31,3
 668              		.loc 1 46 11 discriminator 1 view .LVU205
 669 0110 73FF0080 		andi. 31,31,0x80
 670 0114 4182FFBC 		beq+ 0,.L38
 671              	.L40:
 672              	.LBE31:
 673              	.LBE30:
 674              		.loc 1 124 4 is_stmt 1 view .LVU206
 675              		.loc 1 124 8 is_stmt 0 view .LVU207
 676 0118 38600000 		li 3,0
 677 011c 48000001 		bl exit
 678              	.LVL52:
 679              	.L37:
 680              		.loc 1 125 10 is_stmt 1 view .LVU208
 681              		.loc 1 125 28 is_stmt 0 view .LVU209
 682 0120 48000001 		bl IOS_GetVersion
 683              	.LVL53:
 684              		.loc 1 125 10 discriminator 1 view .LVU210
 685 0124 2C030025 		cmpwi 0,3,37
 686 0128 41820078 		beq- 0,.L39
 687              		.loc 1 126 4 is_stmt 1 view .LVU211
 688              		.loc 1 126 10 is_stmt 0 view .LVU212
 689 012c 3C600000 		lis 3,.LC5@ha
 690 0130 38800025 		li 4,37
 691 0134 38630000 		la 3,.LC5@l(3)
 692 0138 4CC63182 		crxor 6,6,6
 693 013c 48000001 		bl printf
 694              	.LVL54:
 695              		.loc 1 127 4 is_stmt 1 view .LVU213
 696              	.LBB32:
 697              	.LBI32:
 698              		.loc 1 22 6 view .LVU214
 699              	.LBB33:
 700              		.loc 1 24 2 view .LVU215
 701              		.loc 1 24 8 is_stmt 0 view .LVU216
 702 0140 3C600000 		lis 3,.LC0@ha
 703 0144 38630000 		la 3,.LC0@l(3)
 704 0148 48000001 		bl puts
 705              	.LVL55:
 706              	.L41:
 707              		.loc 1 25 2 is_stmt 1 view .LVU217
 708              	.LBB34:
 709              		.loc 1 26 3 view .LVU218
 710              		.loc 1 26 18 is_stmt 0 view .LVU219
 711 014c 48000001 		bl VIDEO_WaitVSync
 712              	.LVL56:
 713              		.loc 1 27 3 is_stmt 1 view .LVU220
 714              		.loc 1 27 16 is_stmt 0 view .LVU221
 715 0150 48000001 		bl WPAD_ScanPads
 716              	.LVL57:
 717              		.loc 1 29 3 is_stmt 1 view .LVU222
 718              		.loc 1 29 30 is_stmt 0 view .LVU223
 719 0154 38600000 		li 3,0
 720 0158 48000001 		bl WPAD_ButtonsDown
 721              	.LVL58:
 722 015c 7C7F1B78 		mr 31,3
 723              		.loc 1 30 20 view .LVU224
 724 0160 38600001 		li 3,1
 725 0164 48000001 		bl WPAD_ButtonsDown
 726              	.LVL59:
 727 0168 7C691B78 		mr 9,3
 728              		.loc 1 31 20 view .LVU225
 729 016c 38600002 		li 3,2
 730              		.loc 1 29 34 view .LVU226
 731 0170 7FFF4B78 		or 31,31,9
 732              		.loc 1 31 20 view .LVU227
 733 0174 48000001 		bl WPAD_ButtonsDown
 734              	.LVL60:
 735 0178 7C691B78 		mr 9,3
 736              		.loc 1 32 20 view .LVU228
 737 017c 38600003 		li 3,3
 738              		.loc 1 30 24 view .LVU229
 739 0180 7FFF4B78 		or 31,31,9
 740              		.loc 1 32 20 view .LVU230
 741 0184 48000001 		bl WPAD_ButtonsDown
 742              	.LVL61:
 743              		.loc 1 31 24 view .LVU231
 744 0188 7FE31B78 		or 3,31,3
 745              	.LVL62:
 746              		.loc 1 33 3 is_stmt 1 view .LVU232
 747 018c 70690008 		andi. 9,3,0x8
 748 0190 40A2FEE8 		bne- 0,.L36
 749              		.loc 1 35 3 view .LVU233
 750 0194 70630080 		andi. 3,3,0x80
 751              	.LVL63:
 752              		.loc 1 35 3 is_stmt 0 view .LVU234
 753 0198 4182FFB4 		beq+ 0,.L41
 754 019c 4BFFFF7C 		b .L40
 755              	.LVL64:
 756              	.L39:
 757              		.loc 1 35 3 view .LVU235
 758              	.LBE34:
 759              	.LBE33:
 760              	.LBE32:
 761              		.loc 1 129 10 is_stmt 1 view .LVU236
 762              		.loc 1 129 29 is_stmt 0 view .LVU237
 763 01a0 48000001 		bl IOS_GetRevision
 764              	.LVL65:
 765              		.loc 1 129 10 discriminator 1 view .LVU238
 766 01a4 2C030F1C 		cmpwi 0,3,3868
 767 01a8 41810078 		bgt- 0,.L42
 768              		.loc 1 130 4 is_stmt 1 view .LVU239
 769              		.loc 1 130 10 is_stmt 0 view .LVU240
 770 01ac 3C600000 		lis 3,.LC6@ha
 771 01b0 38800025 		li 4,37
 772 01b4 38630000 		la 3,.LC6@l(3)
 773 01b8 4CC63182 		crxor 6,6,6
 774 01bc 48000001 		bl printf
 775              	.LVL66:
 776              		.loc 1 131 4 is_stmt 1 view .LVU241
 777              	.LBB35:
 778              	.LBI35:
 779              		.loc 1 22 6 view .LVU242
 780              	.LBB36:
 781              		.loc 1 24 2 view .LVU243
 782              		.loc 1 24 8 is_stmt 0 view .LVU244
 783 01c0 3C600000 		lis 3,.LC0@ha
 784 01c4 38630000 		la 3,.LC0@l(3)
 785 01c8 48000001 		bl puts
 786              	.LVL67:
 787              	.L43:
 788              		.loc 1 25 2 is_stmt 1 view .LVU245
 789              	.LBB37:
 790              		.loc 1 26 3 view .LVU246
 791              		.loc 1 26 18 is_stmt 0 view .LVU247
 792 01cc 48000001 		bl VIDEO_WaitVSync
 793              	.LVL68:
 794              		.loc 1 27 3 is_stmt 1 view .LVU248
 795              		.loc 1 27 16 is_stmt 0 view .LVU249
 796 01d0 48000001 		bl WPAD_ScanPads
 797              	.LVL69:
 798              		.loc 1 29 3 is_stmt 1 view .LVU250
 799              		.loc 1 29 30 is_stmt 0 view .LVU251
 800 01d4 38600000 		li 3,0
 801 01d8 48000001 		bl WPAD_ButtonsDown
 802              	.LVL70:
 803 01dc 7C7F1B78 		mr 31,3
 804              		.loc 1 30 20 view .LVU252
 805 01e0 38600001 		li 3,1
 806 01e4 48000001 		bl WPAD_ButtonsDown
 807              	.LVL71:
 808 01e8 7C691B78 		mr 9,3
 809              		.loc 1 31 20 view .LVU253
 810 01ec 38600002 		li 3,2
 811              		.loc 1 29 34 view .LVU254
 812 01f0 7FFF4B78 		or 31,31,9
 813              		.loc 1 31 20 view .LVU255
 814 01f4 48000001 		bl WPAD_ButtonsDown
 815              	.LVL72:
 816 01f8 7C691B78 		mr 9,3
 817              		.loc 1 32 20 view .LVU256
 818 01fc 38600003 		li 3,3
 819              		.loc 1 30 24 view .LVU257
 820 0200 7FFF4B78 		or 31,31,9
 821              		.loc 1 32 20 view .LVU258
 822 0204 48000001 		bl WPAD_ButtonsDown
 823              	.LVL73:
 824              		.loc 1 31 24 view .LVU259
 825 0208 7FE31B78 		or 3,31,3
 826              	.LVL74:
 827              		.loc 1 33 3 is_stmt 1 view .LVU260
 828 020c 70690008 		andi. 9,3,0x8
 829 0210 40A2FE68 		bne- 0,.L36
 830              		.loc 1 35 3 view .LVU261
 831 0214 70630080 		andi. 3,3,0x80
 832              	.LVL75:
 833              		.loc 1 35 3 is_stmt 0 view .LVU262
 834 0218 4182FFB4 		beq+ 0,.L43
 835 021c 4BFFFEFC 		b .L40
 836              	.LVL76:
 837              	.L42:
 838              		.loc 1 35 3 view .LVU263
 839              	.LBE37:
 840              	.LBE36:
 841              	.LBE35:
 842              		.loc 1 133 10 is_stmt 1 view .LVU264
 843              		.loc 1 140 4 view .LVU265
 844              		.loc 1 140 10 is_stmt 0 view .LVU266
 845 0220 3C600000 		lis 3,.LC7@ha
 846 0224 38800025 		li 4,37
 847 0228 38630000 		la 3,.LC7@l(3)
 848 022c 4CC63182 		crxor 6,6,6
 849 0230 48000001 		bl printf
 850              	.LVL77:
 851              		.loc 1 141 4 is_stmt 1 view .LVU267
 852              	.LBB38:
 853              	.LBI38:
 854              		.loc 1 22 6 view .LVU268
 855              	.LBB39:
 856              		.loc 1 24 2 view .LVU269
 857              		.loc 1 24 8 is_stmt 0 view .LVU270
 858 0234 3C600000 		lis 3,.LC0@ha
 859 0238 38630000 		la 3,.LC0@l(3)
 860 023c 48000001 		bl puts
 861              	.LVL78:
 862              	.L44:
 863              		.loc 1 25 2 is_stmt 1 view .LVU271
 864              	.LBB40:
 865              		.loc 1 26 3 view .LVU272
 866              		.loc 1 26 18 is_stmt 0 view .LVU273
 867 0240 48000001 		bl VIDEO_WaitVSync
 868              	.LVL79:
 869              		.loc 1 27 3 is_stmt 1 view .LVU274
 870              		.loc 1 27 16 is_stmt 0 view .LVU275
 871 0244 48000001 		bl WPAD_ScanPads
 872              	.LVL80:
 873              		.loc 1 29 3 is_stmt 1 view .LVU276
 874              		.loc 1 29 30 is_stmt 0 view .LVU277
 875 0248 38600000 		li 3,0
 876 024c 48000001 		bl WPAD_ButtonsDown
 877              	.LVL81:
 878 0250 7C7F1B78 		mr 31,3
 879              		.loc 1 30 20 view .LVU278
 880 0254 38600001 		li 3,1
 881 0258 48000001 		bl WPAD_ButtonsDown
 882              	.LVL82:
 883 025c 7C691B78 		mr 9,3
 884              		.loc 1 31 20 view .LVU279
 885 0260 38600002 		li 3,2
 886              		.loc 1 29 34 view .LVU280
 887 0264 7FFF4B78 		or 31,31,9
 888              		.loc 1 31 20 view .LVU281
 889 0268 48000001 		bl WPAD_ButtonsDown
 890              	.LVL83:
 891 026c 7C691B78 		mr 9,3
 892              		.loc 1 32 20 view .LVU282
 893 0270 38600003 		li 3,3
 894              		.loc 1 30 24 view .LVU283
 895 0274 7FFF4B78 		or 31,31,9
 896              		.loc 1 32 20 view .LVU284
 897 0278 48000001 		bl WPAD_ButtonsDown
 898              	.LVL84:
 899              		.loc 1 31 24 view .LVU285
 900 027c 7FE31B78 		or 3,31,3
 901              	.LVL85:
 902              		.loc 1 33 3 is_stmt 1 view .LVU286
 903 0280 70690008 		andi. 9,3,0x8
 904 0284 40A2FDF4 		bne- 0,.L36
 905              		.loc 1 35 3 view .LVU287
 906 0288 70630080 		andi. 3,3,0x80
 907              	.LVL86:
 908              		.loc 1 35 3 is_stmt 0 view .LVU288
 909 028c 4182FFB4 		beq+ 0,.L44
 910 0290 4BFFFE88 		b .L40
 911              	.LBE40:
 912              	.LBE39:
 913              	.LBE38:
 914              		.cfi_endproc
 915              	.LFE1343:
 916              		.size	_Z10Initialisev, .-_Z10Initialisev
 917              		.globl MALLOC_MEM2
 918              		.section	.sdata.MALLOC_MEM2,"aw"
 919              		.align 2
 920              		.type	MALLOC_MEM2, @object
 921              		.size	MALLOC_MEM2, 4
 922              	MALLOC_MEM2:
 923 0000 00000001 		.long	1
 924              		.section	.bss._ZZ13CheckShutdownvE5state,"aw",@nobits
 925              		.align 5
 926              		.type	_ZZ13CheckShutdownvE5state, @object
 927              		.size	_ZZ13CheckShutdownvE5state, 32
 928              	_ZZ13CheckShutdownvE5state:
 929 0000 00000000 		.zero	32
 929      00000000 
 929      00000000 
 929      00000000 
 929      00000000 
 930              		.section	.bss._ZL13ShutdownParam,"aw",@nobits
 931              		.align 2
 932              		.type	_ZL13ShutdownParam, @object
 933              		.size	_ZL13ShutdownParam, 4
 934              	_ZL13ShutdownParam:
 935 0000 00000000 		.zero	4
 936              		.globl is_wiiu
 937              		.section	.sbss.is_wiiu,"aw",@nobits
 938              		.align 2
 939              		.type	is_wiiu, @object
 940              		.size	is_wiiu, 4
 941              	is_wiiu:
 942 0000 00000000 		.zero	4
 943              		.section	".text"
 944              	.Letext0:
 945              		.file 2 "C:/devkitPro/devkitPPC/powerpc-eabi/include/machine/_default_types.h"
 946              		.file 3 "C:/devkitPro/devkitPPC/powerpc-eabi/include/sys/_stdint.h"
 947              		.file 4 "C:/devkitPro/libogc/include/gctypes.h"
 948              		.file 5 "C:/devkitPro/devkitPPC/lib/gcc/powerpc-eabi/13.1.0/include/stddef.h"
 949              		.file 6 "C:/devkitPro/devkitPPC/powerpc-eabi/include/stdlib.h"
 950              		.file 7 "C:/devkitPro/devkitPPC/powerpc-eabi/include/c++/13.1.0/cstdlib"
 951              		.file 8 "C:/devkitPro/devkitPPC/powerpc-eabi/include/c++/13.1.0/bits/std_abs.h"
 952              		.file 9 "C:/devkitPro/devkitPPC/powerpc-eabi/include/c++/13.1.0/type_traits"
 953              		.file 10 "C:/devkitPro/devkitPPC/powerpc-eabi/include/c++/13.1.0/debug/debug.h"
 954              		.file 11 "C:/devkitPro/devkitPPC/powerpc-eabi/include/c++/13.1.0/cstddef"
 955              		.file 12 "C:/devkitPro/devkitPPC/powerpc-eabi/include/c++/13.1.0/bits/predefined_ops.h"
 956              		.file 13 "C:/devkitPro/devkitPPC/powerpc-eabi/include/c++/13.1.0/stdlib.h"
 957              		.file 14 "C:/devkitPro/devkitPPC/powerpc-eabi/include/c++/13.1.0/powerpc-eabi/bits/c++config.h"
 958              		.file 15 "F:/GameModding/MarioKartWii/Mods/Distro/RetroRewind6/dev/Launcher/RRLauncher/launcher/in
 959              		.file 16 "C:/devkitPro/libogc/include/ogc/system.h"
 960              		.file 17 "F:/GameModding/MarioKartWii/Mods/Distro/RetroRewind6/dev/Launcher/RRLauncher/launcher/li
 961              		.file 18 "F:/GameModding/MarioKartWii/Mods/Distro/RetroRewind6/dev/Launcher/RRLauncher/launcher/li
 962              		.file 19 "F:/GameModding/MarioKartWii/Mods/Distro/RetroRewind6/dev/Launcher/RRLauncher/launcher/in
 963              		.file 20 "C:/devkitPro/libogc/include/ogc/ios.h"
 964              		.file 21 "C:/devkitPro/devkitPPC/powerpc-eabi/include/stdio.h"
 965              		.file 22 "C:/devkitPro/libogc/include/wiiuse/wpad.h"
 966              		.file 23 "F:/GameModding/MarioKartWii/Mods/Distro/RetroRewind6/dev/Launcher/RRLauncher/launcher/li
 967              		.file 24 "C:/devkitPro/libogc/include/ogc/es.h"
 968              		.file 25 "C:/devkitPro/libogc/include/ogc/wiilaunch.h"
 969              		.file 26 "F:/GameModding/MarioKartWii/Mods/Distro/RetroRewind6/dev/Launcher/RRLauncher/filemodule/
 970              		.file 27 "F:/GameModding/MarioKartWii/Mods/Distro/RetroRewind6/dev/Launcher/RRLauncher/launcher/in
 971              		.file 28 "C:/devkitPro/devkitPPC/powerpc-eabi/include/string.h"
 972              		.file 29 "C:/devkitPro/devkitPPC/powerpc-eabi/include/c++/13.1.0/bits/memory_resource.h"
 973              		.file 30 "C:/devkitPro/libogc/include/ogc/video.h"