   1              		.file	"launcher.cpp"
   2              		.machine ppc
   3              		.section	".text"
   4              	.Ltext0:
   5              		.file 1 "F:/GameModding/MarioKartWii/Mods/Distro/RetroRewind6/dev/Launcher/RRLauncher/launcher/sou
   6              		.section	.text._ZL10nullprintfPKcz,"ax",@progbits
   7              		.align 2
   8              		.type	_ZL10nullprintfPKcz, @function
   9              	_ZL10nullprintfPKcz:
  10              	.LVL0:
  11              	.LFB2368:
  12              		.loc 1 117 1 view -0
  13              		.cfi_startproc
  14              		.loc 1 118 2 view .LVU1
  15              		.loc 1 119 1 is_stmt 0 view .LVU2
  16 0000 38600000 		li 3,0
  17              	.LVL1:
  18              		.loc 1 119 1 view .LVU3
  19 0004 4E800020 		blr
  20              		.cfi_endproc
  21              	.LFE2368:
  22              		.size	_ZL10nullprintfPKcz, .-_ZL10nullprintfPKcz
  23              		.section	.text._Z21Launcher_DiscInsertedv,"ax",@progbits
  24              		.align 2
  25              		.globl _Z21Launcher_DiscInsertedv
  26              		.type	_Z21Launcher_DiscInsertedv, @function
  27              	_Z21Launcher_DiscInsertedv:
  28              	.LFB2370:
  29              		.loc 1 132 1 is_stmt 1 view -0
  30              		.cfi_startproc
  31              		.loc 1 133 2 view .LVU5
  32              		.loc 1 134 2 view .LVU6
  33              		.loc 1 132 1 is_stmt 0 view .LVU7
  34 0000 9421FFE8 		stwu 1,-24(1)
  35              		.cfi_def_cfa_offset 24
  36 0004 7C0802A6 		mflr 0
  37              		.loc 1 134 23 view .LVU8
  38 0008 38610008 		addi 3,1,8
  39              		.loc 1 132 1 view .LVU9
  40 000c 9001001C 		stw 0,28(1)
  41              		.cfi_offset 65, 4
  42              		.loc 1 134 23 view .LVU10
  43 0010 48000001 		bl WDVD_VerifyCover
  44              	.LVL2:
  45              		.loc 1 134 2 discriminator 1 view .LVU11
  46 0014 2C030000 		cmpwi 0,3,0
  47 0018 4182001C 		beq- 0,.L8
  48              		.loc 1 137 1 view .LVU12
  49 001c 8001001C 		lwz 0,28(1)
  50 0020 38600000 		li 3,0
  51 0024 5463063E 		rlwinm 3,3,0,0xff
  52 0028 38210018 		addi 1,1,24
  53              		.cfi_remember_state
  54              		.cfi_def_cfa_offset 0
  55 002c 7C0803A6 		mtlr 0
  56              		.cfi_restore 65
  57 0030 4E800020 		blr
  58              	.L8:
  59              		.cfi_restore_state
  60              		.loc 1 135 3 is_stmt 1 view .LVU13
  61              		.loc 1 135 10 is_stmt 0 view .LVU14
  62 0034 88610008 		lbz 3,8(1)
  63              		.loc 1 137 1 view .LVU15
  64 0038 8001001C 		lwz 0,28(1)
  65 003c 38210018 		addi 1,1,24
  66              		.cfi_def_cfa_offset 0
  67 0040 5463063E 		rlwinm 3,3,0,0xff
  68 0044 7C0803A6 		mtlr 0
  69              		.cfi_restore 65
  70 0048 4E800020 		blr
  71              		.cfi_endproc
  72              	.LFE2370:
  73              		.size	_Z21Launcher_DiscInsertedv, .-_Z21Launcher_DiscInsertedv
  74              		.section	.text._Z19Launcher_GetFstDatav,"ax",@progbits
  75              		.align 2
  76              		.globl _Z19Launcher_GetFstDatav
  77              		.type	_Z19Launcher_GetFstDatav, @function
  78              	_Z19Launcher_GetFstDatav:
  79              	.LFB2371:
  80              		.loc 1 140 1 is_stmt 1 view -0
  81              		.cfi_startproc
  82              		.loc 1 141 2 view .LVU17
  83              		.loc 1 141 9 is_stmt 0 discriminator 1 view .LVU18
  84 0000 3C600000 		lis 3,_ZL7fstdata@ha
  85              		.loc 1 142 1 view .LVU19
  86 0004 38630000 		la 3,_ZL7fstdata@l(3)
  87 0008 4E800020 		blr
  88              		.cfi_endproc
  89              	.LFE2371:
  90              		.size	_Z19Launcher_GetFstDatav, .-_Z19Launcher_GetFstDatav
  91              		.section	.rodata._Z24Launcher_GetGameNameWidev.str1.4,"aMS",@progbits,1
  92              		.align 2
  93              	.LC0:
  94 0000 2F6F7065 		.string	"/opening.bnr"
  94      6E696E67 
  94      2E626E72 
  94      00
  95              		.section	.text._Z24Launcher_GetGameNameWidev,"ax",@progbits
  96              		.align 2
  97              		.globl _Z24Launcher_GetGameNameWidev
  98              		.type	_Z24Launcher_GetGameNameWidev, @function
  99              	_Z24Launcher_GetGameNameWidev:
 100              	.LFB2372:
 101              		.loc 1 145 1 is_stmt 1 view -0
 102              		.cfi_startproc
 103              		.loc 1 146 2 view .LVU21
 104              		.loc 1 145 1 is_stmt 0 view .LVU22
 105 0000 9421FFE8 		stwu 1,-24(1)
 106              		.cfi_def_cfa_offset 24
 107 0004 7C0802A6 		mflr 0
 108              		.loc 1 146 17 view .LVU23
 109 0008 39200000 		li 9,0
 110              		.loc 1 145 1 view .LVU24
 111 000c 93C10010 		stw 30,16(1)
 112              		.cfi_register 65, 0
 113              		.cfi_offset 30, -8
 114              		.loc 1 146 17 view .LVU25
 115 0010 3FC00000 		lis 30,_ZL10BannerName@ha
 116              		.loc 1 145 1 view .LVU26
 117 0014 93E10014 		stw 31,20(1)
 118              		.cfi_offset 31, -4
 119              		.loc 1 146 17 view .LVU27
 120 0018 3BFE0000 		la 31,_ZL10BannerName@l(30)
 121              		.loc 1 145 1 view .LVU28
 122 001c 9001001C 		stw 0,28(1)
 123              		.loc 1 146 17 view .LVU29
 124 0020 B13F0054 		sth 9,84(31)
 125              		.loc 1 147 2 is_stmt 1 view .LVU30
 126              		.cfi_offset 65, 4
 127              	.LBB35:
 128              		.loc 1 147 16 is_stmt 0 view .LVU31
 129 0024 48000001 		bl _Z10RVL_GetFSTv
 130              	.LVL3:
 131              		.loc 1 147 2 discriminator 1 view .LVU32
 132 0028 2C030000 		cmpwi 0,3,0
 133 002c 41820084 		beq- 0,.L14
 134              	.LBB36:
 135              		.loc 1 148 3 is_stmt 1 view .LVU33
 136 0030 A93E0000 		lha 9,_ZL10BannerName@l(30)
 137 0034 2C090000 		cmpwi 0,9,0
 138 0038 41820020 		beq- 0,.L29
 139              	.L13:
 140              	.LBE36:
 141              	.LBE35:
 142              		.loc 1 166 1 is_stmt 0 view .LVU34
 143 003c 8001001C 		lwz 0,28(1)
 144 0040 7FE3FB78 		mr 3,31
 145 0044 83C10010 		lwz 30,16(1)
 146 0048 83E10014 		lwz 31,20(1)
 147 004c 7C0803A6 		mtlr 0
 148              		.cfi_remember_state
 149              		.cfi_restore 65
 150 0050 38210018 		addi 1,1,24
 151              		.cfi_restore 31
 152              		.cfi_restore 30
 153              		.cfi_def_cfa_offset 0
 154 0054 4E800020 		blr
 155              	.L29:
 156              		.cfi_restore_state
 157              	.LBB43:
 158              	.LBB41:
 159              		.loc 1 150 3 is_stmt 1 view .LVU35
 160              		.loc 1 150 32 is_stmt 0 view .LVU36
 161 0058 3C600000 		lis 3,.LC0@ha
 162 005c 38630000 		la 3,.LC0@l(3)
 163 0060 48000001 		bl _Z12RVL_FindNodePKc
 164              	.LVL4:
 165              		.loc 1 151 3 is_stmt 1 view .LVU37
 166              	.LBB37:
 167 0064 2C030000 		cmpwi 0,3,0
 168              		.loc 1 151 3 is_stmt 0 view .LVU38
 169 0068 41820048 		beq- 0,.L14
 170              	.LBB38:
 171              		.loc 1 152 4 is_stmt 1 view .LVU39
 172              		.loc 1 153 4 view .LVU40
 173              		.loc 1 153 43 is_stmt 0 view .LVU41
 174 006c 80C30004 		lwz 6,4(3)
 175              		.loc 1 153 21 view .LVU42
 176 0070 38800600 		li 4,1536
 177 0074 93A1000C 		stw 29,12(1)
 178              		.cfi_offset 29, -12
 179              		.loc 1 153 21 view .LVU43
 180 0078 3FA00000 		lis 29,_ZZ24Launcher_GetGameNameWidevE4imet@ha
 181 007c 3BBD0000 		la 29,_ZZ24Launcher_GetGameNameWidevE4imet@l(29)
 182 0080 54C517BE 		srwi 5,6,30
 183 0084 7FA3EB78 		mr 3,29
 184              	.LVL5:
 185              		.loc 1 153 21 view .LVU44
 186 0088 54C6103A 		slwi 6,6,2
 187 008c 48000001 		bl WDVD_LowRead
 188              	.LVL6:
 189              		.loc 1 153 71 discriminator 1 view .LVU45
 190 0090 2C030000 		cmpwi 0,3,0
 191 0094 40820018 		bne- 0,.L28
 192 0098 815D0040 		lwz 10,64(29)
 193 009c 3D20494D 		lis 9,0x494d
 194 00a0 61294554 		ori 9,9,0x4554
 195 00a4 7C0A4800 		cmpw 0,10,9
 196 00a8 41820070 		beq- 0,.L30
 197              	.L28:
 198 00ac 83A1000C 		lwz 29,12(1)
 199              		.cfi_restore 29
 200              	.LVL7:
 201              	.L14:
 202              		.loc 1 153 71 discriminator 1 view .LVU46
 203              	.LBE38:
 204              	.LBE37:
 205              	.LBE41:
 206              	.LBE43:
 207              	.LBB44:
 208              	.LBB45:
 209              		.loc 1 163 20 is_stmt 1 discriminator 1 view .LVU47
 210 00b0 3D400000 		lis 10,_ZL8GameName-1@ha
 211 00b4 3D200000 		lis 9,_ZL10BannerName-2@ha
 212 00b8 39000007 		li 8,7
 213 00bc 394A0000 		la 10,_ZL8GameName-1@l(10)
 214 00c0 39290000 		la 9,_ZL10BannerName-2@l(9)
 215 00c4 7D0903A6 		mtctr 8
 216              	.LVL8:
 217              	.L12:
 218              		.loc 1 164 3 view .LVU48
 219              		.loc 1 164 29 is_stmt 0 view .LVU49
 220 00c8 886A0001 		lbz 3,1(10)
 221 00cc 888A0002 		lbz 4,2(10)
 222 00d0 88AA0003 		lbz 5,3(10)
 223 00d4 88CA0004 		lbz 6,4(10)
 224 00d8 88EA0005 		lbz 7,5(10)
 225 00dc 8D0A0006 		lbzu 8,6(10)
 226 00e0 B0690002 		sth 3,2(9)
 227              		.loc 1 163 2 is_stmt 1 discriminator 3 view .LVU50
 228              		.loc 1 163 20 discriminator 1 view .LVU51
 229              	.LVL9:
 230              		.loc 1 164 3 view .LVU52
 231              		.loc 1 164 29 is_stmt 0 view .LVU53
 232 00e4 B0890004 		sth 4,4(9)
 233              		.loc 1 163 2 is_stmt 1 discriminator 3 view .LVU54
 234              	.LVL10:
 235              		.loc 1 163 20 discriminator 1 view .LVU55
 236              		.loc 1 164 3 view .LVU56
 237              		.loc 1 164 29 is_stmt 0 view .LVU57
 238 00e8 B0A90006 		sth 5,6(9)
 239              		.loc 1 163 2 is_stmt 1 discriminator 3 view .LVU58
 240              	.LVL11:
 241              		.loc 1 163 20 discriminator 1 view .LVU59
 242              		.loc 1 164 3 view .LVU60
 243              		.loc 1 164 29 is_stmt 0 view .LVU61
 244 00ec B0C90008 		sth 6,8(9)
 245              		.loc 1 163 2 is_stmt 1 discriminator 3 view .LVU62
 246              	.LVL12:
 247              		.loc 1 163 20 discriminator 1 view .LVU63
 248              		.loc 1 164 3 view .LVU64
 249              		.loc 1 164 29 is_stmt 0 view .LVU65
 250 00f0 B0E9000A 		sth 7,10(9)
 251              		.loc 1 163 2 is_stmt 1 discriminator 3 view .LVU66
 252              	.LVL13:
 253              		.loc 1 163 20 discriminator 1 view .LVU67
 254              		.loc 1 164 3 view .LVU68
 255              		.loc 1 164 29 is_stmt 0 view .LVU69
 256 00f4 B509000C 		sthu 8,12(9)
 257              		.loc 1 163 2 is_stmt 1 discriminator 3 view .LVU70
 258              	.LVL14:
 259              		.loc 1 163 20 discriminator 1 view .LVU71
 260 00f8 4200FFD0 		bdnz .L12
 261              	.LVL15:
 262              		.loc 1 163 20 is_stmt 0 discriminator 1 view .LVU72
 263              	.LBE45:
 264              	.LBE44:
 265              		.loc 1 166 1 view .LVU73
 266 00fc 8001001C 		lwz 0,28(1)
 267 0100 7FE3FB78 		mr 3,31
 268 0104 83C10010 		lwz 30,16(1)
 269 0108 83E10014 		lwz 31,20(1)
 270 010c 7C0803A6 		mtlr 0
 271              		.cfi_restore 65
 272 0110 38210018 		addi 1,1,24
 273              		.cfi_restore 31
 274              		.cfi_restore 30
 275              		.cfi_def_cfa_offset 0
 276 0114 4E800020 		blr
 277              	.LVL16:
 278              	.L30:
 279              		.cfi_def_cfa_offset 24
 280              		.cfi_offset 29, -12
 281              		.cfi_offset 30, -8
 282              		.cfi_offset 31, -4
 283              		.cfi_offset 65, 4
 284              	.LBB46:
 285              	.LBB42:
 286              	.LBB40:
 287              	.LBB39:
 288              		.loc 1 154 5 is_stmt 1 view .LVU74
 289              		.loc 1 154 51 is_stmt 0 view .LVU75
 290 0118 48000001 		bl CONF_GetLanguage
 291              	.LVL17:
 292              		.loc 1 154 11 discriminator 1 view .LVU76
 293 011c 38A00054 		li 5,84
 294              		.loc 1 154 53 discriminator 1 view .LVU77
 295 0120 1C830054 		mulli 4,3,84
 296              		.loc 1 154 11 discriminator 1 view .LVU78
 297 0124 7FE3FB78 		mr 3,31
 298              		.loc 1 154 53 discriminator 1 view .LVU79
 299 0128 3884005C 		addi 4,4,92
 300              		.loc 1 154 11 discriminator 1 view .LVU80
 301 012c 7C9D2214 		add 4,29,4
 302 0130 48000001 		bl memcpy
 303              	.LVL18:
 304              		.loc 1 155 5 is_stmt 1 view .LVU81
 305 0134 A93E0000 		lha 9,_ZL10BannerName@l(30)
 306 0138 2C090000 		cmpwi 0,9,0
 307 013c 4182FF70 		beq+ 0,.L28
 308 0140 83A1000C 		lwz 29,12(1)
 309              		.cfi_restore 29
 310 0144 4BFFFEF8 		b .L13
 311              	.LBE39:
 312              	.LBE40:
 313              	.LBE42:
 314              	.LBE46:
 315              		.cfi_endproc
 316              	.LFE2372:
 317              		.size	_Z24Launcher_GetGameNameWidev, .-_Z24Launcher_GetGameNameWidev
 318              		.section	.text._Z20Launcher_GetGameNamev,"ax",@progbits
 319              		.align 2
 320              		.globl _Z20Launcher_GetGameNamev
 321              		.type	_Z20Launcher_GetGameNamev, @function
 322              	_Z20Launcher_GetGameNamev:
 323              	.LFB2373:
 324              		.loc 1 169 1 view -0
 325              		.cfi_startproc
 326              		.loc 1 170 2 view .LVU83
 327              		.loc 1 169 1 is_stmt 0 view .LVU84
 328 0000 9421FFF8 		stwu 1,-8(1)
 329              		.cfi_def_cfa_offset 8
 330 0004 7C0802A6 		mflr 0
 331 0008 9001000C 		stw 0,12(1)
 332              		.cfi_offset 65, 4
 333              		.loc 1 170 17 view .LVU85
 334 000c 48000001 		bl _Z10RVL_GetFSTv
 335              	.LVL19:
 336              		.loc 1 170 2 discriminator 1 view .LVU86
 337 0010 2C030000 		cmpwi 0,3,0
 338 0014 41820098 		beq- 0,.L40
 339              		.loc 1 173 2 is_stmt 1 view .LVU87
 340              		.loc 1 174 2 view .LVU88
 341              		.loc 1 174 44 is_stmt 0 view .LVU89
 342 0018 48000001 		bl _Z24Launcher_GetGameNameWidev
 343              	.LVL20:
 344              		.loc 1 176 2 is_stmt 1 view .LVU90
 345              		.loc 1 177 2 view .LVU91
 346              		.loc 1 177 9 view .LVU92
 347 001c A9230050 		lha 9,80(3)
 348 0020 2C090000 		cmpwi 0,9,0
 349 0024 408200A0 		bne- 0,.L41
 350 0028 39430050 		addi 10,3,80
 351              		.loc 1 176 6 is_stmt 0 view .LVU93
 352 002c 39200028 		li 9,40
 353              	.LVL21:
 354              	.L34:
 355              		.loc 1 178 3 is_stmt 1 view .LVU94
 356              		.loc 1 177 9 is_stmt 0 view .LVU95
 357 0030 AD0AFFFE 		lhau 8,-2(10)
 358 0034 7D264B78 		mr 6,9
 359              		.loc 1 178 6 view .LVU96
 360 0038 3929FFFF 		addi 9,9,-1
 361              	.LVL22:
 362              		.loc 1 177 9 is_stmt 1 view .LVU97
 363 003c 2C080000 		cmpwi 0,8,0
 364 0040 4182FFF0 		beq+ 0,.L34
 365              	.LVL23:
 366              	.LBB47:
 367              		.loc 1 179 20 discriminator 1 view .LVU98
 368 0044 2C090000 		cmpwi 0,9,0
 369 0048 41800034 		blt- 0,.L35
 370              	.LVL24:
 371              	.L33:
 372              		.loc 1 179 20 is_stmt 0 discriminator 1 view .LVU99
 373 004c 3D000000 		lis 8,_ZZ20Launcher_GetGameNamevE8gamename-1@ha
 374 0050 39290001 		addi 9,9,1
 375 0054 3863FFFE 		addi 3,3,-2
 376              	.LVL25:
 377              		.loc 1 179 20 discriminator 1 view .LVU100
 378 0058 39080000 		la 8,_ZZ20Launcher_GetGameNamevE8gamename-1@l(8)
 379              		.loc 1 180 15 discriminator 4 view .LVU101
 380 005c 38A00020 		li 5,32
 381              	.LVL26:
 382              	.L39:
 383              		.loc 1 180 3 is_stmt 1 view .LVU102
 384              		.loc 1 180 17 is_stmt 0 view .LVU103
 385 0060 A5430002 		lhzu 10,2(3)
 386              		.loc 1 180 31 view .LVU104
 387 0064 5547063E 		rlwinm 7,10,0,0xff
 388 0068 2C070000 		cmpwi 0,7,0
 389 006c 41820030 		beq- 0,.L36
 390              		.loc 1 179 20 discriminator 1 view .LVU105
 391 0070 3529FFFF 		addic. 9,9,-1
 392              		.loc 1 180 15 discriminator 4 view .LVU106
 393 0074 9D480001 		stbu 10,1(8)
 394              	.LVL27:
 395              		.loc 1 179 2 is_stmt 1 discriminator 2 view .LVU107
 396              		.loc 1 179 20 discriminator 1 view .LVU108
 397 0078 4082FFE8 		bne+ 0,.L39
 398              	.LVL28:
 399              	.L35:
 400              		.loc 1 179 20 is_stmt 0 discriminator 1 view .LVU109
 401              	.LBE47:
 402              		.loc 1 181 2 is_stmt 1 view .LVU110
 403              		.loc 1 181 20 is_stmt 0 view .LVU111
 404 007c 3C600000 		lis 3,_ZZ20Launcher_GetGameNamevE8gamename@ha
 405 0080 39200000 		li 9,0
 406 0084 38630000 		la 3,_ZZ20Launcher_GetGameNamevE8gamename@l(3)
 407 0088 7D2331AE 		stbx 9,3,6
 408              		.loc 1 183 2 is_stmt 1 view .LVU112
 409              		.loc 1 184 1 is_stmt 0 view .LVU113
 410 008c 8001000C 		lwz 0,12(1)
 411 0090 38210008 		addi 1,1,8
 412              		.cfi_remember_state
 413              		.cfi_def_cfa_offset 0
 414 0094 7C0803A6 		mtlr 0
 415              		.cfi_restore 65
 416 0098 4E800020 		blr
 417              	.LVL29:
 418              	.L36:
 419              		.cfi_restore_state
 420              	.LBB48:
 421              		.loc 1 179 20 discriminator 1 view .LVU114
 422 009c 3529FFFF 		addic. 9,9,-1
 423              		.loc 1 180 15 discriminator 4 view .LVU115
 424 00a0 9CA80001 		stbu 5,1(8)
 425              	.LVL30:
 426              		.loc 1 179 2 is_stmt 1 discriminator 2 view .LVU116
 427              		.loc 1 179 20 discriminator 1 view .LVU117
 428 00a4 4082FFBC 		bne+ 0,.L39
 429 00a8 4BFFFFD4 		b .L35
 430              	.LVL31:
 431              	.L40:
 432              		.loc 1 179 20 is_stmt 0 discriminator 1 view .LVU118
 433              	.LBE48:
 434              		.loc 1 184 1 view .LVU119
 435 00ac 8001000C 		lwz 0,12(1)
 436              		.loc 1 171 10 view .LVU120
 437 00b0 3C600000 		lis 3,_ZL8GameName@ha
 438 00b4 38630000 		la 3,_ZL8GameName@l(3)
 439              		.loc 1 184 1 view .LVU121
 440 00b8 38210008 		addi 1,1,8
 441              		.cfi_remember_state
 442              		.cfi_def_cfa_offset 0
 443 00bc 7C0803A6 		mtlr 0
 444              		.cfi_restore 65
 445 00c0 4E800020 		blr
 446              	.LVL32:
 447              	.L41:
 448              		.cfi_restore_state
 449              		.loc 1 177 9 view .LVU122
 450 00c4 38C00029 		li 6,41
 451              		.loc 1 176 6 view .LVU123
 452 00c8 39200028 		li 9,40
 453 00cc 4BFFFF80 		b .L33
 454              		.cfi_endproc
 455              	.LFE2373:
 456              		.size	_Z20Launcher_GetGameNamev, .-_Z20Launcher_GetGameNamev
 457              		.section	.text._Z13Launcher_Initv,"ax",@progbits
 458              		.align 2
 459              		.globl _Z13Launcher_Initv
 460              		.type	_Z13Launcher_Initv, @function
 461              	_Z13Launcher_Initv:
 462              	.LFB2374:
 463              		.loc 1 187 1 is_stmt 1 view -0
 464              		.cfi_startproc
 465              		.loc 1 188 2 view .LVU125
 466              		.loc 1 187 1 is_stmt 0 view .LVU126
 467 0000 9421FFF8 		stwu 1,-8(1)
 468              		.cfi_def_cfa_offset 8
 469 0004 7C0802A6 		mflr 0
 470 0008 9001000C 		stw 0,12(1)
 471              		.cfi_offset 65, 4
 472              		.loc 1 188 20 view .LVU127
 473 000c 48000001 		bl WDVD_Init
 474              	.LVL33:
 475              		.loc 1 189 2 is_stmt 1 view .LVU128
 476 0010 2C030000 		cmpwi 0,3,0
 477 0014 41800024 		blt- 0,.L51
 478              		.loc 1 192 2 view .LVU129
 479              		.loc 1 192 17 is_stmt 0 view .LVU130
 480 0018 48000001 		bl WDVD_Reset
 481              	.LVL34:
 482              		.loc 1 192 2 discriminator 1 view .LVU131
 483 001c 2C030000 		cmpwi 0,3,0
 484 0020 41820018 		beq- 0,.L51
 485              		.loc 1 195 25 view .LVU132
 486 0024 38600000 		li 3,0
 487              	.L48:
 488              		.loc 1 196 1 view .LVU133
 489 0028 8001000C 		lwz 0,12(1)
 490 002c 38210008 		addi 1,1,8
 491              		.cfi_remember_state
 492              		.cfi_def_cfa_offset 0
 493 0030 7C0803A6 		mtlr 0
 494              		.cfi_restore 65
 495 0034 4E800020 		blr
 496              	.L51:
 497              		.cfi_restore_state
 498              		.loc 1 190 26 view .LVU134
 499 0038 3860FE00 		li 3,-512
 500 003c 4BFFFFEC 		b .L48
 501              		.cfi_endproc
 502              	.LFE2374:
 503              		.size	_Z13Launcher_Initv, .-_Z13Launcher_Initv
 504              		.section	.text._Z17Launcher_ReadDiscv,"ax",@progbits
 505              		.align 2
 506              		.globl _Z17Launcher_ReadDiscv
 507              		.type	_Z17Launcher_ReadDiscv, @function
 508              	_Z17Launcher_ReadDiscv:
 509              	.LFB2375:
 510              		.loc 1 199 1 is_stmt 1 view -0
 511              		.cfi_startproc
 512              		.loc 1 200 2 view .LVU136
 513              		.loc 1 201 2 view .LVU137
 514              		.loc 1 203 2 view .LVU138
 515              		.loc 1 199 1 is_stmt 0 view .LVU139
 516 0000 9421FFD8 		stwu 1,-40(1)
 517              		.cfi_def_cfa_offset 40
 518 0004 7C0802A6 		mflr 0
 519              		.loc 1 203 16 view .LVU140
 520 0008 3D200000 		lis 9,_ZL10BannerName@ha
 521 000c 39400000 		li 10,0
 522              	.LBB49:
 523              	.LBB50:
 524              		.loc 1 134 23 view .LVU141
 525 0010 38610008 		addi 3,1,8
 526              	.LBE50:
 527              	.LBE49:
 528              		.loc 1 199 1 view .LVU142
 529 0014 9001002C 		stw 0,44(1)
 530              		.loc 1 203 16 view .LVU143
 531 0018 B1490000 		sth 10,_ZL10BannerName@l(9)
 532              		.loc 1 205 2 is_stmt 1 view .LVU144
 533              	.LBB53:
 534              	.LBI49:
 535              		.loc 1 131 6 view .LVU145
 536              	.LBB51:
 537              		.loc 1 133 2 view .LVU146
 538              		.loc 1 134 2 view .LVU147
 539              		.cfi_offset 65, 4
 540              		.loc 1 134 23 is_stmt 0 view .LVU148
 541 001c 48000001 		bl WDVD_VerifyCover
 542              	.LVL35:
 543              		.loc 1 134 2 discriminator 1 view .LVU149
 544 0020 2C030000 		cmpwi 0,3,0
 545 0024 41820024 		beq- 0,.L186
 546              	.L58:
 547              	.LBE51:
 548              	.LBE53:
 549              		.loc 1 206 3 is_stmt 1 view .LVU150
 550              		.loc 1 206 25 is_stmt 0 view .LVU151
 551 0028 3D200000 		lis 9,disk_subsequent_reset@ha
 552 002c 39400001 		li 10,1
 553 0030 99490000 		stb 10,disk_subsequent_reset@l(9)
 554              		.loc 1 207 3 is_stmt 1 view .LVU152
 555              		.loc 1 207 26 is_stmt 0 view .LVU153
 556 0034 3860FF00 		li 3,-256
 557              	.L56:
 558              		.loc 1 300 1 view .LVU154
 559 0038 8001002C 		lwz 0,44(1)
 560 003c 38210028 		addi 1,1,40
 561              		.cfi_remember_state
 562              		.cfi_def_cfa_offset 0
 563 0040 7C0803A6 		mtlr 0
 564              		.cfi_restore 65
 565 0044 4E800020 		blr
 566              	.L186:
 567              		.cfi_restore_state
 568              	.LBB54:
 569              	.LBB52:
 570              		.loc 1 135 3 is_stmt 1 view .LVU155
 571              	.LBE52:
 572              	.LBE54:
 573              		.loc 1 205 2 is_stmt 0 discriminator 1 view .LVU156
 574 0048 89210008 		lbz 9,8(1)
 575 004c 2C090000 		cmpwi 0,9,0
 576 0050 41A2FFD8 		beq- 0,.L58
 577 0054 93E10024 		stw 31,36(1)
 578              		.cfi_offset 31, -4
 579              		.loc 1 210 2 is_stmt 1 view .LVU157
 580              		.loc 1 210 28 is_stmt 0 view .LVU158
 581 0058 3FE00000 		lis 31,disk_subsequent_reset@ha
 582 005c 893F0000 		lbz 9,disk_subsequent_reset@l(31)
 583 0060 2C090000 		cmpwi 0,9,0
 584 0064 40820158 		bne- 0,.L61
 585              	.L64:
 586              		.loc 1 213 2 is_stmt 1 view .LVU159
 587              		.loc 1 213 24 is_stmt 0 view .LVU160
 588 0068 39200001 		li 9,1
 589 006c 93C10020 		stw 30,32(1)
 590              		.cfi_offset 30, -8
 591 0070 993F0000 		stb 9,disk_subsequent_reset@l(31)
 592              		.loc 1 215 2 is_stmt 1 view .LVU161
 593              		.loc 1 215 24 is_stmt 0 view .LVU162
 594 0074 48000001 		bl WDVD_LowReadDiskId
 595              	.LVL36:
 596              		.loc 1 215 2 discriminator 1 view .LVU163
 597 0078 7C7E1B79 		mr. 30,3
 598 007c 40820124 		bne- 0,.L62
 599              		.loc 1 220 2 is_stmt 1 view .LVU164
 600              		.loc 1 222 2 view .LVU165
 601 0080 93A1001C 		stw 29,28(1)
 602              		.cfi_offset 29, -12
 603              		.loc 1 222 8 is_stmt 0 view .LVU166
 604 0084 3FA00000 		lis 29,_ZZ17Launcher_ReadDiscvE6sector@ha
 605 0088 3BFD0000 		la 31,_ZZ17Launcher_ReadDiscvE6sector@l(29)
 606 008c 38A00034 		li 5,52
 607 0090 388000FF 		li 4,255
 608 0094 7FE3FB78 		mr 3,31
 609 0098 48000001 		bl memset
 610              	.LVL37:
 611              		.loc 1 223 2 is_stmt 1 view .LVU167
 612              		.loc 1 224 21 is_stmt 0 view .LVU168
 613 009c 38800040 		li 4,64
 614 00a0 7FE3FB78 		mr 3,31
 615              		.loc 1 223 8 view .LVU169
 616 00a4 93DF0034 		stw 30,52(31)
 617 00a8 93DF0038 		stw 30,56(31)
 618 00ac 93DF003C 		stw 30,60(31)
 619              		.loc 1 224 2 is_stmt 1 view .LVU170
 620              		.loc 1 224 21 is_stmt 0 view .LVU171
 621 00b0 48000001 		bl WDVD_LowReadBCA
 622              	.LVL38:
 623              		.loc 1 224 2 discriminator 1 view .LVU172
 624 00b4 2C030000 		cmpwi 0,3,0
 625 00b8 408200E4 		bne- 0,.L185
 626              		.loc 1 229 3 view .LVU173
 627 00bc 895F0000 		lbz 10,0(31)
 628 00c0 3BDFFFFF 		addi 30,31,-1
 629              	.LVL39:
 630              		.loc 1 229 3 is_stmt 1 view .LVU174
 631              		.loc 1 229 15 is_stmt 0 view .LVU175
 632 00c4 7FE9FB78 		mr 9,31
 633              		.loc 1 229 3 view .LVU176
 634 00c8 2C0A0000 		cmpwi 0,10,0
 635 00cc 408200D0 		bne- 0,.L185
 636              		.loc 1 228 2 is_stmt 1 discriminator 2 view .LVU177
 637              		.loc 1 228 14 discriminator 1 view .LVU178
 638 00d0 3940000A 		li 10,10
 639 00d4 7D4903A6 		mtctr 10
 640              	.LVL40:
 641              	.L65:
 642              		.loc 1 229 3 view .LVU179
 643              		.loc 1 228 2 discriminator 2 view .LVU180
 644              		.loc 1 228 14 discriminator 1 view .LVU181
 645              		.loc 1 229 3 view .LVU182
 646              		.loc 1 228 2 discriminator 2 view .LVU183
 647              		.loc 1 228 14 discriminator 1 view .LVU184
 648              		.loc 1 229 3 view .LVU185
 649              		.loc 1 228 2 discriminator 2 view .LVU186
 650              		.loc 1 228 14 discriminator 1 view .LVU187
 651              		.loc 1 229 3 view .LVU188
 652              		.loc 1 228 2 discriminator 2 view .LVU189
 653              		.loc 1 228 14 discriminator 1 view .LVU190
 654              		.loc 1 229 3 view .LVU191
 655              		.loc 1 228 2 discriminator 2 view .LVU192
 656              		.loc 1 228 14 discriminator 1 view .LVU193
 657              		.loc 1 229 3 is_stmt 0 view .LVU194
 658 00d8 89490001 		lbz 10,1(9)
 659 00dc 2C0A0000 		cmpwi 0,10,0
 660 00e0 408200BC 		bne- 0,.L185
 661 00e4 89490002 		lbz 10,2(9)
 662 00e8 2C0A0000 		cmpwi 0,10,0
 663 00ec 408200B0 		bne- 0,.L185
 664 00f0 89490003 		lbz 10,3(9)
 665 00f4 2C0A0000 		cmpwi 0,10,0
 666 00f8 408200A4 		bne- 0,.L185
 667 00fc 89490004 		lbz 10,4(9)
 668 0100 2C0A0000 		cmpwi 0,10,0
 669 0104 40820098 		bne- 0,.L185
 670 0108 8D490005 		lbzu 10,5(9)
 671 010c 2C0A0000 		cmpwi 0,10,0
 672 0110 4082008C 		bne- 0,.L185
 673              		.loc 1 228 14 discriminator 1 view .LVU195
 674 0114 4200FFC4 		bdnz .L65
 675              	.LVL41:
 676              		.loc 1 233 3 is_stmt 1 view .LVU196
 677 0118 893F0035 		lbz 9,53(31)
 678 011c 2C090000 		cmpwi 0,9,0
 679 0120 408200B4 		bne- 0,.L66
 680              		.loc 1 232 2 discriminator 2 view .LVU197
 681              	.LVL42:
 682              		.loc 1 232 15 discriminator 1 view .LVU198
 683              		.loc 1 233 3 view .LVU199
 684 0124 893F0036 		lbz 9,54(31)
 685 0128 2C090000 		cmpwi 0,9,0
 686 012c 408200A8 		bne- 0,.L66
 687              		.loc 1 232 2 discriminator 2 view .LVU200
 688              	.LVL43:
 689              		.loc 1 232 15 discriminator 1 view .LVU201
 690              		.loc 1 233 3 view .LVU202
 691 0130 893F0037 		lbz 9,55(31)
 692 0134 2C090000 		cmpwi 0,9,0
 693 0138 4082009C 		bne- 0,.L66
 694              		.loc 1 232 2 discriminator 2 view .LVU203
 695              	.LVL44:
 696              		.loc 1 232 15 discriminator 1 view .LVU204
 697              		.loc 1 233 3 view .LVU205
 698 013c 893F0038 		lbz 9,56(31)
 699 0140 2C090000 		cmpwi 0,9,0
 700 0144 40820090 		bne- 0,.L66
 701              		.loc 1 232 2 discriminator 2 view .LVU206
 702              	.LVL45:
 703              		.loc 1 232 15 discriminator 1 view .LVU207
 704              		.loc 1 233 3 view .LVU208
 705 0148 893F0039 		lbz 9,57(31)
 706 014c 2C090000 		cmpwi 0,9,0
 707 0150 40820084 		bne- 0,.L66
 708              		.loc 1 232 2 discriminator 2 view .LVU209
 709              	.LVL46:
 710              		.loc 1 232 15 discriminator 1 view .LVU210
 711              		.loc 1 233 3 view .LVU211
 712 0154 893F003A 		lbz 9,58(31)
 713 0158 2C090000 		cmpwi 0,9,0
 714 015c 40820078 		bne- 0,.L66
 715              		.loc 1 232 2 discriminator 2 view .LVU212
 716              	.LVL47:
 717              		.loc 1 232 15 discriminator 1 view .LVU213
 718              		.loc 1 233 3 view .LVU214
 719 0160 893F003B 		lbz 9,59(31)
 720 0164 2C090000 		cmpwi 0,9,0
 721 0168 4082006C 		bne- 0,.L66
 722              		.loc 1 232 2 discriminator 2 view .LVU215
 723              	.LVL48:
 724              		.loc 1 232 15 discriminator 1 view .LVU216
 725              		.loc 1 233 3 view .LVU217
 726 016c 893F003C 		lbz 9,60(31)
 727 0170 2C090000 		cmpwi 0,9,0
 728 0174 40820060 		bne- 0,.L66
 729              		.loc 1 232 2 discriminator 2 view .LVU218
 730              	.LVL49:
 731              		.loc 1 232 15 discriminator 1 view .LVU219
 732              		.loc 1 233 3 view .LVU220
 733 0178 893F003D 		lbz 9,61(31)
 734 017c 2C090000 		cmpwi 0,9,0
 735 0180 40820054 		bne- 0,.L66
 736              		.loc 1 232 2 discriminator 2 view .LVU221
 737              	.LVL50:
 738              		.loc 1 232 15 discriminator 1 view .LVU222
 739              		.loc 1 233 3 view .LVU223
 740 0184 893F003E 		lbz 9,62(31)
 741 0188 2C090000 		cmpwi 0,9,0
 742 018c 40820048 		bne- 0,.L66
 743              		.loc 1 232 2 discriminator 2 view .LVU224
 744              	.LVL51:
 745              		.loc 1 232 15 discriminator 1 view .LVU225
 746              		.loc 1 233 3 view .LVU226
 747 0190 893F003F 		lbz 9,63(31)
 748 0194 2C090000 		cmpwi 0,9,0
 749 0198 4082003C 		bne- 0,.L66
 750              	.LVL52:
 751              	.L185:
 752              		.loc 1 233 3 is_stmt 0 view .LVU227
 753 019c 83A1001C 		lwz 29,28(1)
 754              		.cfi_restore 29
 755              	.L62:
 756              		.loc 1 300 1 view .LVU228
 757 01a0 8001002C 		lwz 0,44(1)
 758              		.loc 1 216 26 view .LVU229
 759 01a4 3860FDFF 		li 3,-513
 760 01a8 83C10020 		lwz 30,32(1)
 761              		.cfi_restore 30
 762 01ac 83E10024 		lwz 31,36(1)
 763              		.cfi_restore 31
 764              		.loc 1 300 1 view .LVU230
 765 01b0 7C0803A6 		mtlr 0
 766              		.cfi_restore 65
 767 01b4 38210028 		addi 1,1,40
 768              		.cfi_def_cfa_offset 0
 769 01b8 4E800020 		blr
 770              	.L61:
 771              		.cfi_def_cfa_offset 40
 772              		.cfi_offset 31, -4
 773              		.cfi_offset 65, 4
 774              		.loc 1 210 42 discriminator 1 view .LVU231
 775 01bc 48000001 		bl WDVD_Reset
 776              	.LVL53:
 777              		.loc 1 210 28 discriminator 1 view .LVU232
 778 01c0 2C030000 		cmpwi 0,3,0
 779 01c4 4082FEA4 		bne+ 0,.L64
 780 01c8 83E10024 		lwz 31,36(1)
 781              		.cfi_restore 31
 782              		.loc 1 211 26 view .LVU233
 783 01cc 3860FE00 		li 3,-512
 784 01d0 4BFFFE68 		b .L56
 785              	.L66:
 786              		.cfi_offset 29, -12
 787              		.cfi_offset 30, -8
 788              		.cfi_offset 31, -4
 789              		.loc 1 239 2 is_stmt 1 view .LVU234
 790              		.loc 1 239 8 is_stmt 0 view .LVU235
 791 01d4 38A00040 		li 5,64
 792 01d8 388000FF 		li 4,255
 793 01dc 7FE3FB78 		mr 3,31
 794 01e0 48000001 		bl memset
 795              	.LVL54:
 796              		.loc 1 240 2 is_stmt 1 view .LVU236
 797              		.loc 1 240 29 is_stmt 0 view .LVU237
 798 01e4 38A00000 		li 5,0
 799 01e8 38C00100 		li 6,256
 800 01ec 7FE3FB78 		mr 3,31
 801 01f0 38800040 		li 4,64
 802 01f4 48000001 		bl WDVD_LowUnencryptedRead
 803              	.LVL55:
 804              		.loc 1 240 2 discriminator 1 view .LVU238
 805 01f8 2C030000 		cmpwi 0,3,0
 806 01fc 40A2FFA0 		bne- 0,.L185
 807 0200 395F003F 		addi 10,31,63
 808 0204 7D3E5050 		subf 9,30,10
 809 0208 71280003 		andi. 8,9,0x3
 810 020c 41820040 		beq- 0,.L113
 811 0210 2C080001 		cmpwi 0,8,1
 812 0214 41820024 		beq- 0,.L122
 813 0218 2C080002 		cmpwi 0,8,2
 814 021c 41820010 		beq- 0,.L123
 815              	.LVL56:
 816              		.loc 1 244 3 is_stmt 1 view .LVU239
 817              		.loc 1 244 3 is_stmt 0 view .LVU240
 818 0220 8D1E0001 		lbzu 8,1(30)
 819              	.LVL57:
 820              		.loc 1 244 3 view .LVU241
 821 0224 2C080000 		cmpwi 0,8,0
 822 0228 40A2FF74 		bne- 0,.L185
 823              	.LVL58:
 824              	.L123:
 825              		.loc 1 244 3 is_stmt 1 view .LVU242
 826              		.loc 1 244 3 is_stmt 0 view .LVU243
 827 022c 8D1E0001 		lbzu 8,1(30)
 828              	.LVL59:
 829              		.loc 1 244 3 view .LVU244
 830 0230 2C080000 		cmpwi 0,8,0
 831 0234 40A2FF68 		bne- 0,.L185
 832              	.LVL60:
 833              	.L122:
 834              		.loc 1 244 3 is_stmt 1 view .LVU245
 835              		.loc 1 244 3 is_stmt 0 view .LVU246
 836 0238 8D1E0001 		lbzu 8,1(30)
 837              	.LVL61:
 838              		.loc 1 244 3 view .LVU247
 839 023c 2C080000 		cmpwi 0,8,0
 840 0240 40A2FF5C 		bne- 0,.L185
 841              		.loc 1 243 2 is_stmt 1 discriminator 2 view .LVU248
 842              		.loc 1 243 14 discriminator 1 view .LVU249
 843 0244 7C1E5040 		cmplw 0,30,10
 844 0248 41820040 		beq- 0,.L145
 845              	.LVL62:
 846              	.L113:
 847              		.loc 1 243 14 is_stmt 0 discriminator 1 view .LVU250
 848 024c 5529F0BE 		srwi 9,9,2
 849 0250 7D2903A6 		mtctr 9
 850              	.L67:
 851              	.LVL63:
 852              		.loc 1 244 3 is_stmt 1 view .LVU251
 853              		.loc 1 243 2 discriminator 2 view .LVU252
 854              		.loc 1 243 14 discriminator 1 view .LVU253
 855              		.loc 1 244 3 view .LVU254
 856              		.loc 1 243 2 discriminator 2 view .LVU255
 857              		.loc 1 243 14 discriminator 1 view .LVU256
 858              		.loc 1 244 3 view .LVU257
 859              		.loc 1 243 2 discriminator 2 view .LVU258
 860              		.loc 1 243 14 discriminator 1 view .LVU259
 861              		.loc 1 244 3 view .LVU260
 862              		.loc 1 243 2 discriminator 2 view .LVU261
 863              		.loc 1 243 14 discriminator 1 view .LVU262
 864              		.loc 1 244 3 is_stmt 0 view .LVU263
 865 0254 893E0001 		lbz 9,1(30)
 866 0258 2C090000 		cmpwi 0,9,0
 867 025c 40A2FF40 		bne- 0,.L185
 868 0260 893E0002 		lbz 9,2(30)
 869 0264 2C090000 		cmpwi 0,9,0
 870 0268 40A2FF34 		bne- 0,.L185
 871 026c 893E0003 		lbz 9,3(30)
 872 0270 2C090000 		cmpwi 0,9,0
 873 0274 40A2FF28 		bne- 0,.L185
 874 0278 8D3E0004 		lbzu 9,4(30)
 875 027c 2C090000 		cmpwi 0,9,0
 876 0280 40A2FF1C 		bne- 0,.L185
 877              		.loc 1 243 14 discriminator 1 view .LVU264
 878 0284 4200FFD0 		bdnz .L67
 879              	.LVL64:
 880              	.L145:
 881              		.loc 1 248 2 is_stmt 1 view .LVU265
 882              		.loc 1 248 29 is_stmt 0 view .LVU266
 883 0288 3CC00004 		lis 6,0x4
 884 028c 38A00000 		li 5,0
 885 0290 60C6FF00 		ori 6,6,0xff00
 886 0294 38800100 		li 4,256
 887 0298 7FE3FB78 		mr 3,31
 888 029c 48000001 		bl WDVD_LowUnencryptedRead
 889              	.LVL65:
 890              		.loc 1 248 2 discriminator 1 view .LVU267
 891 02a0 2C030000 		cmpwi 0,3,0
 892 02a4 40A2FEF8 		bne- 0,.L185
 893              		.loc 1 250 2 is_stmt 1 view .LVU268
 894 02a8 893F00FC 		lbz 9,252(31)
 895 02ac 2C0900C3 		cmpwi 0,9,195
 896 02b0 40A2FEEC 		bne- 0,.L185
 897              		.loc 1 250 27 is_stmt 0 discriminator 1 view .LVU269
 898 02b4 893F00FD 		lbz 9,253(31)
 899 02b8 2C0900F8 		cmpwi 0,9,248
 900 02bc 40A2FEE0 		bne- 0,.L185
 901              		.loc 1 250 51 discriminator 2 view .LVU270
 902 02c0 893F00FE 		lbz 9,254(31)
 903 02c4 2C09001A 		cmpwi 0,9,26
 904 02c8 40A2FED4 		bne- 0,.L185
 905              		.loc 1 250 75 discriminator 3 view .LVU271
 906 02cc 893F00FF 		lbz 9,255(31)
 907 02d0 2C09008E 		cmpwi 0,9,142
 908 02d4 40A2FEC8 		bne- 0,.L185
 909              		.loc 1 254 2 is_stmt 1 view .LVU272
 910              		.loc 1 254 20 is_stmt 0 view .LVU273
 911 02d8 7FE5FB78 		mr 5,31
 912 02dc 38800000 		li 4,0
 913 02e0 38600004 		li 3,4
 914 02e4 48000001 		bl WDVD_ReportKey
 915              	.LVL66:
 916              		.loc 1 254 2 discriminator 1 view .LVU274
 917 02e8 2C03FFFE 		cmpwi 0,3,-2
 918 02ec 40A2FEB0 		bne- 0,.L185
 919              		.loc 1 259 2 is_stmt 1 view .LVU275
 920              		.loc 1 259 20 is_stmt 0 view .LVU276
 921 02f0 3FC0939B 		lis 30,0x939b
 922 02f4 39202001 		li 9,8193
 923 02f8 63DE0A88 		ori 30,30,0xa88
 924              		.loc 1 260 14 view .LVU277
 925 02fc 3C60939B 		lis 3,0x939b
 926              		.loc 1 259 20 view .LVU278
 927 0300 B13E0000 		sth 9,0(30)
 928              		.loc 1 260 2 is_stmt 1 view .LVU279
 929              		.loc 1 260 14 is_stmt 0 view .LVU280
 930 0304 60630A80 		ori 3,3,0xa80
 931 0308 38800020 		li 4,32
 932 030c 48000001 		bl DCFlushRange
 933              	.LVL67:
 934              		.loc 1 261 2 is_stmt 1 view .LVU281
 935              		.loc 1 261 29 is_stmt 0 view .LVU282
 936 0310 3CC0FF57 		lis 6,0xff57
 937 0314 38A00000 		li 5,0
 938 0318 60C64F44 		ori 6,6,0x4f44
 939 031c 38800020 		li 4,32
 940 0320 7FE3FB78 		mr 3,31
 941 0324 48000001 		bl WDVD_LowUnencryptedRead
 942              	.LVL68:
 943              		.loc 1 263 20 view .LVU283
 944 0328 39402000 		li 10,8192
 945              		.loc 1 261 29 view .LVU284
 946 032c 7C691B78 		mr 9,3
 947              		.loc 1 263 20 view .LVU285
 948 0330 B15E0000 		sth 10,0(30)
 949              		.loc 1 264 14 view .LVU286
 950 0334 3C60939B 		lis 3,0x939b
 951              		.loc 1 261 29 view .LVU287
 952 0338 7D3E4B78 		mr 30,9
 953              	.LVL69:
 954              		.loc 1 263 2 is_stmt 1 view .LVU288
 955              		.loc 1 264 2 view .LVU289
 956              		.loc 1 264 14 is_stmt 0 view .LVU290
 957 033c 60630A80 		ori 3,3,0xa80
 958 0340 38800020 		li 4,32
 959 0344 48000001 		bl DCFlushRange
 960              	.LVL70:
 961              		.loc 1 265 2 is_stmt 1 view .LVU291
 962 0348 2C1E0000 		cmpwi 0,30,0
 963 034c 40A2FE50 		bne- 0,.L185
 964              		.loc 1 266 3 view .LVU292
 965 0350 893D0000 		lbz 9,_ZZ17Launcher_ReadDiscvE6sector@l(29)
 966 0354 2C090057 		cmpwi 0,9,87
 967 0358 40820010 		bne- 0,.L68
 968              		.loc 1 266 22 is_stmt 0 discriminator 1 view .LVU293
 969 035c 893F0001 		lbz 9,1(31)
 970 0360 2C09004F 		cmpwi 0,9,79
 971 0364 4182019C 		beq- 0,.L187
 972              	.L68:
 973              		.loc 1 272 2 is_stmt 1 view .LVU294
 974              		.loc 1 272 29 is_stmt 0 view .LVU295
 975 0368 38A00000 		li 5,0
 976 036c 3CC0BB80 		lis 6,0xbb80
 977 0370 38800000 		li 4,0
 978 0374 38600000 		li 3,0
 979 0378 48000001 		bl WDVD_LowUnencryptedRead
 980              	.LVL71:
 981              		.loc 1 272 2 discriminator 1 view .LVU296
 982 037c 2C03FFE0 		cmpwi 0,3,-32
 983 0380 40A2FE1C 		bne- 0,.L185
 984              		.loc 1 277 2 is_stmt 1 view .LVU297
 985              		.loc 1 277 29 is_stmt 0 view .LVU298
 986 0384 3C600000 		lis 3,_ZL8GameName@ha
 987 0388 38A00000 		li 5,0
 988 038c 38C00020 		li 6,32
 989 0390 38630000 		la 3,_ZL8GameName@l(3)
 990 0394 38800040 		li 4,64
 991 0398 48000001 		bl WDVD_LowUnencryptedRead
 992              	.LVL72:
 993              		.loc 1 277 2 discriminator 1 view .LVU299
 994 039c 2C030000 		cmpwi 0,3,0
 995 03a0 40A2FDFC 		bne- 0,.L185
 996              		.loc 1 280 2 is_stmt 1 view .LVU300
 997              		.loc 1 280 8 is_stmt 0 view .LVU301
 998 03a4 3FC00000 		lis 30,_ZL14partition_info@ha
 999              	.LVL73:
 1000              		.loc 1 280 8 view .LVU302
 1001 03a8 38A00060 		li 5,96
 1002 03ac 3BFE0000 		la 31,_ZL14partition_info@l(30)
 1003 03b0 38800000 		li 4,0
 1004 03b4 7FE3FB78 		mr 3,31
 1005 03b8 48000001 		bl memset
 1006              	.LVL74:
 1007              		.loc 1 282 2 is_stmt 1 view .LVU303
 1008              		.loc 1 282 29 is_stmt 0 view .LVU304
 1009 03bc 38A00000 		li 5,0
 1010 03c0 3CC00004 		lis 6,0x4
 1011 03c4 7FE3FB78 		mr 3,31
 1012 03c8 38800020 		li 4,32
 1013 03cc 48000001 		bl WDVD_LowUnencryptedRead
 1014              	.LVL75:
 1015              		.loc 1 282 65 discriminator 1 view .LVU305
 1016 03d0 2C030000 		cmpwi 0,3,0
 1017 03d4 40A2FDC8 		bne- 0,.L185
 1018              		.loc 1 282 84 discriminator 2 view .LVU306
 1019 03d8 813E0000 		lwz 9,_ZL14partition_info@l(30)
 1020              		.loc 1 282 65 discriminator 2 view .LVU307
 1021 03dc 2C090000 		cmpwi 0,9,0
 1022 03e0 41A2FDBC 		beq- 0,.L185
 1023              		.loc 1 286 2 is_stmt 1 view .LVU308
 1024              		.loc 1 286 29 is_stmt 0 view .LVU309
 1025 03e4 28090003 		cmplwi 0,9,3
 1026              		.loc 1 286 29 discriminator 2 view .LVU310
 1027 03e8 38800020 		li 4,32
 1028              		.loc 1 286 29 view .LVU311
 1029 03ec 40810018 		ble- 0,.L69
 1030              		.loc 1 286 50 discriminator 1 view .LVU312
 1031 03f0 28090008 		cmplwi 0,9,8
 1032 03f4 7D244B78 		mr 4,9
 1033 03f8 40810008 		ble- 0,.L70
 1034 03fc 38800008 		li 4,8
 1035              	.L70:
 1036              		.loc 1 286 29 discriminator 1 view .LVU313
 1037 0400 54841838 		slwi 4,4,3
 1038              	.L69:
 1039              		.loc 1 286 89 discriminator 4 view .LVU314
 1040 0404 80DF0004 		lwz 6,4(31)
 1041              		.loc 1 286 29 discriminator 4 view .LVU315
 1042 0408 387F0020 		addi 3,31,32
 1043 040c 54C517BE 		srwi 5,6,30
 1044 0410 54C6103A 		slwi 6,6,2
 1045 0414 48000001 		bl WDVD_LowUnencryptedRead
 1046              	.LVL76:
 1047              		.loc 1 286 2 discriminator 1 view .LVU316
 1048 0418 2C030000 		cmpwi 0,3,0
 1049 041c 40A2FD80 		bne- 0,.L185
 1050              	.LVL77:
 1051              		.loc 1 288 16 is_stmt 1 discriminator 1 view .LVU317
 1052              		.loc 1 288 34 is_stmt 0 discriminator 1 view .LVU318
 1053 0420 815E0000 		lwz 10,_ZL14partition_info@l(30)
 1054              		.loc 1 288 16 discriminator 1 view .LVU319
 1055 0424 2C0A0000 		cmpwi 0,10,0
 1056 0428 41A2FD74 		beq- 0,.L185
 1057              		.loc 1 289 3 is_stmt 1 view .LVU320
 1058              		.loc 1 289 35 is_stmt 0 view .LVU321
 1059 042c 813F0024 		lwz 9,36(31)
 1060              		.loc 1 289 3 view .LVU322
 1061 0430 2C090000 		cmpwi 0,9,0
 1062 0434 4182009C 		beq- 0,.L71
 1063              		.loc 1 288 2 is_stmt 1 discriminator 2 view .LVU323
 1064              	.LVL78:
 1065              		.loc 1 288 16 discriminator 1 view .LVU324
 1066 0438 280A0001 		cmplwi 0,10,1
 1067 043c 41A2FD60 		beq- 0,.L185
 1068              		.loc 1 289 3 view .LVU325
 1069 0440 813F002C 		lwz 9,44(31)
 1070 0444 2C090000 		cmpwi 0,9,0
 1071 0448 41820104 		beq- 0,.L73
 1072              		.loc 1 288 2 discriminator 2 view .LVU326
 1073              	.LVL79:
 1074              		.loc 1 288 16 discriminator 1 view .LVU327
 1075 044c 280A0002 		cmplwi 0,10,2
 1076 0450 41A2FD4C 		beq- 0,.L185
 1077              		.loc 1 289 3 view .LVU328
 1078 0454 813F0034 		lwz 9,52(31)
 1079 0458 2C090000 		cmpwi 0,9,0
 1080 045c 418200E8 		beq- 0,.L74
 1081              		.loc 1 288 2 discriminator 2 view .LVU329
 1082              	.LVL80:
 1083              		.loc 1 288 16 discriminator 1 view .LVU330
 1084 0460 280A0003 		cmplwi 0,10,3
 1085 0464 41A2FD38 		beq- 0,.L185
 1086              		.loc 1 289 3 view .LVU331
 1087 0468 813F003C 		lwz 9,60(31)
 1088 046c 2C090000 		cmpwi 0,9,0
 1089 0470 418200CC 		beq- 0,.L75
 1090              		.loc 1 288 2 discriminator 2 view .LVU332
 1091              	.LVL81:
 1092              		.loc 1 288 16 discriminator 1 view .LVU333
 1093 0474 280A0004 		cmplwi 0,10,4
 1094 0478 41A2FD24 		beq- 0,.L185
 1095              		.loc 1 289 3 view .LVU334
 1096 047c 813F0044 		lwz 9,68(31)
 1097 0480 2C090000 		cmpwi 0,9,0
 1098 0484 418200B0 		beq- 0,.L76
 1099              		.loc 1 288 2 discriminator 2 view .LVU335
 1100              	.LVL82:
 1101              		.loc 1 288 16 discriminator 1 view .LVU336
 1102 0488 280A0005 		cmplwi 0,10,5
 1103 048c 41A2FD10 		beq- 0,.L185
 1104              		.loc 1 289 3 view .LVU337
 1105 0490 813F004C 		lwz 9,76(31)
 1106 0494 2C090000 		cmpwi 0,9,0
 1107 0498 41820094 		beq- 0,.L77
 1108              		.loc 1 288 2 discriminator 2 view .LVU338
 1109              	.LVL83:
 1110              		.loc 1 288 16 discriminator 1 view .LVU339
 1111 049c 280A0006 		cmplwi 0,10,6
 1112 04a0 41A2FCFC 		beq- 0,.L185
 1113              		.loc 1 289 3 view .LVU340
 1114 04a4 813F0054 		lwz 9,84(31)
 1115 04a8 2C090000 		cmpwi 0,9,0
 1116 04ac 41820078 		beq- 0,.L78
 1117              		.loc 1 288 2 discriminator 2 view .LVU341
 1118              	.LVL84:
 1119              		.loc 1 288 16 discriminator 1 view .LVU342
 1120 04b0 280A0007 		cmplwi 0,10,7
 1121 04b4 41A2FCE8 		beq- 0,.L185
 1122              		.loc 1 289 3 view .LVU343
 1123 04b8 813F005C 		lwz 9,92(31)
 1124 04bc 2C090000 		cmpwi 0,9,0
 1125 04c0 4182005C 		beq- 0,.L79
 1126              		.loc 1 288 2 discriminator 2 view .LVU344
 1127              	.LVL85:
 1128              		.loc 1 288 16 discriminator 1 view .LVU345
 1129              		.loc 1 293 2 view .LVU346
 1130 04c4 280A0008 		cmplwi 0,10,8
 1131 04c8 41A2FCD4 		beq- 0,.L185
 1132 04cc 39200008 		li 9,8
 1133              	.LVL86:
 1134              	.L71:
 1135              		.loc 1 296 2 view .LVU347
 1136              		.loc 1 296 54 is_stmt 0 view .LVU348
 1137 04d0 39290004 		addi 9,9,4
 1138              		.loc 1 296 57 view .LVU349
 1139 04d4 55291838 		slwi 9,9,3
 1140              		.loc 1 296 28 view .LVU350
 1141 04d8 7C9F482E 		lwzx 4,31,9
 1142              		.loc 1 296 27 view .LVU351
 1143 04dc 548317BE 		srwi 3,4,30
 1144 04e0 5484103A 		slwi 4,4,2
 1145 04e4 48000001 		bl WDVD_LowOpenPartition
 1146              	.LVL87:
 1147              		.loc 1 296 2 discriminator 1 view .LVU352
 1148 04e8 2C030000 		cmpwi 0,3,0
 1149 04ec 40A2FCB0 		bne- 0,.L185
 1150 04f0 83A1001C 		lwz 29,28(1)
 1151              		.cfi_remember_state
 1152              		.cfi_restore 29
 1153 04f4 83C10020 		lwz 30,32(1)
 1154              		.cfi_restore 30
 1155 04f8 83E10024 		lwz 31,36(1)
 1156              		.cfi_restore 31
 1157 04fc 4BFFFB3C 		b .L56
 1158              	.LVL88:
 1159              	.L187:
 1160              		.cfi_restore_state
 1161              		.loc 1 266 40 discriminator 2 view .LVU353
 1162 0500 893F0002 		lbz 9,2(31)
 1163 0504 2C090044 		cmpwi 0,9,68
 1164 0508 4082FE60 		bne+ 0,.L68
 1165              		.loc 1 266 58 discriminator 3 view .LVU354
 1166 050c 893F0003 		lbz 9,3(31)
 1167 0510 2C090045 		cmpwi 0,9,69
 1168 0514 4082FE54 		bne+ 0,.L68
 1169 0518 4BFFFC84 		b .L185
 1170              	.LVL89:
 1171              	.L79:
 1172              		.loc 1 289 3 view .LVU355
 1173 051c 39200007 		li 9,7
 1174 0520 4BFFFFB0 		b .L71
 1175              	.LVL90:
 1176              	.L78:
 1177              		.loc 1 288 2 discriminator 2 view .LVU356
 1178 0524 39200006 		li 9,6
 1179 0528 4BFFFFA8 		b .L71
 1180              	.LVL91:
 1181              	.L77:
 1182              		.loc 1 288 2 discriminator 2 view .LVU357
 1183 052c 39200005 		li 9,5
 1184 0530 4BFFFFA0 		b .L71
 1185              	.LVL92:
 1186              	.L76:
 1187              		.loc 1 288 2 discriminator 2 view .LVU358
 1188 0534 39200004 		li 9,4
 1189 0538 4BFFFF98 		b .L71
 1190              	.LVL93:
 1191              	.L75:
 1192              		.loc 1 288 2 discriminator 2 view .LVU359
 1193 053c 39200003 		li 9,3
 1194 0540 4BFFFF90 		b .L71
 1195              	.LVL94:
 1196              	.L74:
 1197              		.loc 1 288 2 discriminator 2 view .LVU360
 1198 0544 39200002 		li 9,2
 1199 0548 4BFFFF88 		b .L71
 1200              	.LVL95:
 1201              	.L73:
 1202              		.loc 1 288 2 discriminator 2 view .LVU361
 1203 054c 39200001 		li 9,1
 1204 0550 4BFFFF80 		b .L71
 1205              		.cfi_endproc
 1206              	.LFE2375:
 1207              		.size	_Z17Launcher_ReadDiscv, .-_Z17Launcher_ReadDiscv
 1208              		.section	.text._Z12Launcher_RVLv,"ax",@progbits
 1209              		.align 2
 1210              		.globl _Z12Launcher_RVLv
 1211              		.type	_Z12Launcher_RVLv, @function
 1212              	_Z12Launcher_RVLv:
 1213              	.LFB2376:
 1214              		.loc 1 303 1 is_stmt 1 view -0
 1215              		.cfi_startproc
 1216              		.loc 1 304 2 view .LVU363
 1217              		.loc 1 303 1 is_stmt 0 view .LVU364
 1218 0000 9421FFE8 		stwu 1,-24(1)
 1219              		.cfi_def_cfa_offset 24
 1220 0004 7C0802A6 		mflr 0
 1221              		.loc 1 304 18 view .LVU365
 1222 0008 38A00000 		li 5,0
 1223 000c 38C00420 		li 6,1056
 1224              		.loc 1 303 1 view .LVU366
 1225 0010 93E10014 		stw 31,20(1)
 1226              		.cfi_register 65, 0
 1227              		.cfi_offset 31, -4
 1228              		.loc 1 304 18 view .LVU367
 1229 0014 3FE00000 		lis 31,_ZL7fstdata@ha
 1230 0018 3BFF0000 		la 31,_ZL7fstdata@l(31)
 1231 001c 38800040 		li 4,64
 1232 0020 7FE3FB78 		mr 3,31
 1233              		.loc 1 303 1 view .LVU368
 1234 0024 9001001C 		stw 0,28(1)
 1235 0028 93C10010 		stw 30,16(1)
 1236              		.cfi_offset 65, 4
 1237              		.cfi_offset 30, -8
 1238              		.loc 1 304 18 view .LVU369
 1239 002c 48000001 		bl WDVD_LowRead
 1240              	.LVL96:
 1241              		.loc 1 304 2 discriminator 1 view .LVU370
 1242 0030 2C030000 		cmpwi 0,3,0
 1243 0034 40820080 		bne- 0,.L191
 1244              		.loc 1 307 2 is_stmt 1 view .LVU371
 1245              		.loc 1 307 13 is_stmt 0 view .LVU372
 1246 0038 809F0008 		lwz 4,8(31)
 1247              		.loc 1 308 31 view .LVU373
 1248 003c 38600020 		li 3,32
 1249 0040 93A1000C 		stw 29,12(1)
 1250              		.cfi_offset 29, -12
 1251              		.loc 1 307 13 view .LVU374
 1252 0044 5484103A 		slwi 4,4,2
 1253 0048 909F0008 		stw 4,8(31)
 1254              		.loc 1 308 2 is_stmt 1 view .LVU375
 1255              		.loc 1 308 31 is_stmt 0 view .LVU376
 1256 004c 48000001 		bl memalign
 1257              	.LVL97:
 1258              		.loc 1 309 2 is_stmt 1 view .LVU377
 1259 0050 7C7D1B79 		mr. 29,3
 1260 0054 41820068 		beq- 0,.L192
 1261              		.loc 1 312 2 view .LVU378
 1262              		.loc 1 312 42 is_stmt 0 view .LVU379
 1263 0058 80DF0004 		lwz 6,4(31)
 1264              		.loc 1 312 18 view .LVU380
 1265 005c 809F0008 		lwz 4,8(31)
 1266 0060 54C517BE 		srwi 5,6,30
 1267 0064 54C6103A 		slwi 6,6,2
 1268 0068 48000001 		bl WDVD_LowRead
 1269              	.LVL98:
 1270              		.loc 1 312 2 discriminator 1 view .LVU381
 1271 006c 7C7E1B79 		mr. 30,3
 1272 0070 40820040 		bne- 0,.L194
 1273              		.loc 1 315 2 is_stmt 1 view .LVU382
 1274              		.loc 1 315 12 is_stmt 0 view .LVU383
 1275 0074 809F0008 		lwz 4,8(31)
 1276 0078 7FA3EB78 		mr 3,29
 1277 007c 48000001 		bl _Z10RVL_SetFSTPvj
 1278              	.LVL99:
 1279              		.loc 1 316 2 is_stmt 1 view .LVU384
 1280              		.loc 1 316 16 is_stmt 0 view .LVU385
 1281 0080 3D200000 		lis 9,_ZL10BannerName@ha
 1282              		.loc 1 317 6 view .LVU386
 1283 0084 7FA3EB78 		mr 3,29
 1284              		.loc 1 316 16 view .LVU387
 1285 0088 B3C90000 		sth 30,_ZL10BannerName@l(9)
 1286              		.loc 1 317 2 is_stmt 1 view .LVU388
 1287              		.loc 1 317 6 is_stmt 0 view .LVU389
 1288 008c 48000001 		bl free
 1289              	.LVL100:
 1290              		.loc 1 318 2 is_stmt 1 view .LVU390
 1291              		.loc 1 318 25 is_stmt 0 view .LVU391
 1292 0090 83A1000C 		lwz 29,12(1)
 1293              		.cfi_restore 29
 1294              	.LVL101:
 1295              	.L188:
 1296              		.loc 1 319 1 view .LVU392
 1297 0094 8001001C 		lwz 0,28(1)
 1298 0098 7FC3F378 		mr 3,30
 1299 009c 83E10014 		lwz 31,20(1)
 1300 00a0 83C10010 		lwz 30,16(1)
 1301 00a4 7C0803A6 		mtlr 0
 1302              		.cfi_restore 65
 1303 00a8 38210018 		addi 1,1,24
 1304              		.cfi_restore 31
 1305              		.cfi_restore 30
 1306              		.cfi_def_cfa_offset 0
 1307 00ac 4E800020 		blr
 1308              	.LVL102:
 1309              	.L194:
 1310              		.cfi_def_cfa_offset 24
 1311              		.cfi_offset 29, -12
 1312              		.cfi_offset 30, -8
 1313              		.cfi_offset 31, -4
 1314              		.cfi_offset 65, 4
 1315              		.loc 1 319 1 view .LVU393
 1316 00b0 83A1000C 		lwz 29,12(1)
 1317              		.cfi_restore 29
 1318              	.LVL103:
 1319              	.L191:
 1320              		.loc 1 305 26 view .LVU394
 1321 00b4 3BC0FDFF 		li 30,-513
 1322 00b8 4BFFFFDC 		b .L188
 1323              	.LVL104:
 1324              	.L192:
 1325              		.cfi_offset 29, -12
 1326              		.loc 1 310 26 view .LVU395
 1327 00bc 83A1000C 		lwz 29,12(1)
 1328              		.cfi_restore 29
 1329 00c0 3BC0FC00 		li 30,-1024
 1330 00c4 4BFFFFD0 		b .L188
 1331              		.cfi_endproc
 1332              	.LFE2376:
 1333              		.size	_Z12Launcher_RVLv, .-_Z12Launcher_RVLv
 1334              		.section	.rodata._Z18Launcher_CommitRVLb.str1.4,"aMS",@progbits,1
 1335              		.align 2
 1336              	.LC1:
 1337 0000 2F726969 		.string	"/riivolution/temp"
 1337      766F6C75 
 1337      74696F6E 
 1337      2F74656D 
 1337      7000
 1338 0012 0000     		.align 2
 1339              	.LC2:
 1340 0014 2F726969 		.string	"/riivolution/temp/fst"
 1340      766F6C75 
 1340      74696F6E 
 1340      2F74656D 
 1340      702F6673 
 1341 002a 0000     		.align 2
 1342              	.LC3:
 1343 002c 2F726969 		.string	"/riivolution/temp/fst.header"
 1343      766F6C75 
 1343      74696F6E 
 1343      2F74656D 
 1343      702F6673 
 1344              		.section	.text._Z18Launcher_CommitRVLb,"ax",@progbits
 1345              		.align 2
 1346              		.globl _Z18Launcher_CommitRVLb
 1347              		.type	_Z18Launcher_CommitRVLb, @function
 1348              	_Z18Launcher_CommitRVLb:
 1349              	.LVL105:
 1350              	.LFB2377:
 1351              		.loc 1 322 1 is_stmt 1 view -0
 1352              		.cfi_startproc
 1353              		.loc 1 323 2 view .LVU397
 1354              	.LBB55:
 1355 0000 2C030000 		cmpwi 0,3,0
 1356              	.LBE55:
 1357              		.loc 1 322 1 is_stmt 0 view .LVU398
 1358 0004 9421FFE8 		stwu 1,-24(1)
 1359              		.cfi_def_cfa_offset 24
 1360 0008 7C0802A6 		mflr 0
 1361 000c 9001001C 		stw 0,28(1)
 1362 0010 93C10010 		stw 30,16(1)
 1363 0014 93E10014 		stw 31,20(1)
 1364              		.cfi_offset 65, 4
 1365              		.cfi_offset 30, -8
 1366              		.cfi_offset 31, -4
 1367              	.LBB59:
 1368              		.loc 1 323 2 view .LVU399
 1369 0018 41820120 		beq- 0,.L196
 1370              	.LBB56:
 1371              		.loc 1 324 3 is_stmt 1 view .LVU400
 1372              		.loc 1 324 17 is_stmt 0 view .LVU401
 1373 001c 3C600000 		lis 3,.LC1@ha
 1374              	.LVL106:
 1375              		.loc 1 325 18 view .LVU402
 1376 0020 3FC00000 		lis 30,.LC2@ha
 1377 0024 3BDE0000 		la 30,.LC2@l(30)
 1378              		.loc 1 324 17 view .LVU403
 1379 0028 38630000 		la 3,.LC1@l(3)
 1380 002c 48000001 		bl File_CreateDir
 1381              	.LVL107:
 1382              		.loc 1 325 3 is_stmt 1 view .LVU404
 1383              		.loc 1 325 18 is_stmt 0 view .LVU405
 1384 0030 7FC3F378 		mr 3,30
 1385 0034 48000001 		bl File_CreateFile
 1386              	.LVL108:
 1387              		.loc 1 326 3 is_stmt 1 view .LVU406
 1388              		.loc 1 326 24 is_stmt 0 view .LVU407
 1389 0038 38800401 		li 4,1025
 1390 003c 7FC3F378 		mr 3,30
 1391 0040 48000001 		bl File_Open
 1392              	.LVL109:
 1393              		.loc 1 327 3 is_stmt 1 view .LVU408
 1394 0044 7C7F1B79 		mr. 31,3
 1395 0048 41800188 		blt- 0,.L199
 1396              		.loc 1 329 3 view .LVU409
 1397 004c 93A1000C 		stw 29,12(1)
 1398              		.cfi_offset 29, -12
 1399              		.loc 1 329 31 is_stmt 0 view .LVU410
 1400 0050 48000001 		bl _Z10RVL_GetFSTv
 1401              	.LVL110:
 1402              		.loc 1 329 31 view .LVU411
 1403 0054 7C7D1B78 		mr 29,3
 1404              		.loc 1 329 49 discriminator 1 view .LVU412
 1405 0058 48000001 		bl _Z14RVL_GetFSTSizev
 1406              	.LVL111:
 1407 005c 7C651B78 		mr 5,3
 1408              		.loc 1 329 13 discriminator 2 view .LVU413
 1409 0060 7FA4EB78 		mr 4,29
 1410 0064 7FE3FB78 		mr 3,31
 1411 0068 48000001 		bl File_Write
 1412              	.LVL112:
 1413              		.loc 1 330 3 is_stmt 1 view .LVU414
 1414              		.loc 1 330 13 is_stmt 0 view .LVU415
 1415 006c 7FE3FB78 		mr 3,31
 1416              		.loc 1 331 40 view .LVU416
 1417 0070 3FE00000 		lis 31,_ZL7fstdata@ha
 1418              	.LVL113:
 1419              		.loc 1 330 13 view .LVU417
 1420 0074 48000001 		bl File_Close
 1421              	.LVL114:
 1422              		.loc 1 331 3 is_stmt 1 view .LVU418
 1423              		.loc 1 331 40 is_stmt 0 view .LVU419
 1424 0078 3BFF0000 		la 31,_ZL7fstdata@l(31)
 1425 007c 807F0008 		lwz 3,8(31)
 1426 0080 48000001 		bl _Z18RVL_GetShiftOffsetj
 1427              	.LVL115:
 1428 0084 7C691B78 		mr 9,3
 1429              		.loc 1 331 53 discriminator 1 view .LVU420
 1430 0088 5484F0BE 		srwi 4,4,2
 1431 008c 5124F002 		rlwimi 4,9,30,0,31-30
 1432              		.loc 1 332 15 view .LVU421
 1433 0090 7FC3F378 		mr 3,30
 1434              		.loc 1 331 14 discriminator 1 view .LVU422
 1435 0094 909F0004 		stw 4,4(31)
 1436              		.loc 1 332 3 is_stmt 1 view .LVU423
 1437              		.loc 1 332 15 is_stmt 0 view .LVU424
 1438 0098 48000001 		bl _Z11RVL_AddFilePKc
 1439              	.LVL116:
 1440              		.loc 1 332 15 discriminator 1 view .LVU425
 1441 009c 80FF0004 		lwz 7,4(31)
 1442 00a0 38A00000 		li 5,0
 1443 00a4 811F0008 		lwz 8,8(31)
 1444 00a8 38C00000 		li 6,0
 1445 00ac 54E7103A 		slwi 7,7,2
 1446              		.loc 1 335 18 view .LVU426
 1447 00b0 3FC00000 		lis 30,.LC3@ha
 1448              		.loc 1 332 15 discriminator 1 view .LVU427
 1449 00b4 48000001 		bl _Z12RVL_AddPatchiyjj
 1450              	.LVL117:
 1451              		.loc 1 333 3 is_stmt 1 view .LVU428
 1452              		.loc 1 333 14 is_stmt 0 view .LVU429
 1453 00b8 813F0008 		lwz 9,8(31)
 1454              		.loc 1 335 18 view .LVU430
 1455 00bc 3BDE0000 		la 30,.LC3@l(30)
 1456              		.loc 1 333 14 view .LVU431
 1457 00c0 5529F0BE 		srwi 9,9,2
 1458              		.loc 1 335 18 view .LVU432
 1459 00c4 7FC3F378 		mr 3,30
 1460              		.loc 1 333 14 view .LVU433
 1461 00c8 913F0008 		stw 9,8(31)
 1462              		.loc 1 334 3 is_stmt 1 view .LVU434
 1463              		.loc 1 334 14 is_stmt 0 view .LVU435
 1464 00cc 913F000C 		stw 9,12(31)
 1465              		.loc 1 335 3 is_stmt 1 view .LVU436
 1466              		.loc 1 335 18 is_stmt 0 view .LVU437
 1467 00d0 48000001 		bl File_CreateFile
 1468              	.LVL118:
 1469              		.loc 1 336 3 is_stmt 1 view .LVU438
 1470              		.loc 1 336 20 is_stmt 0 view .LVU439
 1471 00d4 7FC3F378 		mr 3,30
 1472 00d8 38800401 		li 4,1025
 1473 00dc 48000001 		bl File_Open
 1474              	.LVL119:
 1475              		.loc 1 337 3 is_stmt 1 view .LVU440
 1476 00e0 7C7D1B79 		mr. 29,3
 1477 00e4 418000E8 		blt- 0,.L203
 1478              		.loc 1 339 3 view .LVU441
 1479              		.loc 1 339 13 is_stmt 0 view .LVU442
 1480 00e8 7FE4FB78 		mr 4,31
 1481 00ec 38A00040 		li 5,64
 1482 00f0 48000001 		bl File_Write
 1483              	.LVL120:
 1484              		.loc 1 340 3 is_stmt 1 view .LVU443
 1485              		.loc 1 340 13 is_stmt 0 view .LVU444
 1486 00f4 7FA3EB78 		mr 3,29
 1487 00f8 48000001 		bl File_Close
 1488              	.LVL121:
 1489              		.loc 1 341 3 is_stmt 1 view .LVU445
 1490              		.loc 1 341 15 is_stmt 0 view .LVU446
 1491 00fc 7FC3F378 		mr 3,30
 1492 0100 48000001 		bl _Z11RVL_AddFilePKc
 1493              	.LVL122:
 1494              		.loc 1 341 15 discriminator 1 view .LVU447
 1495 0104 39000040 		li 8,64
 1496 0108 38E00420 		li 7,1056
 1497 010c 38A00000 		li 5,0
 1498 0110 38C00000 		li 6,0
 1499 0114 48000001 		bl _Z12RVL_AddPatchiyjj
 1500              	.LVL123:
 1501 0118 83A1000C 		lwz 29,12(1)
 1502              		.cfi_restore 29
 1503              	.LVL124:
 1504              	.L201:
 1505              		.loc 1 341 15 discriminator 1 view .LVU448
 1506              	.LBE56:
 1507              	.LBE59:
 1508              		.loc 1 355 25 view .LVU449
 1509 011c 38600000 		li 3,0
 1510              	.L195:
 1511              		.loc 1 356 1 view .LVU450
 1512 0120 8001001C 		lwz 0,28(1)
 1513 0124 83C10010 		lwz 30,16(1)
 1514 0128 83E10014 		lwz 31,20(1)
 1515 012c 7C0803A6 		mtlr 0
 1516              		.cfi_remember_state
 1517              		.cfi_restore 65
 1518 0130 38210018 		addi 1,1,24
 1519              		.cfi_restore 31
 1520              		.cfi_restore 30
 1521              		.cfi_def_cfa_offset 0
 1522 0134 4E800020 		blr
 1523              	.LVL125:
 1524              	.L196:
 1525              		.cfi_restore_state
 1526              	.LBB60:
 1527              	.LBB57:
 1528              		.loc 1 343 3 is_stmt 1 view .LVU451
 1529              		.loc 1 343 34 is_stmt 0 view .LVU452
 1530 0138 48000001 		bl _Z14RVL_GetFSTSizev
 1531              	.LVL126:
 1532              		.loc 1 343 48 discriminator 1 view .LVU453
 1533 013c 3D200000 		lis 9,_ZL7fstdata+8@ha
 1534              		.loc 1 343 37 discriminator 1 view .LVU454
 1535 0140 81290000 		lwz 9,_ZL7fstdata+8@l(9)
 1536              	.LVL127:
 1537              		.loc 1 344 3 is_stmt 1 view .LVU455
 1538 0144 7D291851 		subf. 9,9,3
 1539              	.LVL128:
 1540              		.loc 1 344 3 is_stmt 0 view .LVU456
 1541 0148 40A10058 		ble+ 0,.L200
 1542              		.loc 1 345 4 is_stmt 1 view .LVU457
 1543              		.loc 1 347 20 is_stmt 0 view .LVU458
 1544 014c 3CE08000 		lis 7,0x8000
 1545              		.loc 1 348 20 view .LVU459
 1546 0150 3D008000 		lis 8,0x8000
 1547              		.loc 1 349 21 view .LVU460
 1548 0154 3D408000 		lis 10,0x8000
 1549              		.loc 1 347 20 view .LVU461
 1550 0158 60E70034 		ori 7,7,0x34
 1551              		.loc 1 348 20 view .LVU462
 1552 015c 61080038 		ori 8,8,0x38
 1553              		.loc 1 349 21 view .LVU463
 1554 0160 614A3110 		ori 10,10,0x3110
 1555              		.loc 1 347 43 view .LVU464
 1556 0164 80A70000 		lwz 5,0(7)
 1557              		.loc 1 345 17 view .LVU465
 1558 0168 3929003F 		addi 9,9,63
 1559              	.LVL129:
 1560              		.loc 1 347 4 is_stmt 1 view .LVU466
 1561              		.loc 1 348 43 is_stmt 0 view .LVU467
 1562 016c 80C80000 		lwz 6,0(8)
 1563              		.loc 1 345 15 view .LVU468
 1564 0170 55290032 		rlwinm 9,9,0,0,25
 1565              	.LVL130:
 1566              		.loc 1 349 45 view .LVU469
 1567 0174 808A0000 		lwz 4,0(10)
 1568              		.loc 1 347 43 view .LVU470
 1569 0178 7CA92850 		subf 5,9,5
 1570              		.loc 1 348 43 view .LVU471
 1571 017c 7CC93050 		subf 6,9,6
 1572              		.loc 1 347 20 view .LVU472
 1573 0180 90A70000 		stw 5,0(7)
 1574              		.loc 1 348 4 is_stmt 1 view .LVU473
 1575              		.loc 1 349 45 is_stmt 0 view .LVU474
 1576 0184 7D292050 		subf 9,9,4
 1577              	.LVL131:
 1578              		.loc 1 348 20 view .LVU475
 1579 0188 90C80000 		stw 6,0(8)
 1580              		.loc 1 349 4 is_stmt 1 view .LVU476
 1581              		.loc 1 349 21 is_stmt 0 view .LVU477
 1582 018c 912A0000 		stw 9,0(10)
 1583              		.loc 1 350 4 is_stmt 1 view .LVU478
 1584              		.loc 1 350 33 is_stmt 0 view .LVU479
 1585 0190 48000001 		bl _Z14RVL_GetFSTSizev
 1586              	.LVL132:
 1587              		.loc 1 350 17 discriminator 1 view .LVU480
 1588 0194 3D208000 		lis 9,0x8000
 1589 0198 6129003C 		ori 9,9,0x3c
 1590 019c 90690000 		stw 3,0(9)
 1591              	.LVL133:
 1592              	.L200:
 1593              		.loc 1 352 3 is_stmt 1 view .LVU481
 1594              		.loc 1 352 9 is_stmt 0 view .LVU482
 1595 01a0 3D208000 		lis 9,0x8000
 1596 01a4 61290038 		ori 9,9,0x38
 1597 01a8 83C90000 		lwz 30,0(9)
 1598              		.loc 1 352 37 view .LVU483
 1599 01ac 48000001 		bl _Z10RVL_GetFSTv
 1600              	.LVL134:
 1601 01b0 7C7F1B78 		mr 31,3
 1602              		.loc 1 352 9 discriminator 1 view .LVU484
 1603 01b4 48000001 		bl _Z14RVL_GetFSTSizev
 1604              	.LVL135:
 1605 01b8 7C651B78 		mr 5,3
 1606              		.loc 1 352 9 discriminator 2 view .LVU485
 1607 01bc 7FE4FB78 		mr 4,31
 1608 01c0 7FC3F378 		mr 3,30
 1609 01c4 48000001 		bl memcpy
 1610              	.LVL136:
 1611 01c8 4BFFFF54 		b .L201
 1612              	.LVL137:
 1613              	.L203:
 1614              		.cfi_offset 29, -12
 1615              		.loc 1 352 9 discriminator 2 view .LVU486
 1616 01cc 83A1000C 		lwz 29,12(1)
 1617              		.cfi_restore 29
 1618              	.L199:
 1619              		.loc 1 352 9 discriminator 2 view .LVU487
 1620              	.LBE57:
 1621              	.LBB58:
 1622              		.loc 1 328 27 view .LVU488
 1623 01d0 3860FE00 		li 3,-512
 1624              	.LVL138:
 1625              		.loc 1 328 27 view .LVU489
 1626 01d4 4BFFFF4C 		b .L195
 1627              	.LBE58:
 1628              	.LBE60:
 1629              		.cfi_endproc
 1630              	.LFE2377:
 1631              		.size	_Z18Launcher_CommitRVLb, .-_Z18Launcher_CommitRVLb
 1632              		.section	.rodata._Z25Launcher_AddPlaytimeEntryv.str1.4,"aMS",@progbits,1
 1633              		.align 2
 1634              	.LC4:
 1635 0000 2F6D6E74 		.string	"/mnt/isfs/title/00000001/00000002/data/play_rec.dat"
 1635      2F697366 
 1635      732F7469 
 1635      746C652F 
 1635      30303030 
 1636              		.section	.text._Z25Launcher_AddPlaytimeEntryv,"ax",@progbits
 1637              		.align 2
 1638              		.globl _Z25Launcher_AddPlaytimeEntryv
 1639              		.type	_Z25Launcher_AddPlaytimeEntryv, @function
 1640              	_Z25Launcher_AddPlaytimeEntryv:
 1641              	.LFB2378:
 1642              		.loc 1 359 1 is_stmt 1 view -0
 1643              		.cfi_startproc
 1644              		.loc 1 360 2 view .LVU491
 1645              		.loc 1 359 1 is_stmt 0 view .LVU492
 1646 0000 9421FFD8 		stwu 1,-40(1)
 1647              		.cfi_def_cfa_offset 40
 1648 0004 7C0802A6 		mflr 0
 1649 0008 9001002C 		stw 0,44(1)
 1650 000c 9321000C 		stw 25,12(1)
 1651 0010 93410010 		stw 26,16(1)
 1652 0014 93C10020 		stw 30,32(1)
 1653 0018 93E10024 		stw 31,36(1)
 1654              		.cfi_offset 65, 4
 1655              		.cfi_offset 25, -28
 1656              		.cfi_offset 26, -24
 1657              		.cfi_offset 30, -8
 1658              		.cfi_offset 31, -4
 1659              		.loc 1 360 27 view .LVU493
 1660 001c 48000001 		bl WDVD_GetTMD
 1661              	.LVL139:
 1662              		.loc 1 364 17 view .LVU494
 1663 0020 3FE00000 		lis 31,.LC4@ha
 1664              		.loc 1 360 31 discriminator 1 view .LVU495
 1665 0024 83230050 		lwz 25,80(3)
 1666              	.LVL140:
 1667              		.loc 1 361 2 is_stmt 1 view .LVU496
 1668              		.loc 1 364 17 is_stmt 0 view .LVU497
 1669 0028 3BFF0000 		la 31,.LC4@l(31)
 1670              		.loc 1 361 27 view .LVU498
 1671 002c 48000001 		bl WDVD_GetTMD
 1672              	.LVL141:
 1673              		.loc 1 361 31 discriminator 1 view .LVU499
 1674 0030 A3430058 		lhz 26,88(3)
 1675              	.LVL142:
 1676              		.loc 1 363 2 is_stmt 1 view .LVU500
 1677              		.loc 1 364 2 view .LVU501
 1678              		.loc 1 364 17 is_stmt 0 view .LVU502
 1679 0034 7FE3FB78 		mr 3,31
 1680 0038 48000001 		bl File_CreateFile
 1681              	.LVL143:
 1682              		.loc 1 365 2 is_stmt 1 view .LVU503
 1683              		.loc 1 365 19 is_stmt 0 view .LVU504
 1684 003c 38800001 		li 4,1
 1685 0040 7FE3FB78 		mr 3,31
 1686 0044 48000001 		bl File_Open
 1687              	.LVL144:
 1688              		.loc 1 366 2 is_stmt 1 view .LVU505
 1689              	.LBB61:
 1690 0048 7C7E1B79 		mr. 30,3
 1691 004c 41800114 		blt- 0,.L208
 1692              	.LBB62:
 1693              		.loc 1 367 3 view .LVU506
 1694 0050 93610014 		stw 27,20(1)
 1695              		.cfi_offset 27, -20
 1696              		.loc 1 368 9 is_stmt 0 view .LVU507
 1697 0054 3F600000 		lis 27,_ZZ25Launcher_AddPlaytimeEntryvE12playtime_buf@ha
 1698 0058 3BFB0000 		la 31,_ZZ25Launcher_AddPlaytimeEntryvE12playtime_buf@l(27)
 1699 005c 93810018 		stw 28,24(1)
 1700              		.cfi_offset 28, -16
 1701 0060 93A1001C 		stw 29,28(1)
 1702              		.cfi_offset 29, -12
 1703              		.loc 1 367 25 view .LVU508
 1704 0064 48000001 		bl gettime
 1705              	.LVL145:
 1706              		.loc 1 367 25 view .LVU509
 1707 0068 7C7C1B78 		mr 28,3
 1708 006c 7C9D2378 		mr 29,4
 1709              		.loc 1 368 9 view .LVU510
 1710 0070 38A00080 		li 5,128
 1711 0074 38800000 		li 4,0
 1712              	.LVL146:
 1713              		.loc 1 368 3 is_stmt 1 view .LVU511
 1714              		.loc 1 368 9 is_stmt 0 view .LVU512
 1715 0078 7FE3FB78 		mr 3,31
 1716              	.LVL147:
 1717              		.loc 1 368 9 view .LVU513
 1718 007c 48000001 		bl memset
 1719              	.LVL148:
 1720              		.loc 1 369 3 is_stmt 1 view .LVU514
 1721              		.loc 1 370 3 view .LVU515
 1722              		.loc 1 370 53 is_stmt 0 view .LVU516
 1723 0080 48000001 		bl _Z24Launcher_GetGameNameWidev
 1724              	.LVL149:
 1725              		.loc 1 370 9 discriminator 1 view .LVU517
 1726 0084 395F0004 		addi 10,31,4
 1727              		.loc 1 370 53 view .LVU518
 1728 0088 7C641B78 		mr 4,3
 1729              		.loc 1 370 9 discriminator 1 view .LVU519
 1730 008c 38A00054 		li 5,84
 1731 0090 7D435378 		mr 3,10
 1732 0094 48000001 		bl memcpy
 1733              	.LVL150:
 1734              		.loc 1 371 27 view .LVU520
 1735 0098 939F0058 		stw 28,88(31)
 1736 009c 93BF005C 		stw 29,92(31)
 1737 00a0 39200006 		li 9,6
 1738              		.loc 1 372 27 view .LVU521
 1739 00a4 939F0060 		stw 28,96(31)
 1740 00a8 7D2903A6 		mtctr 9
 1741 00ac 93BF0064 		stw 29,100(31)
 1742              		.loc 1 370 9 discriminator 1 view .LVU522
 1743 00b0 7C6A1B78 		mr 10,3
 1744              		.loc 1 371 3 is_stmt 1 view .LVU523
 1745              		.loc 1 372 3 view .LVU524
 1746              		.loc 1 373 3 view .LVU525
 1747              		.loc 1 373 25 is_stmt 0 view .LVU526
 1748 00b4 933F0068 		stw 25,104(31)
 1749              		.loc 1 374 3 is_stmt 1 view .LVU527
 1750 00b8 39000000 		li 8,0
 1751              		.loc 1 374 26 is_stmt 0 view .LVU528
 1752 00bc B35F006C 		sth 26,108(31)
 1753              		.loc 1 375 3 is_stmt 1 view .LVU529
 1754              		.loc 1 375 17 discriminator 1 view .LVU530
 1755              	.LVL151:
 1756              		.loc 1 376 4 view .LVU531
 1757 00c0 813B0000 		lwz 9,_ZZ25Launcher_AddPlaytimeEntryvE12playtime_buf@l(27)
 1758              		.loc 1 376 26 is_stmt 0 view .LVU532
 1759 00c4 80E30000 		lwz 7,0(3)
 1760 00c8 7D293A14 		add 9,9,7
 1761              		.loc 1 375 3 is_stmt 1 discriminator 3 view .LVU533
 1762              		.loc 1 375 17 discriminator 1 view .LVU534
 1763              	.L207:
 1764              		.loc 1 376 4 view .LVU535
 1765              		.loc 1 376 26 is_stmt 0 view .LVU536
 1766 00cc 80CA0004 		lwz 6,4(10)
 1767 00d0 80EA000C 		lwz 7,12(10)
 1768 00d4 80AA0008 		lwz 5,8(10)
 1769 00d8 7D293214 		add 9,9,6
 1770              		.loc 1 375 3 is_stmt 1 discriminator 3 view .LVU537
 1771              		.loc 1 375 17 discriminator 1 view .LVU538
 1772              		.loc 1 376 4 view .LVU539
 1773              		.loc 1 376 26 is_stmt 0 view .LVU540
 1774 00dc 7D293A14 		add 9,9,7
 1775 00e0 80CA0010 		lwz 6,16(10)
 1776 00e4 84EA0014 		lwzu 7,20(10)
 1777 00e8 7D082A14 		add 8,8,5
 1778              		.loc 1 375 3 is_stmt 1 discriminator 3 view .LVU541
 1779              		.loc 1 375 17 discriminator 1 view .LVU542
 1780              		.loc 1 376 4 view .LVU543
 1781              		.loc 1 375 3 discriminator 3 view .LVU544
 1782              		.loc 1 375 17 discriminator 1 view .LVU545
 1783              		.loc 1 376 4 view .LVU546
 1784              		.loc 1 376 26 is_stmt 0 view .LVU547
 1785 00ec 7D083214 		add 8,8,6
 1786              		.loc 1 375 3 is_stmt 1 discriminator 3 view .LVU548
 1787              		.loc 1 375 17 discriminator 1 view .LVU549
 1788              		.loc 1 376 4 view .LVU550
 1789              		.loc 1 376 26 is_stmt 0 view .LVU551
 1790 00f0 7D293A14 		add 9,9,7
 1791              		.loc 1 375 3 is_stmt 1 discriminator 3 view .LVU552
 1792              		.loc 1 375 17 discriminator 1 view .LVU553
 1793 00f4 4200FFD8 		bdnz .L207
 1794 00f8 7D294214 		add 9,9,8
 1795              		.loc 1 378 50 is_stmt 0 view .LVU554
 1796 00fc 7FE4FB78 		mr 4,31
 1797 0100 38A00080 		li 5,128
 1798 0104 7FC3F378 		mr 3,30
 1799 0108 913B0000 		stw 9,_ZZ25Launcher_AddPlaytimeEntryvE12playtime_buf@l(27)
 1800              		.loc 1 378 3 is_stmt 1 view .LVU555
 1801              		.loc 1 378 50 is_stmt 0 view .LVU556
 1802 010c 48000001 		bl File_Write
 1803              	.LVL152:
 1804 0110 7C7F1B78 		mr 31,3
 1805              		.loc 1 379 13 view .LVU557
 1806 0114 7FC3F378 		mr 3,30
 1807              	.LVL153:
 1808              		.loc 1 379 3 is_stmt 1 view .LVU558
 1809              		.loc 1 379 13 is_stmt 0 view .LVU559
 1810 0118 48000001 		bl File_Close
 1811              	.LVL154:
 1812              		.loc 1 380 3 is_stmt 1 view .LVU560
 1813 011c 2C1F0080 		cmpwi 0,31,128
 1814 0120 40820034 		bne- 0,.L217
 1815              		.loc 1 381 27 is_stmt 0 view .LVU561
 1816 0124 83610014 		lwz 27,20(1)
 1817              		.cfi_restore 27
 1818 0128 38600000 		li 3,0
 1819 012c 83810018 		lwz 28,24(1)
 1820              		.cfi_restore 28
 1821              	.LVL155:
 1822              		.loc 1 381 27 view .LVU562
 1823 0130 83A1001C 		lwz 29,28(1)
 1824              		.cfi_restore 29
 1825              	.LVL156:
 1826              	.L204:
 1827              		.loc 1 381 27 view .LVU563
 1828              	.LBE62:
 1829              	.LBE61:
 1830              		.loc 1 385 1 view .LVU564
 1831 0134 8001002C 		lwz 0,44(1)
 1832 0138 8321000C 		lwz 25,12(1)
 1833              	.LVL157:
 1834              		.loc 1 385 1 view .LVU565
 1835 013c 83410010 		lwz 26,16(1)
 1836              	.LVL158:
 1837              		.loc 1 385 1 view .LVU566
 1838 0140 7C0803A6 		mtlr 0
 1839              		.cfi_restore 65
 1840 0144 83C10020 		lwz 30,32(1)
 1841              	.LVL159:
 1842              		.loc 1 385 1 view .LVU567
 1843 0148 83E10024 		lwz 31,36(1)
 1844 014c 38210028 		addi 1,1,40
 1845              		.cfi_restore 31
 1846              		.cfi_restore 30
 1847              		.cfi_restore 26
 1848              		.cfi_restore 25
 1849              		.cfi_def_cfa_offset 0
 1850 0150 4E800020 		blr
 1851              	.LVL160:
 1852              	.L217:
 1853              		.cfi_def_cfa_offset 40
 1854              		.cfi_offset 25, -28
 1855              		.cfi_offset 26, -24
 1856              		.cfi_offset 27, -20
 1857              		.cfi_offset 28, -16
 1858              		.cfi_offset 29, -12
 1859              		.cfi_offset 30, -8
 1860              		.cfi_offset 31, -4
 1861              		.cfi_offset 65, 4
 1862              		.loc 1 385 1 view .LVU568
 1863 0154 83610014 		lwz 27,20(1)
 1864              		.cfi_restore 27
 1865 0158 83810018 		lwz 28,24(1)
 1866              		.cfi_restore 28
 1867              	.LVL161:
 1868              		.loc 1 385 1 view .LVU569
 1869 015c 83A1001C 		lwz 29,28(1)
 1870              		.cfi_restore 29
 1871              	.LVL162:
 1872              	.L208:
 1873              		.loc 1 384 25 view .LVU570
 1874 0160 3860FE00 		li 3,-512
 1875 0164 4BFFFFD0 		b .L204
 1876              		.cfi_endproc
 1877              	.LFE2378:
 1878              		.size	_Z25Launcher_AddPlaytimeEntryv, .-_Z25Launcher_AddPlaytimeEntryv
 1879              		.section	.text._Z27Launcher_ScrubPlaytimeEntryv,"ax",@progbits
 1880              		.align 2
 1881              		.globl _Z27Launcher_ScrubPlaytimeEntryv
 1882              		.type	_Z27Launcher_ScrubPlaytimeEntryv, @function
 1883              	_Z27Launcher_ScrubPlaytimeEntryv:
 1884              	.LFB2379:
 1885              		.loc 1 388 1 is_stmt 1 view -0
 1886              		.cfi_startproc
 1887              		.loc 1 389 2 view .LVU572
 1888              		.loc 1 388 1 is_stmt 0 view .LVU573
 1889 0000 9421FFF0 		stwu 1,-16(1)
 1890              		.cfi_def_cfa_offset 16
 1891              		.loc 1 389 19 view .LVU574
 1892 0004 3C600000 		lis 3,.LC4@ha
 1893              		.loc 1 388 1 view .LVU575
 1894 0008 7C0802A6 		mflr 0
 1895              		.loc 1 389 19 view .LVU576
 1896 000c 38800001 		li 4,1
 1897 0010 38630000 		la 3,.LC4@l(3)
 1898              		.loc 1 388 1 view .LVU577
 1899 0014 93E1000C 		stw 31,12(1)
 1900 0018 90010014 		stw 0,20(1)
 1901              		.cfi_offset 65, 4
 1902              		.cfi_offset 31, -4
 1903              		.loc 1 389 19 view .LVU578
 1904 001c 48000001 		bl File_Open
 1905              	.LVL163:
 1906              		.loc 1 390 2 is_stmt 1 view .LVU579
 1907              	.LBB63:
 1908 0020 7C7F1B79 		mr. 31,3
 1909 0024 4180004C 		blt- 0,.L219
 1910              	.LBB64:
 1911              		.loc 1 391 3 view .LVU580
 1912              		.loc 1 392 3 view .LVU581
 1913              		.loc 1 392 8 is_stmt 0 view .LVU582
 1914 0028 3D200000 		lis 9,_ZZ27Launcher_ScrubPlaytimeEntryvE4zero@ha
 1915 002c 39400000 		li 10,0
 1916              		.loc 1 393 40 view .LVU583
 1917 0030 38890000 		la 4,_ZZ27Launcher_ScrubPlaytimeEntryvE4zero@l(9)
 1918 0034 38A00004 		li 5,4
 1919              		.loc 1 392 8 view .LVU584
 1920 0038 91490000 		stw 10,_ZZ27Launcher_ScrubPlaytimeEntryvE4zero@l(9)
 1921              		.loc 1 393 3 is_stmt 1 view .LVU585
 1922              		.loc 1 393 40 is_stmt 0 view .LVU586
 1923 003c 48000001 		bl File_Write
 1924              	.LVL164:
 1925              		.loc 1 393 40 view .LVU587
 1926 0040 7C691B78 		mr 9,3
 1927              		.loc 1 394 13 view .LVU588
 1928 0044 7FE3FB78 		mr 3,31
 1929              		.loc 1 393 40 view .LVU589
 1930 0048 7D3F4B78 		mr 31,9
 1931              	.LVL165:
 1932              		.loc 1 394 3 is_stmt 1 view .LVU590
 1933              		.loc 1 394 13 is_stmt 0 view .LVU591
 1934 004c 48000001 		bl File_Close
 1935              	.LVL166:
 1936              		.loc 1 395 3 is_stmt 1 view .LVU592
 1937 0050 2C1F0004 		cmpwi 0,31,4
 1938              		.loc 1 396 27 is_stmt 0 view .LVU593
 1939 0054 38600000 		li 3,0
 1940              		.loc 1 395 3 view .LVU594
 1941 0058 40820018 		bne- 0,.L219
 1942              	.LVL167:
 1943              	.L218:
 1944              		.loc 1 395 3 view .LVU595
 1945              	.LBE64:
 1946              	.LBE63:
 1947              		.loc 1 400 1 view .LVU596
 1948 005c 80010014 		lwz 0,20(1)
 1949 0060 83E1000C 		lwz 31,12(1)
 1950 0064 38210010 		addi 1,1,16
 1951              		.cfi_remember_state
 1952              		.cfi_restore 31
 1953              		.cfi_def_cfa_offset 0
 1954 0068 7C0803A6 		mtlr 0
 1955              		.cfi_restore 65
 1956 006c 4E800020 		blr
 1957              	.L219:
 1958              		.cfi_restore_state
 1959              		.loc 1 399 25 view .LVU597
 1960 0070 3860FE00 		li 3,-512
 1961 0074 4BFFFFE8 		b .L218
 1962              		.cfi_endproc
 1963              	.LFE2379:
 1964              		.size	_Z27Launcher_ScrubPlaytimeEntryv, .-_Z27Launcher_ScrubPlaytimeEntryv
 1965              		.section	.text._Z21Launcher_SetVideoModev,"ax",@progbits
 1966              		.align 2
 1967              		.globl _Z21Launcher_SetVideoModev
 1968              		.type	_Z21Launcher_SetVideoModev, @function
 1969              	_Z21Launcher_SetVideoModev:
 1970              	.LFB2381:
 1971              		.loc 1 478 1 is_stmt 1 view -0
 1972              		.cfi_startproc
 1973              		.loc 1 479 2 view .LVU599
 1974              		.loc 1 480 2 view .LVU600
 1975              		.loc 1 478 1 is_stmt 0 view .LVU601
 1976 0000 9421FFF0 		stwu 1,-16(1)
 1977              		.cfi_def_cfa_offset 16
 1978 0004 7C0802A6 		mflr 0
 1979 0008 90010014 		stw 0,20(1)
 1980              		.cfi_offset 65, 4
 1981              		.loc 1 480 28 view .LVU602
 1982 000c 48000001 		bl CONF_GetVideo
 1983              	.LVL168:
 1984              		.loc 1 481 2 is_stmt 1 view .LVU603
 1985 0010 28030001 		cmplwi 0,3,1
 1986 0014 40820098 		bne- 0,.L225
 1987              		.loc 1 482 3 view .LVU604
 1988              		.loc 1 482 17 is_stmt 0 view .LVU605
 1989 0018 3D208000 		lis 9,0x8000
 1990              		.loc 1 485 19 view .LVU606
 1991 001c 39400000 		li 10,0
 1992              		.loc 1 482 17 view .LVU607
 1993 0020 61290003 		ori 9,9,0x3
 1994              		.loc 1 482 3 view .LVU608
 1995 0024 89290000 		lbz 9,0(9)
 1996 0028 2C090050 		cmpwi 0,9,80
 1997 002c 41820134 		beq- 0,.L241
 1998 0030 3D208000 		lis 9,0x8000
 1999 0034 612900CC 		ori 9,9,0xcc
 2000 0038 91490000 		stw 10,0(9)
 2001              		.loc 1 486 3 is_stmt 1 view .LVU609
 2002              		.loc 1 486 30 is_stmt 0 view .LVU610
 2003 003c 48000001 		bl CONF_GetProgressiveScan
 2004              	.LVL169:
 2005              		.loc 1 486 37 discriminator 1 view .LVU611
 2006 0040 2C030000 		cmpwi 0,3,0
 2007 0044 40810010 		ble- 0,.L230
 2008              	.L227:
 2009              		.loc 1 486 64 discriminator 1 view .LVU612
 2010 0048 48000001 		bl VIDEO_HaveComponentCable
 2011              	.LVL170:
 2012              		.loc 1 486 37 discriminator 1 view .LVU613
 2013 004c 2C030000 		cmpwi 0,3,0
 2014 0050 40820130 		bne- 0,.L237
 2015              	.L230:
 2016              		.loc 1 490 10 is_stmt 1 view .LVU614
 2017              		.loc 1 490 29 is_stmt 0 view .LVU615
 2018 0054 48000001 		bl CONF_GetEuRGB60
 2019              	.LVL171:
 2020              		.loc 1 490 10 discriminator 1 view .LVU616
 2021 0058 2C030000 		cmpwi 0,3,0
 2022              		.loc 1 491 10 view .LVU617
 2023 005c 3C600000 		lis 3,TVEurgb60Hz480IntDf@ha
 2024 0060 38630000 		la 3,TVEurgb60Hz480IntDf@l(3)
 2025              		.loc 1 490 10 discriminator 1 view .LVU618
 2026 0064 41A1001C 		bgt+ 0,.L228
 2027              		.loc 1 493 4 is_stmt 1 view .LVU619
 2028              	.LVL172:
 2029              		.loc 1 494 4 view .LVU620
 2030              		.loc 1 494 19 is_stmt 0 view .LVU621
 2031 0068 3D208000 		lis 9,0x8000
 2032 006c 39400001 		li 10,1
 2033 0070 612900CC 		ori 9,9,0xcc
 2034              		.loc 1 493 10 view .LVU622
 2035 0074 3C600000 		lis 3,TVPal528IntDf@ha
 2036              		.loc 1 494 19 view .LVU623
 2037 0078 91490000 		stw 10,0(9)
 2038              		.loc 1 493 10 view .LVU624
 2039 007c 38630000 		la 3,TVPal528IntDf@l(3)
 2040              	.LVL173:
 2041              	.L228:
 2042              		.loc 1 507 2 is_stmt 1 view .LVU625
 2043              		.loc 1 507 17 is_stmt 0 view .LVU626
 2044 0080 48000001 		bl VIDEO_Configure
 2045              	.LVL174:
 2046              		.loc 1 508 2 is_stmt 1 view .LVU627
 2047              		.loc 1 508 16 is_stmt 0 view .LVU628
 2048 0084 38600001 		li 3,1
 2049 0088 48000001 		bl VIDEO_SetBlack
 2050              	.LVL175:
 2051              		.loc 1 509 2 is_stmt 1 view .LVU629
 2052              		.loc 1 509 13 is_stmt 0 view .LVU630
 2053 008c 48000001 		bl VIDEO_Flush
 2054              	.LVL176:
 2055              		.loc 1 510 2 is_stmt 1 view .LVU631
 2056              		.loc 1 510 17 is_stmt 0 view .LVU632
 2057 0090 48000001 		bl VIDEO_WaitVSync
 2058              	.LVL177:
 2059              		.loc 1 511 2 is_stmt 1 view .LVU633
 2060              		.loc 1 511 17 is_stmt 0 view .LVU634
 2061 0094 48000001 		bl VIDEO_WaitVSync
 2062              	.LVL178:
 2063              		.loc 1 513 2 is_stmt 1 view .LVU635
 2064              		.loc 1 514 1 is_stmt 0 view .LVU636
 2065 0098 80010014 		lwz 0,20(1)
 2066 009c 38600000 		li 3,0
 2067 00a0 38210010 		addi 1,1,16
 2068              		.cfi_remember_state
 2069              		.cfi_def_cfa_offset 0
 2070 00a4 7C0803A6 		mtlr 0
 2071              		.cfi_restore 65
 2072 00a8 4E800020 		blr
 2073              	.LVL179:
 2074              	.L225:
 2075              		.cfi_restore_state
 2076              		.loc 1 497 3 is_stmt 1 view .LVU637
 2077 00ac 93E1000C 		stw 31,12(1)
 2078              		.cfi_offset 31, -4
 2079 00b0 7C7F1B78 		mr 31,3
 2080              		.loc 1 497 30 is_stmt 0 view .LVU638
 2081 00b4 48000001 		bl CONF_GetProgressiveScan
 2082              	.LVL180:
 2083              		.loc 1 497 37 discriminator 1 view .LVU639
 2084 00b8 2C030000 		cmpwi 0,3,0
 2085 00bc 4181008C 		bgt- 0,.L242
 2086              	.L231:
 2087              		.loc 1 500 10 view .LVU640
 2088 00c0 3C600000 		lis 3,TVNtsc480IntDf@ha
 2089 00c4 38630000 		la 3,TVNtsc480IntDf@l(3)
 2090              	.L232:
 2091              	.LVL181:
 2092              		.loc 1 501 3 is_stmt 1 view .LVU641
 2093 00c8 2C1F0000 		cmpwi 0,31,0
 2094              		.loc 1 502 19 is_stmt 0 view .LVU642
 2095 00cc 3D208000 		lis 9,0x8000
 2096              		.loc 1 501 3 view .LVU643
 2097 00d0 4082003C 		bne- 0,.L233
 2098              		.loc 1 502 4 is_stmt 1 view .LVU644
 2099              		.loc 1 502 19 is_stmt 0 view .LVU645
 2100 00d4 612900CC 		ori 9,9,0xcc
 2101 00d8 93E90000 		stw 31,0(9)
 2102 00dc 83E1000C 		lwz 31,12(1)
 2103              		.cfi_remember_state
 2104              		.cfi_restore 31
 2105              	.LVL182:
 2106              		.loc 1 507 2 is_stmt 1 view .LVU646
 2107              		.loc 1 507 17 is_stmt 0 view .LVU647
 2108 00e0 48000001 		bl VIDEO_Configure
 2109              	.LVL183:
 2110              		.loc 1 508 2 is_stmt 1 view .LVU648
 2111              		.loc 1 508 16 is_stmt 0 view .LVU649
 2112 00e4 38600001 		li 3,1
 2113 00e8 48000001 		bl VIDEO_SetBlack
 2114              	.LVL184:
 2115              		.loc 1 509 2 is_stmt 1 view .LVU650
 2116              		.loc 1 509 13 is_stmt 0 view .LVU651
 2117 00ec 48000001 		bl VIDEO_Flush
 2118              	.LVL185:
 2119              		.loc 1 510 2 is_stmt 1 view .LVU652
 2120              		.loc 1 510 17 is_stmt 0 view .LVU653
 2121 00f0 48000001 		bl VIDEO_WaitVSync
 2122              	.LVL186:
 2123              		.loc 1 511 2 is_stmt 1 view .LVU654
 2124              		.loc 1 511 17 is_stmt 0 view .LVU655
 2125 00f4 48000001 		bl VIDEO_WaitVSync
 2126              	.LVL187:
 2127              		.loc 1 513 2 is_stmt 1 view .LVU656
 2128              		.loc 1 514 1 is_stmt 0 view .LVU657
 2129 00f8 80010014 		lwz 0,20(1)
 2130 00fc 38600000 		li 3,0
 2131 0100 38210010 		addi 1,1,16
 2132              		.cfi_def_cfa_offset 0
 2133 0104 7C0803A6 		mtlr 0
 2134              		.cfi_restore 65
 2135 0108 4E800020 		blr
 2136              	.LVL188:
 2137              	.L233:
 2138              		.cfi_restore_state
 2139              		.loc 1 504 4 is_stmt 1 view .LVU658
 2140              		.loc 1 504 19 is_stmt 0 view .LVU659
 2141 010c 39400002 		li 10,2
 2142 0110 612900CC 		ori 9,9,0xcc
 2143 0114 91490000 		stw 10,0(9)
 2144 0118 83E1000C 		lwz 31,12(1)
 2145              		.cfi_remember_state
 2146              		.cfi_restore 31
 2147              	.LVL189:
 2148              		.loc 1 507 2 is_stmt 1 view .LVU660
 2149              		.loc 1 507 17 is_stmt 0 view .LVU661
 2150 011c 48000001 		bl VIDEO_Configure
 2151              	.LVL190:
 2152              		.loc 1 508 2 is_stmt 1 view .LVU662
 2153              		.loc 1 508 16 is_stmt 0 view .LVU663
 2154 0120 38600001 		li 3,1
 2155 0124 48000001 		bl VIDEO_SetBlack
 2156              	.LVL191:
 2157              		.loc 1 509 2 is_stmt 1 view .LVU664
 2158              		.loc 1 509 13 is_stmt 0 view .LVU665
 2159 0128 48000001 		bl VIDEO_Flush
 2160              	.LVL192:
 2161              		.loc 1 510 2 is_stmt 1 view .LVU666
 2162              		.loc 1 510 17 is_stmt 0 view .LVU667
 2163 012c 48000001 		bl VIDEO_WaitVSync
 2164              	.LVL193:
 2165              		.loc 1 511 2 is_stmt 1 view .LVU668
 2166              		.loc 1 511 17 is_stmt 0 view .LVU669
 2167 0130 48000001 		bl VIDEO_WaitVSync
 2168              	.LVL194:
 2169              		.loc 1 513 2 is_stmt 1 view .LVU670
 2170              		.loc 1 514 1 is_stmt 0 view .LVU671
 2171 0134 80010014 		lwz 0,20(1)
 2172 0138 38600000 		li 3,0
 2173 013c 38210010 		addi 1,1,16
 2174              		.cfi_def_cfa_offset 0
 2175 0140 7C0803A6 		mtlr 0
 2176              		.cfi_restore 65
 2177 0144 4E800020 		blr
 2178              	.LVL195:
 2179              	.L242:
 2180              		.cfi_restore_state
 2181              		.loc 1 497 64 discriminator 1 view .LVU672
 2182 0148 48000001 		bl VIDEO_HaveComponentCable
 2183              	.LVL196:
 2184              		.loc 1 497 37 discriminator 1 view .LVU673
 2185 014c 2C030000 		cmpwi 0,3,0
 2186 0150 41A2FF70 		beq- 0,.L231
 2187              		.loc 1 498 10 view .LVU674
 2188 0154 3C600000 		lis 3,TVNtsc480Prog@ha
 2189 0158 38630000 		la 3,TVNtsc480Prog@l(3)
 2190 015c 4BFFFF6C 		b .L232
 2191              	.LVL197:
 2192              	.L241:
 2193              		.cfi_restore 31
 2194              		.loc 1 498 10 view .LVU675
 2195 0160 3D208000 		lis 9,0x8000
 2196              		.loc 1 483 19 view .LVU676
 2197 0164 39400005 		li 10,5
 2198 0168 612900CC 		ori 9,9,0xcc
 2199 016c 91490000 		stw 10,0(9)
 2200              		.loc 1 486 3 is_stmt 1 view .LVU677
 2201              		.loc 1 486 30 is_stmt 0 view .LVU678
 2202 0170 48000001 		bl CONF_GetProgressiveScan
 2203              	.LVL198:
 2204              		.loc 1 486 37 discriminator 1 view .LVU679
 2205 0174 2C030000 		cmpwi 0,3,0
 2206 0178 4181FED0 		bgt+ 0,.L227
 2207 017c 4BFFFED8 		b .L230
 2208              	.L237:
 2209              		.loc 1 489 10 view .LVU680
 2210 0180 3C600000 		lis 3,TVNtsc480Prog@ha
 2211 0184 38630000 		la 3,TVNtsc480Prog@l(3)
 2212              	.LVL199:
 2213              		.loc 1 507 2 is_stmt 1 view .LVU681
 2214              		.loc 1 507 17 is_stmt 0 view .LVU682
 2215 0188 48000001 		bl VIDEO_Configure
 2216              	.LVL200:
 2217              		.loc 1 508 2 is_stmt 1 view .LVU683
 2218              		.loc 1 508 16 is_stmt 0 view .LVU684
 2219 018c 38600001 		li 3,1
 2220 0190 48000001 		bl VIDEO_SetBlack
 2221              	.LVL201:
 2222              		.loc 1 509 2 is_stmt 1 view .LVU685
 2223              		.loc 1 509 13 is_stmt 0 view .LVU686
 2224 0194 48000001 		bl VIDEO_Flush
 2225              	.LVL202:
 2226              		.loc 1 510 2 is_stmt 1 view .LVU687
 2227              		.loc 1 510 17 is_stmt 0 view .LVU688
 2228 0198 48000001 		bl VIDEO_WaitVSync
 2229              	.LVL203:
 2230              		.loc 1 511 2 is_stmt 1 view .LVU689
 2231              		.loc 1 511 17 is_stmt 0 view .LVU690
 2232 019c 48000001 		bl VIDEO_WaitVSync
 2233              	.LVL204:
 2234              		.loc 1 513 2 is_stmt 1 view .LVU691
 2235              		.loc 1 514 1 is_stmt 0 view .LVU692
 2236 01a0 80010014 		lwz 0,20(1)
 2237 01a4 38600000 		li 3,0
 2238 01a8 38210010 		addi 1,1,16
 2239              		.cfi_def_cfa_offset 0
 2240 01ac 7C0803A6 		mtlr 0
 2241              		.cfi_restore 65
 2242 01b0 4E800020 		blr
 2243              		.cfi_endproc
 2244              	.LFE2381:
 2245              		.size	_Z21Launcher_SetVideoModev, .-_Z21Launcher_SetVideoModev
 2246              		.section	.rodata._Z21Launcher_RunApploaderv.str1.4,"aMS",@progbits,1
 2247              		.align 2
 2248              	.LC5:
 2249 0000 2F646576 		.string	"/dev/di"
 2249      2F646900 
 2250              		.align 2
 2251              	.LC6:
 2252 0008 2F646576 		.string	"/dev/usb/hid"
 2252      2F757362 
 2252      2F686964 
 2252      00
 2253              		.section	.text._Z21Launcher_RunApploaderv,"ax",@progbits
 2254              		.align 2
 2255              		.globl _Z21Launcher_RunApploaderv
 2256              		.type	_Z21Launcher_RunApploaderv, @function
 2257              	_Z21Launcher_RunApploaderv:
 2258              	.LFB2382:
 2259              		.loc 1 517 1 is_stmt 1 view -0
 2260              		.cfi_startproc
 2261              		.loc 1 518 2 view .LVU694
 2262              		.loc 1 517 1 is_stmt 0 view .LVU695
 2263 0000 9421FF90 		stwu 1,-112(1)
 2264              		.cfi_def_cfa_offset 112
 2265 0004 7C0802A6 		mflr 0
 2266              		.loc 1 524 10 view .LVU696
 2267 0008 38600000 		li 3,0
 2268              		.loc 1 517 1 view .LVU697
 2269 000c 93E1006C 		stw 31,108(1)
 2270              		.cfi_register 65, 0
 2271              		.cfi_offset 31, -4
 2272              		.loc 1 518 11 view .LVU698
 2273 0010 3BE00000 		li 31,0
 2274              		.loc 1 517 1 view .LVU699
 2275 0014 90010074 		stw 0,116(1)
 2276 0018 93A10064 		stw 29,100(1)
 2277              		.cfi_offset 65, 4
 2278              		.cfi_offset 29, -12
 2279              		.loc 1 535 18 view .LVU700
 2280 001c 3FA08000 		lis 29,0x8000
 2281              		.loc 1 517 1 view .LVU701
 2282 0020 93C10068 		stw 30,104(1)
 2283              		.cfi_offset 30, -8
 2284              		.loc 1 536 8 view .LVU702
 2285 0024 3FC08000 		lis 30,0x8000
 2286              		.loc 1 518 11 view .LVU703
 2287 0028 93E10018 		stw 31,24(1)
 2288              		.loc 1 519 2 is_stmt 1 view .LVU704
 2289              		.loc 1 536 8 is_stmt 0 view .LVU705
 2290 002c 63DE3180 		ori 30,30,0x3180
 2291              		.loc 1 519 10 view .LVU706
 2292 0030 93E10014 		stw 31,20(1)
 2293              		.loc 1 520 2 is_stmt 1 view .LVU707
 2294              		.loc 1 520 10 is_stmt 0 view .LVU708
 2295 0034 93E10010 		stw 31,16(1)
 2296              		.loc 1 521 2 is_stmt 1 view .LVU709
 2297              		.loc 1 521 6 is_stmt 0 view .LVU710
 2298 0038 93E1000C 		stw 31,12(1)
 2299              		.loc 1 522 2 is_stmt 1 view .LVU711
 2300              		.loc 1 522 6 is_stmt 0 view .LVU712
 2301 003c 93E10008 		stw 31,8(1)
 2302              		.loc 1 524 2 is_stmt 1 view .LVU713
 2303              		.loc 1 517 1 is_stmt 0 view .LVU714
 2304 0040 91C10028 		stw 14,40(1)
 2305              		.cfi_offset 14, -72
 2306              		.loc 1 524 10 view .LVU715
 2307 0044 48000001 		bl time
 2308              	.LVL205:
 2309              		.loc 1 524 10 discriminator 1 view .LVU716
 2310 0048 3D20C792 		lis 9,0xc792
 2311              		.loc 1 524 9 discriminator 1 view .LVU717
 2312 004c 3D40039E 		lis 10,0x39e
 2313              		.loc 1 524 10 discriminator 1 view .LVU718
 2314 0050 6129BC80 		ori 9,9,0xbc80
 2315              		.loc 1 524 9 discriminator 1 view .LVU719
 2316 0054 614AF8B0 		ori 10,10,0xf8b0
 2317              		.loc 1 524 10 discriminator 1 view .LVU720
 2318 0058 7C844814 		addc 4,4,9
 2319 005c 7C6301D4 		addme 3,3
 2320              		.loc 1 524 9 discriminator 1 view .LVU721
 2321 0060 7D2A19D6 		mullw 9,10,3
 2322 0064 7C6A2016 		mulhwu 3,10,4
 2323 0068 7C8A21D6 		mullw 4,10,4
 2324 006c 7C691A14 		add 3,9,3
 2325 0070 48000001 		bl settime
 2326              	.LVL206:
 2327              		.loc 1 527 2 is_stmt 1 view .LVU722
 2328              		.loc 1 529 11 is_stmt 0 view .LVU723
 2329 0074 3D008000 		lis 8,0x8000
 2330              		.loc 1 532 17 view .LVU724
 2331 0078 3D408000 		lis 10,0x8000
 2332              		.loc 1 535 18 view .LVU725
 2333 007c 3D208000 		lis 9,0x8000
 2334              		.loc 1 536 8 view .LVU726
 2335 0080 801D0000 		lwz 0,0(29)
 2336              		.loc 1 529 11 view .LVU727
 2337 0084 610800F4 		ori 8,8,0xf4
 2338              		.loc 1 532 17 view .LVU728
 2339 0088 614A0030 		ori 10,10,0x30
 2340              		.loc 1 535 18 view .LVU729
 2341 008c 61293184 		ori 9,9,0x3184
 2342              		.loc 1 529 11 view .LVU730
 2343 0090 93E80000 		stw 31,0(8)
 2344              		.loc 1 527 19 view .LVU731
 2345 0094 3D608000 		lis 11,0x8000
 2346              		.loc 1 532 17 view .LVU732
 2347 0098 93EA0000 		stw 31,0(10)
 2348              		.loc 1 528 20 view .LVU733
 2349 009c 3C808000 		lis 4,0x8000
 2350              		.loc 1 535 18 view .LVU734
 2351 00a0 93A90000 		stw 29,0(9)
 2352              		.loc 1 530 16 view .LVU735
 2353 00a4 3CA08000 		lis 5,0x8000
 2354 00a8 3C600D15 		lis 3,0xd15
 2355              		.loc 1 531 15 view .LVU736
 2356 00ac 3CC08000 		lis 6,0x8000
 2357              		.loc 1 533 16 view .LVU737
 2358 00b0 3D008000 		lis 8,0x8000
 2359 00b4 3CE00E7B 		lis 7,0xe7b
 2360              		.loc 1 534 16 view .LVU738
 2361 00b8 3D208000 		lis 9,0x8000
 2362 00bc 3D402B73 		lis 10,0x2b73
 2363              		.loc 1 536 8 view .LVU739
 2364 00c0 901E0000 		stw 0,0(30)
 2365              		.loc 1 527 19 view .LVU740
 2366 00c4 616B00F0 		ori 11,11,0xf0
 2367 00c8 3C000180 		lis 0,0x180
 2368              		.loc 1 530 16 view .LVU741
 2369 00cc 60A50020 		ori 5,5,0x20
 2370              		.loc 1 531 15 view .LVU742
 2371 00d0 60C60024 		ori 6,6,0x24
 2372              		.loc 1 533 16 view .LVU743
 2373 00d4 610800F8 		ori 8,8,0xf8
 2374 00d8 60E7E2C0 		ori 7,7,0xe2c0
 2375              		.loc 1 534 16 view .LVU744
 2376 00dc 612900FC 		ori 9,9,0xfc
 2377 00e0 614AA840 		ori 10,10,0xa840
 2378              		.loc 1 528 20 view .LVU745
 2379 00e4 60840028 		ori 4,4,0x28
 2380              		.loc 1 530 16 view .LVU746
 2381 00e8 6063EA5E 		ori 3,3,0xea5e
 2382              		.loc 1 531 15 view .LVU747
 2383 00ec 3BE00001 		li 31,1
 2384              		.loc 1 527 19 view .LVU748
 2385 00f0 900B0000 		stw 0,0(11)
 2386              		.loc 1 528 2 is_stmt 1 view .LVU749
 2387              		.loc 1 528 20 is_stmt 0 view .LVU750
 2388 00f4 90040000 		stw 0,0(4)
 2389              		.loc 1 529 2 is_stmt 1 view .LVU751
 2390              		.loc 1 530 2 view .LVU752
 2391              		.loc 1 537 14 is_stmt 0 view .LVU753
 2392 00f8 38803F00 		li 4,16128
 2393              		.loc 1 530 16 view .LVU754
 2394 00fc 90650000 		stw 3,0(5)
 2395              		.loc 1 531 2 is_stmt 1 view .LVU755
 2396              		.loc 1 537 14 is_stmt 0 view .LVU756
 2397 0100 3C608000 		lis 3,0x8000
 2398              		.loc 1 531 15 view .LVU757
 2399 0104 93E60000 		stw 31,0(6)
 2400              		.loc 1 532 2 is_stmt 1 view .LVU758
 2401              		.loc 1 533 2 view .LVU759
 2402              		.loc 1 540 18 is_stmt 0 view .LVU760
 2403 0108 3FE00000 		lis 31,_ZL14partition_info@ha
 2404              		.loc 1 533 16 view .LVU761
 2405 010c 90E80000 		stw 7,0(8)
 2406              		.loc 1 534 2 is_stmt 1 view .LVU762
 2407              		.loc 1 540 18 is_stmt 0 view .LVU763
 2408 0110 3BFF0000 		la 31,_ZL14partition_info@l(31)
 2409              		.loc 1 534 16 view .LVU764
 2410 0114 91490000 		stw 10,0(9)
 2411              		.loc 1 535 2 is_stmt 1 view .LVU765
 2412              		.loc 1 536 2 view .LVU766
 2413              		.loc 1 537 2 view .LVU767
 2414              		.loc 1 537 14 is_stmt 0 view .LVU768
 2415 0118 48000001 		bl DCFlushRange
 2416              	.LVL207:
 2417              		.loc 1 540 2 is_stmt 1 view .LVU769
 2418              		.loc 1 540 18 is_stmt 0 view .LVU770
 2419 011c 38A00000 		li 5,0
 2420 0120 38C02440 		li 6,9280
 2421 0124 7FE3FB78 		mr 3,31
 2422 0128 38800020 		li 4,32
 2423 012c 48000001 		bl WDVD_LowRead
 2424              	.LVL208:
 2425              		.loc 1 540 2 discriminator 1 view .LVU771
 2426 0130 2C030000 		cmpwi 0,3,0
 2427 0134 40820404 		bne- 0,.L246
 2428              		.loc 1 543 2 is_stmt 1 view .LVU772
 2429              		.loc 1 543 18 is_stmt 0 view .LVU773
 2430 0138 809F0014 		lwz 4,20(31)
 2431 013c 38A00000 		li 5,0
 2432 0140 813F0018 		lwz 9,24(31)
 2433 0144 38C02460 		li 6,9312
 2434 0148 3C608120 		lis 3,0x8120
 2435 014c 7C844A14 		add 4,4,9
 2436 0150 48000001 		bl WDVD_LowRead
 2437              	.LVL209:
 2438              		.loc 1 543 2 discriminator 1 view .LVU774
 2439 0154 2C030000 		cmpwi 0,3,0
 2440 0158 408203E0 		bne- 0,.L246
 2441              		.loc 1 545 2 is_stmt 1 view .LVU775
 2442 015c 91E1002C 		stw 15,44(1)
 2443              		.cfi_offset 15, -68
 2444              		.loc 1 545 19 is_stmt 0 view .LVU776
 2445 0160 3C608120 		lis 3,0x8120
 2446 0164 92010030 		stw 16,48(1)
 2447              		.cfi_offset 16, -64
 2448              	.LBB81:
 2449              	.LBB82:
 2450              	.LBB83:
 2451              	.LBB84:
 2452              		.loc 1 124 14 view .LVU777
 2453 0168 3DE02F68 		lis 15,0x2f68
 2454 016c 92210034 		stw 17,52(1)
 2455              		.cfi_offset 17, -60
 2456 0170 3E002F75 		lis 16,0x2f75
 2457 0174 92410038 		stw 18,56(1)
 2458              		.cfi_offset 18, -56
 2459 0178 3E400000 		lis 18,_ZL11app_address@ha
 2460 017c 9261003C 		stw 19,60(1)
 2461              		.cfi_offset 19, -52
 2462              	.LBE84:
 2463              	.LBE83:
 2464              	.LBB89:
 2465              	.LBB90:
 2466 0180 3E202F64 		lis 17,0x2f64
 2467 0184 92810040 		stw 20,64(1)
 2468              		.cfi_offset 20, -48
 2469              	.LBE90:
 2470              	.LBE89:
 2471              	.LBB95:
 2472              	.LBB96:
 2473 0188 3FA07C65 		lis 29,0x7c65
 2474 018c 92A10044 		stw 21,68(1)
 2475              		.cfi_offset 21, -44
 2476 0190 3E803880 		lis 20,0x3880
 2477 0194 92C10048 		stw 22,72(1)
 2478              		.cfi_offset 22, -40
 2479              	.LBE96:
 2480              	.LBE95:
 2481              		.loc 1 458 21 view .LVU778
 2482 0198 3E604E80 		lis 19,0x4e80
 2483 019c 92E1004C 		stw 23,76(1)
 2484              		.cfi_offset 23, -36
 2485              		.loc 1 474 17 view .LVU779
 2486 01a0 3EA00000 		lis 21,Disc@ha
 2487 01a4 93010050 		stw 24,80(1)
 2488              		.cfi_offset 24, -32
 2489              	.LBB101:
 2490              	.LBB102:
 2491              		.file 2 "C:/devkitPro/devkitPPC/powerpc-eabi/include/c++/13.1.0/bits/stl_vector.h"
 2492              		.loc 2 988 40 view .LVU780
 2493 01a8 3F000000 		lis 24,ToMount@ha
 2494 01ac 93210054 		stw 25,84(1)
 2495              		.cfi_offset 25, -28
 2496              	.LBE102:
 2497              	.LBE101:
 2498              	.LBB105:
 2499              	.LBB106:
 2500              		.loc 1 124 14 view .LVU781
 2501 01b0 3F203A40 		lis 25,0x3a40
 2502 01b4 93410058 		stw 26,88(1)
 2503              		.cfi_offset 26, -24
 2504              	.LBE106:
 2505              	.LBE105:
 2506              	.LBB113:
 2507              	.LBB91:
 2508 01b8 62316576 		ori 17,17,0x6576
 2509 01bc 9361005C 		stw 27,92(1)
 2510              		.cfi_offset 27, -20
 2511 01c0 3B720000 		la 27,_ZL11app_address@l(18)
 2512 01c4 93810060 		stw 28,96(1)
 2513              		.cfi_offset 28, -16
 2514              	.LBE91:
 2515              	.LBE113:
 2516              	.LBB114:
 2517              	.LBB107:
 2518              		.loc 1 124 14 view .LVU782
 2519 01c8 3F802800 		lis 28,0x2800
 2520              	.LBE107:
 2521              	.LBE114:
 2522              	.LBB115:
 2523              	.LBB85:
 2524 01cc 62107362 		ori 16,16,0x7362
 2525 01d0 61EF6964 		ori 15,15,0x6964
 2526              	.LBE85:
 2527              	.LBE115:
 2528              	.LBE82:
 2529              	.LBE81:
 2530              		.loc 1 545 19 view .LVU783
 2531 01d4 813F0018 		lwz 9,24(31)
 2532              	.LBB144:
 2533              	.LBB134:
 2534              	.LBB116:
 2535              	.LBB103:
 2536              		.loc 2 988 40 view .LVU784
 2537 01d8 3B180000 		la 24,ToMount@l(24)
 2538              	.LBE103:
 2539              	.LBE116:
 2540              	.LBE134:
 2541              	.LBE144:
 2542              		.loc 1 545 19 view .LVU785
 2543 01dc 809F0014 		lwz 4,20(31)
 2544              	.LBB145:
 2545              	.LBB135:
 2546              	.LBB117:
 2547              	.LBB108:
 2548              		.loc 1 124 14 view .LVU786
 2549 01e0 639C0021 		ori 28,28,0x21
 2550 01e4 6339FFE4 		ori 25,25,0xffe4
 2551              	.LBE108:
 2552              	.LBE117:
 2553              	.LBB118:
 2554              	.LBB97:
 2555 01e8 63BD1B78 		ori 29,29,0x1b78
 2556              	.LBE97:
 2557              	.LBE118:
 2558              	.LBE135:
 2559              	.LBE145:
 2560              		.loc 1 545 19 view .LVU787
 2561 01ec 7C844A14 		add 4,4,9
 2562              	.LBB146:
 2563              	.LBB136:
 2564              	.LBB119:
 2565              	.LBB98:
 2566              		.loc 1 124 14 view .LVU788
 2567 01f0 62940007 		ori 20,20,0x7
 2568              	.LBE98:
 2569              	.LBE119:
 2570              	.LBE136:
 2571              	.LBE146:
 2572              		.loc 1 545 19 view .LVU789
 2573 01f4 48000001 		bl ICInvalidateRange
 2574              	.LVL210:
 2575              		.loc 1 546 2 is_stmt 1 view .LVU790
 2576              		.loc 1 546 11 is_stmt 0 view .LVU791
 2577 01f8 813F0010 		lwz 9,16(31)
 2578 01fc 38A10010 		addi 5,1,16
 2579 0200 38810014 		addi 4,1,20
 2580 0204 7D2903A6 		mtctr 9
 2581 0208 38610018 		addi 3,1,24
 2582              	.LBB147:
 2583              	.LBB137:
 2584              		.loc 1 458 21 view .LVU792
 2585 020c 62730020 		ori 19,19,0x20
 2586              		.loc 1 474 17 view .LVU793
 2587 0210 3AB50000 		la 21,Disc@l(21)
 2588              		.loc 1 443 19 view .LVU794
 2589 0214 3BC0006F 		li 30,111
 2590              		.loc 1 447 20 view .LVU795
 2591 0218 3BE00030 		li 31,48
 2592              	.LBB120:
 2593              	.LBB99:
 2594              		.loc 1 124 14 view .LVU796
 2595 021c 3F403860 		lis 26,0x3860
 2596              	.LBE99:
 2597              	.LBE120:
 2598              	.LBB121:
 2599              	.LBB109:
 2600 0220 3AC00000 		li 22,0
 2601              	.LBE109:
 2602              	.LBE121:
 2603              	.LBE137:
 2604              	.LBE147:
 2605              		.loc 1 546 11 view .LVU797
 2606 0224 4E800421 		bctrl
 2607              	.LVL211:
 2608              		.loc 1 547 2 is_stmt 1 view .LVU798
 2609              		.loc 1 547 11 is_stmt 0 view .LVU799
 2610 0228 81210018 		lwz 9,24(1)
 2611 022c 3C600000 		lis 3,_ZL10nullprintfPKcz@ha
 2612              		.loc 1 555 20 view .LVU800
 2613 0230 3AE00000 		li 23,0
 2614              		.loc 1 547 11 view .LVU801
 2615 0234 7D2903A6 		mtctr 9
 2616 0238 38630000 		la 3,_ZL10nullprintfPKcz@l(3)
 2617 023c 4E800421 		bctrl
 2618              	.LVL212:
 2619              		.loc 1 549 19 is_stmt 1 view .LVU802
 2620 0240 81210014 		lwz 9,20(1)
 2621 0244 38A10008 		addi 5,1,8
 2622 0248 3881000C 		addi 4,1,12
 2623 024c 7D2903A6 		mtctr 9
 2624 0250 7F63DB78 		mr 3,27
 2625 0254 4E800421 		bctrl
 2626              	.LVL213:
 2627              		.loc 1 549 19 is_stmt 0 discriminator 1 view .LVU803
 2628 0258 7C6E1B79 		mr. 14,3
 2629 025c 418201F4 		beq- 0,.L307
 2630              	.L271:
 2631              		.loc 1 550 3 is_stmt 1 view .LVU804
 2632              		.loc 1 550 51 is_stmt 0 view .LVU805
 2633 0260 80C10008 		lwz 6,8(1)
 2634              		.loc 1 550 19 view .LVU806
 2635 0264 8081000C 		lwz 4,12(1)
 2636              		.loc 1 550 51 view .LVU807
 2637 0268 7CC9FE70 		srawi 9,6,31
 2638              		.loc 1 550 19 view .LVU808
 2639 026c 54C517BE 		srwi 5,6,30
 2640 0270 807B0000 		lwz 3,0(27)
 2641 0274 5125103A 		rlwimi 5,9,2,0,31-2
 2642 0278 54C6103A 		slwi 6,6,2
 2643 027c 48000001 		bl WDVD_LowRead
 2644              	.LVL214:
 2645              		.loc 1 550 3 discriminator 1 view .LVU809
 2646 0280 2C030000 		cmpwi 0,3,0
 2647 0284 4082027C 		bne- 0,.L306
 2648              		.loc 1 552 3 is_stmt 1 view .LVU810
 2649              		.loc 1 552 21 is_stmt 0 view .LVU811
 2650 0288 80A1000C 		lwz 5,12(1)
 2651              	.LVL215:
 2652              	.LBB148:
 2653              	.LBI81:
 2654              		.loc 1 437 20 is_stmt 1 view .LVU812
 2655              	.LBB138:
 2656              		.loc 1 439 2 view .LVU813
 2657              		.loc 1 442 2 view .LVU814
 2658              		.loc 1 442 30 is_stmt 0 view .LVU815
 2659 028c 809B0000 		lwz 4,0(27)
 2660              		.loc 1 442 16 is_stmt 1 view .LVU816
 2661              	.LVL216:
 2662              	.LBB122:
 2663              	.LBI89:
 2664              		.loc 1 121 14 view .LVU817
 2665              		.loc 1 123 2 view .LVU818
 2666              	.LBB92:
 2667              		.loc 1 123 20 discriminator 1 view .LVU819
 2668 0290 2C050007 		cmpwi 0,5,7
 2669 0294 3905FFF9 		addi 8,5,-7
 2670 0298 7D044214 		add 8,4,8
 2671 029c 40810048 		ble- 0,.L249
 2672              	.LVL217:
 2673              	.L248:
 2674              		.loc 1 123 20 is_stmt 0 discriminator 1 view .LVU820
 2675              	.LBE92:
 2676              	.LBE122:
 2677              	.LBE138:
 2678              	.LBE148:
 2679              		.loc 1 517 1 view .LVU821
 2680 02a0 7D444050 		subf 10,4,8
 2681 02a4 7C892378 		mr 9,4
 2682 02a8 7D4903A6 		mtctr 10
 2683 02ac 4800000C 		b .L253
 2684              	.LVL218:
 2685              	.L277:
 2686              	.LBB149:
 2687              	.LBB139:
 2688              	.LBB123:
 2689              	.LBB93:
 2690              		.loc 1 123 51 discriminator 2 view .LVU822
 2691 02b0 39290001 		addi 9,9,1
 2692              	.LVL219:
 2693              		.loc 1 123 20 is_stmt 1 discriminator 1 view .LVU823
 2694 02b4 42400030 		bdz .L249
 2695              	.LVL220:
 2696              	.L253:
 2697              		.loc 1 124 3 view .LVU824
 2698              		.loc 1 123 42 discriminator 2 view .LVU825
 2699              		.loc 1 124 14 is_stmt 0 view .LVU826
 2700 02b8 81490000 		lwz 10,0(9)
 2701 02bc 7C0A8800 		cmpw 0,10,17
 2702 02c0 4082FFF0 		bne+ 0,.L277
 2703 02c4 A1490004 		lhz 10,4(9)
 2704 02c8 2C0A2F64 		cmpwi 0,10,12132
 2705 02cc 4082FFE4 		bne+ 0,.L277
 2706 02d0 89490006 		lbz 10,6(9)
 2707 02d4 2C0A0069 		cmpwi 0,10,105
 2708 02d8 4082FFD8 		bne+ 0,.L277
 2709              	.LVL221:
 2710              		.loc 1 124 14 view .LVU827
 2711              	.LBE93:
 2712              	.LBE123:
 2713              		.loc 1 443 3 is_stmt 1 view .LVU828
 2714              		.loc 1 443 19 is_stmt 0 view .LVU829
 2715 02dc 9BC90006 		stb 30,6(9)
 2716              		.loc 1 442 16 is_stmt 1 view .LVU830
 2717              	.LVL222:
 2718              	.LBB124:
 2719              		.loc 1 121 14 view .LVU831
 2720              		.loc 1 123 2 view .LVU832
 2721              	.LBB94:
 2722              		.loc 1 123 20 discriminator 1 view .LVU833
 2723 02e0 4BFFFFC0 		b .L248
 2724              	.LVL223:
 2725              	.L249:
 2726              		.loc 1 123 20 is_stmt 0 discriminator 1 view .LVU834
 2727              	.LBE94:
 2728              	.LBE124:
 2729              		.loc 1 446 16 is_stmt 1 view .LVU835
 2730              	.LBB125:
 2731              	.LBI83:
 2732              		.loc 1 121 14 view .LVU836
 2733              		.loc 1 123 2 view .LVU837
 2734              	.LBB86:
 2735              		.loc 1 123 20 discriminator 1 view .LVU838
 2736 02e4 2C05000C 		cmpwi 0,5,12
 2737 02e8 3905FFF4 		addi 8,5,-12
 2738 02ec 7D044214 		add 8,4,8
 2739 02f0 40810270 		ble- 0,.L308
 2740              	.LVL224:
 2741              	.L254:
 2742              		.loc 1 123 20 is_stmt 0 discriminator 1 view .LVU839
 2743              	.LBE86:
 2744              	.LBE125:
 2745              	.LBE139:
 2746              	.LBE149:
 2747              		.loc 1 517 1 view .LVU840
 2748 02f4 7D444050 		subf 10,4,8
 2749 02f8 7C892378 		mr 9,4
 2750 02fc 7D4903A6 		mtctr 10
 2751 0300 4800000C 		b .L259
 2752              	.LVL225:
 2753              	.L278:
 2754              	.LBB150:
 2755              	.LBB140:
 2756              	.LBB126:
 2757              	.LBB87:
 2758              		.loc 1 123 51 discriminator 2 view .LVU841
 2759 0304 39290001 		addi 9,9,1
 2760              	.LVL226:
 2761              		.loc 1 123 20 is_stmt 1 discriminator 1 view .LVU842
 2762 0308 42400030 		bdz .L309
 2763              	.LVL227:
 2764              	.L259:
 2765              		.loc 1 124 3 view .LVU843
 2766              		.loc 1 123 42 discriminator 2 view .LVU844
 2767              		.loc 1 124 14 is_stmt 0 view .LVU845
 2768 030c 81490000 		lwz 10,0(9)
 2769 0310 7C0A8800 		cmpw 0,10,17
 2770 0314 4082FFF0 		bne+ 0,.L278
 2771 0318 81490004 		lwz 10,4(9)
 2772 031c 7C0A8000 		cmpw 0,10,16
 2773 0320 4082FFE4 		bne+ 0,.L278
 2774 0324 81490008 		lwz 10,8(9)
 2775 0328 7C0A7800 		cmpw 0,10,15
 2776 032c 4082FFD8 		bne+ 0,.L278
 2777              	.LVL228:
 2778              		.loc 1 124 14 view .LVU846
 2779              	.LBE87:
 2780              	.LBE126:
 2781              		.loc 1 447 3 is_stmt 1 view .LVU847
 2782              		.loc 1 447 20 is_stmt 0 view .LVU848
 2783 0330 9BE9000B 		stb 31,11(9)
 2784              	.LVL229:
 2785              		.loc 1 446 16 is_stmt 1 view .LVU849
 2786              	.LBB127:
 2787              		.loc 1 121 14 view .LVU850
 2788              		.loc 1 123 2 view .LVU851
 2789              	.LBB88:
 2790              		.loc 1 123 20 discriminator 1 view .LVU852
 2791 0334 4BFFFFC0 		b .L254
 2792              	.LVL230:
 2793              	.L309:
 2794              		.loc 1 123 20 is_stmt 0 discriminator 1 view .LVU853
 2795              	.LBE88:
 2796              	.LBE127:
 2797              		.loc 1 453 2 is_stmt 1 view .LVU854
 2798              	.LBB128:
 2799              	.LBI101:
 2800              		.loc 2 987 7 view .LVU855
 2801              		.loc 2 987 7 is_stmt 0 view .LVU856
 2802              	.LBE128:
 2803              		.loc 1 453 2 discriminator 1 view .LVU857
 2804 0338 81580004 		lwz 10,4(24)
 2805 033c 81380000 		lwz 9,0(24)
 2806 0340 7C0A4800 		cmpw 0,10,9
 2807 0344 418200CC 		beq- 0,.L272
 2808              	.L274:
 2809              	.LVL231:
 2810              		.loc 1 453 2 discriminator 1 view .LVU858
 2811 0348 3905FFF8 		addi 8,5,-8
 2812              	.LBE140:
 2813              	.LBE150:
 2814              		.loc 1 517 1 view .LVU859
 2815 034c 7C892378 		mr 9,4
 2816 0350 7D0A4378 		mr 10,8
 2817 0354 7D044214 		add 8,4,8
 2818 0358 71470001 		andi. 7,10,0x1
 2819 035c 4182001C 		beq- 0,.L289
 2820              	.LVL232:
 2821              	.LBB151:
 2822              	.LBB141:
 2823              	.LBB129:
 2824              	.LBB110:
 2825              		.loc 1 124 3 is_stmt 1 view .LVU860
 2826              		.loc 1 124 14 is_stmt 0 view .LVU861
 2827 0360 80E40000 		lwz 7,0(4)
 2828 0364 7C07E000 		cmpw 0,7,28
 2829 0368 41820188 		beq- 0,.L310
 2830              	.L287:
 2831              		.loc 1 123 42 is_stmt 1 discriminator 2 view .LVU862
 2832              	.LVL233:
 2833              		.loc 1 123 51 is_stmt 0 discriminator 2 view .LVU863
 2834 036c 39240001 		addi 9,4,1
 2835              	.LVL234:
 2836              		.loc 1 123 20 is_stmt 1 discriminator 1 view .LVU864
 2837 0370 7C094040 		cmplw 0,9,8
 2838 0374 41820048 		beq- 0,.L273
 2839              	.LVL235:
 2840              	.L289:
 2841              		.loc 1 123 20 is_stmt 0 discriminator 1 view .LVU865
 2842 0378 554AF87E 		srwi 10,10,1
 2843 037c 7D4903A6 		mtctr 10
 2844 0380 48000020 		b .L266
 2845              	.LVL236:
 2846              	.L279:
 2847              		.loc 1 124 14 view .LVU866
 2848 0384 81490001 		lwz 10,1(9)
 2849              		.loc 1 123 51 discriminator 2 view .LVU867
 2850 0388 39290001 		addi 9,9,1
 2851              	.LVL237:
 2852              		.loc 1 123 51 discriminator 2 view .LVU868
 2853 038c 7D284B78 		mr 8,9
 2854              	.LVL238:
 2855              		.loc 1 123 20 is_stmt 1 discriminator 1 view .LVU869
 2856              		.loc 1 124 3 view .LVU870
 2857              		.loc 1 124 14 is_stmt 0 view .LVU871
 2858 0390 7C0AE000 		cmpw 0,10,28
 2859 0394 4182014C 		beq- 0,.L311
 2860              	.L290:
 2861              		.loc 1 123 42 is_stmt 1 discriminator 2 view .LVU872
 2862              	.LVL239:
 2863              		.loc 1 123 51 is_stmt 0 discriminator 2 view .LVU873
 2864 0398 39280001 		addi 9,8,1
 2865              	.LVL240:
 2866              		.loc 1 123 20 is_stmt 1 discriminator 1 view .LVU874
 2867 039c 42400020 		bdz .L273
 2868              	.LVL241:
 2869              	.L266:
 2870              		.loc 1 124 3 view .LVU875
 2871              		.loc 1 123 42 discriminator 2 view .LVU876
 2872              		.loc 1 124 14 is_stmt 0 view .LVU877
 2873 03a0 81490000 		lwz 10,0(9)
 2874 03a4 7C0AE000 		cmpw 0,10,28
 2875 03a8 4082FFDC 		bne+ 0,.L279
 2876 03ac 81490004 		lwz 10,4(9)
 2877 03b0 7C0AC800 		cmpw 0,10,25
 2878 03b4 4082FFD0 		bne+ 0,.L279
 2879              	.LVL242:
 2880              	.L300:
 2881              		.loc 1 124 14 view .LVU878
 2882              	.LBE110:
 2883              	.LBE129:
 2884              		.loc 1 455 4 is_stmt 1 view .LVU879
 2885              		.loc 1 455 21 is_stmt 0 view .LVU880
 2886 03b8 B2C90006 		sth 22,6(9)
 2887              	.LVL243:
 2888              	.L273:
 2889              		.loc 1 457 3 is_stmt 1 view .LVU881
 2890              	.LBB130:
 2891              	.LBI95:
 2892              		.loc 1 121 14 view .LVU882
 2893              		.loc 1 123 2 view .LVU883
 2894              	.LBB100:
 2895              		.loc 1 123 20 discriminator 1 view .LVU884
 2896 03bc 2C05000E 		cmpwi 0,5,14
 2897 03c0 40810050 		ble- 0,.L272
 2898              		.loc 1 124 14 is_stmt 0 view .LVU885
 2899 03c4 3945FFF2 		addi 10,5,-14
 2900              		.loc 1 123 20 discriminator 1 view .LVU886
 2901 03c8 7C892378 		mr 9,4
 2902              		.loc 1 124 14 view .LVU887
 2903 03cc 7D4903A6 		mtctr 10
 2904 03d0 4800000C 		b .L270
 2905              	.LVL244:
 2906              	.L280:
 2907              		.loc 1 123 51 discriminator 2 view .LVU888
 2908 03d4 39290001 		addi 9,9,1
 2909              	.LVL245:
 2910              		.loc 1 123 20 is_stmt 1 discriminator 1 view .LVU889
 2911 03d8 42400038 		bdz .L272
 2912              	.LVL246:
 2913              	.L270:
 2914              		.loc 1 124 3 view .LVU890
 2915              		.loc 1 123 42 discriminator 2 view .LVU891
 2916              		.loc 1 124 14 is_stmt 0 view .LVU892
 2917 03dc 81490000 		lwz 10,0(9)
 2918 03e0 7C0AE800 		cmpw 0,10,29
 2919 03e4 4082FFF0 		bne+ 0,.L280
 2920 03e8 81490004 		lwz 10,4(9)
 2921 03ec 7C0AD000 		cmpw 0,10,26
 2922 03f0 4082FFE4 		bne+ 0,.L280
 2923 03f4 81490008 		lwz 10,8(9)
 2924 03f8 7C0AA000 		cmpw 0,10,20
 2925 03fc 4082FFD8 		bne+ 0,.L280
 2926 0400 A149000C 		lhz 10,12(9)
 2927 0404 2C0A4800 		cmpwi 0,10,18432
 2928 0408 4082FFCC 		bne+ 0,.L280
 2929              	.LVL247:
 2930              		.loc 1 124 14 view .LVU893
 2931              	.LBE100:
 2932              	.LBE130:
 2933              		.loc 1 458 4 is_stmt 1 view .LVU894
 2934              		.loc 1 458 21 is_stmt 0 view .LVU895
 2935 040c 9269000C 		stw 19,12(9)
 2936              	.LVL248:
 2937              	.L272:
 2938              		.loc 1 474 2 is_stmt 1 view .LVU896
 2939              		.loc 1 474 17 is_stmt 0 view .LVU897
 2940 0410 7EA3AB78 		mr 3,21
 2941 0414 48000001 		bl _Z15RVL_PatchMemoryP7RiiDiscPvj
 2942              	.LVL249:
 2943              		.loc 1 474 17 view .LVU898
 2944              	.LBE141:
 2945              	.LBE151:
 2946              		.loc 1 553 3 is_stmt 1 view .LVU899
 2947              		.loc 1 553 15 is_stmt 0 view .LVU900
 2948 0418 8081000C 		lwz 4,12(1)
 2949 041c 807B0000 		lwz 3,0(27)
 2950 0420 48000001 		bl DCFlushRange
 2951              	.LVL250:
 2952              		.loc 1 554 3 is_stmt 1 view .LVU901
 2953              		.loc 1 549 19 is_stmt 0 view .LVU902
 2954 0424 81210014 		lwz 9,20(1)
 2955              		.loc 1 554 15 view .LVU903
 2956 0428 92DB0000 		stw 22,0(27)
 2957              		.loc 1 555 3 is_stmt 1 view .LVU904
 2958              		.loc 1 549 19 is_stmt 0 view .LVU905
 2959 042c 38A10008 		addi 5,1,8
 2960              		.loc 1 555 20 view .LVU906
 2961 0430 92E1000C 		stw 23,12(1)
 2962              		.loc 1 556 3 is_stmt 1 view .LVU907
 2963              		.loc 1 549 19 is_stmt 0 view .LVU908
 2964 0434 7D2903A6 		mtctr 9
 2965              		.loc 1 556 19 view .LVU909
 2966 0438 92E10008 		stw 23,8(1)
 2967              		.loc 1 549 19 is_stmt 1 view .LVU910
 2968 043c 3881000C 		addi 4,1,12
 2969 0440 7F63DB78 		mr 3,27
 2970 0444 4E800421 		bctrl
 2971              	.LVL251:
 2972              		.loc 1 549 19 is_stmt 0 discriminator 1 view .LVU911
 2973 0448 7C6E1B79 		mr. 14,3
 2974 044c 4082FE14 		bne+ 0,.L271
 2975              	.L307:
 2976              		.loc 1 567 2 is_stmt 1 view .LVU912
 2977              		.loc 1 567 8 is_stmt 0 view .LVU913
 2978 0450 3D208000 		lis 9,0x8000
 2979 0454 3D408000 		lis 10,0x8000
 2980 0458 61293140 		ori 9,9,0x3140
 2981 045c 614A3188 		ori 10,10,0x3188
 2982 0460 81090000 		lwz 8,0(9)
 2983              		.loc 1 569 20 view .LVU914
 2984 0464 3D20CD00 		lis 9,0xcd00
 2985 0468 61296C00 		ori 9,9,0x6c00
 2986              		.loc 1 567 8 view .LVU915
 2987 046c 910A0000 		stw 8,0(10)
 2988              		.loc 1 569 2 is_stmt 1 view .LVU916
 2989              		.loc 1 569 20 is_stmt 0 view .LVU917
 2990 0470 91C90000 		stw 14,0(9)
 2991              		.loc 1 571 2 is_stmt 1 view .LVU918
 2992              		.loc 1 571 24 is_stmt 0 view .LVU919
 2993 0474 81210010 		lwz 9,16(1)
 2994 0478 7D2903A6 		mtctr 9
 2995 047c 4E800421 		bctrl
 2996              	.LVL252:
 2997              		.loc 1 574 1 view .LVU920
 2998 0480 80010074 		lwz 0,116(1)
 2999              		.loc 1 571 14 discriminator 1 view .LVU921
 3000 0484 90720000 		stw 3,_ZL11app_address@l(18)
 3001              		.loc 1 573 2 is_stmt 1 view .LVU922
 3002              		.loc 1 574 1 is_stmt 0 view .LVU923
 3003 0488 7DC37378 		mr 3,14
 3004              		.loc 1 573 25 view .LVU924
 3005 048c 81E1002C 		lwz 15,44(1)
 3006              		.cfi_remember_state
 3007              		.cfi_restore 15
 3008              		.loc 1 574 1 view .LVU925
 3009 0490 7C0803A6 		mtlr 0
 3010              		.cfi_restore 65
 3011              		.loc 1 573 25 view .LVU926
 3012 0494 82010030 		lwz 16,48(1)
 3013              		.cfi_restore 16
 3014 0498 82210034 		lwz 17,52(1)
 3015              		.cfi_restore 17
 3016 049c 82410038 		lwz 18,56(1)
 3017              		.cfi_restore 18
 3018 04a0 8261003C 		lwz 19,60(1)
 3019              		.cfi_restore 19
 3020 04a4 82810040 		lwz 20,64(1)
 3021              		.cfi_restore 20
 3022 04a8 82A10044 		lwz 21,68(1)
 3023              		.cfi_restore 21
 3024 04ac 82C10048 		lwz 22,72(1)
 3025              		.cfi_restore 22
 3026 04b0 82E1004C 		lwz 23,76(1)
 3027              		.cfi_restore 23
 3028 04b4 83010050 		lwz 24,80(1)
 3029              		.cfi_restore 24
 3030 04b8 83210054 		lwz 25,84(1)
 3031              		.cfi_restore 25
 3032 04bc 83410058 		lwz 26,88(1)
 3033              		.cfi_restore 26
 3034 04c0 8361005C 		lwz 27,92(1)
 3035              		.cfi_restore 27
 3036 04c4 83810060 		lwz 28,96(1)
 3037              		.cfi_restore 28
 3038              		.loc 1 574 1 view .LVU927
 3039 04c8 81C10028 		lwz 14,40(1)
 3040 04cc 83A10064 		lwz 29,100(1)
 3041 04d0 83C10068 		lwz 30,104(1)
 3042 04d4 83E1006C 		lwz 31,108(1)
 3043 04d8 38210070 		addi 1,1,112
 3044              		.cfi_restore 31
 3045              		.cfi_restore 30
 3046              		.cfi_restore 29
 3047              		.cfi_restore 14
 3048              		.cfi_def_cfa_offset 0
 3049 04dc 4E800020 		blr
 3050              	.LVL253:
 3051              	.L311:
 3052              		.cfi_restore_state
 3053              	.LBB152:
 3054              	.LBB142:
 3055              	.LBB131:
 3056              	.LBB111:
 3057              		.loc 1 124 14 view .LVU928
 3058 04e0 81490004 		lwz 10,4(9)
 3059 04e4 7C0AC800 		cmpw 0,10,25
 3060 04e8 4082FEB0 		bne+ 0,.L290
 3061 04ec 4BFFFECC 		b .L300
 3062              	.LVL254:
 3063              	.L310:
 3064              		.loc 1 124 14 view .LVU929
 3065 04f0 80E40004 		lwz 7,4(4)
 3066 04f4 7C07C800 		cmpw 0,7,25
 3067 04f8 4082FE74 		bne+ 0,.L287
 3068 04fc 4BFFFEBC 		b .L300
 3069              	.LVL255:
 3070              	.L306:
 3071              		.loc 1 124 14 view .LVU930
 3072 0500 81E1002C 		lwz 15,44(1)
 3073              		.cfi_restore 15
 3074 0504 82010030 		lwz 16,48(1)
 3075              		.cfi_restore 16
 3076 0508 82210034 		lwz 17,52(1)
 3077              		.cfi_restore 17
 3078 050c 82410038 		lwz 18,56(1)
 3079              		.cfi_restore 18
 3080 0510 8261003C 		lwz 19,60(1)
 3081              		.cfi_restore 19
 3082 0514 82810040 		lwz 20,64(1)
 3083              		.cfi_restore 20
 3084 0518 82A10044 		lwz 21,68(1)
 3085              		.cfi_restore 21
 3086 051c 82C10048 		lwz 22,72(1)
 3087              		.cfi_restore 22
 3088 0520 82E1004C 		lwz 23,76(1)
 3089              		.cfi_restore 23
 3090 0524 83010050 		lwz 24,80(1)
 3091              		.cfi_restore 24
 3092 0528 83210054 		lwz 25,84(1)
 3093              		.cfi_restore 25
 3094 052c 83410058 		lwz 26,88(1)
 3095              		.cfi_restore 26
 3096 0530 8361005C 		lwz 27,92(1)
 3097              		.cfi_restore 27
 3098 0534 83810060 		lwz 28,96(1)
 3099              		.cfi_restore 28
 3100              	.L246:
 3101              	.LBE111:
 3102              	.LBE131:
 3103              	.LBE142:
 3104              	.LBE152:
 3105              		.loc 1 574 1 view .LVU931
 3106 0538 80010074 		lwz 0,116(1)
 3107              		.loc 1 541 26 view .LVU932
 3108 053c 39C0FDFF 		li 14,-513
 3109              		.loc 1 574 1 view .LVU933
 3110 0540 7DC37378 		mr 3,14
 3111 0544 83A10064 		lwz 29,100(1)
 3112 0548 81C10028 		lwz 14,40(1)
 3113 054c 7C0803A6 		mtlr 0
 3114              		.cfi_restore 65
 3115 0550 83C10068 		lwz 30,104(1)
 3116 0554 83E1006C 		lwz 31,108(1)
 3117 0558 38210070 		addi 1,1,112
 3118              		.cfi_restore 31
 3119              		.cfi_restore 30
 3120              		.cfi_restore 29
 3121              		.cfi_restore 14
 3122              		.cfi_def_cfa_offset 0
 3123 055c 4E800020 		blr
 3124              	.LVL256:
 3125              	.L308:
 3126              		.cfi_def_cfa_offset 112
 3127              		.cfi_offset 14, -72
 3128              		.cfi_offset 15, -68
 3129              		.cfi_offset 16, -64
 3130              		.cfi_offset 17, -60
 3131              		.cfi_offset 18, -56
 3132              		.cfi_offset 19, -52
 3133              		.cfi_offset 20, -48
 3134              		.cfi_offset 21, -44
 3135              		.cfi_offset 22, -40
 3136              		.cfi_offset 23, -36
 3137              		.cfi_offset 24, -32
 3138              		.cfi_offset 25, -28
 3139              		.cfi_offset 26, -24
 3140              		.cfi_offset 27, -20
 3141              		.cfi_offset 28, -16
 3142              		.cfi_offset 29, -12
 3143              		.cfi_offset 30, -8
 3144              		.cfi_offset 31, -4
 3145              		.cfi_offset 65, 4
 3146              	.LBB153:
 3147              	.LBB143:
 3148              		.loc 1 453 2 is_stmt 1 view .LVU934
 3149              	.LBB132:
 3150              		.loc 2 987 7 view .LVU935
 3151              	.LBB104:
 3152              		.loc 2 988 40 is_stmt 0 view .LVU936
 3153 0560 3D200000 		lis 9,ToMount@ha
 3154 0564 39490000 		la 10,ToMount@l(9)
 3155              	.LBE104:
 3156              	.LBE132:
 3157              		.loc 1 453 2 discriminator 1 view .LVU937
 3158 0568 81290000 		lwz 9,ToMount@l(9)
 3159 056c 814A0004 		lwz 10,4(10)
 3160 0570 7C0A4800 		cmpw 0,10,9
 3161 0574 41A2FE9C 		beq- 0,.L272
 3162              	.LVL257:
 3163              	.LBB133:
 3164              	.LBB112:
 3165              		.loc 1 123 20 is_stmt 1 discriminator 1 view .LVU938
 3166 0578 2C050008 		cmpwi 0,5,8
 3167 057c 4081FE94 		ble+ 0,.L272
 3168 0580 4BFFFDC8 		b .L274
 3169              	.LBE112:
 3170              	.LBE133:
 3171              	.LBE143:
 3172              	.LBE153:
 3173              		.cfi_endproc
 3174              	.LFE2382:
 3175              		.size	_Z21Launcher_RunApploaderv, .-_Z21Launcher_RunApploaderv
 3176              		.section	.text._Z15Launcher_Launchv,"ax",@progbits
 3177              		.align 2
 3178              		.globl _Z15Launcher_Launchv
 3179              		.type	_Z15Launcher_Launchv, @function
 3180              	_Z15Launcher_Launchv:
 3181              	.LFB2383:
 3182              		.loc 1 577 1 view -0
 3183              		.cfi_startproc
 3184              		.loc 1 581 2 view .LVU940
 3185              		.loc 1 577 1 is_stmt 0 view .LVU941
 3186 0000 9421FFF0 		stwu 1,-16(1)
 3187              		.cfi_def_cfa_offset 16
 3188 0004 7C0802A6 		mflr 0
 3189 0008 93E1000C 		stw 31,12(1)
 3190              		.cfi_register 65, 0
 3191              		.cfi_offset 31, -4
 3192              		.loc 1 581 6 view .LVU942
 3193 000c 3FE00000 		lis 31,_ZL11app_address@ha
 3194              		.loc 1 581 2 view .LVU943
 3195 0010 813F0000 		lwz 9,_ZL11app_address@l(31)
 3196              		.loc 1 577 1 view .LVU944
 3197 0014 90010014 		stw 0,20(1)
 3198              		.cfi_offset 65, 4
 3199              		.loc 1 581 2 view .LVU945
 3200 0018 2C090000 		cmpwi 0,9,0
 3201 001c 41820060 		beq- 0,.L313
 3202              		.loc 1 582 3 is_stmt 1 view .LVU946
 3203              		.loc 1 582 12 is_stmt 0 view .LVU947
 3204 0020 48000001 		bl _Z9RVL_Closev
 3205              	.LVL258:
 3206              		.loc 1 583 3 is_stmt 1 view .LVU948
 3207              		.loc 1 583 20 is_stmt 0 view .LVU949
 3208 0024 48000001 		bl ISFS_Deinitialize
 3209              	.LVL259:
 3210              		.loc 1 584 3 is_stmt 1 view .LVU950
 3211              		.loc 1 584 16 is_stmt 0 view .LVU951
 3212 0028 48000001 		bl WPAD_Shutdown
 3213              	.LVL260:
 3214              		.loc 1 585 3 is_stmt 1 view .LVU952
 3215              		.loc 1 585 19 is_stmt 0 view .LVU953
 3216 002c 48000001 		bl USB_Deinitialize
 3217              	.LVL261:
 3218              		.loc 1 586 3 is_stmt 1 view .LVU954
 3219              		.loc 1 586 13 is_stmt 0 view .LVU955
 3220 0030 48000001 		bl WDVD_Close
 3221              	.LVL262:
 3222              		.loc 1 587 3 is_stmt 1 view .LVU956
 3223              		.loc 1 587 13 is_stmt 0 view .LVU957
 3224 0034 48000001 		bl __ES_Close
 3225              	.LVL263:
 3226              		.loc 1 588 3 is_stmt 1 view .LVU958
 3227              		.loc 1 588 19 is_stmt 0 view .LVU959
 3228 0038 38C00003 		li 6,3
 3229 003c 38A00000 		li 5,0
 3230 0040 38800000 		li 4,0
 3231 0044 38600003 		li 3,3
 3232 0048 48000001 		bl SYS_ProtectRange
 3233              	.LVL264:
 3234              		.loc 1 589 3 is_stmt 1 view .LVU960
 3235              		.loc 1 589 12 is_stmt 0 view .LVU961
 3236 004c 3C600800 		lis 3,0x800
 3237 0050 48000001 		bl __MaskIrq
 3238              	.LVL265:
 3239              		.loc 1 590 3 is_stmt 1 view .LVU962
 3240              		.loc 1 590 21 is_stmt 0 view .LVU963
 3241 0054 3C800180 		lis 4,0x180
 3242 0058 3C608000 		lis 3,0x8000
 3243 005c 48000001 		bl DCFlushRangeNoSync
 3244              	.LVL266:
 3245              		.loc 1 591 3 is_stmt 1 view .LVU964
 3246              		.loc 1 591 20 is_stmt 0 view .LVU965
 3247 0060 48000001 		bl ICFlashInvalidate
 3248              	.LVL267:
 3249              		.loc 1 593 3 is_stmt 1 view .LVU966
 3250              		.loc 1 593 18 is_stmt 0 view .LVU967
 3251 0064 38600002 		li 3,2
 3252 0068 38A00000 		li 5,0
 3253 006c 38800000 		li 4,0
 3254 0070 48000001 		bl SYS_ResetSystem
 3255              	.LVL268:
 3256              		.loc 1 594 3 is_stmt 1 view .LVU968
 3257              		.loc 1 594 32 is_stmt 0 view .LVU969
 3258 0074 807F0000 		lwz 3,_ZL11app_address@l(31)
 3259 0078 48000001 		bl __lwp_thread_stopmultitasking
 3260              	.LVL269:
 3261              	.L313:
 3262              		.loc 1 598 2 is_stmt 1 view .LVU970
 3263              		.loc 1 598 16 is_stmt 0 view .LVU971
 3264 007c 38600000 		li 3,0
 3265 0080 48000001 		bl VIDEO_SetBlack
 3266              	.LVL270:
 3267              		.loc 1 599 2 is_stmt 1 view .LVU972
 3268              		.loc 1 599 13 is_stmt 0 view .LVU973
 3269 0084 48000001 		bl VIDEO_Flush
 3270              	.LVL271:
 3271              		.loc 1 600 2 is_stmt 1 view .LVU974
 3272              		.loc 1 600 17 is_stmt 0 view .LVU975
 3273 0088 48000001 		bl VIDEO_WaitVSync
 3274              	.LVL272:
 3275              		.loc 1 600 21 is_stmt 1 discriminator 1 view .LVU976
 3276              		.loc 1 600 36 is_stmt 0 discriminator 1 view .LVU977
 3277 008c 48000001 		bl VIDEO_WaitVSync
 3278              	.LVL273:
 3279              		.loc 1 601 2 is_stmt 1 view .LVU978
 3280              		.loc 1 602 1 is_stmt 0 view .LVU979
 3281 0090 80010014 		lwz 0,20(1)
 3282 0094 83E1000C 		lwz 31,12(1)
 3283 0098 3860FDFF 		li 3,-513
 3284 009c 7C0803A6 		mtlr 0
 3285              		.cfi_restore 65
 3286 00a0 38210010 		addi 1,1,16
 3287              		.cfi_restore 31
 3288              		.cfi_def_cfa_offset 0
 3289 00a4 4E800020 		blr
 3290              		.cfi_endproc
 3291              	.LFE2383:
 3292              		.size	_Z15Launcher_Launchv, .-_Z15Launcher_Launchv
 3293              		.section	.bss._ZZ27Launcher_ScrubPlaytimeEntryvE4zero,"aw",@nobits
 3294              		.align 5
 3295              		.type	_ZZ27Launcher_ScrubPlaytimeEntryvE4zero, @object
 3296              		.size	_ZZ27Launcher_ScrubPlaytimeEntryvE4zero, 4
 3297              	_ZZ27Launcher_ScrubPlaytimeEntryvE4zero:
 3298 0000 00000000 		.zero	4
 3299              		.section	.bss._ZZ25Launcher_AddPlaytimeEntryvE12playtime_buf,"aw",@nobits
 3300              		.align 5
 3301              		.type	_ZZ25Launcher_AddPlaytimeEntryvE12playtime_buf, @object
 3302              		.size	_ZZ25Launcher_AddPlaytimeEntryvE12playtime_buf, 128
 3303              	_ZZ25Launcher_AddPlaytimeEntryvE12playtime_buf:
 3304 0000 00000000 		.zero	128
 3304      00000000 
 3304      00000000 
 3304      00000000 
 3304      00000000 
 3305              		.section	.bss._ZZ17Launcher_ReadDiscvE6sector,"aw",@nobits
 3306              		.align 5
 3307              		.type	_ZZ17Launcher_ReadDiscvE6sector, @object
 3308              		.size	_ZZ17Launcher_ReadDiscvE6sector, 3072
 3309              	_ZZ17Launcher_ReadDiscvE6sector:
 3310 0000 00000000 		.zero	3072
 3310      00000000 
 3310      00000000 
 3310      00000000 
 3310      00000000 
 3311              		.section	.bss._ZZ20Launcher_GetGameNamevE8gamename,"aw",@nobits
 3312              		.align 2
 3313              		.type	_ZZ20Launcher_GetGameNamevE8gamename, @object
 3314              		.size	_ZZ20Launcher_GetGameNamevE8gamename, 42
 3315              	_ZZ20Launcher_GetGameNamevE8gamename:
 3316 0000 00000000 		.zero	42
 3316      00000000 
 3316      00000000 
 3316      00000000 
 3316      00000000 
 3317              		.section	.bss._ZZ24Launcher_GetGameNameWidevE4imet,"aw",@nobits
 3318              		.align 5
 3319              		.type	_ZZ24Launcher_GetGameNameWidevE4imet, @object
 3320              		.size	_ZZ24Launcher_GetGameNameWidevE4imet, 1536
 3321              	_ZZ24Launcher_GetGameNameWidevE4imet:
 3322 0000 00000000 		.zero	1536
 3322      00000000 
 3322      00000000 
 3322      00000000 
 3322      00000000 
 3323              		.section	.bss._ZL14partition_info,"aw",@nobits
 3324              		.align 5
 3325              		.type	_ZL14partition_info, @object
 3326              		.size	_ZL14partition_info, 96
 3327              	_ZL14partition_info:
 3328 0000 00000000 		.zero	96
 3328      00000000 
 3328      00000000 
 3328      00000000 
 3328      00000000 
 3329              		.section	.bss._ZL11app_address,"aw",@nobits
 3330              		.align 2
 3331              		.type	_ZL11app_address, @object
 3332              		.size	_ZL11app_address, 4
 3333              	_ZL11app_address:
 3334 0000 00000000 		.zero	4
 3335              		.section	.bss._ZL7fstdata,"aw",@nobits
 3336              		.align 5
 3337              		.type	_ZL7fstdata, @object
 3338              		.size	_ZL7fstdata, 256
 3339              	_ZL7fstdata:
 3340 0000 00000000 		.zero	256
 3340      00000000 
 3340      00000000 
 3340      00000000 
 3340      00000000 
 3341              		.globl disk_subsequent_reset
 3342              		.section	.sbss.disk_subsequent_reset,"aw",@nobits
 3343              		.type	disk_subsequent_reset, @object
 3344              		.size	disk_subsequent_reset, 1
 3345              	disk_subsequent_reset:
 3346 0000 00       		.zero	1
 3347              		.section	.bss._ZL10BannerName,"aw",@nobits
 3348              		.align 2
 3349              		.type	_ZL10BannerName, @object
 3350              		.size	_ZL10BannerName, 86
 3351              	_ZL10BannerName:
 3352 0000 00000000 		.zero	86
 3352      00000000 
 3352      00000000 
 3352      00000000 
 3352      00000000 
 3353              		.section	.bss._ZL8GameName,"aw",@nobits
 3354              		.align 5
 3355              		.type	_ZL8GameName, @object
 3356              		.size	_ZL8GameName, 64
 3357              	_ZL8GameName:
 3358 0000 00000000 		.zero	64
 3358      00000000 
 3358      00000000 
 3358      00000000 
 3358      00000000 
 3359              		.section	.rodata._ZL23NWC24iCleanupSocketCode,"a"
 3360              		.align 2
 3361              		.type	_ZL23NWC24iCleanupSocketCode, @object
 3362              		.size	_ZL23NWC24iCleanupSocketCode, 14
 3363              	_ZL23NWC24iCleanupSocketCode:
 3364 0000 7C65     		.short	31845
 3365 0002 1B78     		.short	7032
 3366 0004 3860     		.short	14432
 3367 0006 0000     		.short	0
 3368 0008 3880     		.short	14464
 3369 000a 0007     		.short	7
 3370 000c 4800     		.short	18432
 3371              		.section	.rodata._ZL13SOStartupCode,"a"
 3372              		.align 2
 3373              		.type	_ZL13SOStartupCode, @object
 3374              		.size	_ZL13SOStartupCode, 8
 3375              	_ZL13SOStartupCode:
 3376 0000 28000021 		.long	671088673
 3377 0004 3A40FFE4 		.long	977338340
 3378              		.section	".text"
 3379              	.Letext0:
 3380              		.file 3 "C:/devkitPro/devkitPPC/powerpc-eabi/include/machine/_default_types.h"
 3381              		.file 4 "C:/devkitPro/devkitPPC/powerpc-eabi/include/sys/_stdint.h"
 3382              		.file 5 "C:/devkitPro/libogc/include/gctypes.h"
 3383              		.file 6 "C:/devkitPro/libogc/include/ogc/gx_struct.h"
 3384              		.file 7 "C:/devkitPro/libogc/include/ogc/gx.h"
 3385              		.file 8 "C:/devkitPro/devkitPPC/lib/gcc/powerpc-eabi/13.1.0/include/stddef.h"
 3386              		.file 9 "C:/devkitPro/devkitPPC/powerpc-eabi/include/sys/_timeval.h"
 3387              		.file 10 "F:/GameModding/MarioKartWii/Mods/Distro/RetroRewind6/dev/Launcher/RRLauncher/launcher/in
 3388              		.file 11 "C:/devkitPro/libogc/include/ogc/video_types.h"
 3389              		.file 12 "C:/devkitPro/libogc/include/ogc/es.h"
 3390              		.file 13 "C:/devkitPro/devkitPPC/powerpc-eabi/include/stdlib.h"
 3391              		.file 14 "C:/devkitPro/devkitPPC/powerpc-eabi/include/c++/13.1.0/cstdlib"
 3392              		.file 15 "C:/devkitPro/devkitPPC/powerpc-eabi/include/c++/13.1.0/bits/std_abs.h"
 3393              		.file 16 "C:/devkitPro/devkitPPC/powerpc-eabi/include/c++/13.1.0/type_traits"
 3394              		.file 17 "C:/devkitPro/devkitPPC/powerpc-eabi/include/c++/13.1.0/powerpc-eabi/bits/c++config.h"
 3395              		.file 18 "C:/devkitPro/devkitPPC/powerpc-eabi/include/c++/13.1.0/debug/debug.h"
 3396              		.file 19 "C:/devkitPro/devkitPPC/powerpc-eabi/include/c++/13.1.0/cstddef"
 3397              		.file 20 "C:/devkitPro/devkitPPC/powerpc-eabi/include/c++/13.1.0/bits/exception_ptr.h"
 3398              		.file 21 "C:/devkitPro/devkitPPC/powerpc-eabi/include/c++/13.1.0/cmath"
 3399              		.file 22 "C:/devkitPro/devkitPPC/powerpc-eabi/include/c++/13.1.0/bits/vector.tcc"
 3400              		.file 23 "C:/devkitPro/devkitPPC/powerpc-eabi/include/c++/13.1.0/bits/new_allocator.h"
 3401              		.file 24 "C:/devkitPro/devkitPPC/powerpc-eabi/include/c++/13.1.0/bits/allocator.h"
 3402              		.file 25 "C:/devkitPro/devkitPPC/powerpc-eabi/include/c++/13.1.0/bits/alloc_traits.h"
 3403              		.file 26 "C:/devkitPro/devkitPPC/powerpc-eabi/include/c++/13.1.0/bits/predefined_ops.h"
 3404              		.file 27 "C:/devkitPro/devkitPPC/powerpc-eabi/include/c++/13.1.0/ext/alloc_traits.h"
 3405              		.file 28 "C:/devkitPro/devkitPPC/powerpc-eabi/include/c++/13.1.0/stdlib.h"
 3406              		.file 29 "C:/devkitPro/devkitPPC/powerpc-eabi/include/math.h"
 3407              		.file 30 "C:/devkitPro/devkitPPC/powerpc-eabi/include/c++/13.1.0/math.h"
 3408              		.file 31 "F:/GameModding/MarioKartWii/Mods/Distro/RetroRewind6/dev/Launcher/RRLauncher/launcher/bu
 3409              		.file 32 "F:/GameModding/MarioKartWii/Mods/Distro/RetroRewind6/dev/Launcher/RRLauncher/launcher/bu
 3410              		.file 33 "F:/GameModding/MarioKartWii/Mods/Distro/RetroRewind6/dev/Launcher/RRLauncher/launcher/bu
 3411              		.file 34 "F:/GameModding/MarioKartWii/Mods/Distro/RetroRewind6/dev/Launcher/RRLauncher/launcher/bu
 3412              		.file 35 "F:/GameModding/MarioKartWii/Mods/Distro/RetroRewind6/dev/Launcher/RRLauncher/launcher/bu
 3413              		.file 36 "F:/GameModding/MarioKartWii/Mods/Distro/RetroRewind6/dev/Launcher/RRLauncher/launcher/bu
 3414              		.file 37 "F:/GameModding/MarioKartWii/Mods/Distro/RetroRewind6/dev/Launcher/RRLauncher/launcher/bu
 3415              		.file 38 "F:/GameModding/MarioKartWii/Mods/Distro/RetroRewind6/dev/Launcher/RRLauncher/launcher/bu
 3416              		.file 39 "F:/GameModding/MarioKartWii/Mods/Distro/RetroRewind6/dev/Launcher/RRLauncher/launcher/bu
 3417              		.file 40 "F:/GameModding/MarioKartWii/Mods/Distro/RetroRewind6/dev/Launcher/RRLauncher/launcher/bu
 3418              		.file 41 "F:/GameModding/MarioKartWii/Mods/Distro/RetroRewind6/dev/Launcher/RRLauncher/launcher/bu
 3419              		.file 42 "F:/GameModding/MarioKartWii/Mods/Distro/RetroRewind6/dev/Launcher/RRLauncher/launcher/bu
 3420              		.file 43 "F:/GameModding/MarioKartWii/Mods/Distro/RetroRewind6/dev/Launcher/RRLauncher/launcher/bu
 3421              		.file 44 "F:/GameModding/MarioKartWii/Mods/Distro/RetroRewind6/dev/Launcher/RRLauncher/launcher/bu
 3422              		.file 45 "F:/GameModding/MarioKartWii/Mods/Distro/RetroRewind6/dev/Launcher/RRLauncher/launcher/bu
 3423              		.file 46 "F:/GameModding/MarioKartWii/Mods/Distro/RetroRewind6/dev/Launcher/RRLauncher/launcher/bu
 3424              		.file 47 "F:/GameModding/MarioKartWii/Mods/Distro/RetroRewind6/dev/Launcher/RRLauncher/launcher/bu
 3425              		.file 48 "F:/GameModding/MarioKartWii/Mods/Distro/RetroRewind6/dev/Launcher/RRLauncher/launcher/bu
 3426              		.file 49 "F:/GameModding/MarioKartWii/Mods/Distro/RetroRewind6/dev/Launcher/RRLauncher/launcher/bu
 3427              		.file 50 "F:/GameModding/MarioKartWii/Mods/Distro/RetroRewind6/dev/Launcher/RRLauncher/launcher/bu
 3428              		.file 51 "F:/GameModding/MarioKartWii/Mods/Distro/RetroRewind6/dev/Launcher/RRLauncher/launcher/bu
 3429              		.file 52 "F:/GameModding/MarioKartWii/Mods/Distro/RetroRewind6/dev/Launcher/RRLauncher/launcher/bu
 3430              		.file 53 "F:/GameModding/MarioKartWii/Mods/Distro/RetroRewind6/dev/Launcher/RRLauncher/launcher/bu
 3431              		.file 54 "F:/GameModding/MarioKartWii/Mods/Distro/RetroRewind6/dev/Launcher/RRLauncher/launcher/bu
 3432              		.file 55 "F:/GameModding/MarioKartWii/Mods/Distro/RetroRewind6/dev/Launcher/RRLauncher/launcher/bu
 3433              		.file 56 "F:/GameModding/MarioKartWii/Mods/Distro/RetroRewind6/dev/Launcher/RRLauncher/launcher/bu
 3434              		.file 57 "F:/GameModding/MarioKartWii/Mods/Distro/RetroRewind6/dev/Launcher/RRLauncher/launcher/bu
 3435              		.file 58 "F:/GameModding/MarioKartWii/Mods/Distro/RetroRewind6/dev/Launcher/RRLauncher/launcher/bu
 3436              		.file 59 "F:/GameModding/MarioKartWii/Mods/Distro/RetroRewind6/dev/Launcher/RRLauncher/launcher/bu
 3437              		.file 60 "F:/GameModding/MarioKartWii/Mods/Distro/RetroRewind6/dev/Launcher/RRLauncher/launcher/bu
 3438              		.file 61 "F:/GameModding/MarioKartWii/Mods/Distro/RetroRewind6/dev/Launcher/RRLauncher/launcher/bu
 3439              		.file 62 "F:/GameModding/MarioKartWii/Mods/Distro/RetroRewind6/dev/Launcher/RRLauncher/launcher/bu
 3440              		.file 63 "F:/GameModding/MarioKartWii/Mods/Distro/RetroRewind6/dev/Launcher/RRLauncher/launcher/bu
 3441              		.file 64 "F:/GameModding/MarioKartWii/Mods/Distro/RetroRewind6/dev/Launcher/RRLauncher/launcher/bu
 3442              		.file 65 "F:/GameModding/MarioKartWii/Mods/Distro/RetroRewind6/dev/Launcher/RRLauncher/launcher/bu
 3443              		.file 66 "F:/GameModding/MarioKartWii/Mods/Distro/RetroRewind6/dev/Launcher/RRLauncher/launcher/in
 3444              		.file 67 "F:/GameModding/MarioKartWii/Mods/Distro/RetroRewind6/dev/Launcher/RRLauncher/launcher/in
 3445              		.file 68 "F:/GameModding/MarioKartWii/Mods/Distro/RetroRewind6/dev/Launcher/RRLauncher/launcher/li
 3446              		.file 69 "C:/devkitPro/libogc/include/ogc/lwp_threads.h"
 3447              		.file 70 "C:/devkitPro/libogc/include/ogc/system.h"
 3448              		.file 71 "C:/devkitPro/libogc/include/ogc/cache.h"
 3449              		.file 72 "C:/devkitPro/libogc/include/ogc/irq.h"
 3450              		.file 73 "F:/GameModding/MarioKartWii/Mods/Distro/RetroRewind6/dev/Launcher/RRLauncher/launcher/in
 3451              		.file 74 "C:/devkitPro/libogc/include/ogc/usb.h"
 3452              		.file 75 "C:/devkitPro/libogc/include/wiiuse/wpad.h"
 3453              		.file 76 "C:/devkitPro/libogc/include/ogc/isfs.h"
 3454              		.file 77 "C:/devkitPro/devkitPPC/powerpc-eabi/include/string.h"
 3455              		.file 78 "C:/devkitPro/libogc/include/ogc/lwp_watchdog.h"
 3456              		.file 79 "C:/devkitPro/devkitPPC/powerpc-eabi/include/time.h"
 3457              		.file 80 "C:/devkitPro/libogc/include/ogc/video.h"
 3458              		.file 81 "C:/devkitPro/libogc/include/ogc/conf.h"
 3459              		.file 82 "F:/GameModding/MarioKartWii/Mods/Distro/RetroRewind6/dev/Launcher/RRLauncher/filemodule/
 3460              		.file 83 "C:/devkitPro/devkitPPC/powerpc-eabi/include/malloc.h"
 3461              		.file 84 "C:/devkitPro/devkitPPC/powerpc-eabi/include/c++/13.1.0/bits/memory_resource.h"