   1              		.file	"Metaphrasis.cpp"
   2              		.machine ppc
   3              		.section	".text"
   4              	.Ltext0:
   5              		.file 1 "F:/GameModding/MarioKartWii/Mods/Distro/RetroRewind6/dev/Launcher/RRLauncher/launcher/lib
   6              		.section	.text._ZN11MetaphrasisD2Ev,"ax",@progbits
   7              		.align 2
   8              		.globl _ZN11MetaphrasisD2Ev
   9              		.type	_ZN11MetaphrasisD2Ev, @function
  10              	_ZN11MetaphrasisD2Ev:
  11              	.LVL0:
  12              	.LFB65:
  13              		.loc 1 35 1 view -0
  14              		.cfi_startproc
  15              		.loc 1 36 1 is_stmt 0 view .LVU1
  16 0000 4E800020 		blr
  17              		.cfi_endproc
  18              	.LFE65:
  19              		.size	_ZN11MetaphrasisD2Ev, .-_ZN11MetaphrasisD2Ev
  20              		.globl _ZN11MetaphrasisD1Ev
  21              		.set	_ZN11MetaphrasisD1Ev,_ZN11MetaphrasisD2Ev
  22              		.section	.text._ZN11MetaphrasisD0Ev,"ax",@progbits
  23              		.align 2
  24              		.globl _ZN11MetaphrasisD0Ev
  25              		.type	_ZN11MetaphrasisD0Ev, @function
  26              	_ZN11MetaphrasisD0Ev:
  27              	.LVL1:
  28              	.LFB67:
  29              		.loc 1 35 1 is_stmt 1 view -0
  30              		.cfi_startproc
  31              	.LBB46:
  32              	.LBI46:
  33              		.loc 1 35 1 view .LVU3
  34              		.loc 1 35 1 is_stmt 0 view .LVU4
  35              	.LBE46:
  36              		.loc 1 36 1 discriminator 1 view .LVU5
  37 0000 38800004 		li 4,4
  38 0004 48000000 		b _ZdlPvj
  39              	.LVL2:
  40              		.loc 1 36 1 discriminator 1 view .LVU6
  41              		.cfi_endproc
  42              	.LFE67:
  43              		.size	_ZN11MetaphrasisD0Ev, .-_ZN11MetaphrasisD0Ev
  44              		.section	.text._ZN11MetaphrasisC2Ev,"ax",@progbits
  45              		.align 2
  46              		.globl _ZN11MetaphrasisC2Ev
  47              		.type	_ZN11MetaphrasisC2Ev, @function
  48              	_ZN11MetaphrasisC2Ev:
  49              	.LVL3:
  50              	.LFB62:
  51              		.loc 1 28 1 is_stmt 1 view -0
  52              		.cfi_startproc
  53              	.LBB47:
  54              		.loc 1 28 26 is_stmt 0 view .LVU8
  55 0000 3D200000 		lis 9,_ZTV11Metaphrasis+8@ha
  56 0004 39290000 		la 9,_ZTV11Metaphrasis+8@l(9)
  57 0008 91230000 		stw 9,0(3)
  58              	.LBE47:
  59              		.loc 1 29 1 view .LVU9
  60 000c 4E800020 		blr
  61              		.cfi_endproc
  62              	.LFE62:
  63              		.size	_ZN11MetaphrasisC2Ev, .-_ZN11MetaphrasisC2Ev
  64              		.globl _ZN11MetaphrasisC1Ev
  65              		.set	_ZN11MetaphrasisC1Ev,_ZN11MetaphrasisC2Ev
  66              		.section	.text._ZN11Metaphrasis17convertBufferToI4EPjtt,"ax",@progbits
  67              		.align 2
  68              		.globl _ZN11Metaphrasis17convertBufferToI4EPjtt
  69              		.type	_ZN11Metaphrasis17convertBufferToI4EPjtt, @function
  70              	_ZN11Metaphrasis17convertBufferToI4EPjtt:
  71              	.LVL4:
  72              	.LFB68:
  73              		.loc 1 49 109 is_stmt 1 view -0
  74              		.cfi_startproc
  75              		.loc 1 50 2 view .LVU11
  76              		.loc 1 49 109 is_stmt 0 view .LVU12
  77 0000 9421FFB0 		stwu 1,-80(1)
  78              		.cfi_def_cfa_offset 80
  79 0004 7C0802A6 		mflr 0
  80 0008 93A10044 		stw 29,68(1)
  81              		.cfi_register 65, 0
  82              		.cfi_offset 29, -12
  83              		.loc 1 50 36 view .LVU13
  84 000c 7FA521D6 		mullw 29,5,4
  85              		.loc 1 49 109 view .LVU14
  86 0010 92C10028 		stw 22,40(1)
  87              		.cfi_offset 22, -40
  88 0014 7C962378 		mr 22,4
  89 0018 93E1004C 		stw 31,76(1)
  90              		.cfi_offset 31, -4
  91 001c 7C7F1B78 		mr 31,3
  92              		.loc 1 51 47 view .LVU15
  93 0020 38600020 		li 3,32
  94              	.LVL5:
  95              		.loc 1 49 109 view .LVU16
  96 0024 90010054 		stw 0,84(1)
  97              		.loc 1 50 51 view .LVU17
  98 0028 7FBD0E70 		srawi 29,29,1
  99              	.LVL6:
 100              		.loc 1 51 2 is_stmt 1 view .LVU18
 101              		.loc 1 49 109 is_stmt 0 view .LVU19
 102 002c 92A10024 		stw 21,36(1)
 103              		.loc 1 51 47 view .LVU20
 104 0030 7FA4EB78 		mr 4,29
 105              	.LVL7:
 106              		.cfi_offset 65, 4
 107              		.cfi_offset 21, -44
 108              		.loc 1 49 109 view .LVU21
 109 0034 7CB52B78 		mr 21,5
 110 0038 93C10048 		stw 30,72(1)
 111              		.cfi_offset 30, -8
 112              		.loc 1 51 47 view .LVU22
 113 003c 48000001 		bl memalign
 114              	.LVL8:
 115              		.loc 1 52 8 view .LVU23
 116 0040 7FA5EB78 		mr 5,29
 117 0044 38800000 		li 4,0
 118              		.loc 1 51 47 view .LVU24
 119 0048 7C7E1B78 		mr 30,3
 120              	.LVL9:
 121              		.loc 1 52 2 is_stmt 1 view .LVU25
 122              		.loc 1 52 8 is_stmt 0 view .LVU26
 123 004c 48000001 		bl memset
 124              	.LVL10:
 125              		.loc 1 54 2 is_stmt 1 view .LVU27
 126              		.loc 1 55 2 view .LVU28
 127              		.loc 1 57 2 view .LVU29
 128              	.LBB48:
 129              		.loc 1 57 24 discriminator 1 view .LVU30
 130 0050 2C150000 		cmpwi 0,21,0
 131 0054 418204AC 		beq- 0,.L6
 132 0058 2C160000 		cmpwi 0,22,0
 133              	.LBE48:
 134              		.loc 1 55 11 is_stmt 0 view .LVU31
 135 005c 7FC9F378 		mr 9,30
 136              	.LBB55:
 137              		.loc 1 57 15 view .LVU32
 138 0060 39400000 		li 10,0
 139 0064 4182049C 		beq- 0,.L6
 140 0068 91C10008 		stw 14,8(1)
 141              		.cfi_offset 14, -72
 142 006c 91E1000C 		stw 15,12(1)
 143              		.cfi_offset 15, -68
 144 0070 92010010 		stw 16,16(1)
 145              		.cfi_offset 16, -64
 146 0074 92210014 		stw 17,20(1)
 147              		.cfi_offset 17, -60
 148 0078 92410018 		stw 18,24(1)
 149              		.cfi_offset 18, -56
 150 007c 9261001C 		stw 19,28(1)
 151              		.cfi_offset 19, -52
 152 0080 92810020 		stw 20,32(1)
 153              		.cfi_offset 20, -48
 154 0084 92E1002C 		stw 23,44(1)
 155              		.cfi_offset 23, -36
 156 0088 93010030 		stw 24,48(1)
 157              		.cfi_offset 24, -32
 158 008c 93210034 		stw 25,52(1)
 159              		.cfi_offset 25, -28
 160 0090 93410038 		stw 26,56(1)
 161              		.cfi_offset 26, -24
 162 0094 9361003C 		stw 27,60(1)
 163              		.cfi_offset 27, -20
 164 0098 93810040 		stw 28,64(1)
 165              		.cfi_offset 28, -16
 166              	.LVL11:
 167              	.L7:
 168              	.LBB49:
 169              		.loc 1 58 25 is_stmt 1 discriminator 1 view .LVU33
 170              	.LBB50:
 171              		.loc 1 60 21 is_stmt 0 view .LVU34
 172 009c 5540043E 		rlwinm 0,10,0,0xffff
 173 00a0 7D4803A6 		mtlr 10
 174              		.loc 1 60 31 view .LVU35
 175 00a4 7C00B1D6 		mullw 0,0,22
 176              	.LBE50:
 177              		.loc 1 58 16 view .LVU36
 178 00a8 3A600000 		li 19,0
 179              	.LBB51:
 180              		.loc 1 60 31 view .LVU37
 181 00ac 7EF60214 		add 23,22,0
 182 00b0 7F16BA14 		add 24,22,23
 183 00b4 7F36C214 		add 25,22,24
 184 00b8 7F56CA14 		add 26,22,25
 185 00bc 7F76D214 		add 27,22,26
 186 00c0 7F96DA14 		add 28,22,27
 187 00c4 7E96E214 		add 20,22,28
 188              	.LVL12:
 189              	.L8:
 190              		.loc 1 59 32 is_stmt 1 discriminator 1 view .LVU38
 191              		.loc 1 60 5 view .LVU39
 192              		.loc 1 60 49 is_stmt 0 view .LVU40
 193 00c8 5668043E 		rlwinm 8,19,0,0xffff
 194              	.LBE51:
 195              		.loc 1 58 42 discriminator 2 view .LVU41
 196 00cc 3A730008 		addi 19,19,8
 197              	.LVL13:
 198              	.LBB52:
 199              		.loc 1 60 105 view .LVU42
 200 00d0 39680001 		addi 11,8,1
 201              	.LVL14:
 202              		.loc 1 60 55 view .LVU43
 203 00d4 7CC04214 		add 6,0,8
 204              		.loc 1 60 109 view .LVU44
 205 00d8 7CE05A14 		add 7,0,11
 206              		.loc 1 60 55 view .LVU45
 207 00dc 54C6103A 		slwi 6,6,2
 208              		.loc 1 60 109 view .LVU46
 209 00e0 54E7103A 		slwi 7,7,2
 210              		.loc 1 60 57 view .LVU47
 211 00e4 7CBF302E 		lwzx 5,31,6
 212              		.loc 1 60 119 view .LVU48
 213 00e8 7CDF382E 		lwzx 6,31,7
 214              		.loc 1 61 105 view .LVU49
 215 00ec 38680003 		addi 3,8,3
 216              		.loc 1 61 51 view .LVU50
 217 00f0 38880002 		addi 4,8,2
 218              		.loc 1 61 109 view .LVU51
 219 00f4 7CE01A14 		add 7,0,3
 220              		.loc 1 60 65 view .LVU52
 221 00f8 50C5E73E 		rlwimi 5,6,28,28,31
 222              		.loc 1 61 55 view .LVU53
 223 00fc 7CC02214 		add 6,0,4
 224              		.loc 1 60 12 view .LVU54
 225 0100 98A90000 		stb 5,0(9)
 226              		.loc 1 61 5 is_stmt 1 view .LVU55
 227              	.LVL15:
 228              		.loc 1 61 109 is_stmt 0 view .LVU56
 229 0104 54E7103A 		slwi 7,7,2
 230              		.loc 1 61 55 view .LVU57
 231 0108 54C6103A 		slwi 6,6,2
 232              		.loc 1 62 51 view .LVU58
 233 010c 38A80004 		addi 5,8,4
 234              		.loc 1 61 119 view .LVU59
 235 0110 7E1F382E 		lwzx 16,31,7
 236              		.loc 1 62 105 view .LVU60
 237 0114 38E80005 		addi 7,8,5
 238              		.loc 1 61 57 view .LVU61
 239 0118 7CDF302E 		lwzx 6,31,6
 240              		.loc 1 62 55 view .LVU62
 241 011c 7E202A14 		add 17,0,5
 242              		.loc 1 62 100 view .LVU63
 243 0120 7E403A14 		add 18,0,7
 244              		.loc 1 62 55 view .LVU64
 245 0124 5631103A 		slwi 17,17,2
 246              		.loc 1 61 65 view .LVU65
 247 0128 5206E73E 		rlwimi 6,16,28,28,31
 248              		.loc 1 62 109 view .LVU66
 249 012c 5652103A 		slwi 18,18,2
 250              		.loc 1 61 12 view .LVU67
 251 0130 98C90001 		stb 6,1(9)
 252              		.loc 1 62 5 is_stmt 1 view .LVU68
 253              	.LVL16:
 254              		.loc 1 63 105 is_stmt 0 view .LVU69
 255 0134 38C80007 		addi 6,8,7
 256              		.loc 1 63 109 view .LVU70
 257 0138 7DE03214 		add 15,0,6
 258              		.loc 1 60 109 view .LVU71
 259 013c 7D8BBA14 		add 12,11,23
 260              		.loc 1 62 119 view .LVU72
 261 0140 7DDF902E 		lwzx 14,31,18
 262              		.loc 1 63 109 view .LVU73
 263 0144 55EF103A 		slwi 15,15,2
 264              		.loc 1 62 57 view .LVU74
 265 0148 7E1F882E 		lwzx 16,31,17
 266              		.loc 1 60 55 view .LVU75
 267 014c 7E28BA14 		add 17,8,23
 268              		.loc 1 60 109 view .LVU76
 269 0150 558C103A 		slwi 12,12,2
 270              		.loc 1 60 55 view .LVU77
 271 0154 5631103A 		slwi 17,17,2
 272              		.loc 1 62 65 view .LVU78
 273 0158 51D0E73E 		rlwimi 16,14,28,28,31
 274              		.loc 1 61 109 view .LVU79
 275 015c 7DC3BA14 		add 14,3,23
 276              		.loc 1 62 12 view .LVU80
 277 0160 9A090002 		stb 16,2(9)
 278              		.loc 1 63 5 is_stmt 1 view .LVU81
 279              	.LVL17:
 280              		.loc 1 61 55 is_stmt 0 view .LVU82
 281 0164 7E04BA14 		add 16,4,23
 282              		.loc 1 61 109 view .LVU83
 283 0168 55CE103A 		slwi 14,14,2
 284              		.loc 1 61 55 view .LVU84
 285 016c 5610103A 		slwi 16,16,2
 286              		.loc 1 63 119 view .LVU85
 287 0170 7D5F782E 		lwzx 10,31,15
 288              		.loc 1 62 55 view .LVU86
 289 0174 7DE5BA14 		add 15,5,23
 290              		.loc 1 63 57 view .LVU87
 291 0178 7E5F902E 		lwzx 18,31,18
 292              		.loc 1 62 55 view .LVU88
 293 017c 55EF103A 		slwi 15,15,2
 294              		.loc 1 63 9 view .LVU89
 295 0180 39290020 		addi 9,9,32
 296              	.LVL18:
 297              		.loc 1 63 65 view .LVU90
 298 0184 5152E73E 		rlwimi 18,10,28,28,31
 299              		.loc 1 63 12 view .LVU91
 300 0188 9A49FFE3 		stb 18,-29(9)
 301              		.loc 1 59 4 is_stmt 1 discriminator 3 view .LVU92
 302              	.LVL19:
 303              		.loc 1 59 32 discriminator 1 view .LVU93
 304              		.loc 1 60 5 view .LVU94
 305              		.loc 1 62 100 is_stmt 0 view .LVU95
 306 018c 7E47BA14 		add 18,7,23
 307              		.loc 1 62 109 view .LVU96
 308 0190 5652103A 		slwi 18,18,2
 309              		.loc 1 60 119 view .LVU97
 310 0194 7D5F602E 		lwzx 10,31,12
 311              		.loc 1 60 57 view .LVU98
 312 0198 7D9F882E 		lwzx 12,31,17
 313              		.loc 1 63 109 view .LVU99
 314 019c 7E26BA14 		add 17,6,23
 315 01a0 5631103A 		slwi 17,17,2
 316              		.loc 1 60 65 view .LVU100
 317 01a4 514CE73E 		rlwimi 12,10,28,28,31
 318              		.loc 1 60 12 view .LVU101
 319 01a8 9989FFE4 		stb 12,-28(9)
 320              		.loc 1 61 5 is_stmt 1 view .LVU102
 321              	.LVL20:
 322              		.loc 1 60 109 is_stmt 0 view .LVU103
 323 01ac 7D8BC214 		add 12,11,24
 324 01b0 558C103A 		slwi 12,12,2
 325              		.loc 1 61 119 view .LVU104
 326 01b4 7D5F702E 		lwzx 10,31,14
 327              		.loc 1 61 57 view .LVU105
 328 01b8 7DDF802E 		lwzx 14,31,16
 329              		.loc 1 60 55 view .LVU106
 330 01bc 7E08C214 		add 16,8,24
 331 01c0 5610103A 		slwi 16,16,2
 332              		.loc 1 61 65 view .LVU107
 333 01c4 514EE73E 		rlwimi 14,10,28,28,31
 334              		.loc 1 61 12 view .LVU108
 335 01c8 99C9FFE5 		stb 14,-27(9)
 336              		.loc 1 62 5 is_stmt 1 view .LVU109
 337              	.LVL21:
 338              		.loc 1 61 109 is_stmt 0 view .LVU110
 339 01cc 7DC3C214 		add 14,3,24
 340 01d0 55CE103A 		slwi 14,14,2
 341              		.loc 1 62 57 view .LVU111
 342 01d4 7D5F782E 		lwzx 10,31,15
 343              		.loc 1 62 119 view .LVU112
 344 01d8 7DFF902E 		lwzx 15,31,18
 345              		.loc 1 62 65 view .LVU113
 346 01dc 51EAE73E 		rlwimi 10,15,28,28,31
 347              		.loc 1 61 55 view .LVU114
 348 01e0 7DE4C214 		add 15,4,24
 349              		.loc 1 62 12 view .LVU115
 350 01e4 9949FFE6 		stb 10,-26(9)
 351              		.loc 1 63 5 is_stmt 1 view .LVU116
 352              	.LVL22:
 353              		.loc 1 61 55 is_stmt 0 view .LVU117
 354 01e8 55EF103A 		slwi 15,15,2
 355              		.loc 1 63 119 view .LVU118
 356 01ec 7D5F882E 		lwzx 10,31,17
 357              		.loc 1 62 55 view .LVU119
 358 01f0 7E25C214 		add 17,5,24
 359              		.loc 1 63 57 view .LVU120
 360 01f4 7E5F902E 		lwzx 18,31,18
 361              		.loc 1 62 55 view .LVU121
 362 01f8 5631103A 		slwi 17,17,2
 363              		.loc 1 63 65 view .LVU122
 364 01fc 5152E73E 		rlwimi 18,10,28,28,31
 365              		.loc 1 63 12 view .LVU123
 366 0200 9A49FFE7 		stb 18,-25(9)
 367              		.loc 1 59 4 is_stmt 1 discriminator 3 view .LVU124
 368              	.LVL23:
 369              		.loc 1 59 32 discriminator 1 view .LVU125
 370              		.loc 1 60 5 view .LVU126
 371              		.loc 1 62 100 is_stmt 0 view .LVU127
 372 0204 7E47C214 		add 18,7,24
 373              		.loc 1 62 109 view .LVU128
 374 0208 5652103A 		slwi 18,18,2
 375              		.loc 1 60 119 view .LVU129
 376 020c 7D5F602E 		lwzx 10,31,12
 377              		.loc 1 60 57 view .LVU130
 378 0210 7D9F802E 		lwzx 12,31,16
 379              		.loc 1 63 109 view .LVU131
 380 0214 7E06C214 		add 16,6,24
 381 0218 5610103A 		slwi 16,16,2
 382              		.loc 1 60 65 view .LVU132
 383 021c 514CE73E 		rlwimi 12,10,28,28,31
 384              		.loc 1 60 12 view .LVU133
 385 0220 9989FFE8 		stb 12,-24(9)
 386              		.loc 1 61 5 is_stmt 1 view .LVU134
 387              		.loc 1 60 109 is_stmt 0 view .LVU135
 388 0224 7D8BCA14 		add 12,11,25
 389 0228 558C103A 		slwi 12,12,2
 390              		.loc 1 61 119 view .LVU136
 391 022c 7D5F702E 		lwzx 10,31,14
 392              		.loc 1 61 57 view .LVU137
 393 0230 7DDF782E 		lwzx 14,31,15
 394              		.loc 1 60 55 view .LVU138
 395 0234 7DE8CA14 		add 15,8,25
 396 0238 55EF103A 		slwi 15,15,2
 397              		.loc 1 61 65 view .LVU139
 398 023c 514EE73E 		rlwimi 14,10,28,28,31
 399              		.loc 1 61 12 view .LVU140
 400 0240 99C9FFE9 		stb 14,-23(9)
 401              		.loc 1 62 5 is_stmt 1 view .LVU141
 402              		.loc 1 61 109 is_stmt 0 view .LVU142
 403 0244 7DC3CA14 		add 14,3,25
 404 0248 55CE103A 		slwi 14,14,2
 405              		.loc 1 62 57 view .LVU143
 406 024c 7D5F882E 		lwzx 10,31,17
 407              		.loc 1 62 119 view .LVU144
 408 0250 7E3F902E 		lwzx 17,31,18
 409              		.loc 1 62 65 view .LVU145
 410 0254 522AE73E 		rlwimi 10,17,28,28,31
 411              		.loc 1 61 55 view .LVU146
 412 0258 7E24CA14 		add 17,4,25
 413              		.loc 1 62 12 view .LVU147
 414 025c 9949FFEA 		stb 10,-22(9)
 415              		.loc 1 63 5 is_stmt 1 view .LVU148
 416              		.loc 1 61 55 is_stmt 0 view .LVU149
 417 0260 5631103A 		slwi 17,17,2
 418              		.loc 1 63 119 view .LVU150
 419 0264 7D5F802E 		lwzx 10,31,16
 420              		.loc 1 62 55 view .LVU151
 421 0268 7E05CA14 		add 16,5,25
 422              		.loc 1 63 57 view .LVU152
 423 026c 7E5F902E 		lwzx 18,31,18
 424              		.loc 1 62 55 view .LVU153
 425 0270 5610103A 		slwi 16,16,2
 426              		.loc 1 63 65 view .LVU154
 427 0274 5152E73E 		rlwimi 18,10,28,28,31
 428              		.loc 1 63 12 view .LVU155
 429 0278 9A49FFEB 		stb 18,-21(9)
 430              		.loc 1 59 4 is_stmt 1 discriminator 3 view .LVU156
 431              	.LVL24:
 432              		.loc 1 59 32 discriminator 1 view .LVU157
 433              		.loc 1 60 5 view .LVU158
 434              		.loc 1 62 100 is_stmt 0 view .LVU159
 435 027c 7E47CA14 		add 18,7,25
 436              		.loc 1 62 109 view .LVU160
 437 0280 5652103A 		slwi 18,18,2
 438              		.loc 1 60 119 view .LVU161
 439 0284 7D5F602E 		lwzx 10,31,12
 440              		.loc 1 60 57 view .LVU162
 441 0288 7D9F782E 		lwzx 12,31,15
 442              		.loc 1 63 109 view .LVU163
 443 028c 7DE6CA14 		add 15,6,25
 444 0290 55EF103A 		slwi 15,15,2
 445              		.loc 1 60 65 view .LVU164
 446 0294 514CE73E 		rlwimi 12,10,28,28,31
 447              		.loc 1 60 12 view .LVU165
 448 0298 9989FFEC 		stb 12,-20(9)
 449              		.loc 1 61 5 is_stmt 1 view .LVU166
 450              		.loc 1 60 109 is_stmt 0 view .LVU167
 451 029c 7D8BD214 		add 12,11,26
 452 02a0 558C103A 		slwi 12,12,2
 453              		.loc 1 61 119 view .LVU168
 454 02a4 7D5F702E 		lwzx 10,31,14
 455              		.loc 1 61 57 view .LVU169
 456 02a8 7DDF882E 		lwzx 14,31,17
 457              		.loc 1 60 55 view .LVU170
 458 02ac 7E28D214 		add 17,8,26
 459 02b0 5631103A 		slwi 17,17,2
 460              		.loc 1 61 65 view .LVU171
 461 02b4 514EE73E 		rlwimi 14,10,28,28,31
 462              		.loc 1 61 12 view .LVU172
 463 02b8 99C9FFED 		stb 14,-19(9)
 464              		.loc 1 62 5 is_stmt 1 view .LVU173
 465              		.loc 1 61 109 is_stmt 0 view .LVU174
 466 02bc 7DC3D214 		add 14,3,26
 467 02c0 55CE103A 		slwi 14,14,2
 468              		.loc 1 62 57 view .LVU175
 469 02c4 7D5F802E 		lwzx 10,31,16
 470              		.loc 1 62 119 view .LVU176
 471 02c8 7E1F902E 		lwzx 16,31,18
 472              		.loc 1 62 65 view .LVU177
 473 02cc 520AE73E 		rlwimi 10,16,28,28,31
 474              		.loc 1 61 55 view .LVU178
 475 02d0 7E04D214 		add 16,4,26
 476              		.loc 1 62 12 view .LVU179
 477 02d4 9949FFEE 		stb 10,-18(9)
 478              		.loc 1 63 5 is_stmt 1 view .LVU180
 479              		.loc 1 61 55 is_stmt 0 view .LVU181
 480 02d8 5610103A 		slwi 16,16,2
 481              		.loc 1 63 119 view .LVU182
 482 02dc 7D5F782E 		lwzx 10,31,15
 483              		.loc 1 62 55 view .LVU183
 484 02e0 7DE5D214 		add 15,5,26
 485              		.loc 1 63 57 view .LVU184
 486 02e4 7E5F902E 		lwzx 18,31,18
 487              		.loc 1 62 55 view .LVU185
 488 02e8 55EF103A 		slwi 15,15,2
 489              		.loc 1 63 65 view .LVU186
 490 02ec 5152E73E 		rlwimi 18,10,28,28,31
 491              		.loc 1 63 12 view .LVU187
 492 02f0 9A49FFEF 		stb 18,-17(9)
 493              		.loc 1 59 4 is_stmt 1 discriminator 3 view .LVU188
 494              	.LVL25:
 495              		.loc 1 59 32 discriminator 1 view .LVU189
 496              		.loc 1 60 5 view .LVU190
 497              		.loc 1 62 100 is_stmt 0 view .LVU191
 498 02f4 7E47D214 		add 18,7,26
 499              		.loc 1 62 109 view .LVU192
 500 02f8 5652103A 		slwi 18,18,2
 501              		.loc 1 60 119 view .LVU193
 502 02fc 7D5F602E 		lwzx 10,31,12
 503              		.loc 1 60 57 view .LVU194
 504 0300 7D9F882E 		lwzx 12,31,17
 505              		.loc 1 63 109 view .LVU195
 506 0304 7E26D214 		add 17,6,26
 507 0308 5631103A 		slwi 17,17,2
 508              		.loc 1 60 65 view .LVU196
 509 030c 514CE73E 		rlwimi 12,10,28,28,31
 510              		.loc 1 60 109 view .LVU197
 511 0310 7D4BDA14 		add 10,11,27
 512              		.loc 1 60 12 view .LVU198
 513 0314 9989FFF0 		stb 12,-16(9)
 514              		.loc 1 61 5 is_stmt 1 view .LVU199
 515              		.loc 1 60 55 is_stmt 0 view .LVU200
 516 0318 7D88DA14 		add 12,8,27
 517              		.loc 1 60 109 view .LVU201
 518 031c 554A103A 		slwi 10,10,2
 519              		.loc 1 60 55 view .LVU202
 520 0320 558C103A 		slwi 12,12,2
 521              		.loc 1 61 119 view .LVU203
 522 0324 7DDF702E 		lwzx 14,31,14
 523              		.loc 1 61 57 view .LVU204
 524 0328 7E1F802E 		lwzx 16,31,16
 525              		.loc 1 61 65 view .LVU205
 526 032c 51D0E73E 		rlwimi 16,14,28,28,31
 527              		.loc 1 61 12 view .LVU206
 528 0330 9A09FFF1 		stb 16,-15(9)
 529              		.loc 1 62 5 is_stmt 1 view .LVU207
 530              		.loc 1 61 109 is_stmt 0 view .LVU208
 531 0334 7E03DA14 		add 16,3,27
 532 0338 5610103A 		slwi 16,16,2
 533              		.loc 1 62 57 view .LVU209
 534 033c 7DDF782E 		lwzx 14,31,15
 535              		.loc 1 62 119 view .LVU210
 536 0340 7DFF902E 		lwzx 15,31,18
 537              		.loc 1 62 65 view .LVU211
 538 0344 51EEE73E 		rlwimi 14,15,28,28,31
 539              		.loc 1 62 12 view .LVU212
 540 0348 99C9FFF2 		stb 14,-14(9)
 541              		.loc 1 63 5 is_stmt 1 view .LVU213
 542              		.loc 1 61 55 is_stmt 0 view .LVU214
 543 034c 7DC4DA14 		add 14,4,27
 544 0350 55CE103A 		slwi 14,14,2
 545              		.loc 1 63 119 view .LVU215
 546 0354 7DFF882E 		lwzx 15,31,17
 547              		.loc 1 62 100 view .LVU216
 548 0358 7E27DA14 		add 17,7,27
 549              		.loc 1 63 57 view .LVU217
 550 035c 7E5F902E 		lwzx 18,31,18
 551              		.loc 1 62 109 view .LVU218
 552 0360 5631103A 		slwi 17,17,2
 553              		.loc 1 63 65 view .LVU219
 554 0364 51F2E73E 		rlwimi 18,15,28,28,31
 555              		.loc 1 62 55 view .LVU220
 556 0368 7DE5DA14 		add 15,5,27
 557              		.loc 1 63 12 view .LVU221
 558 036c 9A49FFF3 		stb 18,-13(9)
 559              		.loc 1 59 4 is_stmt 1 discriminator 3 view .LVU222
 560              	.LVL26:
 561              		.loc 1 59 32 discriminator 1 view .LVU223
 562              		.loc 1 60 5 view .LVU224
 563              		.loc 1 62 55 is_stmt 0 view .LVU225
 564 0370 55EF103A 		slwi 15,15,2
 565              		.loc 1 63 109 view .LVU226
 566 0374 7E46DA14 		add 18,6,27
 567              		.loc 1 60 119 view .LVU227
 568 0378 7D5F502E 		lwzx 10,31,10
 569              		.loc 1 63 109 view .LVU228
 570 037c 5652103A 		slwi 18,18,2
 571              		.loc 1 60 57 view .LVU229
 572 0380 7D9F602E 		lwzx 12,31,12
 573              		.loc 1 60 65 view .LVU230
 574 0384 514CE73E 		rlwimi 12,10,28,28,31
 575              		.loc 1 60 12 view .LVU231
 576 0388 9989FFF4 		stb 12,-12(9)
 577              		.loc 1 61 5 is_stmt 1 view .LVU232
 578              		.loc 1 60 109 is_stmt 0 view .LVU233
 579 038c 7D8BE214 		add 12,11,28
 580 0390 558C103A 		slwi 12,12,2
 581 0394 7D6BA214 		add 11,11,20
 582              		.loc 1 61 119 view .LVU234
 583 0398 7E1F802E 		lwzx 16,31,16
 584              		.loc 1 60 109 view .LVU235
 585 039c 556B103A 		slwi 11,11,2
 586              		.loc 1 61 57 view .LVU236
 587 03a0 7D5F702E 		lwzx 10,31,14
 588              		.loc 1 60 55 view .LVU237
 589 03a4 7DC8E214 		add 14,8,28
 590 03a8 55CE103A 		slwi 14,14,2
 591 03ac 7D08A214 		add 8,8,20
 592              		.loc 1 61 65 view .LVU238
 593 03b0 520AE73E 		rlwimi 10,16,28,28,31
 594              		.loc 1 60 55 view .LVU239
 595 03b4 5508103A 		slwi 8,8,2
 596              		.loc 1 61 12 view .LVU240
 597 03b8 9949FFF5 		stb 10,-11(9)
 598              		.loc 1 62 5 is_stmt 1 view .LVU241
 599              		.loc 1 62 119 is_stmt 0 view .LVU242
 600 03bc 7E1F882E 		lwzx 16,31,17
 601              		.loc 1 62 57 view .LVU243
 602 03c0 7D5F782E 		lwzx 10,31,15
 603              		.loc 1 61 109 view .LVU244
 604 03c4 7DE3E214 		add 15,3,28
 605 03c8 55EF103A 		slwi 15,15,2
 606 03cc 7C63A214 		add 3,3,20
 607              		.loc 1 62 65 view .LVU245
 608 03d0 520AE73E 		rlwimi 10,16,28,28,31
 609              		.loc 1 61 55 view .LVU246
 610 03d4 7E04E214 		add 16,4,28
 611              		.loc 1 62 12 view .LVU247
 612 03d8 9949FFF6 		stb 10,-10(9)
 613              		.loc 1 63 5 is_stmt 1 view .LVU248
 614              		.loc 1 61 55 is_stmt 0 view .LVU249
 615 03dc 5610103A 		slwi 16,16,2
 616 03e0 7C84A214 		add 4,4,20
 617              		.loc 1 61 109 view .LVU250
 618 03e4 5463103A 		slwi 3,3,2
 619              		.loc 1 63 57 view .LVU251
 620 03e8 7D5F882E 		lwzx 10,31,17
 621              		.loc 1 62 55 view .LVU252
 622 03ec 7E25E214 		add 17,5,28
 623              		.loc 1 63 119 view .LVU253
 624 03f0 7E5F902E 		lwzx 18,31,18
 625              		.loc 1 62 55 view .LVU254
 626 03f4 5631103A 		slwi 17,17,2
 627              		.loc 1 61 55 view .LVU255
 628 03f8 5484103A 		slwi 4,4,2
 629              		.loc 1 62 55 view .LVU256
 630 03fc 7CA5A214 		add 5,5,20
 631              		.loc 1 63 65 view .LVU257
 632 0400 524AE73E 		rlwimi 10,18,28,28,31
 633              		.loc 1 62 100 view .LVU258
 634 0404 7E47E214 		add 18,7,28
 635              		.loc 1 63 12 view .LVU259
 636 0408 9949FFF7 		stb 10,-9(9)
 637              		.loc 1 59 4 is_stmt 1 discriminator 3 view .LVU260
 638              	.LVL27:
 639              		.loc 1 59 32 discriminator 1 view .LVU261
 640              		.loc 1 60 5 view .LVU262
 641              		.loc 1 62 109 is_stmt 0 view .LVU263
 642 040c 5652103A 		slwi 18,18,2
 643              		.loc 1 62 100 view .LVU264
 644 0410 7CE7A214 		add 7,7,20
 645              		.loc 1 62 55 view .LVU265
 646 0414 54A5103A 		slwi 5,5,2
 647              		.loc 1 60 119 view .LVU266
 648 0418 7D9F602E 		lwzx 12,31,12
 649              		.loc 1 62 109 view .LVU267
 650 041c 54E7103A 		slwi 7,7,2
 651              		.loc 1 60 57 view .LVU268
 652 0420 7D5F702E 		lwzx 10,31,14
 653              		.loc 1 63 109 view .LVU269
 654 0424 7DC6E214 		add 14,6,28
 655 0428 55CE103A 		slwi 14,14,2
 656 042c 7CC6A214 		add 6,6,20
 657              		.loc 1 60 65 view .LVU270
 658 0430 518AE73E 		rlwimi 10,12,28,28,31
 659              	.LBE52:
 660              		.loc 1 58 25 discriminator 1 view .LVU271
 661 0434 566C043E 		rlwinm 12,19,0,0xffff
 662              	.LBB53:
 663              		.loc 1 60 12 view .LVU272
 664 0438 9949FFF8 		stb 10,-8(9)
 665              		.loc 1 61 5 is_stmt 1 view .LVU273
 666              		.loc 1 63 109 is_stmt 0 view .LVU274
 667 043c 54C6103A 		slwi 6,6,2
 668              	.LBE53:
 669              		.loc 1 58 25 discriminator 1 view .LVU275
 670 0440 7C0CB040 		cmplw 0,12,22
 671              	.LBB54:
 672              		.loc 1 61 119 view .LVU276
 673 0444 7DFF782E 		lwzx 15,31,15
 674              		.loc 1 61 57 view .LVU277
 675 0448 7E1F802E 		lwzx 16,31,16
 676              		.loc 1 61 65 view .LVU278
 677 044c 51F0E73E 		rlwimi 16,15,28,28,31
 678              		.loc 1 61 12 view .LVU279
 679 0450 9A09FFF9 		stb 16,-7(9)
 680              		.loc 1 62 5 is_stmt 1 view .LVU280
 681              		.loc 1 62 119 is_stmt 0 view .LVU281
 682 0454 7E1F902E 		lwzx 16,31,18
 683              		.loc 1 62 57 view .LVU282
 684 0458 7E3F882E 		lwzx 17,31,17
 685              		.loc 1 62 65 view .LVU283
 686 045c 5211E73E 		rlwimi 17,16,28,28,31
 687              		.loc 1 62 12 view .LVU284
 688 0460 9A29FFFA 		stb 17,-6(9)
 689              		.loc 1 63 5 is_stmt 1 view .LVU285
 690              		.loc 1 63 57 is_stmt 0 view .LVU286
 691 0464 7E5F902E 		lwzx 18,31,18
 692              		.loc 1 63 119 view .LVU287
 693 0468 7E3F702E 		lwzx 17,31,14
 694              		.loc 1 63 65 view .LVU288
 695 046c 5232E73E 		rlwimi 18,17,28,28,31
 696              		.loc 1 63 12 view .LVU289
 697 0470 9A49FFFB 		stb 18,-5(9)
 698              		.loc 1 59 4 is_stmt 1 discriminator 3 view .LVU290
 699              	.LVL28:
 700              		.loc 1 59 32 discriminator 1 view .LVU291
 701              		.loc 1 60 5 view .LVU292
 702              		.loc 1 60 119 is_stmt 0 view .LVU293
 703 0474 7D7F582E 		lwzx 11,31,11
 704              		.loc 1 60 57 view .LVU294
 705 0478 7D1F402E 		lwzx 8,31,8
 706              		.loc 1 60 65 view .LVU295
 707 047c 5168E73E 		rlwimi 8,11,28,28,31
 708              		.loc 1 60 12 view .LVU296
 709 0480 9909FFFC 		stb 8,-4(9)
 710              		.loc 1 61 5 is_stmt 1 view .LVU297
 711              		.loc 1 61 119 is_stmt 0 view .LVU298
 712 0484 7C7F182E 		lwzx 3,31,3
 713              		.loc 1 61 57 view .LVU299
 714 0488 7D1F202E 		lwzx 8,31,4
 715              		.loc 1 61 65 view .LVU300
 716 048c 5068E73E 		rlwimi 8,3,28,28,31
 717              		.loc 1 61 12 view .LVU301
 718 0490 9909FFFD 		stb 8,-3(9)
 719              		.loc 1 62 5 is_stmt 1 view .LVU302
 720              		.loc 1 62 57 is_stmt 0 view .LVU303
 721 0494 7D1F282E 		lwzx 8,31,5
 722              		.loc 1 62 119 view .LVU304
 723 0498 7CBF382E 		lwzx 5,31,7
 724              		.loc 1 62 65 view .LVU305
 725 049c 50A8E73E 		rlwimi 8,5,28,28,31
 726              		.loc 1 62 12 view .LVU306
 727 04a0 9909FFFE 		stb 8,-2(9)
 728              		.loc 1 63 5 is_stmt 1 view .LVU307
 729              	.LVL29:
 730              		.loc 1 63 119 is_stmt 0 view .LVU308
 731 04a4 7CDF302E 		lwzx 6,31,6
 732              		.loc 1 63 57 view .LVU309
 733 04a8 7D1F382E 		lwzx 8,31,7
 734              		.loc 1 63 65 view .LVU310
 735 04ac 50C8E73E 		rlwimi 8,6,28,28,31
 736              		.loc 1 63 12 view .LVU311
 737 04b0 9909FFFF 		stb 8,-1(9)
 738              		.loc 1 59 4 is_stmt 1 discriminator 3 view .LVU312
 739              	.LVL30:
 740              		.loc 1 59 32 discriminator 1 view .LVU313
 741              	.LBE54:
 742              		.loc 1 58 3 discriminator 2 view .LVU314
 743              		.loc 1 58 25 discriminator 1 view .LVU315
 744 04b4 4180FC14 		blt+ 0,.L8
 745              	.LBE49:
 746              		.loc 1 57 42 is_stmt 0 discriminator 2 view .LVU316
 747 04b8 7D4802A6 		mflr 10
 748              		.loc 1 57 2 is_stmt 1 discriminator 2 view .LVU317
 749              		.loc 1 57 42 is_stmt 0 discriminator 2 view .LVU318
 750 04bc 394A0008 		addi 10,10,8
 751              		.loc 1 57 24 discriminator 1 view .LVU319
 752 04c0 5548043E 		rlwinm 8,10,0,0xffff
 753              	.LVL31:
 754              		.loc 1 57 24 is_stmt 1 discriminator 1 view .LVU320
 755 04c4 7C08A840 		cmplw 0,8,21
 756 04c8 4180FBD4 		blt+ 0,.L7
 757 04cc 81C10008 		lwz 14,8(1)
 758              		.cfi_restore 14
 759 04d0 81E1000C 		lwz 15,12(1)
 760              		.cfi_restore 15
 761 04d4 82010010 		lwz 16,16(1)
 762              		.cfi_restore 16
 763 04d8 82210014 		lwz 17,20(1)
 764              		.cfi_restore 17
 765 04dc 82410018 		lwz 18,24(1)
 766              		.cfi_restore 18
 767 04e0 8261001C 		lwz 19,28(1)
 768              		.cfi_restore 19
 769              	.LVL32:
 770              		.loc 1 57 24 is_stmt 0 discriminator 1 view .LVU321
 771 04e4 82810020 		lwz 20,32(1)
 772              		.cfi_restore 20
 773 04e8 82E1002C 		lwz 23,44(1)
 774              		.cfi_restore 23
 775 04ec 83010030 		lwz 24,48(1)
 776              		.cfi_restore 24
 777 04f0 83210034 		lwz 25,52(1)
 778              		.cfi_restore 25
 779 04f4 83410038 		lwz 26,56(1)
 780              		.cfi_restore 26
 781 04f8 8361003C 		lwz 27,60(1)
 782              		.cfi_restore 27
 783 04fc 83810040 		lwz 28,64(1)
 784              		.cfi_restore 28
 785              	.LVL33:
 786              	.L6:
 787              		.loc 1 57 24 discriminator 1 view .LVU322
 788              	.LBE55:
 789              		.loc 1 67 2 is_stmt 1 view .LVU323
 790              		.loc 1 67 14 is_stmt 0 view .LVU324
 791 0500 7FC3F378 		mr 3,30
 792 0504 7FA4EB78 		mr 4,29
 793 0508 48000001 		bl DCFlushRange
 794              	.LVL34:
 795              		.loc 1 69 2 is_stmt 1 view .LVU325
 796              		.loc 1 70 1 is_stmt 0 view .LVU326
 797 050c 80010054 		lwz 0,84(1)
 798 0510 7FC3F378 		mr 3,30
 799 0514 82A10024 		lwz 21,36(1)
 800              	.LVL35:
 801              		.loc 1 70 1 view .LVU327
 802 0518 82C10028 		lwz 22,40(1)
 803              	.LVL36:
 804              		.loc 1 70 1 view .LVU328
 805 051c 7C0803A6 		mtlr 0
 806              		.cfi_restore 65
 807 0520 83A10044 		lwz 29,68(1)
 808              	.LVL37:
 809              		.loc 1 70 1 view .LVU329
 810 0524 83C10048 		lwz 30,72(1)
 811              	.LVL38:
 812              		.loc 1 70 1 view .LVU330
 813 0528 83E1004C 		lwz 31,76(1)
 814              	.LVL39:
 815              		.loc 1 70 1 view .LVU331
 816 052c 38210050 		addi 1,1,80
 817              		.cfi_restore 31
 818              		.cfi_restore 30
 819              		.cfi_restore 29
 820              		.cfi_restore 22
 821              		.cfi_restore 21
 822              		.cfi_def_cfa_offset 0
 823 0530 4E800020 		blr
 824              		.cfi_endproc
 825              	.LFE68:
 826              		.size	_ZN11Metaphrasis17convertBufferToI4EPjtt, .-_ZN11Metaphrasis17convertBufferToI4EPjtt
 827              		.section	.text._ZN11Metaphrasis17convertBufferToI8EPjtt,"ax",@progbits
 828              		.align 2
 829              		.globl _ZN11Metaphrasis17convertBufferToI8EPjtt
 830              		.type	_ZN11Metaphrasis17convertBufferToI8EPjtt, @function
 831              	_ZN11Metaphrasis17convertBufferToI8EPjtt:
 832              	.LVL40:
 833              	.LFB69:
 834              		.loc 1 83 109 is_stmt 1 view -0
 835              		.cfi_startproc
 836              		.loc 1 84 2 view .LVU333
 837              		.loc 1 83 109 is_stmt 0 view .LVU334
 838 0000 9421FFB0 		stwu 1,-80(1)
 839              		.cfi_def_cfa_offset 80
 840 0004 7C0802A6 		mflr 0
 841 0008 93A10044 		stw 29,68(1)
 842              		.cfi_register 65, 0
 843              		.cfi_offset 29, -12
 844              		.loc 1 84 36 view .LVU335
 845 000c 7FA521D6 		mullw 29,5,4
 846              	.LVL41:
 847              		.loc 1 85 2 is_stmt 1 view .LVU336
 848              		.loc 1 83 109 is_stmt 0 view .LVU337
 849 0010 92A10024 		stw 21,36(1)
 850              		.cfi_offset 21, -44
 851 0014 7C952378 		mr 21,4
 852 0018 93E1004C 		stw 31,76(1)
 853              		.cfi_offset 31, -4
 854 001c 7C7F1B78 		mr 31,3
 855              		.loc 1 85 47 view .LVU338
 856 0020 38600020 		li 3,32
 857              	.LVL42:
 858              		.loc 1 83 109 view .LVU339
 859 0024 90010054 		stw 0,84(1)
 860              		.loc 1 85 47 view .LVU340
 861 0028 7FA4EB78 		mr 4,29
 862              	.LVL43:
 863              		.loc 1 83 109 view .LVU341
 864 002c 92810020 		stw 20,32(1)
 865 0030 93C10048 		stw 30,72(1)
 866              		.cfi_offset 65, 4
 867              		.cfi_offset 20, -48
 868              		.cfi_offset 30, -8
 869 0034 7CB42B78 		mr 20,5
 870              		.loc 1 85 47 view .LVU342
 871 0038 48000001 		bl memalign
 872              	.LVL44:
 873              		.loc 1 86 8 view .LVU343
 874 003c 7FA5EB78 		mr 5,29
 875 0040 38800000 		li 4,0
 876              		.loc 1 85 47 view .LVU344
 877 0044 7C7E1B78 		mr 30,3
 878              	.LVL45:
 879              		.loc 1 86 2 is_stmt 1 view .LVU345
 880              		.loc 1 86 8 is_stmt 0 view .LVU346
 881 0048 48000001 		bl memset
 882              	.LVL46:
 883              		.loc 1 88 2 is_stmt 1 view .LVU347
 884              		.loc 1 89 2 view .LVU348
 885              		.loc 1 91 2 view .LVU349
 886              	.LBB56:
 887              		.loc 1 91 24 discriminator 1 view .LVU350
 888 004c 2C140000 		cmpwi 0,20,0
 889 0050 418202E0 		beq- 0,.L21
 890 0054 2C150000 		cmpwi 0,21,0
 891              	.LBE56:
 892              		.loc 1 89 11 is_stmt 0 view .LVU351
 893 0058 7FC9F378 		mr 9,30
 894              	.LBB62:
 895              		.loc 1 91 15 view .LVU352
 896 005c 39400000 		li 10,0
 897 0060 418202D0 		beq- 0,.L21
 898 0064 91C10008 		stw 14,8(1)
 899              		.cfi_offset 14, -72
 900 0068 91E1000C 		stw 15,12(1)
 901              		.cfi_offset 15, -68
 902 006c 92010010 		stw 16,16(1)
 903              		.cfi_offset 16, -64
 904 0070 92210014 		stw 17,20(1)
 905              		.cfi_offset 17, -60
 906 0074 92410018 		stw 18,24(1)
 907              		.cfi_offset 18, -56
 908 0078 9261001C 		stw 19,28(1)
 909              		.cfi_offset 19, -52
 910 007c 92C10028 		stw 22,40(1)
 911              		.cfi_offset 22, -40
 912 0080 92E1002C 		stw 23,44(1)
 913              		.cfi_offset 23, -36
 914 0084 93010030 		stw 24,48(1)
 915              		.cfi_offset 24, -32
 916 0088 93210034 		stw 25,52(1)
 917              		.cfi_offset 25, -28
 918 008c 93410038 		stw 26,56(1)
 919              		.cfi_offset 26, -24
 920 0090 9361003C 		stw 27,60(1)
 921              		.cfi_offset 27, -20
 922 0094 93810040 		stw 28,64(1)
 923              		.cfi_offset 28, -16
 924              	.LVL47:
 925              	.L22:
 926              	.LBB57:
 927              		.loc 1 92 25 is_stmt 1 discriminator 1 view .LVU353
 928              	.LBB58:
 929              		.loc 1 94 20 is_stmt 0 view .LVU354
 930 0098 555C043E 		rlwinm 28,10,0,0xffff
 931 009c 7D4903A6 		mtctr 10
 932              		.loc 1 94 30 view .LVU355
 933 00a0 7F9CA9D6 		mullw 28,28,21
 934              	.LBE58:
 935              		.loc 1 92 16 view .LVU356
 936 00a4 3B000000 		li 24,0
 937              	.LBB59:
 938              		.loc 1 94 30 view .LVU357
 939 00a8 7F55E214 		add 26,21,28
 940 00ac 7F75D214 		add 27,21,26
 941 00b0 7F35DA14 		add 25,21,27
 942              	.LVL48:
 943              	.L23:
 944              		.loc 1 93 32 is_stmt 1 discriminator 1 view .LVU358
 945              		.loc 1 94 5 view .LVU359
 946              		.loc 1 94 48 is_stmt 0 view .LVU360
 947 00b4 5708043E 		rlwinm 8,24,0,0xffff
 948              	.LVL49:
 949              		.loc 1 94 48 view .LVU361
 950              	.LBE59:
 951              		.loc 1 92 42 discriminator 2 view .LVU362
 952 00b8 3B180008 		addi 24,24,8
 953              	.LVL50:
 954              	.LBB60:
 955              		.loc 1 94 54 view .LVU363
 956 00bc 7CFC4214 		add 7,28,8
 957              		.loc 1 95 50 view .LVU364
 958 00c0 38080001 		addi 0,8,1
 959              		.loc 1 94 54 view .LVU365
 960 00c4 54E7103A 		slwi 7,7,2
 961              		.loc 1 95 54 view .LVU366
 962 00c8 7CDC0214 		add 6,28,0
 963              		.loc 1 94 12 view .LVU367
 964 00cc 7CFF382E 		lwzx 7,31,7
 965              		.loc 1 95 54 view .LVU368
 966 00d0 54C6103A 		slwi 6,6,2
 967              		.loc 1 96 50 view .LVU369
 968 00d4 39680002 		addi 11,8,2
 969              		.loc 1 97 50 view .LVU370
 970 00d8 38680003 		addi 3,8,3
 971              		.loc 1 94 12 view .LVU371
 972 00dc 98E90000 		stb 7,0(9)
 973              		.loc 1 95 5 is_stmt 1 view .LVU372
 974              	.LVL51:
 975              		.loc 1 96 54 is_stmt 0 view .LVU373
 976 00e0 7CFC5A14 		add 7,28,11
 977 00e4 54E7103A 		slwi 7,7,2
 978              		.loc 1 97 54 view .LVU374
 979 00e8 7E5C1A14 		add 18,28,3
 980              		.loc 1 95 12 view .LVU375
 981 00ec 7CDF302E 		lwzx 6,31,6
 982              		.loc 1 97 54 view .LVU376
 983 00f0 5652103A 		slwi 18,18,2
 984              		.loc 1 98 50 view .LVU377
 985 00f4 38880004 		addi 4,8,4
 986              		.loc 1 99 50 view .LVU378
 987 00f8 38A80005 		addi 5,8,5
 988              		.loc 1 95 12 view .LVU379
 989 00fc 98C90001 		stb 6,1(9)
 990              		.loc 1 96 5 is_stmt 1 view .LVU380
 991              	.LVL52:
 992              		.loc 1 98 54 is_stmt 0 view .LVU381
 993 0100 7E7C2214 		add 19,28,4
 994 0104 5673103A 		slwi 19,19,2
 995              		.loc 1 99 54 view .LVU382
 996 0108 7EDC2A14 		add 22,28,5
 997              		.loc 1 96 12 view .LVU383
 998 010c 7EFF382E 		lwzx 23,31,7
 999              		.loc 1 99 54 view .LVU384
 1000 0110 56D6103A 		slwi 22,22,2
 1001              		.loc 1 100 50 view .LVU385
 1002 0114 38C80006 		addi 6,8,6
 1003              		.loc 1 101 50 view .LVU386
 1004 0118 38E80007 		addi 7,8,7
 1005              		.loc 1 96 12 view .LVU387
 1006 011c 9AE90002 		stb 23,2(9)
 1007              		.loc 1 97 5 is_stmt 1 view .LVU388
 1008              	.LVL53:
 1009              		.loc 1 100 54 is_stmt 0 view .LVU389
 1010 0120 7EFC3214 		add 23,28,6
 1011 0124 56F7103A 		slwi 23,23,2
 1012              		.loc 1 101 54 view .LVU390
 1013 0128 7D5C3A14 		add 10,28,7
 1014              		.loc 1 97 12 view .LVU391
 1015 012c 7E5F902E 		lwzx 18,31,18
 1016              		.loc 1 101 54 view .LVU392
 1017 0130 554A103A 		slwi 10,10,2
 1018              		.loc 1 94 54 view .LVU393
 1019 0134 7D88D214 		add 12,8,26
 1020              		.loc 1 95 54 view .LVU394
 1021 0138 7DC0D214 		add 14,0,26
 1022              		.loc 1 97 12 view .LVU395
 1023 013c 9A490003 		stb 18,3(9)
 1024              		.loc 1 98 5 is_stmt 1 view .LVU396
 1025              	.LVL54:
 1026              		.loc 1 94 54 is_stmt 0 view .LVU397
 1027 0140 558C103A 		slwi 12,12,2
 1028              		.loc 1 95 54 view .LVU398
 1029 0144 55CE103A 		slwi 14,14,2
 1030              		.loc 1 96 54 view .LVU399
 1031 0148 7DEBD214 		add 15,11,26
 1032              		.loc 1 98 12 view .LVU400
 1033 014c 7E7F982E 		lwzx 19,31,19
 1034              		.loc 1 96 54 view .LVU401
 1035 0150 55EF103A 		slwi 15,15,2
 1036              		.loc 1 97 54 view .LVU402
 1037 0154 7E03D214 		add 16,3,26
 1038              		.loc 1 98 54 view .LVU403
 1039 0158 7E24D214 		add 17,4,26
 1040              		.loc 1 98 12 view .LVU404
 1041 015c 9A690004 		stb 19,4(9)
 1042              		.loc 1 99 5 is_stmt 1 view .LVU405
 1043              	.LVL55:
 1044              		.loc 1 97 54 is_stmt 0 view .LVU406
 1045 0160 5610103A 		slwi 16,16,2
 1046              		.loc 1 98 54 view .LVU407
 1047 0164 5631103A 		slwi 17,17,2
 1048              		.loc 1 99 54 view .LVU408
 1049 0168 7E45D214 		add 18,5,26
 1050              		.loc 1 99 12 view .LVU409
 1051 016c 7EDFB02E 		lwzx 22,31,22
 1052              		.loc 1 99 54 view .LVU410
 1053 0170 5652103A 		slwi 18,18,2
 1054              		.loc 1 100 54 view .LVU411
 1055 0174 7E66D214 		add 19,6,26
 1056              		.loc 1 101 9 view .LVU412
 1057 0178 39290020 		addi 9,9,32
 1058              	.LVL56:
 1059              		.loc 1 99 12 view .LVU413
 1060 017c 9AC9FFE5 		stb 22,-27(9)
 1061              		.loc 1 100 5 is_stmt 1 view .LVU414
 1062              	.LVL57:
 1063              		.loc 1 100 54 is_stmt 0 view .LVU415
 1064 0180 5673103A 		slwi 19,19,2
 1065              		.loc 1 101 54 view .LVU416
 1066 0184 7EC7D214 		add 22,7,26
 1067              		.loc 1 100 12 view .LVU417
 1068 0188 7EFFB82E 		lwzx 23,31,23
 1069              		.loc 1 101 54 view .LVU418
 1070 018c 56D6103A 		slwi 22,22,2
 1071              		.loc 1 100 12 view .LVU419
 1072 0190 9AE9FFE6 		stb 23,-26(9)
 1073              		.loc 1 101 5 is_stmt 1 view .LVU420
 1074              	.LVL58:
 1075              		.loc 1 94 54 is_stmt 0 view .LVU421
 1076 0194 7EE8DA14 		add 23,8,27
 1077 0198 56F7103A 		slwi 23,23,2
 1078 019c 7D08CA14 		add 8,8,25
 1079              		.loc 1 101 12 view .LVU422
 1080 01a0 7D5F502E 		lwzx 10,31,10
 1081              		.loc 1 94 54 view .LVU423
 1082 01a4 5508103A 		slwi 8,8,2
 1083              		.loc 1 101 12 view .LVU424
 1084 01a8 9949FFE7 		stb 10,-25(9)
 1085              		.loc 1 93 4 is_stmt 1 discriminator 3 view .LVU425
 1086              	.LVL59:
 1087              		.loc 1 93 32 discriminator 1 view .LVU426
 1088              		.loc 1 94 5 view .LVU427
 1089              		.loc 1 95 54 is_stmt 0 view .LVU428
 1090 01ac 7D40DA14 		add 10,0,27
 1091 01b0 554A103A 		slwi 10,10,2
 1092 01b4 7C00CA14 		add 0,0,25
 1093              		.loc 1 94 12 view .LVU429
 1094 01b8 7D9F602E 		lwzx 12,31,12
 1095              		.loc 1 95 54 view .LVU430
 1096 01bc 5400103A 		slwi 0,0,2
 1097              		.loc 1 94 12 view .LVU431
 1098 01c0 9989FFE8 		stb 12,-24(9)
 1099              		.loc 1 95 5 is_stmt 1 view .LVU432
 1100              		.loc 1 96 54 is_stmt 0 view .LVU433
 1101 01c4 7D8BDA14 		add 12,11,27
 1102 01c8 558C103A 		slwi 12,12,2
 1103 01cc 7D6BCA14 		add 11,11,25
 1104              		.loc 1 95 12 view .LVU434
 1105 01d0 7DDF702E 		lwzx 14,31,14
 1106              		.loc 1 96 54 view .LVU435
 1107 01d4 556B103A 		slwi 11,11,2
 1108              		.loc 1 95 12 view .LVU436
 1109 01d8 99C9FFE9 		stb 14,-23(9)
 1110              		.loc 1 96 5 is_stmt 1 view .LVU437
 1111              		.loc 1 97 54 is_stmt 0 view .LVU438
 1112 01dc 7DC3DA14 		add 14,3,27
 1113 01e0 55CE103A 		slwi 14,14,2
 1114 01e4 7C63CA14 		add 3,3,25
 1115              		.loc 1 96 12 view .LVU439
 1116 01e8 7DFF782E 		lwzx 15,31,15
 1117              		.loc 1 97 54 view .LVU440
 1118 01ec 5463103A 		slwi 3,3,2
 1119              		.loc 1 96 12 view .LVU441
 1120 01f0 99E9FFEA 		stb 15,-22(9)
 1121              		.loc 1 97 5 is_stmt 1 view .LVU442
 1122              		.loc 1 98 54 is_stmt 0 view .LVU443
 1123 01f4 7DE4DA14 		add 15,4,27
 1124 01f8 55EF103A 		slwi 15,15,2
 1125 01fc 7C84CA14 		add 4,4,25
 1126              		.loc 1 97 12 view .LVU444
 1127 0200 7E1F802E 		lwzx 16,31,16
 1128              		.loc 1 98 54 view .LVU445
 1129 0204 5484103A 		slwi 4,4,2
 1130              		.loc 1 97 12 view .LVU446
 1131 0208 9A09FFEB 		stb 16,-21(9)
 1132              		.loc 1 98 5 is_stmt 1 view .LVU447
 1133              		.loc 1 99 54 is_stmt 0 view .LVU448
 1134 020c 7E05DA14 		add 16,5,27
 1135 0210 5610103A 		slwi 16,16,2
 1136 0214 7CA5CA14 		add 5,5,25
 1137              		.loc 1 98 12 view .LVU449
 1138 0218 7E3F882E 		lwzx 17,31,17
 1139              		.loc 1 99 54 view .LVU450
 1140 021c 54A5103A 		slwi 5,5,2
 1141              		.loc 1 98 12 view .LVU451
 1142 0220 9A29FFEC 		stb 17,-20(9)
 1143              		.loc 1 99 5 is_stmt 1 view .LVU452
 1144              		.loc 1 100 54 is_stmt 0 view .LVU453
 1145 0224 7E26DA14 		add 17,6,27
 1146 0228 5631103A 		slwi 17,17,2
 1147 022c 7CC6CA14 		add 6,6,25
 1148              		.loc 1 99 12 view .LVU454
 1149 0230 7E5F902E 		lwzx 18,31,18
 1150              		.loc 1 100 54 view .LVU455
 1151 0234 54C6103A 		slwi 6,6,2
 1152              		.loc 1 99 12 view .LVU456
 1153 0238 9A49FFED 		stb 18,-19(9)
 1154              		.loc 1 100 5 is_stmt 1 view .LVU457
 1155              		.loc 1 101 54 is_stmt 0 view .LVU458
 1156 023c 7E47DA14 		add 18,7,27
 1157 0240 5652103A 		slwi 18,18,2
 1158 0244 7CE7CA14 		add 7,7,25
 1159              		.loc 1 100 12 view .LVU459
 1160 0248 7E7F982E 		lwzx 19,31,19
 1161              		.loc 1 101 54 view .LVU460
 1162 024c 54E7103A 		slwi 7,7,2
 1163              		.loc 1 100 12 view .LVU461
 1164 0250 9A69FFEE 		stb 19,-18(9)
 1165              		.loc 1 101 5 is_stmt 1 view .LVU462
 1166              		.loc 1 101 5 is_stmt 0 view .LVU463
 1167              	.LBE60:
 1168              		.loc 1 92 25 discriminator 1 view .LVU464
 1169 0254 5713043E 		rlwinm 19,24,0,0xffff
 1170 0258 7C13A840 		cmplw 0,19,21
 1171              	.LBB61:
 1172              		.loc 1 101 12 view .LVU465
 1173 025c 7EDFB02E 		lwzx 22,31,22
 1174 0260 9AC9FFEF 		stb 22,-17(9)
 1175              		.loc 1 93 4 is_stmt 1 discriminator 3 view .LVU466
 1176              	.LVL60:
 1177              		.loc 1 93 32 discriminator 1 view .LVU467
 1178              		.loc 1 94 5 view .LVU468
 1179              		.loc 1 94 12 is_stmt 0 view .LVU469
 1180 0264 7EFFB82E 		lwzx 23,31,23
 1181 0268 9AE9FFF0 		stb 23,-16(9)
 1182              		.loc 1 95 5 is_stmt 1 view .LVU470
 1183              		.loc 1 95 12 is_stmt 0 view .LVU471
 1184 026c 7EFF502E 		lwzx 23,31,10
 1185 0270 9AE9FFF1 		stb 23,-15(9)
 1186              		.loc 1 96 5 is_stmt 1 view .LVU472
 1187              		.loc 1 96 12 is_stmt 0 view .LVU473
 1188 0274 7EFF602E 		lwzx 23,31,12
 1189 0278 9AE9FFF2 		stb 23,-14(9)
 1190              		.loc 1 97 5 is_stmt 1 view .LVU474
 1191              		.loc 1 97 12 is_stmt 0 view .LVU475
 1192 027c 7EFF702E 		lwzx 23,31,14
 1193 0280 9AE9FFF3 		stb 23,-13(9)
 1194              		.loc 1 98 5 is_stmt 1 view .LVU476
 1195              		.loc 1 98 12 is_stmt 0 view .LVU477
 1196 0284 7EFF782E 		lwzx 23,31,15
 1197 0288 9AE9FFF4 		stb 23,-12(9)
 1198              		.loc 1 99 5 is_stmt 1 view .LVU478
 1199              		.loc 1 99 12 is_stmt 0 view .LVU479
 1200 028c 7EFF802E 		lwzx 23,31,16
 1201 0290 9AE9FFF5 		stb 23,-11(9)
 1202              		.loc 1 100 5 is_stmt 1 view .LVU480
 1203              		.loc 1 100 12 is_stmt 0 view .LVU481
 1204 0294 7EFF882E 		lwzx 23,31,17
 1205 0298 9AE9FFF6 		stb 23,-10(9)
 1206              		.loc 1 101 5 is_stmt 1 view .LVU482
 1207              		.loc 1 101 12 is_stmt 0 view .LVU483
 1208 029c 7EFF902E 		lwzx 23,31,18
 1209 02a0 9AE9FFF7 		stb 23,-9(9)
 1210              		.loc 1 93 4 is_stmt 1 discriminator 3 view .LVU484
 1211              	.LVL61:
 1212              		.loc 1 93 32 discriminator 1 view .LVU485
 1213              		.loc 1 94 5 view .LVU486
 1214              		.loc 1 94 12 is_stmt 0 view .LVU487
 1215 02a4 7D1F402E 		lwzx 8,31,8
 1216 02a8 9909FFF8 		stb 8,-8(9)
 1217              		.loc 1 95 5 is_stmt 1 view .LVU488
 1218              		.loc 1 95 12 is_stmt 0 view .LVU489
 1219 02ac 7D1F002E 		lwzx 8,31,0
 1220 02b0 9909FFF9 		stb 8,-7(9)
 1221              		.loc 1 96 5 is_stmt 1 view .LVU490
 1222              		.loc 1 96 12 is_stmt 0 view .LVU491
 1223 02b4 7D1F582E 		lwzx 8,31,11
 1224 02b8 9909FFFA 		stb 8,-6(9)
 1225              		.loc 1 97 5 is_stmt 1 view .LVU492
 1226              		.loc 1 97 12 is_stmt 0 view .LVU493
 1227 02bc 7D1F182E 		lwzx 8,31,3
 1228 02c0 9909FFFB 		stb 8,-5(9)
 1229              		.loc 1 98 5 is_stmt 1 view .LVU494
 1230              		.loc 1 98 12 is_stmt 0 view .LVU495
 1231 02c4 7D1F202E 		lwzx 8,31,4
 1232 02c8 9909FFFC 		stb 8,-4(9)
 1233              		.loc 1 99 5 is_stmt 1 view .LVU496
 1234              		.loc 1 99 12 is_stmt 0 view .LVU497
 1235 02cc 7D1F282E 		lwzx 8,31,5
 1236 02d0 9909FFFD 		stb 8,-3(9)
 1237              		.loc 1 100 5 is_stmt 1 view .LVU498
 1238              		.loc 1 100 12 is_stmt 0 view .LVU499
 1239 02d4 7D1F302E 		lwzx 8,31,6
 1240 02d8 9909FFFE 		stb 8,-2(9)
 1241              		.loc 1 101 5 is_stmt 1 view .LVU500
 1242              	.LVL62:
 1243              		.loc 1 101 12 is_stmt 0 view .LVU501
 1244 02dc 7D1F382E 		lwzx 8,31,7
 1245 02e0 9909FFFF 		stb 8,-1(9)
 1246              		.loc 1 93 4 is_stmt 1 discriminator 3 view .LVU502
 1247              	.LVL63:
 1248              		.loc 1 93 32 discriminator 1 view .LVU503
 1249              	.LBE61:
 1250              		.loc 1 92 3 discriminator 2 view .LVU504
 1251              		.loc 1 92 25 discriminator 1 view .LVU505
 1252 02e4 4180FDD0 		blt+ 0,.L23
 1253              	.LBE57:
 1254              		.loc 1 91 42 is_stmt 0 discriminator 2 view .LVU506
 1255 02e8 7D4902A6 		mfctr 10
 1256              		.loc 1 91 2 is_stmt 1 discriminator 2 view .LVU507
 1257              		.loc 1 91 42 is_stmt 0 discriminator 2 view .LVU508
 1258 02ec 394A0004 		addi 10,10,4
 1259              		.loc 1 91 24 discriminator 1 view .LVU509
 1260 02f0 5548043E 		rlwinm 8,10,0,0xffff
 1261              	.LVL64:
 1262              		.loc 1 91 24 is_stmt 1 discriminator 1 view .LVU510
 1263 02f4 7C08A040 		cmplw 0,8,20
 1264 02f8 4180FDA0 		blt+ 0,.L22
 1265 02fc 81C10008 		lwz 14,8(1)
 1266              		.cfi_restore 14
 1267 0300 81E1000C 		lwz 15,12(1)
 1268              		.cfi_restore 15
 1269 0304 82010010 		lwz 16,16(1)
 1270              		.cfi_restore 16
 1271 0308 82210014 		lwz 17,20(1)
 1272              		.cfi_restore 17
 1273 030c 82410018 		lwz 18,24(1)
 1274              		.cfi_restore 18
 1275 0310 8261001C 		lwz 19,28(1)
 1276              		.cfi_restore 19
 1277 0314 82C10028 		lwz 22,40(1)
 1278              		.cfi_restore 22
 1279 0318 82E1002C 		lwz 23,44(1)
 1280              		.cfi_restore 23
 1281 031c 83010030 		lwz 24,48(1)
 1282              		.cfi_restore 24
 1283              	.LVL65:
 1284              		.loc 1 91 24 is_stmt 0 discriminator 1 view .LVU511
 1285 0320 83210034 		lwz 25,52(1)
 1286              		.cfi_restore 25
 1287 0324 83410038 		lwz 26,56(1)
 1288              		.cfi_restore 26
 1289 0328 8361003C 		lwz 27,60(1)
 1290              		.cfi_restore 27
 1291 032c 83810040 		lwz 28,64(1)
 1292              		.cfi_restore 28
 1293              	.LVL66:
 1294              	.L21:
 1295              		.loc 1 91 24 discriminator 1 view .LVU512
 1296              	.LBE62:
 1297              		.loc 1 105 2 is_stmt 1 view .LVU513
 1298              		.loc 1 105 14 is_stmt 0 view .LVU514
 1299 0330 7FC3F378 		mr 3,30
 1300 0334 7FA4EB78 		mr 4,29
 1301 0338 48000001 		bl DCFlushRange
 1302              	.LVL67:
 1303              		.loc 1 107 2 is_stmt 1 view .LVU515
 1304              		.loc 1 108 1 is_stmt 0 view .LVU516
 1305 033c 80010054 		lwz 0,84(1)
 1306 0340 7FC3F378 		mr 3,30
 1307 0344 82810020 		lwz 20,32(1)
 1308              	.LVL68:
 1309              		.loc 1 108 1 view .LVU517
 1310 0348 82A10024 		lwz 21,36(1)
 1311              	.LVL69:
 1312              		.loc 1 108 1 view .LVU518
 1313 034c 7C0803A6 		mtlr 0
 1314              		.cfi_restore 65
 1315 0350 83A10044 		lwz 29,68(1)
 1316              	.LVL70:
 1317              		.loc 1 108 1 view .LVU519
 1318 0354 83C10048 		lwz 30,72(1)
 1319              	.LVL71:
 1320              		.loc 1 108 1 view .LVU520
 1321 0358 83E1004C 		lwz 31,76(1)
 1322              	.LVL72:
 1323              		.loc 1 108 1 view .LVU521
 1324 035c 38210050 		addi 1,1,80
 1325              		.cfi_restore 31
 1326              		.cfi_restore 30
 1327              		.cfi_restore 29
 1328              		.cfi_restore 21
 1329              		.cfi_restore 20
 1330              		.cfi_def_cfa_offset 0
 1331 0360 4E800020 		blr
 1332              		.cfi_endproc
 1333              	.LFE69:
 1334              		.size	_ZN11Metaphrasis17convertBufferToI8EPjtt, .-_ZN11Metaphrasis17convertBufferToI8EPjtt
 1335              		.section	.text._ZN11Metaphrasis16convertRGBAToIA4Ej,"ax",@progbits
 1336              		.align 2
 1337              		.globl _ZN11Metaphrasis16convertRGBAToIA4Ej
 1338              		.type	_ZN11Metaphrasis16convertRGBAToIA4Ej, @function
 1339              	_ZN11Metaphrasis16convertRGBAToIA4Ej:
 1340              	.LVL73:
 1341              	.LFB70:
 1342              		.loc 1 119 54 is_stmt 1 view -0
 1343              		.cfi_startproc
 1344              		.loc 1 120 2 view .LVU523
 1345              		.loc 1 122 2 view .LVU524
 1346              		.loc 1 123 2 view .LVU525
 1347              		.loc 1 125 2 view .LVU526
 1348              		.loc 1 125 16 is_stmt 0 view .LVU527
 1349 0000 5469E73E 		rlwinm 9,3,28,28,31
 1350              		.loc 1 125 20 view .LVU528
 1351 0004 5463C636 		rlwinm 3,3,24,24,27
 1352              	.LVL74:
 1353              		.loc 1 126 1 view .LVU529
 1354 0008 7C634B78 		or 3,3,9
 1355 000c 4E800020 		blr
 1356              		.cfi_endproc
 1357              	.LFE70:
 1358              		.size	_ZN11Metaphrasis16convertRGBAToIA4Ej, .-_ZN11Metaphrasis16convertRGBAToIA4Ej
 1359              		.section	.text._ZN11Metaphrasis18convertBufferToIA4EPjtt,"ax",@progbits
 1360              		.align 2
 1361              		.globl _ZN11Metaphrasis18convertBufferToIA4EPjtt
 1362              		.type	_ZN11Metaphrasis18convertBufferToIA4EPjtt, @function
 1363              	_ZN11Metaphrasis18convertBufferToIA4EPjtt:
 1364              	.LVL75:
 1365              	.LFB71:
 1366              		.loc 1 139 110 is_stmt 1 view -0
 1367              		.cfi_startproc
 1368              		.loc 1 140 2 view .LVU531
 1369              		.loc 1 139 110 is_stmt 0 view .LVU532
 1370 0000 9421FFB0 		stwu 1,-80(1)
 1371              		.cfi_def_cfa_offset 80
 1372 0004 7C0802A6 		mflr 0
 1373 0008 93A10044 		stw 29,68(1)
 1374              		.cfi_register 65, 0
 1375              		.cfi_offset 29, -12
 1376              		.loc 1 140 36 view .LVU533
 1377 000c 7FA521D6 		mullw 29,5,4
 1378              	.LVL76:
 1379              		.loc 1 141 2 is_stmt 1 view .LVU534
 1380              		.loc 1 139 110 is_stmt 0 view .LVU535
 1381 0010 92C10028 		stw 22,40(1)
 1382              		.cfi_offset 22, -40
 1383 0014 7C962378 		mr 22,4
 1384 0018 93E1004C 		stw 31,76(1)
 1385              		.cfi_offset 31, -4
 1386 001c 7C7F1B78 		mr 31,3
 1387              		.loc 1 141 48 view .LVU536
 1388 0020 38600020 		li 3,32
 1389              	.LVL77:
 1390              		.loc 1 139 110 view .LVU537
 1391 0024 90010054 		stw 0,84(1)
 1392              		.loc 1 141 48 view .LVU538
 1393 0028 7FA4EB78 		mr 4,29
 1394              	.LVL78:
 1395              		.loc 1 139 110 view .LVU539
 1396 002c 92A10024 		stw 21,36(1)
 1397 0030 93C10048 		stw 30,72(1)
 1398              		.cfi_offset 65, 4
 1399              		.cfi_offset 21, -44
 1400              		.cfi_offset 30, -8
 1401 0034 7CB52B78 		mr 21,5
 1402              		.loc 1 141 48 view .LVU540
 1403 0038 48000001 		bl memalign
 1404              	.LVL79:
 1405              		.loc 1 142 8 view .LVU541
 1406 003c 7FA5EB78 		mr 5,29
 1407 0040 38800000 		li 4,0
 1408              		.loc 1 141 48 view .LVU542
 1409 0044 7C7E1B78 		mr 30,3
 1410              	.LVL80:
 1411              		.loc 1 142 2 is_stmt 1 view .LVU543
 1412              		.loc 1 142 8 is_stmt 0 view .LVU544
 1413 0048 48000001 		bl memset
 1414              	.LVL81:
 1415              		.loc 1 144 2 is_stmt 1 view .LVU545
 1416              		.loc 1 145 2 view .LVU546
 1417              		.loc 1 147 2 view .LVU547
 1418              	.LBB63:
 1419              		.loc 1 147 24 discriminator 1 view .LVU548
 1420 004c 2C150000 		cmpwi 0,21,0
 1421 0050 41820460 		beq- 0,.L37
 1422 0054 2C160000 		cmpwi 0,22,0
 1423              	.LBE63:
 1424              		.loc 1 145 11 is_stmt 0 view .LVU549
 1425 0058 7FC9F378 		mr 9,30
 1426              	.LBB159:
 1427              		.loc 1 147 15 view .LVU550
 1428 005c 39400000 		li 10,0
 1429 0060 41820450 		beq- 0,.L37
 1430 0064 91C10008 		stw 14,8(1)
 1431              		.cfi_offset 14, -72
 1432 0068 91E1000C 		stw 15,12(1)
 1433              		.cfi_offset 15, -68
 1434 006c 92010010 		stw 16,16(1)
 1435              		.cfi_offset 16, -64
 1436 0070 92210014 		stw 17,20(1)
 1437              		.cfi_offset 17, -60
 1438 0074 92410018 		stw 18,24(1)
 1439              		.cfi_offset 18, -56
 1440 0078 9261001C 		stw 19,28(1)
 1441              		.cfi_offset 19, -52
 1442 007c 92810020 		stw 20,32(1)
 1443              		.cfi_offset 20, -48
 1444 0080 92E1002C 		stw 23,44(1)
 1445              		.cfi_offset 23, -36
 1446 0084 93010030 		stw 24,48(1)
 1447              		.cfi_offset 24, -32
 1448 0088 93210034 		stw 25,52(1)
 1449              		.cfi_offset 25, -28
 1450 008c 93410038 		stw 26,56(1)
 1451              		.cfi_offset 26, -24
 1452 0090 9361003C 		stw 27,60(1)
 1453              		.cfi_offset 27, -20
 1454 0094 93810040 		stw 28,64(1)
 1455              		.cfi_offset 28, -16
 1456              	.LVL82:
 1457              	.L38:
 1458              	.LBB64:
 1459              		.loc 1 148 25 is_stmt 1 discriminator 1 view .LVU551
 1460              	.LBB65:
 1461              		.loc 1 150 50 is_stmt 0 view .LVU552
 1462 0098 555C043E 		rlwinm 28,10,0,0xffff
 1463 009c 7D4903A6 		mtctr 10
 1464              		.loc 1 150 60 view .LVU553
 1465 00a0 7F9CB1D6 		mullw 28,28,22
 1466              	.LBE65:
 1467              		.loc 1 148 16 view .LVU554
 1468 00a4 3B000000 		li 24,0
 1469              	.LBB156:
 1470              		.loc 1 150 60 view .LVU555
 1471 00a8 7F56E214 		add 26,22,28
 1472 00ac 7F76D214 		add 27,22,26
 1473 00b0 7F36DA14 		add 25,22,27
 1474              	.LVL83:
 1475              	.L39:
 1476              		.loc 1 149 32 is_stmt 1 discriminator 1 view .LVU556
 1477              		.loc 1 150 5 view .LVU557
 1478              		.loc 1 150 78 is_stmt 0 view .LVU558
 1479 00b4 5708043E 		rlwinm 8,24,0,0xffff
 1480              	.LBE156:
 1481              		.loc 1 148 42 discriminator 2 view .LVU559
 1482 00b8 3B180008 		addi 24,24,8
 1483              	.LVL84:
 1484              	.LBB157:
 1485              		.loc 1 150 84 view .LVU560
 1486 00bc 7CFC4214 		add 7,28,8
 1487              		.loc 1 151 80 view .LVU561
 1488 00c0 38080001 		addi 0,8,1
 1489              		.loc 1 150 43 view .LVU562
 1490 00c4 54E7103A 		slwi 7,7,2
 1491              		.loc 1 151 84 view .LVU563
 1492 00c8 7CDC0214 		add 6,28,0
 1493              		.loc 1 150 43 view .LVU564
 1494 00cc 7CFF382E 		lwzx 7,31,7
 1495              	.LVL85:
 1496              	.LBB66:
 1497              	.LBI66:
 1498              		.loc 1 119 9 is_stmt 1 view .LVU565
 1499              	.LBB67:
 1500              		.loc 1 120 2 view .LVU566
 1501              		.loc 1 122 2 view .LVU567
 1502              		.loc 1 123 2 view .LVU568
 1503              		.loc 1 125 2 view .LVU569
 1504              		.loc 1 125 2 is_stmt 0 view .LVU570
 1505              	.LBE67:
 1506              	.LBE66:
 1507              		.loc 1 151 43 view .LVU571
 1508 00d0 54C6103A 		slwi 6,6,2
 1509              		.loc 1 152 80 view .LVU572
 1510 00d4 39680002 		addi 11,8,2
 1511              		.loc 1 153 80 view .LVU573
 1512 00d8 38680003 		addi 3,8,3
 1513              	.LBB73:
 1514              	.LBB68:
 1515              		.loc 1 122 4 view .LVU574
 1516 00dc 54E5C236 		rlwinm 5,7,24,8,27
 1517              		.loc 1 125 16 view .LVU575
 1518 00e0 54E7E73E 		rlwinm 7,7,28,28,31
 1519              		.loc 1 125 20 view .LVU576
 1520 00e4 7CA73B78 		or 7,5,7
 1521              	.LBE68:
 1522              	.LBE73:
 1523              		.loc 1 152 84 view .LVU577
 1524 00e8 7EFC5A14 		add 23,28,11
 1525              		.loc 1 150 12 discriminator 1 view .LVU578
 1526 00ec 98E90000 		stb 7,0(9)
 1527              		.loc 1 151 5 is_stmt 1 view .LVU579
 1528              		.loc 1 152 43 is_stmt 0 view .LVU580
 1529 00f0 56F7103A 		slwi 23,23,2
 1530              		.loc 1 153 84 view .LVU581
 1531 00f4 7E7C1A14 		add 19,28,3
 1532              		.loc 1 154 80 view .LVU582
 1533 00f8 38880004 		addi 4,8,4
 1534              		.loc 1 151 43 view .LVU583
 1535 00fc 7CFF302E 		lwzx 7,31,6
 1536              	.LVL86:
 1537              	.LBB74:
 1538              	.LBI74:
 1539              		.loc 1 119 9 is_stmt 1 view .LVU584
 1540              	.LBB75:
 1541              		.loc 1 120 2 view .LVU585
 1542              		.loc 1 122 2 view .LVU586
 1543              		.loc 1 123 2 view .LVU587
 1544              		.loc 1 125 2 view .LVU588
 1545              		.loc 1 125 2 is_stmt 0 view .LVU589
 1546              	.LBE75:
 1547              	.LBE74:
 1548              		.loc 1 153 43 view .LVU590
 1549 0100 5673103A 		slwi 19,19,2
 1550              		.loc 1 154 84 view .LVU591
 1551 0104 7E9C2214 		add 20,28,4
 1552              		.loc 1 155 80 view .LVU592
 1553 0108 38A80005 		addi 5,8,5
 1554              	.LBB81:
 1555              	.LBB76:
 1556              		.loc 1 122 4 view .LVU593
 1557 010c 54E6C236 		rlwinm 6,7,24,8,27
 1558              		.loc 1 125 16 view .LVU594
 1559 0110 54E7E73E 		rlwinm 7,7,28,28,31
 1560              		.loc 1 125 20 view .LVU595
 1561 0114 7CC73B78 		or 7,6,7
 1562              	.LBE76:
 1563              	.LBE81:
 1564              		.loc 1 154 43 view .LVU596
 1565 0118 5694103A 		slwi 20,20,2
 1566              		.loc 1 151 12 discriminator 1 view .LVU597
 1567 011c 98E90001 		stb 7,1(9)
 1568              		.loc 1 152 5 is_stmt 1 view .LVU598
 1569              		.loc 1 155 84 is_stmt 0 view .LVU599
 1570 0120 7E1C2A14 		add 16,28,5
 1571              		.loc 1 155 43 view .LVU600
 1572 0124 5610103A 		slwi 16,16,2
 1573              		.loc 1 156 80 view .LVU601
 1574 0128 38C80006 		addi 6,8,6
 1575              		.loc 1 152 43 view .LVU602
 1576 012c 7EFFB82E 		lwzx 23,31,23
 1577              	.LVL87:
 1578              	.LBB82:
 1579              	.LBI82:
 1580              		.loc 1 119 9 is_stmt 1 view .LVU603
 1581              	.LBB83:
 1582              		.loc 1 120 2 view .LVU604
 1583              		.loc 1 122 2 view .LVU605
 1584              		.loc 1 123 2 view .LVU606
 1585              		.loc 1 125 2 view .LVU607
 1586              		.loc 1 125 2 is_stmt 0 view .LVU608
 1587              	.LBE83:
 1588              	.LBE82:
 1589              		.loc 1 156 84 view .LVU609
 1590 0130 7DFC3214 		add 15,28,6
 1591              		.loc 1 156 43 view .LVU610
 1592 0134 55EF103A 		slwi 15,15,2
 1593              		.loc 1 157 80 view .LVU611
 1594 0138 38E80007 		addi 7,8,7
 1595              	.LBB89:
 1596              	.LBB84:
 1597              		.loc 1 122 4 view .LVU612
 1598 013c 56F2C236 		rlwinm 18,23,24,8,27
 1599              		.loc 1 125 16 view .LVU613
 1600 0140 56F7E73E 		rlwinm 23,23,28,28,31
 1601              		.loc 1 125 20 view .LVU614
 1602 0144 7E57BB78 		or 23,18,23
 1603              	.LBE84:
 1604              	.LBE89:
 1605              		.loc 1 157 84 view .LVU615
 1606 0148 7D5C3A14 		add 10,28,7
 1607              		.loc 1 152 12 discriminator 1 view .LVU616
 1608 014c 9AE90002 		stb 23,2(9)
 1609              		.loc 1 153 5 is_stmt 1 view .LVU617
 1610              		.loc 1 157 43 is_stmt 0 view .LVU618
 1611 0150 554A103A 		slwi 10,10,2
 1612              		.loc 1 150 84 view .LVU619
 1613 0154 7DC8D214 		add 14,8,26
 1614              		.loc 1 151 84 view .LVU620
 1615 0158 7E20D214 		add 17,0,26
 1616              		.loc 1 153 43 view .LVU621
 1617 015c 7EFF982E 		lwzx 23,31,19
 1618              	.LVL88:
 1619              	.LBB90:
 1620              	.LBI90:
 1621              		.loc 1 119 9 is_stmt 1 view .LVU622
 1622              	.LBB91:
 1623              		.loc 1 120 2 view .LVU623
 1624              		.loc 1 122 2 view .LVU624
 1625              		.loc 1 123 2 view .LVU625
 1626              		.loc 1 125 2 view .LVU626
 1627              		.loc 1 125 2 is_stmt 0 view .LVU627
 1628              	.LBE91:
 1629              	.LBE90:
 1630              		.loc 1 150 43 view .LVU628
 1631 0160 55CE103A 		slwi 14,14,2
 1632              		.loc 1 151 43 view .LVU629
 1633 0164 5631103A 		slwi 17,17,2
 1634              		.loc 1 152 84 view .LVU630
 1635 0168 7E4BD214 		add 18,11,26
 1636              	.LBB97:
 1637              	.LBB92:
 1638              		.loc 1 122 4 view .LVU631
 1639 016c 56F3C236 		rlwinm 19,23,24,8,27
 1640              		.loc 1 125 16 view .LVU632
 1641 0170 56F7E73E 		rlwinm 23,23,28,28,31
 1642              		.loc 1 125 20 view .LVU633
 1643 0174 7E77BB78 		or 23,19,23
 1644              	.LBE92:
 1645              	.LBE97:
 1646              		.loc 1 152 43 view .LVU634
 1647 0178 5652103A 		slwi 18,18,2
 1648              		.loc 1 153 12 discriminator 1 view .LVU635
 1649 017c 9AE90003 		stb 23,3(9)
 1650              		.loc 1 154 5 is_stmt 1 view .LVU636
 1651              		.loc 1 153 84 is_stmt 0 view .LVU637
 1652 0180 7E63D214 		add 19,3,26
 1653              		.loc 1 153 43 view .LVU638
 1654 0184 5673103A 		slwi 19,19,2
 1655              		.loc 1 157 9 discriminator 1 view .LVU639
 1656 0188 39290020 		addi 9,9,32
 1657              	.LVL89:
 1658              		.loc 1 154 43 view .LVU640
 1659 018c 7EFFA02E 		lwzx 23,31,20
 1660              	.LVL90:
 1661              	.LBB98:
 1662              	.LBI98:
 1663              		.loc 1 119 9 is_stmt 1 view .LVU641
 1664              	.LBB99:
 1665              		.loc 1 120 2 view .LVU642
 1666              		.loc 1 122 2 view .LVU643
 1667              		.loc 1 123 2 view .LVU644
 1668              		.loc 1 125 2 view .LVU645
 1669              		.loc 1 125 2 is_stmt 0 view .LVU646
 1670              	.LBE99:
 1671              	.LBE98:
 1672              		.loc 1 154 84 view .LVU647
 1673 0190 7E84D214 		add 20,4,26
 1674              		.loc 1 154 43 view .LVU648
 1675 0194 5694103A 		slwi 20,20,2
 1676              	.LBB105:
 1677              	.LBB100:
 1678              		.loc 1 122 4 view .LVU649
 1679 0198 56ECC236 		rlwinm 12,23,24,8,27
 1680              		.loc 1 125 16 view .LVU650
 1681 019c 56F7E73E 		rlwinm 23,23,28,28,31
 1682              		.loc 1 125 20 view .LVU651
 1683 01a0 7D97BB78 		or 23,12,23
 1684              	.LBE100:
 1685              	.LBE105:
 1686              		.loc 1 154 12 discriminator 1 view .LVU652
 1687 01a4 9AE9FFE4 		stb 23,-28(9)
 1688              		.loc 1 155 5 is_stmt 1 view .LVU653
 1689              		.loc 1 155 84 is_stmt 0 view .LVU654
 1690 01a8 7EE5D214 		add 23,5,26
 1691              		.loc 1 155 43 view .LVU655
 1692 01ac 56F7103A 		slwi 23,23,2
 1693 01b0 7E1F802E 		lwzx 16,31,16
 1694              	.LVL91:
 1695              	.LBB106:
 1696              	.LBI106:
 1697              		.loc 1 119 9 is_stmt 1 view .LVU656
 1698              	.LBB107:
 1699              		.loc 1 120 2 view .LVU657
 1700              		.loc 1 122 2 view .LVU658
 1701              		.loc 1 123 2 view .LVU659
 1702              		.loc 1 125 2 view .LVU660
 1703              		.loc 1 122 4 is_stmt 0 view .LVU661
 1704 01b4 560CC236 		rlwinm 12,16,24,8,27
 1705              		.loc 1 125 16 view .LVU662
 1706 01b8 5610E73E 		rlwinm 16,16,28,28,31
 1707              		.loc 1 125 20 view .LVU663
 1708 01bc 7D908378 		or 16,12,16
 1709              	.LBE107:
 1710              	.LBE106:
 1711              		.loc 1 156 84 view .LVU664
 1712 01c0 7D86D214 		add 12,6,26
 1713              		.loc 1 155 12 discriminator 1 view .LVU665
 1714 01c4 9A09FFE5 		stb 16,-27(9)
 1715              		.loc 1 156 5 is_stmt 1 view .LVU666
 1716              		.loc 1 156 43 is_stmt 0 view .LVU667
 1717 01c8 558C103A 		slwi 12,12,2
 1718 01cc 7E1F782E 		lwzx 16,31,15
 1719              	.LVL92:
 1720              	.LBB112:
 1721              	.LBI112:
 1722              		.loc 1 119 9 is_stmt 1 view .LVU668
 1723              	.LBB113:
 1724              		.loc 1 120 2 view .LVU669
 1725              		.loc 1 122 2 view .LVU670
 1726              		.loc 1 123 2 view .LVU671
 1727              		.loc 1 125 2 view .LVU672
 1728              		.loc 1 122 4 is_stmt 0 view .LVU673
 1729 01d0 560FC236 		rlwinm 15,16,24,8,27
 1730              		.loc 1 125 16 view .LVU674
 1731 01d4 5610E73E 		rlwinm 16,16,28,28,31
 1732              		.loc 1 125 20 view .LVU675
 1733 01d8 7DF08378 		or 16,15,16
 1734              	.LBE113:
 1735              	.LBE112:
 1736              		.loc 1 157 84 view .LVU676
 1737 01dc 7DE7D214 		add 15,7,26
 1738              		.loc 1 156 12 discriminator 1 view .LVU677
 1739 01e0 9A09FFE6 		stb 16,-26(9)
 1740              		.loc 1 157 5 is_stmt 1 view .LVU678
 1741              		.loc 1 157 43 is_stmt 0 view .LVU679
 1742 01e4 55EF103A 		slwi 15,15,2
 1743 01e8 7E1F502E 		lwzx 16,31,10
 1744              	.LVL93:
 1745              	.LBB118:
 1746              	.LBI118:
 1747              		.loc 1 119 9 is_stmt 1 view .LVU680
 1748              	.LBB119:
 1749              		.loc 1 120 2 view .LVU681
 1750              		.loc 1 122 2 view .LVU682
 1751              		.loc 1 123 2 view .LVU683
 1752              		.loc 1 125 2 view .LVU684
 1753              		.loc 1 122 4 is_stmt 0 view .LVU685
 1754 01ec 560AC236 		rlwinm 10,16,24,8,27
 1755              		.loc 1 125 16 view .LVU686
 1756 01f0 5610E73E 		rlwinm 16,16,28,28,31
 1757              		.loc 1 125 20 view .LVU687
 1758 01f4 7D508378 		or 16,10,16
 1759              	.LBE119:
 1760              	.LBE118:
 1761              		.loc 1 157 12 discriminator 1 view .LVU688
 1762 01f8 9A09FFE7 		stb 16,-25(9)
 1763              		.loc 1 149 4 is_stmt 1 discriminator 3 view .LVU689
 1764              	.LVL94:
 1765              		.loc 1 149 32 discriminator 1 view .LVU690
 1766              		.loc 1 150 5 view .LVU691
 1767              		.loc 1 150 84 is_stmt 0 view .LVU692
 1768 01fc 7E08DA14 		add 16,8,27
 1769              		.loc 1 150 43 view .LVU693
 1770 0200 5610103A 		slwi 16,16,2
 1771              		.loc 1 150 84 view .LVU694
 1772 0204 7D08CA14 		add 8,8,25
 1773              		.loc 1 150 43 view .LVU695
 1774 0208 7DDF702E 		lwzx 14,31,14
 1775              	.LVL95:
 1776              	.LBB124:
 1777              		.loc 1 119 9 is_stmt 1 view .LVU696
 1778              	.LBB69:
 1779              		.loc 1 120 2 view .LVU697
 1780              		.loc 1 122 2 view .LVU698
 1781              		.loc 1 123 2 view .LVU699
 1782              		.loc 1 125 2 view .LVU700
 1783              		.loc 1 125 2 is_stmt 0 view .LVU701
 1784              	.LBE69:
 1785              	.LBE124:
 1786              		.loc 1 150 43 view .LVU702
 1787 020c 5508103A 		slwi 8,8,2
 1788              	.LBB125:
 1789              	.LBB70:
 1790              		.loc 1 122 4 view .LVU703
 1791 0210 55CAC236 		rlwinm 10,14,24,8,27
 1792              		.loc 1 125 16 view .LVU704
 1793 0214 55CEE73E 		rlwinm 14,14,28,28,31
 1794              		.loc 1 125 20 view .LVU705
 1795 0218 7D4E7378 		or 14,10,14
 1796              	.LBE70:
 1797              	.LBE125:
 1798              		.loc 1 150 12 discriminator 1 view .LVU706
 1799 021c 99C9FFE8 		stb 14,-24(9)
 1800              		.loc 1 151 5 is_stmt 1 view .LVU707
 1801              		.loc 1 151 84 is_stmt 0 view .LVU708
 1802 0220 7DC0DA14 		add 14,0,27
 1803              		.loc 1 151 43 view .LVU709
 1804 0224 55CE103A 		slwi 14,14,2
 1805              		.loc 1 151 84 view .LVU710
 1806 0228 7C00CA14 		add 0,0,25
 1807              		.loc 1 151 43 view .LVU711
 1808 022c 7E3F882E 		lwzx 17,31,17
 1809              	.LVL96:
 1810              	.LBB126:
 1811              		.loc 1 119 9 is_stmt 1 view .LVU712
 1812              	.LBB77:
 1813              		.loc 1 120 2 view .LVU713
 1814              		.loc 1 122 2 view .LVU714
 1815              		.loc 1 123 2 view .LVU715
 1816              		.loc 1 125 2 view .LVU716
 1817              		.loc 1 125 2 is_stmt 0 view .LVU717
 1818              	.LBE77:
 1819              	.LBE126:
 1820              		.loc 1 151 43 view .LVU718
 1821 0230 5400103A 		slwi 0,0,2
 1822              	.LBB127:
 1823              	.LBB78:
 1824              		.loc 1 122 4 view .LVU719
 1825 0234 562AC236 		rlwinm 10,17,24,8,27
 1826              		.loc 1 125 16 view .LVU720
 1827 0238 5631E73E 		rlwinm 17,17,28,28,31
 1828              		.loc 1 125 20 view .LVU721
 1829 023c 7D518B78 		or 17,10,17
 1830              	.LBE78:
 1831              	.LBE127:
 1832              		.loc 1 151 12 discriminator 1 view .LVU722
 1833 0240 9A29FFE9 		stb 17,-23(9)
 1834              		.loc 1 152 5 is_stmt 1 view .LVU723
 1835              		.loc 1 152 84 is_stmt 0 view .LVU724
 1836 0244 7E2BDA14 		add 17,11,27
 1837              		.loc 1 152 43 view .LVU725
 1838 0248 5631103A 		slwi 17,17,2
 1839              		.loc 1 152 84 view .LVU726
 1840 024c 7D6BCA14 		add 11,11,25
 1841              		.loc 1 152 43 view .LVU727
 1842 0250 7E5F902E 		lwzx 18,31,18
 1843              	.LVL97:
 1844              	.LBB128:
 1845              		.loc 1 119 9 is_stmt 1 view .LVU728
 1846              	.LBB85:
 1847              		.loc 1 120 2 view .LVU729
 1848              		.loc 1 122 2 view .LVU730
 1849              		.loc 1 123 2 view .LVU731
 1850              		.loc 1 125 2 view .LVU732
 1851              		.loc 1 125 2 is_stmt 0 view .LVU733
 1852              	.LBE85:
 1853              	.LBE128:
 1854              		.loc 1 152 43 view .LVU734
 1855 0254 556B103A 		slwi 11,11,2
 1856              	.LBB129:
 1857              	.LBB86:
 1858              		.loc 1 122 4 view .LVU735
 1859 0258 564AC236 		rlwinm 10,18,24,8,27
 1860              		.loc 1 125 16 view .LVU736
 1861 025c 5652E73E 		rlwinm 18,18,28,28,31
 1862              		.loc 1 125 20 view .LVU737
 1863 0260 7D529378 		or 18,10,18
 1864              	.LBE86:
 1865              	.LBE129:
 1866              		.loc 1 152 12 discriminator 1 view .LVU738
 1867 0264 9A49FFEA 		stb 18,-22(9)
 1868              		.loc 1 153 5 is_stmt 1 view .LVU739
 1869              		.loc 1 153 84 is_stmt 0 view .LVU740
 1870 0268 7E43DA14 		add 18,3,27
 1871              		.loc 1 153 43 view .LVU741
 1872 026c 5652103A 		slwi 18,18,2
 1873              		.loc 1 153 84 view .LVU742
 1874 0270 7C63CA14 		add 3,3,25
 1875              		.loc 1 153 43 view .LVU743
 1876 0274 7E7F982E 		lwzx 19,31,19
 1877              	.LVL98:
 1878              	.LBB130:
 1879              		.loc 1 119 9 is_stmt 1 view .LVU744
 1880              	.LBB93:
 1881              		.loc 1 120 2 view .LVU745
 1882              		.loc 1 122 2 view .LVU746
 1883              		.loc 1 123 2 view .LVU747
 1884              		.loc 1 125 2 view .LVU748
 1885              		.loc 1 125 2 is_stmt 0 view .LVU749
 1886              	.LBE93:
 1887              	.LBE130:
 1888              		.loc 1 153 43 view .LVU750
 1889 0278 5463103A 		slwi 3,3,2
 1890              	.LBB131:
 1891              	.LBB94:
 1892              		.loc 1 122 4 view .LVU751
 1893 027c 566AC236 		rlwinm 10,19,24,8,27
 1894              		.loc 1 125 16 view .LVU752
 1895 0280 5673E73E 		rlwinm 19,19,28,28,31
 1896              		.loc 1 125 20 view .LVU753
 1897 0284 7D539B78 		or 19,10,19
 1898              	.LBE94:
 1899              	.LBE131:
 1900              		.loc 1 153 12 discriminator 1 view .LVU754
 1901 0288 9A69FFEB 		stb 19,-21(9)
 1902              		.loc 1 154 5 is_stmt 1 view .LVU755
 1903              		.loc 1 154 84 is_stmt 0 view .LVU756
 1904 028c 7E64DA14 		add 19,4,27
 1905              		.loc 1 154 43 view .LVU757
 1906 0290 5673103A 		slwi 19,19,2
 1907              		.loc 1 154 84 view .LVU758
 1908 0294 7C84CA14 		add 4,4,25
 1909              		.loc 1 154 43 view .LVU759
 1910 0298 7E9FA02E 		lwzx 20,31,20
 1911              	.LVL99:
 1912              	.LBB132:
 1913              		.loc 1 119 9 is_stmt 1 view .LVU760
 1914              	.LBB101:
 1915              		.loc 1 120 2 view .LVU761
 1916              		.loc 1 122 2 view .LVU762
 1917              		.loc 1 123 2 view .LVU763
 1918              		.loc 1 125 2 view .LVU764
 1919              		.loc 1 125 2 is_stmt 0 view .LVU765
 1920              	.LBE101:
 1921              	.LBE132:
 1922              		.loc 1 154 43 view .LVU766
 1923 029c 5484103A 		slwi 4,4,2
 1924              	.LBB133:
 1925              	.LBB102:
 1926              		.loc 1 122 4 view .LVU767
 1927 02a0 568AC236 		rlwinm 10,20,24,8,27
 1928              		.loc 1 125 16 view .LVU768
 1929 02a4 5694E73E 		rlwinm 20,20,28,28,31
 1930              		.loc 1 125 20 view .LVU769
 1931 02a8 7D54A378 		or 20,10,20
 1932              	.LBE102:
 1933              	.LBE133:
 1934              		.loc 1 154 12 discriminator 1 view .LVU770
 1935 02ac 9A89FFEC 		stb 20,-20(9)
 1936              		.loc 1 155 5 is_stmt 1 view .LVU771
 1937              		.loc 1 155 84 is_stmt 0 view .LVU772
 1938 02b0 7E85DA14 		add 20,5,27
 1939              		.loc 1 155 43 view .LVU773
 1940 02b4 5694103A 		slwi 20,20,2
 1941              		.loc 1 155 84 view .LVU774
 1942 02b8 7CA5CA14 		add 5,5,25
 1943              		.loc 1 155 43 view .LVU775
 1944 02bc 7EFFB82E 		lwzx 23,31,23
 1945              	.LVL100:
 1946              	.LBB134:
 1947              		.loc 1 119 9 is_stmt 1 view .LVU776
 1948              	.LBB108:
 1949              		.loc 1 120 2 view .LVU777
 1950              		.loc 1 122 2 view .LVU778
 1951              		.loc 1 123 2 view .LVU779
 1952              		.loc 1 125 2 view .LVU780
 1953              		.loc 1 125 2 is_stmt 0 view .LVU781
 1954              	.LBE108:
 1955              	.LBE134:
 1956              		.loc 1 155 43 view .LVU782
 1957 02c0 54A5103A 		slwi 5,5,2
 1958              	.LBB135:
 1959              	.LBB109:
 1960              		.loc 1 122 4 view .LVU783
 1961 02c4 56EAC236 		rlwinm 10,23,24,8,27
 1962              		.loc 1 125 16 view .LVU784
 1963 02c8 56F7E73E 		rlwinm 23,23,28,28,31
 1964              		.loc 1 125 20 view .LVU785
 1965 02cc 7D57BB78 		or 23,10,23
 1966              	.LBE109:
 1967              	.LBE135:
 1968              		.loc 1 155 12 discriminator 1 view .LVU786
 1969 02d0 9AE9FFED 		stb 23,-19(9)
 1970              		.loc 1 156 5 is_stmt 1 view .LVU787
 1971              		.loc 1 156 84 is_stmt 0 view .LVU788
 1972 02d4 7EE6DA14 		add 23,6,27
 1973              		.loc 1 156 43 view .LVU789
 1974 02d8 56F7103A 		slwi 23,23,2
 1975              		.loc 1 156 84 view .LVU790
 1976 02dc 7CC6CA14 		add 6,6,25
 1977              		.loc 1 156 43 view .LVU791
 1978 02e0 7D9F602E 		lwzx 12,31,12
 1979              	.LVL101:
 1980              	.LBB136:
 1981              		.loc 1 119 9 is_stmt 1 view .LVU792
 1982              	.LBB114:
 1983              		.loc 1 120 2 view .LVU793
 1984              		.loc 1 122 2 view .LVU794
 1985              		.loc 1 123 2 view .LVU795
 1986              		.loc 1 125 2 view .LVU796
 1987              		.loc 1 125 2 is_stmt 0 view .LVU797
 1988              	.LBE114:
 1989              	.LBE136:
 1990              		.loc 1 156 43 view .LVU798
 1991 02e4 54C6103A 		slwi 6,6,2
 1992              	.LBB137:
 1993              	.LBB115:
 1994              		.loc 1 122 4 view .LVU799
 1995 02e8 558AC236 		rlwinm 10,12,24,8,27
 1996              		.loc 1 125 16 view .LVU800
 1997 02ec 558CE73E 		rlwinm 12,12,28,28,31
 1998              		.loc 1 125 20 view .LVU801
 1999 02f0 7D4C6378 		or 12,10,12
 2000              	.LBE115:
 2001              	.LBE137:
 2002              		.loc 1 156 12 discriminator 1 view .LVU802
 2003 02f4 9989FFEE 		stb 12,-18(9)
 2004              		.loc 1 157 5 is_stmt 1 view .LVU803
 2005              		.loc 1 157 84 is_stmt 0 view .LVU804
 2006 02f8 7D87DA14 		add 12,7,27
 2007              		.loc 1 157 43 view .LVU805
 2008 02fc 558C103A 		slwi 12,12,2
 2009              		.loc 1 157 84 view .LVU806
 2010 0300 7CE7CA14 		add 7,7,25
 2011              		.loc 1 157 43 view .LVU807
 2012 0304 7DFF782E 		lwzx 15,31,15
 2013              	.LVL102:
 2014              	.LBB138:
 2015              		.loc 1 119 9 is_stmt 1 view .LVU808
 2016              	.LBB120:
 2017              		.loc 1 120 2 view .LVU809
 2018              		.loc 1 122 2 view .LVU810
 2019              		.loc 1 123 2 view .LVU811
 2020              		.loc 1 125 2 view .LVU812
 2021              		.loc 1 125 2 is_stmt 0 view .LVU813
 2022              	.LBE120:
 2023              	.LBE138:
 2024              		.loc 1 157 43 view .LVU814
 2025 0308 54E7103A 		slwi 7,7,2
 2026              	.LBB139:
 2027              	.LBB121:
 2028              		.loc 1 122 4 view .LVU815
 2029 030c 55EAC236 		rlwinm 10,15,24,8,27
 2030              		.loc 1 125 16 view .LVU816
 2031 0310 55EFE73E 		rlwinm 15,15,28,28,31
 2032              		.loc 1 125 20 view .LVU817
 2033 0314 7D4F7B78 		or 15,10,15
 2034              	.LBE121:
 2035              	.LBE139:
 2036              		.loc 1 157 12 discriminator 1 view .LVU818
 2037 0318 99E9FFEF 		stb 15,-17(9)
 2038              		.loc 1 149 4 is_stmt 1 discriminator 3 view .LVU819
 2039              	.LVL103:
 2040              		.loc 1 149 32 discriminator 1 view .LVU820
 2041              		.loc 1 150 5 view .LVU821
 2042              	.LBE157:
 2043              		.loc 1 148 25 is_stmt 0 discriminator 1 view .LVU822
 2044 031c 570F043E 		rlwinm 15,24,0,0xffff
 2045 0320 7C0FB040 		cmplw 0,15,22
 2046              	.LBB158:
 2047              		.loc 1 150 43 view .LVU823
 2048 0324 7E1F802E 		lwzx 16,31,16
 2049              	.LVL104:
 2050              	.LBB140:
 2051              		.loc 1 119 9 is_stmt 1 view .LVU824
 2052              	.LBB71:
 2053              		.loc 1 120 2 view .LVU825
 2054              		.loc 1 122 2 view .LVU826
 2055              		.loc 1 123 2 view .LVU827
 2056              		.loc 1 125 2 view .LVU828
 2057              		.loc 1 122 4 is_stmt 0 view .LVU829
 2058 0328 560FC236 		rlwinm 15,16,24,8,27
 2059              		.loc 1 125 16 view .LVU830
 2060 032c 5610E73E 		rlwinm 16,16,28,28,31
 2061              		.loc 1 125 20 view .LVU831
 2062 0330 7DF08378 		or 16,15,16
 2063              	.LBE71:
 2064              	.LBE140:
 2065              		.loc 1 150 12 discriminator 1 view .LVU832
 2066 0334 9A09FFF0 		stb 16,-16(9)
 2067              		.loc 1 151 5 is_stmt 1 view .LVU833
 2068              		.loc 1 151 43 is_stmt 0 view .LVU834
 2069 0338 7E1F702E 		lwzx 16,31,14
 2070              	.LVL105:
 2071              	.LBB141:
 2072              		.loc 1 119 9 is_stmt 1 view .LVU835
 2073              	.LBB79:
 2074              		.loc 1 120 2 view .LVU836
 2075              		.loc 1 122 2 view .LVU837
 2076              		.loc 1 123 2 view .LVU838
 2077              		.loc 1 125 2 view .LVU839
 2078              		.loc 1 122 4 is_stmt 0 view .LVU840
 2079 033c 560FC236 		rlwinm 15,16,24,8,27
 2080              		.loc 1 125 16 view .LVU841
 2081 0340 5610E73E 		rlwinm 16,16,28,28,31
 2082              		.loc 1 125 20 view .LVU842
 2083 0344 7DF08378 		or 16,15,16
 2084              	.LBE79:
 2085              	.LBE141:
 2086              		.loc 1 151 12 discriminator 1 view .LVU843
 2087 0348 9A09FFF1 		stb 16,-15(9)
 2088              		.loc 1 152 5 is_stmt 1 view .LVU844
 2089              		.loc 1 152 43 is_stmt 0 view .LVU845
 2090 034c 7E3F882E 		lwzx 17,31,17
 2091              	.LVL106:
 2092              	.LBB142:
 2093              		.loc 1 119 9 is_stmt 1 view .LVU846
 2094              	.LBB87:
 2095              		.loc 1 120 2 view .LVU847
 2096              		.loc 1 122 2 view .LVU848
 2097              		.loc 1 123 2 view .LVU849
 2098              		.loc 1 125 2 view .LVU850
 2099              		.loc 1 122 4 is_stmt 0 view .LVU851
 2100 0350 5630C236 		rlwinm 16,17,24,8,27
 2101              		.loc 1 125 16 view .LVU852
 2102 0354 5631E73E 		rlwinm 17,17,28,28,31
 2103              		.loc 1 125 20 view .LVU853
 2104 0358 7E118B78 		or 17,16,17
 2105              	.LBE87:
 2106              	.LBE142:
 2107              		.loc 1 152 12 discriminator 1 view .LVU854
 2108 035c 9A29FFF2 		stb 17,-14(9)
 2109              		.loc 1 153 5 is_stmt 1 view .LVU855
 2110              		.loc 1 153 43 is_stmt 0 view .LVU856
 2111 0360 7E5F902E 		lwzx 18,31,18
 2112              	.LVL107:
 2113              	.LBB143:
 2114              		.loc 1 119 9 is_stmt 1 view .LVU857
 2115              	.LBB95:
 2116              		.loc 1 120 2 view .LVU858
 2117              		.loc 1 122 2 view .LVU859
 2118              		.loc 1 123 2 view .LVU860
 2119              		.loc 1 125 2 view .LVU861
 2120              		.loc 1 122 4 is_stmt 0 view .LVU862
 2121 0364 5651C236 		rlwinm 17,18,24,8,27
 2122              		.loc 1 125 16 view .LVU863
 2123 0368 5652E73E 		rlwinm 18,18,28,28,31
 2124              		.loc 1 125 20 view .LVU864
 2125 036c 7E329378 		or 18,17,18
 2126              	.LBE95:
 2127              	.LBE143:
 2128              		.loc 1 153 12 discriminator 1 view .LVU865
 2129 0370 9A49FFF3 		stb 18,-13(9)
 2130              		.loc 1 154 5 is_stmt 1 view .LVU866
 2131              		.loc 1 154 43 is_stmt 0 view .LVU867
 2132 0374 7E7F982E 		lwzx 19,31,19
 2133              	.LVL108:
 2134              	.LBB144:
 2135              		.loc 1 119 9 is_stmt 1 view .LVU868
 2136              	.LBB103:
 2137              		.loc 1 120 2 view .LVU869
 2138              		.loc 1 122 2 view .LVU870
 2139              		.loc 1 123 2 view .LVU871
 2140              		.loc 1 125 2 view .LVU872
 2141              		.loc 1 122 4 is_stmt 0 view .LVU873
 2142 0378 5672C236 		rlwinm 18,19,24,8,27
 2143              		.loc 1 125 16 view .LVU874
 2144 037c 5673E73E 		rlwinm 19,19,28,28,31
 2145              		.loc 1 125 20 view .LVU875
 2146 0380 7E539B78 		or 19,18,19
 2147              	.LBE103:
 2148              	.LBE144:
 2149              		.loc 1 154 12 discriminator 1 view .LVU876
 2150 0384 9A69FFF4 		stb 19,-12(9)
 2151              		.loc 1 155 5 is_stmt 1 view .LVU877
 2152              		.loc 1 155 43 is_stmt 0 view .LVU878
 2153 0388 7E9FA02E 		lwzx 20,31,20
 2154              	.LVL109:
 2155              	.LBB145:
 2156              		.loc 1 119 9 is_stmt 1 view .LVU879
 2157              	.LBB110:
 2158              		.loc 1 120 2 view .LVU880
 2159              		.loc 1 122 2 view .LVU881
 2160              		.loc 1 123 2 view .LVU882
 2161              		.loc 1 125 2 view .LVU883
 2162              		.loc 1 122 4 is_stmt 0 view .LVU884
 2163 038c 5693C236 		rlwinm 19,20,24,8,27
 2164              		.loc 1 125 16 view .LVU885
 2165 0390 5694E73E 		rlwinm 20,20,28,28,31
 2166              		.loc 1 125 20 view .LVU886
 2167 0394 7E74A378 		or 20,19,20
 2168              	.LBE110:
 2169              	.LBE145:
 2170              		.loc 1 155 12 discriminator 1 view .LVU887
 2171 0398 9A89FFF5 		stb 20,-11(9)
 2172              		.loc 1 156 5 is_stmt 1 view .LVU888
 2173              		.loc 1 156 43 is_stmt 0 view .LVU889
 2174 039c 7EFFB82E 		lwzx 23,31,23
 2175              	.LVL110:
 2176              	.LBB146:
 2177              		.loc 1 119 9 is_stmt 1 view .LVU890
 2178              	.LBB116:
 2179              		.loc 1 120 2 view .LVU891
 2180              		.loc 1 122 2 view .LVU892
 2181              		.loc 1 123 2 view .LVU893
 2182              		.loc 1 125 2 view .LVU894
 2183              		.loc 1 122 4 is_stmt 0 view .LVU895
 2184 03a0 56F4C236 		rlwinm 20,23,24,8,27
 2185              		.loc 1 125 16 view .LVU896
 2186 03a4 56F7E73E 		rlwinm 23,23,28,28,31
 2187              		.loc 1 125 20 view .LVU897
 2188 03a8 7E97BB78 		or 23,20,23
 2189              	.LBE116:
 2190              	.LBE146:
 2191              		.loc 1 156 12 discriminator 1 view .LVU898
 2192 03ac 9AE9FFF6 		stb 23,-10(9)
 2193              		.loc 1 157 5 is_stmt 1 view .LVU899
 2194              		.loc 1 157 43 is_stmt 0 view .LVU900
 2195 03b0 7EFF602E 		lwzx 23,31,12
 2196              	.LVL111:
 2197              	.LBB147:
 2198              		.loc 1 119 9 is_stmt 1 view .LVU901
 2199              	.LBB122:
 2200              		.loc 1 120 2 view .LVU902
 2201              		.loc 1 122 2 view .LVU903
 2202              		.loc 1 123 2 view .LVU904
 2203              		.loc 1 125 2 view .LVU905
 2204              		.loc 1 122 4 is_stmt 0 view .LVU906
 2205 03b4 56F4C236 		rlwinm 20,23,24,8,27
 2206              		.loc 1 125 16 view .LVU907
 2207 03b8 56F7E73E 		rlwinm 23,23,28,28,31
 2208              		.loc 1 125 20 view .LVU908
 2209 03bc 7E97BB78 		or 23,20,23
 2210              	.LBE122:
 2211              	.LBE147:
 2212              		.loc 1 157 12 discriminator 1 view .LVU909
 2213 03c0 9AE9FFF7 		stb 23,-9(9)
 2214              		.loc 1 149 4 is_stmt 1 discriminator 3 view .LVU910
 2215              	.LVL112:
 2216              		.loc 1 149 32 discriminator 1 view .LVU911
 2217              		.loc 1 150 5 view .LVU912
 2218              		.loc 1 150 43 is_stmt 0 view .LVU913
 2219 03c4 7D1F402E 		lwzx 8,31,8
 2220              	.LVL113:
 2221              	.LBB148:
 2222              		.loc 1 119 9 is_stmt 1 view .LVU914
 2223              	.LBB72:
 2224              		.loc 1 120 2 view .LVU915
 2225              		.loc 1 122 2 view .LVU916
 2226              		.loc 1 123 2 view .LVU917
 2227              		.loc 1 125 2 view .LVU918
 2228              		.loc 1 122 4 is_stmt 0 view .LVU919
 2229 03c8 5517C236 		rlwinm 23,8,24,8,27
 2230              		.loc 1 125 16 view .LVU920
 2231 03cc 5508E73E 		rlwinm 8,8,28,28,31
 2232              		.loc 1 125 20 view .LVU921
 2233 03d0 7EE84378 		or 8,23,8
 2234              	.LBE72:
 2235              	.LBE148:
 2236              		.loc 1 150 12 discriminator 1 view .LVU922
 2237 03d4 9909FFF8 		stb 8,-8(9)
 2238              		.loc 1 151 5 is_stmt 1 view .LVU923
 2239              		.loc 1 151 43 is_stmt 0 view .LVU924
 2240 03d8 7D1F002E 		lwzx 8,31,0
 2241              	.LVL114:
 2242              	.LBB149:
 2243              		.loc 1 119 9 is_stmt 1 view .LVU925
 2244              	.LBB80:
 2245              		.loc 1 120 2 view .LVU926
 2246              		.loc 1 122 2 view .LVU927
 2247              		.loc 1 123 2 view .LVU928
 2248              		.loc 1 125 2 view .LVU929
 2249              		.loc 1 122 4 is_stmt 0 view .LVU930
 2250 03dc 5500C236 		rlwinm 0,8,24,8,27
 2251              		.loc 1 125 16 view .LVU931
 2252 03e0 5508E73E 		rlwinm 8,8,28,28,31
 2253              		.loc 1 125 20 view .LVU932
 2254 03e4 7C084378 		or 8,0,8
 2255              	.LBE80:
 2256              	.LBE149:
 2257              		.loc 1 151 12 discriminator 1 view .LVU933
 2258 03e8 9909FFF9 		stb 8,-7(9)
 2259              		.loc 1 152 5 is_stmt 1 view .LVU934
 2260              		.loc 1 152 43 is_stmt 0 view .LVU935
 2261 03ec 7D1F582E 		lwzx 8,31,11
 2262              	.LVL115:
 2263              	.LBB150:
 2264              		.loc 1 119 9 is_stmt 1 view .LVU936
 2265              	.LBB88:
 2266              		.loc 1 120 2 view .LVU937
 2267              		.loc 1 122 2 view .LVU938
 2268              		.loc 1 123 2 view .LVU939
 2269              		.loc 1 125 2 view .LVU940
 2270              		.loc 1 122 4 is_stmt 0 view .LVU941
 2271 03f0 550BC236 		rlwinm 11,8,24,8,27
 2272              		.loc 1 125 16 view .LVU942
 2273 03f4 5508E73E 		rlwinm 8,8,28,28,31
 2274              		.loc 1 125 20 view .LVU943
 2275 03f8 7D684378 		or 8,11,8
 2276              	.LBE88:
 2277              	.LBE150:
 2278              		.loc 1 152 12 discriminator 1 view .LVU944
 2279 03fc 9909FFFA 		stb 8,-6(9)
 2280              		.loc 1 153 5 is_stmt 1 view .LVU945
 2281              		.loc 1 153 43 is_stmt 0 view .LVU946
 2282 0400 7D1F182E 		lwzx 8,31,3
 2283              	.LVL116:
 2284              	.LBB151:
 2285              		.loc 1 119 9 is_stmt 1 view .LVU947
 2286              	.LBB96:
 2287              		.loc 1 120 2 view .LVU948
 2288              		.loc 1 122 2 view .LVU949
 2289              		.loc 1 123 2 view .LVU950
 2290              		.loc 1 125 2 view .LVU951
 2291              		.loc 1 122 4 is_stmt 0 view .LVU952
 2292 0404 5503C236 		rlwinm 3,8,24,8,27
 2293              		.loc 1 125 16 view .LVU953
 2294 0408 5508E73E 		rlwinm 8,8,28,28,31
 2295              		.loc 1 125 20 view .LVU954
 2296 040c 7C684378 		or 8,3,8
 2297              	.LBE96:
 2298              	.LBE151:
 2299              		.loc 1 153 12 discriminator 1 view .LVU955
 2300 0410 9909FFFB 		stb 8,-5(9)
 2301              		.loc 1 154 5 is_stmt 1 view .LVU956
 2302              		.loc 1 154 43 is_stmt 0 view .LVU957
 2303 0414 7D1F202E 		lwzx 8,31,4
 2304              	.LVL117:
 2305              	.LBB152:
 2306              		.loc 1 119 9 is_stmt 1 view .LVU958
 2307              	.LBB104:
 2308              		.loc 1 120 2 view .LVU959
 2309              		.loc 1 122 2 view .LVU960
 2310              		.loc 1 123 2 view .LVU961
 2311              		.loc 1 125 2 view .LVU962
 2312              		.loc 1 122 4 is_stmt 0 view .LVU963
 2313 0418 5504C236 		rlwinm 4,8,24,8,27
 2314              		.loc 1 125 16 view .LVU964
 2315 041c 5508E73E 		rlwinm 8,8,28,28,31
 2316              		.loc 1 125 20 view .LVU965
 2317 0420 7C884378 		or 8,4,8
 2318              	.LBE104:
 2319              	.LBE152:
 2320              		.loc 1 154 12 discriminator 1 view .LVU966
 2321 0424 9909FFFC 		stb 8,-4(9)
 2322              		.loc 1 155 5 is_stmt 1 view .LVU967
 2323              		.loc 1 155 43 is_stmt 0 view .LVU968
 2324 0428 7D1F282E 		lwzx 8,31,5
 2325              	.LVL118:
 2326              	.LBB153:
 2327              		.loc 1 119 9 is_stmt 1 view .LVU969
 2328              	.LBB111:
 2329              		.loc 1 120 2 view .LVU970
 2330              		.loc 1 122 2 view .LVU971
 2331              		.loc 1 123 2 view .LVU972
 2332              		.loc 1 125 2 view .LVU973
 2333              		.loc 1 122 4 is_stmt 0 view .LVU974
 2334 042c 5505C236 		rlwinm 5,8,24,8,27
 2335              		.loc 1 125 16 view .LVU975
 2336 0430 5508E73E 		rlwinm 8,8,28,28,31
 2337              		.loc 1 125 20 view .LVU976
 2338 0434 7CA84378 		or 8,5,8
 2339              	.LBE111:
 2340              	.LBE153:
 2341              		.loc 1 155 12 discriminator 1 view .LVU977
 2342 0438 9909FFFD 		stb 8,-3(9)
 2343              		.loc 1 156 5 is_stmt 1 view .LVU978
 2344              		.loc 1 156 43 is_stmt 0 view .LVU979
 2345 043c 7D1F302E 		lwzx 8,31,6
 2346              	.LVL119:
 2347              	.LBB154:
 2348              		.loc 1 119 9 is_stmt 1 view .LVU980
 2349              	.LBB117:
 2350              		.loc 1 120 2 view .LVU981
 2351              		.loc 1 122 2 view .LVU982
 2352              		.loc 1 123 2 view .LVU983
 2353              		.loc 1 125 2 view .LVU984
 2354              		.loc 1 122 4 is_stmt 0 view .LVU985
 2355 0440 5506C236 		rlwinm 6,8,24,8,27
 2356              		.loc 1 125 16 view .LVU986
 2357 0444 5508E73E 		rlwinm 8,8,28,28,31
 2358              		.loc 1 125 20 view .LVU987
 2359 0448 7CC84378 		or 8,6,8
 2360              	.LBE117:
 2361              	.LBE154:
 2362              		.loc 1 156 12 discriminator 1 view .LVU988
 2363 044c 9909FFFE 		stb 8,-2(9)
 2364              		.loc 1 157 5 is_stmt 1 view .LVU989
 2365              		.loc 1 157 43 is_stmt 0 view .LVU990
 2366 0450 7D1F382E 		lwzx 8,31,7
 2367              	.LVL120:
 2368              	.LBB155:
 2369              		.loc 1 119 9 is_stmt 1 view .LVU991
 2370              	.LBB123:
 2371              		.loc 1 120 2 view .LVU992
 2372              		.loc 1 122 2 view .LVU993
 2373              		.loc 1 123 2 view .LVU994
 2374              		.loc 1 125 2 view .LVU995
 2375              		.loc 1 122 4 is_stmt 0 view .LVU996
 2376 0454 5507C236 		rlwinm 7,8,24,8,27
 2377              		.loc 1 125 16 view .LVU997
 2378 0458 5508E73E 		rlwinm 8,8,28,28,31
 2379              		.loc 1 125 20 view .LVU998
 2380 045c 7CE84378 		or 8,7,8
 2381              	.LBE123:
 2382              	.LBE155:
 2383              		.loc 1 157 12 discriminator 1 view .LVU999
 2384 0460 9909FFFF 		stb 8,-1(9)
 2385              		.loc 1 149 4 is_stmt 1 discriminator 3 view .LVU1000
 2386              	.LVL121:
 2387              		.loc 1 149 32 discriminator 1 view .LVU1001
 2388              	.LBE158:
 2389              		.loc 1 148 3 discriminator 2 view .LVU1002
 2390              		.loc 1 148 25 discriminator 1 view .LVU1003
 2391 0464 4180FC50 		blt+ 0,.L39
 2392              	.LBE64:
 2393              		.loc 1 147 42 is_stmt 0 discriminator 2 view .LVU1004
 2394 0468 7D4902A6 		mfctr 10
 2395              		.loc 1 147 2 is_stmt 1 discriminator 2 view .LVU1005
 2396              		.loc 1 147 42 is_stmt 0 discriminator 2 view .LVU1006
 2397 046c 394A0004 		addi 10,10,4
 2398              		.loc 1 147 24 discriminator 1 view .LVU1007
 2399 0470 5548043E 		rlwinm 8,10,0,0xffff
 2400              	.LVL122:
 2401              		.loc 1 147 24 is_stmt 1 discriminator 1 view .LVU1008
 2402 0474 7C08A840 		cmplw 0,8,21
 2403 0478 4180FC20 		blt+ 0,.L38
 2404 047c 81C10008 		lwz 14,8(1)
 2405              		.cfi_restore 14
 2406 0480 81E1000C 		lwz 15,12(1)
 2407              		.cfi_restore 15
 2408 0484 82010010 		lwz 16,16(1)
 2409              		.cfi_restore 16
 2410 0488 82210014 		lwz 17,20(1)
 2411              		.cfi_restore 17
 2412 048c 82410018 		lwz 18,24(1)
 2413              		.cfi_restore 18
 2414 0490 8261001C 		lwz 19,28(1)
 2415              		.cfi_restore 19
 2416 0494 82810020 		lwz 20,32(1)
 2417              		.cfi_restore 20
 2418 0498 82E1002C 		lwz 23,44(1)
 2419              		.cfi_restore 23
 2420 049c 83010030 		lwz 24,48(1)
 2421              		.cfi_restore 24
 2422              	.LVL123:
 2423              		.loc 1 147 24 is_stmt 0 discriminator 1 view .LVU1009
 2424 04a0 83210034 		lwz 25,52(1)
 2425              		.cfi_restore 25
 2426 04a4 83410038 		lwz 26,56(1)
 2427              		.cfi_restore 26
 2428 04a8 8361003C 		lwz 27,60(1)
 2429              		.cfi_restore 27
 2430 04ac 83810040 		lwz 28,64(1)
 2431              		.cfi_restore 28
 2432              	.LVL124:
 2433              	.L37:
 2434              		.loc 1 147 24 discriminator 1 view .LVU1010
 2435              	.LBE159:
 2436              		.loc 1 161 2 is_stmt 1 view .LVU1011
 2437              		.loc 1 161 14 is_stmt 0 view .LVU1012
 2438 04b0 7FC3F378 		mr 3,30
 2439 04b4 7FA4EB78 		mr 4,29
 2440 04b8 48000001 		bl DCFlushRange
 2441              	.LVL125:
 2442              		.loc 1 163 2 is_stmt 1 view .LVU1013
 2443              		.loc 1 164 1 is_stmt 0 view .LVU1014
 2444 04bc 80010054 		lwz 0,84(1)
 2445 04c0 7FC3F378 		mr 3,30
 2446 04c4 82A10024 		lwz 21,36(1)
 2447              	.LVL126:
 2448              		.loc 1 164 1 view .LVU1015
 2449 04c8 82C10028 		lwz 22,40(1)
 2450              	.LVL127:
 2451              		.loc 1 164 1 view .LVU1016
 2452 04cc 7C0803A6 		mtlr 0
 2453              		.cfi_restore 65
 2454 04d0 83A10044 		lwz 29,68(1)
 2455              	.LVL128:
 2456              		.loc 1 164 1 view .LVU1017
 2457 04d4 83C10048 		lwz 30,72(1)
 2458              	.LVL129:
 2459              		.loc 1 164 1 view .LVU1018
 2460 04d8 83E1004C 		lwz 31,76(1)
 2461              	.LVL130:
 2462              		.loc 1 164 1 view .LVU1019
 2463 04dc 38210050 		addi 1,1,80
 2464              		.cfi_restore 31
 2465              		.cfi_restore 30
 2466              		.cfi_restore 29
 2467              		.cfi_restore 22
 2468              		.cfi_restore 21
 2469              		.cfi_def_cfa_offset 0
 2470 04e0 4E800020 		blr
 2471              		.cfi_endproc
 2472              	.LFE71:
 2473              		.size	_ZN11Metaphrasis18convertBufferToIA4EPjtt, .-_ZN11Metaphrasis18convertBufferToIA4EPjtt
 2474              		.section	.text._ZN11Metaphrasis16convertRGBAToIA8Ej,"ax",@progbits
 2475              		.align 2
 2476              		.globl _ZN11Metaphrasis16convertRGBAToIA8Ej
 2477              		.type	_ZN11Metaphrasis16convertRGBAToIA8Ej, @function
 2478              	_ZN11Metaphrasis16convertRGBAToIA8Ej:
 2479              	.LVL131:
 2480              	.LFB72:
 2481              		.loc 1 175 55 is_stmt 1 view -0
 2482              		.cfi_startproc
 2483              		.loc 1 176 2 view .LVU1021
 2484              		.loc 1 178 2 view .LVU1022
 2485              		.loc 1 179 2 view .LVU1023
 2486              		.loc 1 181 2 view .LVU1024
 2487              		.loc 1 182 1 is_stmt 0 view .LVU1025
 2488 0000 5463043E 		rlwinm 3,3,0,0xffff
 2489              	.LVL132:
 2490              		.loc 1 182 1 view .LVU1026
 2491 0004 4E800020 		blr
 2492              		.cfi_endproc
 2493              	.LFE72:
 2494              		.size	_ZN11Metaphrasis16convertRGBAToIA8Ej, .-_ZN11Metaphrasis16convertRGBAToIA8Ej
 2495              		.section	.text._ZN11Metaphrasis18convertBufferToIA8EPjtt,"ax",@progbits
 2496              		.align 2
 2497              		.globl _ZN11Metaphrasis18convertBufferToIA8EPjtt
 2498              		.type	_ZN11Metaphrasis18convertBufferToIA8EPjtt, @function
 2499              	_ZN11Metaphrasis18convertBufferToIA8EPjtt:
 2500              	.LVL133:
 2501              	.LFB73:
 2502              		.loc 1 195 110 is_stmt 1 view -0
 2503              		.cfi_startproc
 2504              		.loc 1 196 2 view .LVU1028
 2505              		.loc 1 195 110 is_stmt 0 view .LVU1029
 2506 0000 9421FFB0 		stwu 1,-80(1)
 2507              		.cfi_def_cfa_offset 80
 2508 0004 7C0802A6 		mflr 0
 2509 0008 93C10048 		stw 30,72(1)
 2510              		.cfi_register 65, 0
 2511              		.cfi_offset 30, -8
 2512              		.loc 1 196 37 view .LVU1030
 2513 000c 7FC521D6 		mullw 30,5,4
 2514              		.loc 1 195 110 view .LVU1031
 2515 0010 92C10028 		stw 22,40(1)
 2516              		.cfi_offset 22, -40
 2517 0014 7C962378 		mr 22,4
 2518 0018 93E1004C 		stw 31,76(1)
 2519              		.cfi_offset 31, -4
 2520 001c 7C7F1B78 		mr 31,3
 2521              		.loc 1 197 48 view .LVU1032
 2522 0020 38600020 		li 3,32
 2523              	.LVL134:
 2524              		.loc 1 195 110 view .LVU1033
 2525 0024 90010054 		stw 0,84(1)
 2526              		.loc 1 196 11 view .LVU1034
 2527 0028 57DE083C 		slwi 30,30,1
 2528              	.LVL135:
 2529              		.loc 1 197 2 is_stmt 1 view .LVU1035
 2530              		.loc 1 195 110 is_stmt 0 view .LVU1036
 2531 002c 92A10024 		stw 21,36(1)
 2532              		.loc 1 197 48 view .LVU1037
 2533 0030 7FC4F378 		mr 4,30
 2534              	.LVL136:
 2535              		.cfi_offset 65, 4
 2536              		.cfi_offset 21, -44
 2537              		.loc 1 195 110 view .LVU1038
 2538 0034 7CB52B78 		mr 21,5
 2539 0038 93A10044 		stw 29,68(1)
 2540              		.cfi_offset 29, -12
 2541              		.loc 1 197 48 view .LVU1039
 2542 003c 48000001 		bl memalign
 2543              	.LVL137:
 2544              		.loc 1 198 8 view .LVU1040
 2545 0040 7FC5F378 		mr 5,30
 2546 0044 38800000 		li 4,0
 2547              		.loc 1 197 48 view .LVU1041
 2548 0048 7C7D1B78 		mr 29,3
 2549              	.LVL138:
 2550              		.loc 1 198 2 is_stmt 1 view .LVU1042
 2551              		.loc 1 198 8 is_stmt 0 view .LVU1043
 2552 004c 48000001 		bl memset
 2553              	.LVL139:
 2554              		.loc 1 200 2 is_stmt 1 view .LVU1044
 2555              		.loc 1 201 2 view .LVU1045
 2556              		.loc 1 203 2 view .LVU1046
 2557              	.LBB160:
 2558              		.loc 1 203 24 discriminator 1 view .LVU1047
 2559 0050 2C150000 		cmpwi 0,21,0
 2560 0054 418201C8 		beq- 0,.L53
 2561 0058 2C160000 		cmpwi 0,22,0
 2562 005c 92210014 		stw 17,20(1)
 2563              		.cfi_offset 17, -60
 2564              	.LBE160:
 2565              		.loc 1 201 12 is_stmt 0 view .LVU1048
 2566 0060 7FA9EB78 		mr 9,29
 2567              	.LBB199:
 2568              		.loc 1 203 15 view .LVU1049
 2569 0064 3A200000 		li 17,0
 2570 0068 418201E8 		beq- 0,.L65
 2571 006c 91C10008 		stw 14,8(1)
 2572              		.cfi_offset 14, -72
 2573 0070 91E1000C 		stw 15,12(1)
 2574              		.cfi_offset 15, -68
 2575 0074 92010010 		stw 16,16(1)
 2576              		.cfi_offset 16, -64
 2577 0078 92410018 		stw 18,24(1)
 2578              		.cfi_offset 18, -56
 2579 007c 9261001C 		stw 19,28(1)
 2580              		.cfi_offset 19, -52
 2581 0080 92810020 		stw 20,32(1)
 2582              		.cfi_offset 20, -48
 2583 0084 92E1002C 		stw 23,44(1)
 2584              		.cfi_offset 23, -36
 2585 0088 93010030 		stw 24,48(1)
 2586              		.cfi_offset 24, -32
 2587 008c 93210034 		stw 25,52(1)
 2588              		.cfi_offset 25, -28
 2589 0090 93410038 		stw 26,56(1)
 2590              		.cfi_offset 26, -24
 2591 0094 9361003C 		stw 27,60(1)
 2592              		.cfi_offset 27, -20
 2593 0098 93810040 		stw 28,64(1)
 2594              		.cfi_offset 28, -16
 2595              	.LVL140:
 2596              	.L54:
 2597              	.LBB161:
 2598              		.loc 1 204 25 is_stmt 1 discriminator 1 view .LVU1050
 2599              	.LBB162:
 2600              		.loc 1 206 50 is_stmt 0 view .LVU1051
 2601 009c 562B043E 		rlwinm 11,17,0,0xffff
 2602              	.LBE162:
 2603              		.loc 1 204 16 view .LVU1052
 2604 00a0 38600000 		li 3,0
 2605              	.LBB195:
 2606              		.loc 1 206 60 view .LVU1053
 2607 00a4 7D6BB1D6 		mullw 11,11,22
 2608 00a8 7D965A14 		add 12,22,11
 2609 00ac 7C166214 		add 0,22,12
 2610 00b0 7CB60214 		add 5,22,0
 2611              	.LVL141:
 2612              	.L55:
 2613              		.loc 1 205 32 is_stmt 1 discriminator 1 view .LVU1054
 2614              		.loc 1 206 5 view .LVU1055
 2615              		.loc 1 206 78 is_stmt 0 view .LVU1056
 2616 00b4 5468043E 		rlwinm 8,3,0,0xffff
 2617              	.LBE195:
 2618              		.loc 1 204 42 discriminator 2 view .LVU1057
 2619 00b8 38630004 		addi 3,3,4
 2620              	.LVL142:
 2621              	.LBB196:
 2622              		.loc 1 207 80 view .LVU1058
 2623 00bc 38C80001 		addi 6,8,1
 2624              		.loc 1 208 80 view .LVU1059
 2625 00c0 38E80002 		addi 7,8,2
 2626              		.loc 1 209 80 view .LVU1060
 2627 00c4 39480003 		addi 10,8,3
 2628              		.loc 1 207 84 view .LVU1061
 2629 00c8 7DEB3214 		add 15,11,6
 2630              		.loc 1 206 84 view .LVU1062
 2631 00cc 7E0B4214 		add 16,11,8
 2632              		.loc 1 207 84 view .LVU1063
 2633 00d0 7E466214 		add 18,6,12
 2634              		.loc 1 208 84 view .LVU1064
 2635 00d4 7E6B3A14 		add 19,11,7
 2636              		.loc 1 209 84 view .LVU1065
 2637 00d8 7E8B5214 		add 20,11,10
 2638              		.loc 1 206 84 view .LVU1066
 2639 00dc 7EE86214 		add 23,8,12
 2640              		.loc 1 208 84 view .LVU1067
 2641 00e0 7F076214 		add 24,7,12
 2642              		.loc 1 209 84 view .LVU1068
 2643 00e4 7F2A6214 		add 25,10,12
 2644              		.loc 1 207 84 view .LVU1069
 2645 00e8 7F460214 		add 26,6,0
 2646              		.loc 1 206 84 view .LVU1070
 2647 00ec 7F680214 		add 27,8,0
 2648              		.loc 1 208 84 view .LVU1071
 2649 00f0 7F870214 		add 28,7,0
 2650              		.loc 1 209 84 view .LVU1072
 2651 00f4 7C8A0214 		add 4,10,0
 2652              		.loc 1 207 84 view .LVU1073
 2653 00f8 7CC62A14 		add 6,6,5
 2654              		.loc 1 206 84 view .LVU1074
 2655 00fc 7D082A14 		add 8,8,5
 2656              		.loc 1 208 84 view .LVU1075
 2657 0100 7CE72A14 		add 7,7,5
 2658              	.LBE196:
 2659              		.loc 1 204 25 discriminator 1 view .LVU1076
 2660 0104 546E043E 		rlwinm 14,3,0,0xffff
 2661              	.LBB197:
 2662              		.loc 1 207 43 view .LVU1077
 2663 0108 55EF103A 		slwi 15,15,2
 2664              		.loc 1 206 43 view .LVU1078
 2665 010c 5610103A 		slwi 16,16,2
 2666              		.loc 1 207 43 view .LVU1079
 2667 0110 5652103A 		slwi 18,18,2
 2668              		.loc 1 208 43 view .LVU1080
 2669 0114 5673103A 		slwi 19,19,2
 2670              		.loc 1 209 43 view .LVU1081
 2671 0118 5694103A 		slwi 20,20,2
 2672              		.loc 1 206 43 view .LVU1082
 2673 011c 56F7103A 		slwi 23,23,2
 2674              		.loc 1 208 43 view .LVU1083
 2675 0120 5718103A 		slwi 24,24,2
 2676              		.loc 1 209 43 view .LVU1084
 2677 0124 5739103A 		slwi 25,25,2
 2678              		.loc 1 207 43 view .LVU1085
 2679 0128 575A103A 		slwi 26,26,2
 2680 012c 54C6103A 		slwi 6,6,2
 2681              		.loc 1 206 43 view .LVU1086
 2682 0130 577B103A 		slwi 27,27,2
 2683 0134 5508103A 		slwi 8,8,2
 2684              		.loc 1 208 43 view .LVU1087
 2685 0138 579C103A 		slwi 28,28,2
 2686 013c 54E7103A 		slwi 7,7,2
 2687              		.loc 1 209 43 view .LVU1088
 2688 0140 5484103A 		slwi 4,4,2
 2689              		.loc 1 209 84 view .LVU1089
 2690 0144 7D4A2A14 		add 10,10,5
 2691              	.LBE197:
 2692              		.loc 1 204 25 discriminator 1 view .LVU1090
 2693 0148 7C0EB040 		cmplw 0,14,22
 2694              	.LBB198:
 2695              		.loc 1 207 43 view .LVU1091
 2696 014c 7DFF782E 		lwzx 15,31,15
 2697              		.loc 1 209 43 view .LVU1092
 2698 0150 554A103A 		slwi 10,10,2
 2699              		.loc 1 206 43 view .LVU1093
 2700 0154 7E1F802E 		lwzx 16,31,16
 2701              	.LVL143:
 2702              	.LBB163:
 2703              	.LBI163:
 2704              		.loc 1 175 10 is_stmt 1 view .LVU1094
 2705              	.LBB164:
 2706              		.loc 1 176 2 view .LVU1095
 2707              		.loc 1 178 2 view .LVU1096
 2708              		.loc 1 179 2 view .LVU1097
 2709              		.loc 1 181 2 view .LVU1098
 2710              		.loc 1 181 2 is_stmt 0 view .LVU1099
 2711              	.LBE164:
 2712              	.LBE163:
 2713              		.loc 1 209 9 discriminator 1 view .LVU1100
 2714 0158 39290020 		addi 9,9,32
 2715              	.LVL144:
 2716              		.loc 1 207 43 view .LVU1101
 2717 015c 7E5F902E 		lwzx 18,31,18
 2718              		.loc 1 208 43 view .LVU1102
 2719 0160 7E7F982E 		lwzx 19,31,19
 2720              		.loc 1 209 43 view .LVU1103
 2721 0164 7E9FA02E 		lwzx 20,31,20
 2722              		.loc 1 206 43 view .LVU1104
 2723 0168 7EFFB82E 		lwzx 23,31,23
 2724              		.loc 1 208 43 view .LVU1105
 2725 016c 7F1FC02E 		lwzx 24,31,24
 2726              		.loc 1 209 43 view .LVU1106
 2727 0170 7F3FC82E 		lwzx 25,31,25
 2728              		.loc 1 207 43 view .LVU1107
 2729 0174 7F5FD02E 		lwzx 26,31,26
 2730 0178 7CDF302E 		lwzx 6,31,6
 2731              		.loc 1 206 43 view .LVU1108
 2732 017c 7F7FD82E 		lwzx 27,31,27
 2733 0180 7D1F402E 		lwzx 8,31,8
 2734              		.loc 1 208 43 view .LVU1109
 2735 0184 7F9FE02E 		lwzx 28,31,28
 2736 0188 7CFF382E 		lwzx 7,31,7
 2737              		.loc 1 209 43 view .LVU1110
 2738 018c 7C9F202E 		lwzx 4,31,4
 2739 0190 7D5F502E 		lwzx 10,31,10
 2740              		.loc 1 207 12 discriminator 1 view .LVU1111
 2741 0194 B1E9FFE2 		sth 15,-30(9)
 2742              		.loc 1 206 12 discriminator 1 view .LVU1112
 2743 0198 B209FFE0 		sth 16,-32(9)
 2744              		.loc 1 207 5 is_stmt 1 view .LVU1113
 2745              	.LVL145:
 2746              	.LBB168:
 2747              	.LBI168:
 2748              		.loc 1 175 10 view .LVU1114
 2749              	.LBB169:
 2750              		.loc 1 176 2 view .LVU1115
 2751              		.loc 1 178 2 view .LVU1116
 2752              		.loc 1 179 2 view .LVU1117
 2753              		.loc 1 181 2 view .LVU1118
 2754              		.loc 1 181 2 is_stmt 0 view .LVU1119
 2755              	.LBE169:
 2756              	.LBE168:
 2757              		.loc 1 208 5 is_stmt 1 view .LVU1120
 2758              	.LBB173:
 2759              	.LBI173:
 2760              		.loc 1 175 10 view .LVU1121
 2761              	.LBB174:
 2762              		.loc 1 176 2 view .LVU1122
 2763              		.loc 1 178 2 view .LVU1123
 2764              		.loc 1 179 2 view .LVU1124
 2765              		.loc 1 181 2 view .LVU1125
 2766              		.loc 1 181 2 is_stmt 0 view .LVU1126
 2767              	.LBE174:
 2768              	.LBE173:
 2769              		.loc 1 208 12 discriminator 1 view .LVU1127
 2770 019c B269FFE4 		sth 19,-28(9)
 2771              		.loc 1 209 5 is_stmt 1 view .LVU1128
 2772              	.LVL146:
 2773              	.LBB178:
 2774              	.LBI178:
 2775              		.loc 1 175 10 view .LVU1129
 2776              	.LBB179:
 2777              		.loc 1 176 2 view .LVU1130
 2778              		.loc 1 178 2 view .LVU1131
 2779              		.loc 1 179 2 view .LVU1132
 2780              		.loc 1 181 2 view .LVU1133
 2781              		.loc 1 181 2 is_stmt 0 view .LVU1134
 2782              	.LBE179:
 2783              	.LBE178:
 2784              		.loc 1 209 12 discriminator 1 view .LVU1135
 2785 01a0 B289FFE6 		sth 20,-26(9)
 2786              		.loc 1 205 4 is_stmt 1 discriminator 3 view .LVU1136
 2787              	.LVL147:
 2788              		.loc 1 205 32 discriminator 1 view .LVU1137
 2789              		.loc 1 206 5 view .LVU1138
 2790              	.LBB183:
 2791              		.loc 1 175 10 view .LVU1139
 2792              	.LBB165:
 2793              		.loc 1 176 2 view .LVU1140
 2794              		.loc 1 178 2 view .LVU1141
 2795              		.loc 1 179 2 view .LVU1142
 2796              		.loc 1 181 2 view .LVU1143
 2797              		.loc 1 181 2 is_stmt 0 view .LVU1144
 2798              	.LBE165:
 2799              	.LBE183:
 2800              		.loc 1 207 12 discriminator 1 view .LVU1145
 2801 01a4 B249FFEA 		sth 18,-22(9)
 2802              		.loc 1 206 12 discriminator 1 view .LVU1146
 2803 01a8 B2E9FFE8 		sth 23,-24(9)
 2804              		.loc 1 207 5 is_stmt 1 view .LVU1147
 2805              	.LVL148:
 2806              	.LBB184:
 2807              		.loc 1 175 10 view .LVU1148
 2808              	.LBB170:
 2809              		.loc 1 176 2 view .LVU1149
 2810              		.loc 1 178 2 view .LVU1150
 2811              		.loc 1 179 2 view .LVU1151
 2812              		.loc 1 181 2 view .LVU1152
 2813              		.loc 1 181 2 is_stmt 0 view .LVU1153
 2814              	.LBE170:
 2815              	.LBE184:
 2816              		.loc 1 208 5 is_stmt 1 view .LVU1154
 2817              	.LBB185:
 2818              		.loc 1 175 10 view .LVU1155
 2819              	.LBB175:
 2820              		.loc 1 176 2 view .LVU1156
 2821              		.loc 1 178 2 view .LVU1157
 2822              		.loc 1 179 2 view .LVU1158
 2823              		.loc 1 181 2 view .LVU1159
 2824              		.loc 1 181 2 is_stmt 0 view .LVU1160
 2825              	.LBE175:
 2826              	.LBE185:
 2827              		.loc 1 208 12 discriminator 1 view .LVU1161
 2828 01ac B309FFEC 		sth 24,-20(9)
 2829              		.loc 1 209 5 is_stmt 1 view .LVU1162
 2830              	.LVL149:
 2831              	.LBB186:
 2832              		.loc 1 175 10 view .LVU1163
 2833              	.LBB180:
 2834              		.loc 1 176 2 view .LVU1164
 2835              		.loc 1 178 2 view .LVU1165
 2836              		.loc 1 179 2 view .LVU1166
 2837              		.loc 1 181 2 view .LVU1167
 2838              		.loc 1 181 2 is_stmt 0 view .LVU1168
 2839              	.LBE180:
 2840              	.LBE186:
 2841              		.loc 1 209 12 discriminator 1 view .LVU1169
 2842 01b0 B329FFEE 		sth 25,-18(9)
 2843              		.loc 1 205 4 is_stmt 1 discriminator 3 view .LVU1170
 2844              	.LVL150:
 2845              		.loc 1 205 32 discriminator 1 view .LVU1171
 2846              		.loc 1 206 5 view .LVU1172
 2847              	.LBB187:
 2848              		.loc 1 175 10 view .LVU1173
 2849              	.LBB166:
 2850              		.loc 1 176 2 view .LVU1174
 2851              		.loc 1 178 2 view .LVU1175
 2852              		.loc 1 179 2 view .LVU1176
 2853              		.loc 1 181 2 view .LVU1177
 2854              		.loc 1 181 2 is_stmt 0 view .LVU1178
 2855              	.LBE166:
 2856              	.LBE187:
 2857              		.loc 1 207 12 discriminator 1 view .LVU1179
 2858 01b4 B349FFF2 		sth 26,-14(9)
 2859              		.loc 1 206 12 discriminator 1 view .LVU1180
 2860 01b8 B369FFF0 		sth 27,-16(9)
 2861              		.loc 1 207 5 is_stmt 1 view .LVU1181
 2862              	.LVL151:
 2863              	.LBB188:
 2864              		.loc 1 175 10 view .LVU1182
 2865              	.LBB171:
 2866              		.loc 1 176 2 view .LVU1183
 2867              		.loc 1 178 2 view .LVU1184
 2868              		.loc 1 179 2 view .LVU1185
 2869              		.loc 1 181 2 view .LVU1186
 2870              		.loc 1 181 2 is_stmt 0 view .LVU1187
 2871              	.LBE171:
 2872              	.LBE188:
 2873              		.loc 1 208 5 is_stmt 1 view .LVU1188
 2874              	.LBB189:
 2875              		.loc 1 175 10 view .LVU1189
 2876              	.LBB176:
 2877              		.loc 1 176 2 view .LVU1190
 2878              		.loc 1 178 2 view .LVU1191
 2879              		.loc 1 179 2 view .LVU1192
 2880              		.loc 1 181 2 view .LVU1193
 2881              		.loc 1 181 2 is_stmt 0 view .LVU1194
 2882              	.LBE176:
 2883              	.LBE189:
 2884              		.loc 1 208 12 discriminator 1 view .LVU1195
 2885 01bc B389FFF4 		sth 28,-12(9)
 2886              		.loc 1 209 5 is_stmt 1 view .LVU1196
 2887              	.LVL152:
 2888              	.LBB190:
 2889              		.loc 1 175 10 view .LVU1197
 2890              	.LBB181:
 2891              		.loc 1 176 2 view .LVU1198
 2892              		.loc 1 178 2 view .LVU1199
 2893              		.loc 1 179 2 view .LVU1200
 2894              		.loc 1 181 2 view .LVU1201
 2895              		.loc 1 181 2 is_stmt 0 view .LVU1202
 2896              	.LBE181:
 2897              	.LBE190:
 2898              		.loc 1 207 12 discriminator 1 view .LVU1203
 2899 01c0 B0C9FFFA 		sth 6,-6(9)
 2900              		.loc 1 209 12 discriminator 1 view .LVU1204
 2901 01c4 B089FFF6 		sth 4,-10(9)
 2902              		.loc 1 205 4 is_stmt 1 discriminator 3 view .LVU1205
 2903              	.LVL153:
 2904              		.loc 1 205 32 discriminator 1 view .LVU1206
 2905              		.loc 1 206 5 view .LVU1207
 2906              	.LBB191:
 2907              		.loc 1 175 10 view .LVU1208
 2908              	.LBB167:
 2909              		.loc 1 176 2 view .LVU1209
 2910              		.loc 1 178 2 view .LVU1210
 2911              		.loc 1 179 2 view .LVU1211
 2912              		.loc 1 181 2 view .LVU1212
 2913              		.loc 1 181 2 is_stmt 0 view .LVU1213
 2914              	.LBE167:
 2915              	.LBE191:
 2916              		.loc 1 208 12 discriminator 1 view .LVU1214
 2917 01c8 B0E9FFFC 		sth 7,-4(9)
 2918              		.loc 1 206 12 discriminator 1 view .LVU1215
 2919 01cc B109FFF8 		sth 8,-8(9)
 2920              		.loc 1 207 5 is_stmt 1 view .LVU1216
 2921              	.LVL154:
 2922              	.LBB192:
 2923              		.loc 1 175 10 view .LVU1217
 2924              	.LBB172:
 2925              		.loc 1 176 2 view .LVU1218
 2926              		.loc 1 178 2 view .LVU1219
 2927              		.loc 1 179 2 view .LVU1220
 2928              		.loc 1 181 2 view .LVU1221
 2929              		.loc 1 181 2 is_stmt 0 view .LVU1222
 2930              	.LBE172:
 2931              	.LBE192:
 2932              		.loc 1 208 5 is_stmt 1 view .LVU1223
 2933              	.LBB193:
 2934              		.loc 1 175 10 view .LVU1224
 2935              	.LBB177:
 2936              		.loc 1 176 2 view .LVU1225
 2937              		.loc 1 178 2 view .LVU1226
 2938              		.loc 1 179 2 view .LVU1227
 2939              		.loc 1 181 2 view .LVU1228
 2940              		.loc 1 181 2 is_stmt 0 view .LVU1229
 2941              	.LBE177:
 2942              	.LBE193:
 2943              		.loc 1 209 5 is_stmt 1 view .LVU1230
 2944              	.LBB194:
 2945              		.loc 1 175 10 view .LVU1231
 2946              	.LBB182:
 2947              		.loc 1 176 2 view .LVU1232
 2948              		.loc 1 178 2 view .LVU1233
 2949              		.loc 1 179 2 view .LVU1234
 2950              		.loc 1 181 2 view .LVU1235
 2951              		.loc 1 181 2 is_stmt 0 view .LVU1236
 2952              	.LBE182:
 2953              	.LBE194:
 2954              		.loc 1 209 12 discriminator 1 view .LVU1237
 2955 01d0 B149FFFE 		sth 10,-2(9)
 2956              		.loc 1 205 4 is_stmt 1 discriminator 3 view .LVU1238
 2957              	.LVL155:
 2958              		.loc 1 205 32 discriminator 1 view .LVU1239
 2959              	.LBE198:
 2960              		.loc 1 204 3 discriminator 2 view .LVU1240
 2961              		.loc 1 204 25 discriminator 1 view .LVU1241
 2962 01d4 4180FEE0 		blt+ 0,.L55
 2963              	.LBE161:
 2964              		.loc 1 203 2 discriminator 2 view .LVU1242
 2965              		.loc 1 203 42 is_stmt 0 discriminator 2 view .LVU1243
 2966 01d8 3A310004 		addi 17,17,4
 2967              	.LVL156:
 2968              		.loc 1 203 24 discriminator 1 view .LVU1244
 2969 01dc 562A043E 		rlwinm 10,17,0,0xffff
 2970              	.LVL157:
 2971              		.loc 1 203 24 is_stmt 1 discriminator 1 view .LVU1245
 2972 01e0 7C0AA840 		cmplw 0,10,21
 2973 01e4 4180FEB8 		blt+ 0,.L54
 2974 01e8 81C10008 		lwz 14,8(1)
 2975              		.cfi_restore 14
 2976 01ec 81E1000C 		lwz 15,12(1)
 2977              		.cfi_restore 15
 2978 01f0 82010010 		lwz 16,16(1)
 2979              		.cfi_restore 16
 2980 01f4 82210014 		lwz 17,20(1)
 2981              		.cfi_restore 17
 2982              	.LVL158:
 2983              		.loc 1 203 24 is_stmt 0 discriminator 1 view .LVU1246
 2984 01f8 82410018 		lwz 18,24(1)
 2985              		.cfi_restore 18
 2986 01fc 8261001C 		lwz 19,28(1)
 2987              		.cfi_restore 19
 2988 0200 82810020 		lwz 20,32(1)
 2989              		.cfi_restore 20
 2990 0204 82E1002C 		lwz 23,44(1)
 2991              		.cfi_restore 23
 2992 0208 83010030 		lwz 24,48(1)
 2993              		.cfi_restore 24
 2994 020c 83210034 		lwz 25,52(1)
 2995              		.cfi_restore 25
 2996 0210 83410038 		lwz 26,56(1)
 2997              		.cfi_restore 26
 2998 0214 8361003C 		lwz 27,60(1)
 2999              		.cfi_restore 27
 3000 0218 83810040 		lwz 28,64(1)
 3001              		.cfi_restore 28
 3002              	.LVL159:
 3003              	.L53:
 3004              		.loc 1 203 24 discriminator 1 view .LVU1247
 3005              	.LBE199:
 3006              		.loc 1 213 2 is_stmt 1 view .LVU1248
 3007              		.loc 1 213 14 is_stmt 0 view .LVU1249
 3008 021c 7FA3EB78 		mr 3,29
 3009 0220 7FC4F378 		mr 4,30
 3010 0224 48000001 		bl DCFlushRange
 3011              	.LVL160:
 3012              		.loc 1 215 2 is_stmt 1 view .LVU1250
 3013              		.loc 1 216 1 is_stmt 0 view .LVU1251
 3014 0228 80010054 		lwz 0,84(1)
 3015 022c 7FA3EB78 		mr 3,29
 3016 0230 82A10024 		lwz 21,36(1)
 3017              	.LVL161:
 3018              		.loc 1 216 1 view .LVU1252
 3019 0234 82C10028 		lwz 22,40(1)
 3020              	.LVL162:
 3021              		.loc 1 216 1 view .LVU1253
 3022 0238 7C0803A6 		mtlr 0
 3023              		.cfi_restore 65
 3024 023c 83A10044 		lwz 29,68(1)
 3025              	.LVL163:
 3026              		.loc 1 216 1 view .LVU1254
 3027 0240 83C10048 		lwz 30,72(1)
 3028              	.LVL164:
 3029              		.loc 1 216 1 view .LVU1255
 3030 0244 83E1004C 		lwz 31,76(1)
 3031              	.LVL165:
 3032              		.loc 1 216 1 view .LVU1256
 3033 0248 38210050 		addi 1,1,80
 3034              		.cfi_restore 31
 3035              		.cfi_restore 30
 3036              		.cfi_restore 29
 3037              		.cfi_restore 22
 3038              		.cfi_restore 21
 3039              		.cfi_def_cfa_offset 0
 3040 024c 4E800020 		blr
 3041              	.LVL166:
 3042              	.L65:
 3043              		.cfi_def_cfa_offset 80
 3044              		.cfi_offset 17, -60
 3045              		.cfi_offset 21, -44
 3046              		.cfi_offset 22, -40
 3047              		.cfi_offset 29, -12
 3048              		.cfi_offset 30, -8
 3049              		.cfi_offset 31, -4
 3050              		.cfi_offset 65, 4
 3051              		.loc 1 216 1 view .LVU1257
 3052 0250 82210014 		lwz 17,20(1)
 3053              		.cfi_restore 17
 3054 0254 4BFFFFC8 		b .L53
 3055              		.cfi_endproc
 3056              	.LFE73:
 3057              		.size	_ZN11Metaphrasis18convertBufferToIA8EPjtt, .-_ZN11Metaphrasis18convertBufferToIA8EPjtt
 3058              		.section	.text._ZN11Metaphrasis20convertBufferToRGBA8EPjtt,"ax",@progbits
 3059              		.align 2
 3060              		.globl _ZN11Metaphrasis20convertBufferToRGBA8EPjtt
 3061              		.type	_ZN11Metaphrasis20convertBufferToRGBA8EPjtt, @function
 3062              	_ZN11Metaphrasis20convertBufferToRGBA8EPjtt:
 3063              	.LVL167:
 3064              	.LFB74:
 3065              		.loc 1 229 112 is_stmt 1 view -0
 3066              		.cfi_startproc
 3067              		.loc 1 230 2 view .LVU1259
 3068              		.loc 1 229 112 is_stmt 0 view .LVU1260
 3069 0000 9421FFA8 		stwu 1,-88(1)
 3070              		.cfi_def_cfa_offset 88
 3071 0004 7C0802A6 		mflr 0
 3072 0008 93A1004C 		stw 29,76(1)
 3073              		.cfi_register 65, 0
 3074              		.cfi_offset 29, -12
 3075              		.loc 1 230 37 view .LVU1261
 3076 000c 7FA521D6 		mullw 29,5,4
 3077              		.loc 1 229 112 view .LVU1262
 3078 0010 92610024 		stw 19,36(1)
 3079              		.cfi_offset 19, -52
 3080 0014 7C932378 		mr 19,4
 3081 0018 93E10054 		stw 31,84(1)
 3082              		.cfi_offset 31, -4
 3083 001c 7C7F1B78 		mr 31,3
 3084              		.loc 1 231 50 view .LVU1263
 3085 0020 38600020 		li 3,32
 3086              	.LVL168:
 3087              		.loc 1 229 112 view .LVU1264
 3088 0024 9001005C 		stw 0,92(1)
 3089              		.loc 1 230 11 view .LVU1265
 3090 0028 57BD103A 		slwi 29,29,2
 3091              	.LVL169:
 3092              		.loc 1 231 2 is_stmt 1 view .LVU1266
 3093              		.loc 1 229 112 is_stmt 0 view .LVU1267
 3094 002c 93410040 		stw 26,64(1)
 3095              		.loc 1 231 50 view .LVU1268
 3096 0030 7FA4EB78 		mr 4,29
 3097              	.LVL170:
 3098              		.cfi_offset 65, 4
 3099              		.cfi_offset 26, -24
 3100              		.loc 1 229 112 view .LVU1269
 3101 0034 7CBA2B78 		mr 26,5
 3102 0038 93C10050 		stw 30,80(1)
 3103              		.cfi_offset 30, -8
 3104              		.loc 1 231 50 view .LVU1270
 3105 003c 48000001 		bl memalign
 3106              	.LVL171:
 3107              		.loc 1 232 8 view .LVU1271
 3108 0040 7FA5EB78 		mr 5,29
 3109 0044 38800000 		li 4,0
 3110              		.loc 1 231 50 view .LVU1272
 3111 0048 7C7E1B78 		mr 30,3
 3112              	.LVL172:
 3113              		.loc 1 232 2 is_stmt 1 view .LVU1273
 3114              		.loc 1 232 8 is_stmt 0 view .LVU1274
 3115 004c 48000001 		bl memset
 3116              	.LVL173:
 3117              		.loc 1 234 2 is_stmt 1 view .LVU1275
 3118              		.loc 1 235 2 view .LVU1276
 3119              		.loc 1 237 2 view .LVU1277
 3120              	.LBB200:
 3121              		.loc 1 237 32 discriminator 1 view .LVU1278
 3122 0050 2C1A0000 		cmpwi 0,26,0
 3123 0054 418203A8 		beq- 0,.L67
 3124 0058 2C130000 		cmpwi 0,19,0
 3125 005c 9321003C 		stw 25,60(1)
 3126              		.cfi_offset 25, -28
 3127              	.LBE200:
 3128              		.loc 1 235 11 is_stmt 0 view .LVU1279
 3129 0060 7FC9F378 		mr 9,30
 3130              	.LBB223:
 3131              		.loc 1 237 15 view .LVU1280
 3132 0064 3B200000 		li 25,0
 3133 0068 418203C8 		beq- 0,.L79
 3134 006c 91C10010 		stw 14,16(1)
 3135              		.cfi_offset 14, -72
 3136 0070 91E10014 		stw 15,20(1)
 3137              		.cfi_offset 15, -68
 3138 0074 92010018 		stw 16,24(1)
 3139              		.cfi_offset 16, -64
 3140 0078 9221001C 		stw 17,28(1)
 3141              		.cfi_offset 17, -60
 3142 007c 92410020 		stw 18,32(1)
 3143              		.cfi_offset 18, -56
 3144 0080 92810028 		stw 20,40(1)
 3145              		.cfi_offset 20, -48
 3146 0084 92A1002C 		stw 21,44(1)
 3147              		.cfi_offset 21, -44
 3148 0088 92C10030 		stw 22,48(1)
 3149              		.cfi_offset 22, -40
 3150 008c 92E10034 		stw 23,52(1)
 3151              		.cfi_offset 23, -36
 3152 0090 93010038 		stw 24,56(1)
 3153              		.cfi_offset 24, -32
 3154 0094 93610044 		stw 27,68(1)
 3155              		.cfi_offset 27, -20
 3156 0098 93810048 		stw 28,72(1)
 3157              		.cfi_offset 28, -16
 3158 009c 93A1000C 		stw 29,12(1)
 3159 00a0 93410008 		stw 26,8(1)
 3160              	.LVL174:
 3161              	.L68:
 3162              	.LBB201:
 3163              		.loc 1 238 25 is_stmt 1 discriminator 1 view .LVU1281
 3164              	.LBB202:
 3165              	.LBB203:
 3166              		.loc 1 241 34 is_stmt 0 view .LVU1282
 3167 00a4 573D043E 		rlwinm 29,25,0,0xffff
 3168 00a8 7F2803A6 		mtlr 25
 3169              		.loc 1 241 45 view .LVU1283
 3170 00ac 7FBD99D6 		mullw 29,29,19
 3171              	.LBE203:
 3172              	.LBE202:
 3173              		.loc 1 238 16 view .LVU1284
 3174 00b0 38A00000 		li 5,0
 3175 00b4 7FC903A6 		mtctr 30
 3176              	.LBB212:
 3177              	.LBB204:
 3178              		.loc 1 241 45 view .LVU1285
 3179 00b8 7F73EA14 		add 27,19,29
 3180 00bc 7F93DA14 		add 28,19,27
 3181 00c0 7F13E214 		add 24,19,28
 3182              	.LVL175:
 3183              	.L69:
 3184              		.loc 1 241 45 view .LVU1286
 3185              	.LBE204:
 3186              		.loc 1 239 27 is_stmt 1 discriminator 1 view .LVU1287
 3187              	.LBB205:
 3188              		.loc 1 240 30 discriminator 1 view .LVU1288
 3189              		.loc 1 241 6 view .LVU1289
 3190              		.loc 1 241 22 is_stmt 0 view .LVU1290
 3191 00c4 54AA043E 		rlwinm 10,5,0,0xffff
 3192              	.LBE205:
 3193              	.LBE212:
 3194              		.loc 1 238 42 discriminator 2 view .LVU1291
 3195 00c8 38A50004 		addi 5,5,4
 3196              	.LVL176:
 3197              	.LBB213:
 3198              	.LBB206:
 3199              		.loc 1 241 30 view .LVU1292
 3200 00cc 7C8AEA14 		add 4,10,29
 3201              		.loc 1 241 24 view .LVU1293
 3202 00d0 38CA0001 		addi 6,10,1
 3203              		.loc 1 241 61 view .LVU1294
 3204 00d4 5484103A 		slwi 4,4,2
 3205              		.loc 1 241 30 view .LVU1295
 3206 00d8 7C1D3214 		add 0,29,6
 3207              		.loc 1 241 69 view .LVU1296
 3208 00dc 7FDF2214 		add 30,31,4
 3209              		.loc 1 241 61 view .LVU1297
 3210 00e0 5400103A 		slwi 0,0,2
 3211              		.loc 1 241 69 view .LVU1298
 3212 00e4 887E0003 		lbz 3,3(30)
 3213              	.LVL177:
 3214              		.loc 1 241 69 view .LVU1299
 3215 00e8 7D9F0214 		add 12,31,0
 3216              		.loc 1 241 24 view .LVU1300
 3217 00ec 38EA0002 		addi 7,10,2
 3218 00f0 390A0003 		addi 8,10,3
 3219              		.loc 1 241 13 view .LVU1301
 3220 00f4 98690000 		stb 3,0(9)
 3221              		.loc 1 242 6 is_stmt 1 view .LVU1302
 3222              		.loc 1 241 30 is_stmt 0 view .LVU1303
 3223 00f8 7D7D3A14 		add 11,29,7
 3224              		.loc 1 241 61 view .LVU1304
 3225 00fc 556B103A 		slwi 11,11,2
 3226              		.loc 1 241 30 view .LVU1305
 3227 0100 7EDD4214 		add 22,29,8
 3228              		.loc 1 242 63 view .LVU1306
 3229 0104 7C9F20AE 		lbzx 4,31,4
 3230              	.LVL178:
 3231              		.loc 1 241 69 view .LVU1307
 3232 0108 7DDF5A14 		add 14,31,11
 3233              		.loc 1 241 61 view .LVU1308
 3234 010c 56D6103A 		slwi 22,22,2
 3235              		.loc 1 241 30 view .LVU1309
 3236 0110 7C6ADA14 		add 3,10,27
 3237              		.loc 1 242 13 view .LVU1310
 3238 0114 98890001 		stb 4,1(9)
 3239              		.loc 1 240 5 is_stmt 1 discriminator 3 view .LVU1311
 3240              	.LVL179:
 3241              		.loc 1 240 30 discriminator 1 view .LVU1312
 3242              		.loc 1 241 6 view .LVU1313
 3243              		.loc 1 241 69 is_stmt 0 view .LVU1314
 3244 0118 7DFFB214 		add 15,31,22
 3245              		.loc 1 241 61 view .LVU1315
 3246 011c 5463103A 		slwi 3,3,2
 3247              		.loc 1 241 30 view .LVU1316
 3248 0120 7EE6DA14 		add 23,6,27
 3249              		.loc 1 241 69 view .LVU1317
 3250 0124 8AAC0003 		lbz 21,3(12)
 3251              	.LVL180:
 3252              		.loc 1 241 69 view .LVU1318
 3253 0128 7E1F1A14 		add 16,31,3
 3254              		.loc 1 241 61 view .LVU1319
 3255 012c 56F7103A 		slwi 23,23,2
 3256              		.loc 1 241 30 view .LVU1320
 3257 0130 7C87DA14 		add 4,7,27
 3258              		.loc 1 241 13 view .LVU1321
 3259 0134 9AA90002 		stb 21,2(9)
 3260              		.loc 1 242 6 is_stmt 1 view .LVU1322
 3261              		.loc 1 241 69 is_stmt 0 view .LVU1323
 3262 0138 7E3FBA14 		add 17,31,23
 3263              		.loc 1 241 61 view .LVU1324
 3264 013c 5484103A 		slwi 4,4,2
 3265              		.loc 1 241 30 view .LVU1325
 3266 0140 7F48DA14 		add 26,8,27
 3267              		.loc 1 242 63 view .LVU1326
 3268 0144 7EBF00AE 		lbzx 21,31,0
 3269              	.LVL181:
 3270              		.loc 1 241 69 view .LVU1327
 3271 0148 7E5F2214 		add 18,31,4
 3272              		.loc 1 241 61 view .LVU1328
 3273 014c 575A103A 		slwi 26,26,2
 3274              		.loc 1 241 30 view .LVU1329
 3275 0150 7C0AE214 		add 0,10,28
 3276              		.loc 1 242 13 view .LVU1330
 3277 0154 9AA90003 		stb 21,3(9)
 3278              		.loc 1 240 5 is_stmt 1 discriminator 3 view .LVU1331
 3279              	.LVL182:
 3280              		.loc 1 240 30 discriminator 1 view .LVU1332
 3281              		.loc 1 241 6 view .LVU1333
 3282              		.loc 1 241 69 is_stmt 0 view .LVU1334
 3283 0158 7E9FD214 		add 20,31,26
 3284              		.loc 1 241 61 view .LVU1335
 3285 015c 5400103A 		slwi 0,0,2
 3286              		.loc 1 241 30 view .LVU1336
 3287 0160 7D4AC214 		add 10,10,24
 3288              		.loc 1 241 69 view .LVU1337
 3289 0164 8AAE0003 		lbz 21,3(14)
 3290              	.LVL183:
 3291              		.loc 1 241 61 view .LVU1338
 3292 0168 554A103A 		slwi 10,10,2
 3293              	.LBE206:
 3294              	.LBE213:
 3295              	.LBB214:
 3296              	.LBB215:
 3297              		.loc 1 248 10 view .LVU1339
 3298 016c 39290040 		addi 9,9,64
 3299              	.LVL184:
 3300              		.loc 1 248 10 view .LVU1340
 3301              	.LBE215:
 3302              	.LBE214:
 3303              	.LBB220:
 3304              	.LBB207:
 3305              		.loc 1 241 13 view .LVU1341
 3306 0170 9AA9FFC4 		stb 21,-60(9)
 3307              		.loc 1 242 6 is_stmt 1 view .LVU1342
 3308              		.loc 1 241 69 is_stmt 0 view .LVU1343
 3309 0174 7EBF0214 		add 21,31,0
 3310              		.loc 1 242 63 view .LVU1344
 3311 0178 7D7F58AE 		lbzx 11,31,11
 3312              	.LVL185:
 3313              		.loc 1 242 13 view .LVU1345
 3314 017c 9969FFC5 		stb 11,-59(9)
 3315              		.loc 1 240 5 is_stmt 1 discriminator 3 view .LVU1346
 3316              	.LVL186:
 3317              		.loc 1 240 30 discriminator 1 view .LVU1347
 3318              		.loc 1 241 6 view .LVU1348
 3319              		.loc 1 241 69 is_stmt 0 view .LVU1349
 3320 0180 896F0003 		lbz 11,3(15)
 3321              		.loc 1 241 13 view .LVU1350
 3322 0184 9969FFC6 		stb 11,-58(9)
 3323              		.loc 1 242 6 is_stmt 1 view .LVU1351
 3324              		.loc 1 241 30 is_stmt 0 view .LVU1352
 3325 0188 7D66E214 		add 11,6,28
 3326              		.loc 1 241 61 view .LVU1353
 3327 018c 556B103A 		slwi 11,11,2
 3328              		.loc 1 241 30 view .LVU1354
 3329 0190 7CC6C214 		add 6,6,24
 3330              		.loc 1 242 63 view .LVU1355
 3331 0194 7EDFB0AE 		lbzx 22,31,22
 3332              		.loc 1 241 61 view .LVU1356
 3333 0198 54C6103A 		slwi 6,6,2
 3334              		.loc 1 242 13 view .LVU1357
 3335 019c 9AC9FFC7 		stb 22,-57(9)
 3336              		.loc 1 240 5 is_stmt 1 discriminator 3 view .LVU1358
 3337              	.LVL187:
 3338              		.loc 1 240 30 discriminator 1 view .LVU1359
 3339              	.LBE207:
 3340              		.loc 1 239 4 discriminator 2 view .LVU1360
 3341              		.loc 1 239 27 discriminator 1 view .LVU1361
 3342              	.LBB208:
 3343              		.loc 1 240 30 discriminator 1 view .LVU1362
 3344              		.loc 1 241 6 view .LVU1363
 3345              		.loc 1 241 69 is_stmt 0 view .LVU1364
 3346 01a0 8AD00003 		lbz 22,3(16)
 3347              		.loc 1 241 13 view .LVU1365
 3348 01a4 9AC9FFC8 		stb 22,-56(9)
 3349              		.loc 1 242 6 is_stmt 1 view .LVU1366
 3350              		.loc 1 241 69 is_stmt 0 view .LVU1367
 3351 01a8 7EDF5A14 		add 22,31,11
 3352              		.loc 1 242 63 view .LVU1368
 3353 01ac 7C7F18AE 		lbzx 3,31,3
 3354              		.loc 1 242 13 view .LVU1369
 3355 01b0 9869FFC9 		stb 3,-55(9)
 3356              		.loc 1 240 5 is_stmt 1 discriminator 3 view .LVU1370
 3357              	.LVL188:
 3358              		.loc 1 240 30 discriminator 1 view .LVU1371
 3359              		.loc 1 241 6 view .LVU1372
 3360              		.loc 1 241 69 is_stmt 0 view .LVU1373
 3361 01b4 88710003 		lbz 3,3(17)
 3362              		.loc 1 241 13 view .LVU1374
 3363 01b8 9869FFCA 		stb 3,-54(9)
 3364              		.loc 1 242 6 is_stmt 1 view .LVU1375
 3365              		.loc 1 241 30 is_stmt 0 view .LVU1376
 3366 01bc 7C67E214 		add 3,7,28
 3367              		.loc 1 241 61 view .LVU1377
 3368 01c0 5463103A 		slwi 3,3,2
 3369              		.loc 1 241 30 view .LVU1378
 3370 01c4 7CE7C214 		add 7,7,24
 3371              		.loc 1 242 63 view .LVU1379
 3372 01c8 7EFFB8AE 		lbzx 23,31,23
 3373              		.loc 1 241 61 view .LVU1380
 3374 01cc 54E7103A 		slwi 7,7,2
 3375              		.loc 1 242 13 view .LVU1381
 3376 01d0 9AE9FFCB 		stb 23,-53(9)
 3377              		.loc 1 240 5 is_stmt 1 discriminator 3 view .LVU1382
 3378              	.LVL189:
 3379              		.loc 1 240 30 discriminator 1 view .LVU1383
 3380              		.loc 1 241 6 view .LVU1384
 3381              		.loc 1 241 69 is_stmt 0 view .LVU1385
 3382 01d4 8AF20003 		lbz 23,3(18)
 3383              		.loc 1 241 13 view .LVU1386
 3384 01d8 9AE9FFCC 		stb 23,-52(9)
 3385              		.loc 1 242 6 is_stmt 1 view .LVU1387
 3386              		.loc 1 241 69 is_stmt 0 view .LVU1388
 3387 01dc 7EFF1A14 		add 23,31,3
 3388              		.loc 1 242 63 view .LVU1389
 3389 01e0 7C9F20AE 		lbzx 4,31,4
 3390              		.loc 1 242 13 view .LVU1390
 3391 01e4 9889FFCD 		stb 4,-51(9)
 3392              		.loc 1 240 5 is_stmt 1 discriminator 3 view .LVU1391
 3393              	.LVL190:
 3394              		.loc 1 240 30 discriminator 1 view .LVU1392
 3395              		.loc 1 241 6 view .LVU1393
 3396              		.loc 1 241 69 is_stmt 0 view .LVU1394
 3397 01e8 88940003 		lbz 4,3(20)
 3398              		.loc 1 241 13 view .LVU1395
 3399 01ec 9889FFCE 		stb 4,-50(9)
 3400              		.loc 1 242 6 is_stmt 1 view .LVU1396
 3401              		.loc 1 241 30 is_stmt 0 view .LVU1397
 3402 01f0 7C88E214 		add 4,8,28
 3403              		.loc 1 241 61 view .LVU1398
 3404 01f4 5484103A 		slwi 4,4,2
 3405              		.loc 1 241 30 view .LVU1399
 3406 01f8 7D08C214 		add 8,8,24
 3407              		.loc 1 242 63 view .LVU1400
 3408 01fc 7F5FD0AE 		lbzx 26,31,26
 3409              		.loc 1 241 69 view .LVU1401
 3410 0200 7F3F2214 		add 25,31,4
 3411              		.loc 1 241 61 view .LVU1402
 3412 0204 5508103A 		slwi 8,8,2
 3413              		.loc 1 242 63 view .LVU1403
 3414 0208 9B49FFCF 		stb 26,-49(9)
 3415              		.loc 1 240 5 is_stmt 1 discriminator 3 view .LVU1404
 3416              	.LVL191:
 3417              		.loc 1 240 30 discriminator 1 view .LVU1405
 3418              	.LBE208:
 3419              		.loc 1 239 4 discriminator 2 view .LVU1406
 3420              		.loc 1 239 27 discriminator 1 view .LVU1407
 3421              	.LBB209:
 3422              		.loc 1 240 30 discriminator 1 view .LVU1408
 3423              		.loc 1 241 6 view .LVU1409
 3424              		.loc 1 241 13 is_stmt 0 view .LVU1410
 3425 020c 8B550003 		lbz 26,3(21)
 3426 0210 9B49FFD0 		stb 26,-48(9)
 3427              		.loc 1 242 6 is_stmt 1 view .LVU1411
 3428              		.loc 1 241 69 is_stmt 0 view .LVU1412
 3429 0214 7F5F5214 		add 26,31,10
 3430              		.loc 1 242 63 view .LVU1413
 3431 0218 7C1F00AE 		lbzx 0,31,0
 3432              		.loc 1 242 13 view .LVU1414
 3433 021c 9809FFD1 		stb 0,-47(9)
 3434              		.loc 1 240 5 is_stmt 1 discriminator 3 view .LVU1415
 3435              	.LVL192:
 3436              		.loc 1 240 30 discriminator 1 view .LVU1416
 3437              		.loc 1 241 6 view .LVU1417
 3438              		.loc 1 241 69 is_stmt 0 view .LVU1418
 3439 0220 88160003 		lbz 0,3(22)
 3440              		.loc 1 241 13 view .LVU1419
 3441 0224 9809FFD2 		stb 0,-46(9)
 3442              		.loc 1 242 6 is_stmt 1 view .LVU1420
 3443              		.loc 1 242 63 is_stmt 0 view .LVU1421
 3444 0228 7D7F58AE 		lbzx 11,31,11
 3445              		.loc 1 242 13 view .LVU1422
 3446 022c 9969FFD3 		stb 11,-45(9)
 3447              		.loc 1 240 5 is_stmt 1 discriminator 3 view .LVU1423
 3448              	.LVL193:
 3449              		.loc 1 240 30 discriminator 1 view .LVU1424
 3450              		.loc 1 241 6 view .LVU1425
 3451              		.loc 1 241 69 is_stmt 0 view .LVU1426
 3452 0230 89770003 		lbz 11,3(23)
 3453              		.loc 1 241 13 view .LVU1427
 3454 0234 9969FFD4 		stb 11,-44(9)
 3455              		.loc 1 242 6 is_stmt 1 view .LVU1428
 3456              		.loc 1 241 69 is_stmt 0 view .LVU1429
 3457 0238 7D7F3214 		add 11,31,6
 3458              		.loc 1 242 63 view .LVU1430
 3459 023c 7C7F18AE 		lbzx 3,31,3
 3460              		.loc 1 242 13 view .LVU1431
 3461 0240 9869FFD5 		stb 3,-43(9)
 3462              		.loc 1 240 5 is_stmt 1 discriminator 3 view .LVU1432
 3463              	.LVL194:
 3464              		.loc 1 240 30 discriminator 1 view .LVU1433
 3465              		.loc 1 241 6 view .LVU1434
 3466              		.loc 1 241 69 is_stmt 0 view .LVU1435
 3467 0244 88790003 		lbz 3,3(25)
 3468              		.loc 1 241 13 view .LVU1436
 3469 0248 9869FFD6 		stb 3,-42(9)
 3470              		.loc 1 242 6 is_stmt 1 view .LVU1437
 3471              		.loc 1 241 69 is_stmt 0 view .LVU1438
 3472 024c 7C7F3A14 		add 3,31,7
 3473              		.loc 1 242 63 view .LVU1439
 3474 0250 7C9F20AE 		lbzx 4,31,4
 3475              		.loc 1 242 13 view .LVU1440
 3476 0254 9889FFD7 		stb 4,-41(9)
 3477              		.loc 1 240 5 is_stmt 1 discriminator 3 view .LVU1441
 3478              	.LVL195:
 3479              		.loc 1 240 30 discriminator 1 view .LVU1442
 3480              	.LBE209:
 3481              		.loc 1 239 4 discriminator 2 view .LVU1443
 3482              		.loc 1 239 27 discriminator 1 view .LVU1444
 3483              	.LBB210:
 3484              		.loc 1 240 30 discriminator 1 view .LVU1445
 3485              		.loc 1 241 6 view .LVU1446
 3486              		.loc 1 241 69 is_stmt 0 view .LVU1447
 3487 0258 889A0003 		lbz 4,3(26)
 3488              		.loc 1 241 13 view .LVU1448
 3489 025c 9889FFD8 		stb 4,-40(9)
 3490              		.loc 1 242 6 is_stmt 1 view .LVU1449
 3491              		.loc 1 241 69 is_stmt 0 view .LVU1450
 3492 0260 7C9F4214 		add 4,31,8
 3493              		.loc 1 242 63 view .LVU1451
 3494 0264 7D5F50AE 		lbzx 10,31,10
 3495              		.loc 1 242 13 view .LVU1452
 3496 0268 9949FFD9 		stb 10,-39(9)
 3497              		.loc 1 240 5 is_stmt 1 discriminator 3 view .LVU1453
 3498              	.LVL196:
 3499              		.loc 1 240 30 discriminator 1 view .LVU1454
 3500              		.loc 1 241 6 view .LVU1455
 3501              		.loc 1 241 69 is_stmt 0 view .LVU1456
 3502 026c 894B0003 		lbz 10,3(11)
 3503              		.loc 1 241 13 view .LVU1457
 3504 0270 9949FFDA 		stb 10,-38(9)
 3505              		.loc 1 242 6 is_stmt 1 view .LVU1458
 3506              	.LBE210:
 3507              	.LBE220:
 3508              		.loc 1 238 25 is_stmt 0 discriminator 1 view .LVU1459
 3509 0274 54AA043E 		rlwinm 10,5,0,0xffff
 3510 0278 7C0A9840 		cmplw 0,10,19
 3511              	.LBB221:
 3512              	.LBB211:
 3513              		.loc 1 242 63 view .LVU1460
 3514 027c 7D5F30AE 		lbzx 10,31,6
 3515              		.loc 1 242 13 view .LVU1461
 3516 0280 9949FFDB 		stb 10,-37(9)
 3517              		.loc 1 240 5 is_stmt 1 discriminator 3 view .LVU1462
 3518              	.LVL197:
 3519              		.loc 1 240 30 discriminator 1 view .LVU1463
 3520              		.loc 1 241 6 view .LVU1464
 3521              		.loc 1 241 69 is_stmt 0 view .LVU1465
 3522 0284 89430003 		lbz 10,3(3)
 3523              		.loc 1 241 13 view .LVU1466
 3524 0288 9949FFDC 		stb 10,-36(9)
 3525              		.loc 1 242 6 is_stmt 1 view .LVU1467
 3526              		.loc 1 242 63 is_stmt 0 view .LVU1468
 3527 028c 7D5F38AE 		lbzx 10,31,7
 3528              		.loc 1 242 13 view .LVU1469
 3529 0290 9949FFDD 		stb 10,-35(9)
 3530              		.loc 1 240 5 is_stmt 1 discriminator 3 view .LVU1470
 3531              	.LVL198:
 3532              		.loc 1 240 30 discriminator 1 view .LVU1471
 3533              		.loc 1 241 6 view .LVU1472
 3534              		.loc 1 241 69 is_stmt 0 view .LVU1473
 3535 0294 89440003 		lbz 10,3(4)
 3536              		.loc 1 241 13 view .LVU1474
 3537 0298 9949FFDE 		stb 10,-34(9)
 3538              		.loc 1 242 6 is_stmt 1 view .LVU1475
 3539              		.loc 1 242 63 is_stmt 0 view .LVU1476
 3540 029c 7D5F40AE 		lbzx 10,31,8
 3541              		.loc 1 242 13 view .LVU1477
 3542 02a0 9949FFDF 		stb 10,-33(9)
 3543              		.loc 1 240 5 is_stmt 1 discriminator 3 view .LVU1478
 3544              	.LVL199:
 3545              		.loc 1 240 30 discriminator 1 view .LVU1479
 3546              	.LBE211:
 3547              		.loc 1 239 4 discriminator 2 view .LVU1480
 3548              		.loc 1 239 27 discriminator 1 view .LVU1481
 3549              		.loc 1 239 27 is_stmt 0 discriminator 1 view .LVU1482
 3550              	.LBE221:
 3551              	.LBB222:
 3552              		.loc 1 245 27 is_stmt 1 discriminator 1 view .LVU1483
 3553              	.LBB216:
 3554              		.loc 1 246 30 discriminator 1 view .LVU1484
 3555              		.loc 1 247 6 view .LVU1485
 3556              		.loc 1 247 69 is_stmt 0 view .LVU1486
 3557 02a4 895E0001 		lbz 10,1(30)
 3558              		.loc 1 247 13 view .LVU1487
 3559 02a8 9949FFE0 		stb 10,-32(9)
 3560              		.loc 1 248 6 is_stmt 1 view .LVU1488
 3561              		.loc 1 248 69 is_stmt 0 view .LVU1489
 3562 02ac 895E0002 		lbz 10,2(30)
 3563              		.loc 1 248 13 view .LVU1490
 3564 02b0 9949FFE1 		stb 10,-31(9)
 3565              		.loc 1 246 5 is_stmt 1 discriminator 3 view .LVU1491
 3566              	.LVL200:
 3567              		.loc 1 246 30 discriminator 1 view .LVU1492
 3568              		.loc 1 247 6 view .LVU1493
 3569              		.loc 1 247 69 is_stmt 0 view .LVU1494
 3570 02b4 894C0001 		lbz 10,1(12)
 3571              		.loc 1 247 13 view .LVU1495
 3572 02b8 9949FFE2 		stb 10,-30(9)
 3573              		.loc 1 248 6 is_stmt 1 view .LVU1496
 3574              		.loc 1 248 69 is_stmt 0 view .LVU1497
 3575 02bc 894C0002 		lbz 10,2(12)
 3576              		.loc 1 248 13 view .LVU1498
 3577 02c0 9949FFE3 		stb 10,-29(9)
 3578              		.loc 1 246 5 is_stmt 1 discriminator 3 view .LVU1499
 3579              	.LVL201:
 3580              		.loc 1 246 30 discriminator 1 view .LVU1500
 3581              		.loc 1 247 6 view .LVU1501
 3582              		.loc 1 247 69 is_stmt 0 view .LVU1502
 3583 02c4 894E0001 		lbz 10,1(14)
 3584              		.loc 1 247 13 view .LVU1503
 3585 02c8 9949FFE4 		stb 10,-28(9)
 3586              		.loc 1 248 6 is_stmt 1 view .LVU1504
 3587              		.loc 1 248 69 is_stmt 0 view .LVU1505
 3588 02cc 894E0002 		lbz 10,2(14)
 3589              		.loc 1 248 13 view .LVU1506
 3590 02d0 9949FFE5 		stb 10,-27(9)
 3591              		.loc 1 246 5 is_stmt 1 discriminator 3 view .LVU1507
 3592              	.LVL202:
 3593              		.loc 1 246 30 discriminator 1 view .LVU1508
 3594              		.loc 1 247 6 view .LVU1509
 3595              		.loc 1 247 69 is_stmt 0 view .LVU1510
 3596 02d4 894F0001 		lbz 10,1(15)
 3597              		.loc 1 247 13 view .LVU1511
 3598 02d8 9949FFE6 		stb 10,-26(9)
 3599              		.loc 1 248 6 is_stmt 1 view .LVU1512
 3600              		.loc 1 248 69 is_stmt 0 view .LVU1513
 3601 02dc 894F0002 		lbz 10,2(15)
 3602              		.loc 1 248 13 view .LVU1514
 3603 02e0 9949FFE7 		stb 10,-25(9)
 3604              		.loc 1 246 5 is_stmt 1 discriminator 3 view .LVU1515
 3605              	.LVL203:
 3606              		.loc 1 246 30 discriminator 1 view .LVU1516
 3607              	.LBE216:
 3608              		.loc 1 245 4 discriminator 2 view .LVU1517
 3609              		.loc 1 245 27 discriminator 1 view .LVU1518
 3610              	.LBB217:
 3611              		.loc 1 246 30 discriminator 1 view .LVU1519
 3612              		.loc 1 247 6 view .LVU1520
 3613              		.loc 1 247 69 is_stmt 0 view .LVU1521
 3614 02e4 89500001 		lbz 10,1(16)
 3615              		.loc 1 247 13 view .LVU1522
 3616 02e8 9949FFE8 		stb 10,-24(9)
 3617              		.loc 1 248 6 is_stmt 1 view .LVU1523
 3618              		.loc 1 248 69 is_stmt 0 view .LVU1524
 3619 02ec 89500002 		lbz 10,2(16)
 3620              		.loc 1 248 13 view .LVU1525
 3621 02f0 9949FFE9 		stb 10,-23(9)
 3622              		.loc 1 246 5 is_stmt 1 discriminator 3 view .LVU1526
 3623              	.LVL204:
 3624              		.loc 1 246 30 discriminator 1 view .LVU1527
 3625              		.loc 1 247 6 view .LVU1528
 3626              		.loc 1 247 69 is_stmt 0 view .LVU1529
 3627 02f4 89510001 		lbz 10,1(17)
 3628              		.loc 1 247 13 view .LVU1530
 3629 02f8 9949FFEA 		stb 10,-22(9)
 3630              		.loc 1 248 6 is_stmt 1 view .LVU1531
 3631              		.loc 1 248 69 is_stmt 0 view .LVU1532
 3632 02fc 89510002 		lbz 10,2(17)
 3633              		.loc 1 248 13 view .LVU1533
 3634 0300 9949FFEB 		stb 10,-21(9)
 3635              		.loc 1 246 5 is_stmt 1 discriminator 3 view .LVU1534
 3636              	.LVL205:
 3637              		.loc 1 246 30 discriminator 1 view .LVU1535
 3638              		.loc 1 247 6 view .LVU1536
 3639              		.loc 1 247 69 is_stmt 0 view .LVU1537
 3640 0304 89520001 		lbz 10,1(18)
 3641              		.loc 1 247 13 view .LVU1538
 3642 0308 9949FFEC 		stb 10,-20(9)
 3643              		.loc 1 248 6 is_stmt 1 view .LVU1539
 3644              		.loc 1 248 69 is_stmt 0 view .LVU1540
 3645 030c 89520002 		lbz 10,2(18)
 3646              		.loc 1 248 13 view .LVU1541
 3647 0310 9949FFED 		stb 10,-19(9)
 3648              		.loc 1 246 5 is_stmt 1 discriminator 3 view .LVU1542
 3649              	.LVL206:
 3650              		.loc 1 246 30 discriminator 1 view .LVU1543
 3651              		.loc 1 247 6 view .LVU1544
 3652              		.loc 1 247 69 is_stmt 0 view .LVU1545
 3653 0314 89540001 		lbz 10,1(20)
 3654              		.loc 1 247 13 view .LVU1546
 3655 0318 9949FFEE 		stb 10,-18(9)
 3656              		.loc 1 248 6 is_stmt 1 view .LVU1547
 3657              		.loc 1 248 69 is_stmt 0 view .LVU1548
 3658 031c 89540002 		lbz 10,2(20)
 3659              		.loc 1 248 13 view .LVU1549
 3660 0320 9949FFEF 		stb 10,-17(9)
 3661              		.loc 1 246 5 is_stmt 1 discriminator 3 view .LVU1550
 3662              	.LVL207:
 3663              		.loc 1 246 30 discriminator 1 view .LVU1551
 3664              	.LBE217:
 3665              		.loc 1 245 4 discriminator 2 view .LVU1552
 3666              		.loc 1 245 27 discriminator 1 view .LVU1553
 3667              	.LBB218:
 3668              		.loc 1 246 30 discriminator 1 view .LVU1554
 3669              		.loc 1 247 6 view .LVU1555
 3670              		.loc 1 247 69 is_stmt 0 view .LVU1556
 3671 0324 89550001 		lbz 10,1(21)
 3672              		.loc 1 247 13 view .LVU1557
 3673 0328 9949FFF0 		stb 10,-16(9)
 3674              		.loc 1 248 6 is_stmt 1 view .LVU1558
 3675              		.loc 1 248 69 is_stmt 0 view .LVU1559
 3676 032c 89550002 		lbz 10,2(21)
 3677              		.loc 1 248 13 view .LVU1560
 3678 0330 9949FFF1 		stb 10,-15(9)
 3679              		.loc 1 246 5 is_stmt 1 discriminator 3 view .LVU1561
 3680              	.LVL208:
 3681              		.loc 1 246 30 discriminator 1 view .LVU1562
 3682              		.loc 1 247 6 view .LVU1563
 3683              		.loc 1 247 69 is_stmt 0 view .LVU1564
 3684 0334 89560001 		lbz 10,1(22)
 3685              		.loc 1 247 13 view .LVU1565
 3686 0338 9949FFF2 		stb 10,-14(9)
 3687              		.loc 1 248 6 is_stmt 1 view .LVU1566
 3688              		.loc 1 248 69 is_stmt 0 view .LVU1567
 3689 033c 89560002 		lbz 10,2(22)
 3690              		.loc 1 248 13 view .LVU1568
 3691 0340 9949FFF3 		stb 10,-13(9)
 3692              		.loc 1 246 5 is_stmt 1 discriminator 3 view .LVU1569
 3693              	.LVL209:
 3694              		.loc 1 246 30 discriminator 1 view .LVU1570
 3695              		.loc 1 247 6 view .LVU1571
 3696              		.loc 1 247 69 is_stmt 0 view .LVU1572
 3697 0344 89570001 		lbz 10,1(23)
 3698              		.loc 1 247 13 view .LVU1573
 3699 0348 9949FFF4 		stb 10,-12(9)
 3700              		.loc 1 248 6 is_stmt 1 view .LVU1574
 3701              		.loc 1 248 69 is_stmt 0 view .LVU1575
 3702 034c 89570002 		lbz 10,2(23)
 3703              		.loc 1 248 13 view .LVU1576
 3704 0350 9949FFF5 		stb 10,-11(9)
 3705              		.loc 1 246 5 is_stmt 1 discriminator 3 view .LVU1577
 3706              	.LVL210:
 3707              		.loc 1 246 30 discriminator 1 view .LVU1578
 3708              		.loc 1 247 6 view .LVU1579
 3709              		.loc 1 247 69 is_stmt 0 view .LVU1580
 3710 0354 89590001 		lbz 10,1(25)
 3711              		.loc 1 247 13 view .LVU1581
 3712 0358 9949FFF6 		stb 10,-10(9)
 3713              		.loc 1 248 6 is_stmt 1 view .LVU1582
 3714              		.loc 1 248 69 is_stmt 0 view .LVU1583
 3715 035c 89590002 		lbz 10,2(25)
 3716              		.loc 1 248 13 view .LVU1584
 3717 0360 9949FFF7 		stb 10,-9(9)
 3718              		.loc 1 246 5 is_stmt 1 discriminator 3 view .LVU1585
 3719              	.LVL211:
 3720              		.loc 1 246 30 discriminator 1 view .LVU1586
 3721              	.LBE218:
 3722              		.loc 1 245 4 discriminator 2 view .LVU1587
 3723              		.loc 1 245 27 discriminator 1 view .LVU1588
 3724              	.LBB219:
 3725              		.loc 1 246 30 discriminator 1 view .LVU1589
 3726              		.loc 1 247 6 view .LVU1590
 3727              		.loc 1 247 69 is_stmt 0 view .LVU1591
 3728 0364 895A0001 		lbz 10,1(26)
 3729              		.loc 1 247 13 view .LVU1592
 3730 0368 9949FFF8 		stb 10,-8(9)
 3731              		.loc 1 248 6 is_stmt 1 view .LVU1593
 3732              		.loc 1 248 69 is_stmt 0 view .LVU1594
 3733 036c 895A0002 		lbz 10,2(26)
 3734              		.loc 1 248 13 view .LVU1595
 3735 0370 9949FFF9 		stb 10,-7(9)
 3736              		.loc 1 246 5 is_stmt 1 discriminator 3 view .LVU1596
 3737              	.LVL212:
 3738              		.loc 1 246 30 discriminator 1 view .LVU1597
 3739              		.loc 1 247 6 view .LVU1598
 3740              		.loc 1 247 69 is_stmt 0 view .LVU1599
 3741 0374 894B0001 		lbz 10,1(11)
 3742              		.loc 1 247 13 view .LVU1600
 3743 0378 9949FFFA 		stb 10,-6(9)
 3744              		.loc 1 248 6 is_stmt 1 view .LVU1601
 3745              		.loc 1 248 69 is_stmt 0 view .LVU1602
 3746 037c 894B0002 		lbz 10,2(11)
 3747              		.loc 1 248 13 view .LVU1603
 3748 0380 9949FFFB 		stb 10,-5(9)
 3749              		.loc 1 246 5 is_stmt 1 discriminator 3 view .LVU1604
 3750              	.LVL213:
 3751              		.loc 1 246 30 discriminator 1 view .LVU1605
 3752              		.loc 1 247 6 view .LVU1606
 3753              		.loc 1 247 69 is_stmt 0 view .LVU1607
 3754 0384 89430001 		lbz 10,1(3)
 3755              		.loc 1 247 13 view .LVU1608
 3756 0388 9949FFFC 		stb 10,-4(9)
 3757              		.loc 1 248 6 is_stmt 1 view .LVU1609
 3758              		.loc 1 248 69 is_stmt 0 view .LVU1610
 3759 038c 89430002 		lbz 10,2(3)
 3760              		.loc 1 248 13 view .LVU1611
 3761 0390 9949FFFD 		stb 10,-3(9)
 3762              		.loc 1 246 5 is_stmt 1 discriminator 3 view .LVU1612
 3763              	.LVL214:
 3764              		.loc 1 246 30 discriminator 1 view .LVU1613
 3765              		.loc 1 247 6 view .LVU1614
 3766              		.loc 1 247 69 is_stmt 0 view .LVU1615
 3767 0394 89440001 		lbz 10,1(4)
 3768              		.loc 1 247 13 view .LVU1616
 3769 0398 9949FFFE 		stb 10,-2(9)
 3770              		.loc 1 248 6 is_stmt 1 view .LVU1617
 3771              	.LVL215:
 3772              		.loc 1 248 69 is_stmt 0 view .LVU1618
 3773 039c 89440002 		lbz 10,2(4)
 3774              		.loc 1 248 13 view .LVU1619
 3775 03a0 9949FFFF 		stb 10,-1(9)
 3776              		.loc 1 246 5 is_stmt 1 discriminator 3 view .LVU1620
 3777              	.LVL216:
 3778              		.loc 1 246 30 discriminator 1 view .LVU1621
 3779              	.LBE219:
 3780              		.loc 1 245 4 discriminator 2 view .LVU1622
 3781              		.loc 1 245 27 discriminator 1 view .LVU1623
 3782              	.LBE222:
 3783              		.loc 1 238 3 discriminator 2 view .LVU1624
 3784              		.loc 1 238 25 discriminator 1 view .LVU1625
 3785 03a4 4180FD20 		blt+ 0,.L69
 3786              	.LBE201:
 3787              		.loc 1 237 54 is_stmt 0 discriminator 2 view .LVU1626
 3788 03a8 7F2802A6 		mflr 25
 3789              		.loc 1 237 32 discriminator 1 view .LVU1627
 3790 03ac 81010008 		lwz 8,8(1)
 3791              		.loc 1 237 54 discriminator 2 view .LVU1628
 3792 03b0 7FC902A6 		mfctr 30
 3793              		.loc 1 237 2 is_stmt 1 discriminator 2 view .LVU1629
 3794              		.loc 1 237 54 is_stmt 0 discriminator 2 view .LVU1630
 3795 03b4 3B390004 		addi 25,25,4
 3796              		.loc 1 237 32 discriminator 1 view .LVU1631
 3797 03b8 572A043E 		rlwinm 10,25,0,0xffff
 3798              	.LVL217:
 3799              		.loc 1 237 32 is_stmt 1 discriminator 1 view .LVU1632
 3800 03bc 7C0A4040 		cmplw 0,10,8
 3801 03c0 4180FCE4 		blt+ 0,.L68
 3802              	.LVL218:
 3803              		.loc 1 237 32 is_stmt 0 discriminator 1 view .LVU1633
 3804 03c4 83A1000C 		lwz 29,12(1)
 3805 03c8 81C10010 		lwz 14,16(1)
 3806              		.cfi_restore 14
 3807 03cc 81E10014 		lwz 15,20(1)
 3808              		.cfi_restore 15
 3809 03d0 82010018 		lwz 16,24(1)
 3810              		.cfi_restore 16
 3811 03d4 8221001C 		lwz 17,28(1)
 3812              		.cfi_restore 17
 3813 03d8 82410020 		lwz 18,32(1)
 3814              		.cfi_restore 18
 3815 03dc 82810028 		lwz 20,40(1)
 3816              		.cfi_restore 20
 3817 03e0 82A1002C 		lwz 21,44(1)
 3818              		.cfi_restore 21
 3819 03e4 82C10030 		lwz 22,48(1)
 3820              		.cfi_restore 22
 3821 03e8 82E10034 		lwz 23,52(1)
 3822              		.cfi_restore 23
 3823 03ec 83010038 		lwz 24,56(1)
 3824              		.cfi_restore 24
 3825 03f0 8321003C 		lwz 25,60(1)
 3826              		.cfi_restore 25
 3827              	.LVL219:
 3828              		.loc 1 237 32 discriminator 1 view .LVU1634
 3829 03f4 83610044 		lwz 27,68(1)
 3830              		.cfi_restore 27
 3831 03f8 83810048 		lwz 28,72(1)
 3832              		.cfi_restore 28
 3833              	.LVL220:
 3834              	.L67:
 3835              		.loc 1 237 32 discriminator 1 view .LVU1635
 3836              	.LBE223:
 3837              		.loc 1 253 2 is_stmt 1 view .LVU1636
 3838              		.loc 1 253 14 is_stmt 0 view .LVU1637
 3839 03fc 7FC3F378 		mr 3,30
 3840 0400 7FA4EB78 		mr 4,29
 3841 0404 48000001 		bl DCFlushRange
 3842              	.LVL221:
 3843              		.loc 1 255 2 is_stmt 1 view .LVU1638
 3844              		.loc 1 256 1 is_stmt 0 view .LVU1639
 3845 0408 8001005C 		lwz 0,92(1)
 3846 040c 7FC3F378 		mr 3,30
 3847 0410 82610024 		lwz 19,36(1)
 3848              	.LVL222:
 3849              		.loc 1 256 1 view .LVU1640
 3850 0414 83410040 		lwz 26,64(1)
 3851 0418 7C0803A6 		mtlr 0
 3852              		.cfi_restore 65
 3853 041c 83A1004C 		lwz 29,76(1)
 3854 0420 83C10050 		lwz 30,80(1)
 3855              	.LVL223:
 3856              		.loc 1 256 1 view .LVU1641
 3857 0424 83E10054 		lwz 31,84(1)
 3858              	.LVL224:
 3859              		.loc 1 256 1 view .LVU1642
 3860 0428 38210058 		addi 1,1,88
 3861              		.cfi_restore 31
 3862              		.cfi_restore 30
 3863              		.cfi_restore 29
 3864              		.cfi_restore 26
 3865              		.cfi_restore 19
 3866              		.cfi_def_cfa_offset 0
 3867 042c 4E800020 		blr
 3868              	.LVL225:
 3869              	.L79:
 3870              		.cfi_def_cfa_offset 88
 3871              		.cfi_offset 19, -52
 3872              		.cfi_offset 25, -28
 3873              		.cfi_offset 26, -24
 3874              		.cfi_offset 29, -12
 3875              		.cfi_offset 30, -8
 3876              		.cfi_offset 31, -4
 3877              		.cfi_offset 65, 4
 3878              		.loc 1 256 1 view .LVU1643
 3879 0430 8321003C 		lwz 25,60(1)
 3880              		.cfi_restore 25
 3881 0434 4BFFFFC8 		b .L67
 3882              		.cfi_endproc
 3883              	.LFE74:
 3884              		.size	_ZN11Metaphrasis20convertBufferToRGBA8EPjtt, .-_ZN11Metaphrasis20convertBufferToRGBA8EPjtt
 3885              		.section	.text._ZN11Metaphrasis19convertRGBAToRGB565Ej,"ax",@progbits
 3886              		.align 2
 3887              		.globl _ZN11Metaphrasis19convertRGBAToRGB565Ej
 3888              		.type	_ZN11Metaphrasis19convertRGBAToRGB565Ej, @function
 3889              	_ZN11Metaphrasis19convertRGBAToRGB565Ej:
 3890              	.LVL226:
 3891              	.LFB75:
 3892              		.loc 1 268 58 is_stmt 1 view -0
 3893              		.cfi_startproc
 3894              		.loc 1 269 2 view .LVU1645
 3895              		.loc 1 271 2 view .LVU1646
 3896              		.loc 1 271 14 is_stmt 0 view .LVU1647
 3897 0000 5469463E 		srwi 9,3,24
 3898              		.loc 1 272 21 view .LVU1648
 3899 0004 5468863E 		rlwinm 8,3,16,24,31
 3900              		.loc 1 271 29 view .LVU1649
 3901 0008 1D29001F 		mulli 9,9,31
 3902              		.loc 1 271 35 view .LVU1650
 3903 000c 3CE08080 		lis 7,0x8080
 3904              	.LVL227:
 3905              		.loc 1 272 2 is_stmt 1 view .LVU1651
 3906              		.loc 1 273 2 view .LVU1652
 3907              		.loc 1 275 2 view .LVU1653
 3908              		.loc 1 272 29 is_stmt 0 view .LVU1654
 3909 0010 1D08003F 		mulli 8,8,63
 3910              		.loc 1 271 35 view .LVU1655
 3911 0014 60E78081 		ori 7,7,0x8081
 3912              		.loc 1 273 21 view .LVU1656
 3913 0018 546AC63E 		rlwinm 10,3,24,24,31
 3914              		.loc 1 271 35 view .LVU1657
 3915 001c 7C693816 		mulhwu 3,9,7
 3916              	.LVL228:
 3917              		.loc 1 272 35 view .LVU1658
 3918 0020 7D083816 		mulhwu 8,8,7
 3919              		.loc 1 275 14 view .LVU1659
 3920 0024 5463F872 		rlwinm 3,3,31,1,25
 3921              		.loc 1 273 29 view .LVU1660
 3922 0028 1D2A001F 		mulli 9,10,31
 3923              		.loc 1 272 35 view .LVU1661
 3924 002c 5508C9FE 		srwi 8,8,7
 3925              		.loc 1 275 20 view .LVU1662
 3926 0030 7C634378 		or 3,3,8
 3927              		.loc 1 273 35 view .LVU1663
 3928 0034 7D293816 		mulhwu 9,9,7
 3929              		.loc 1 275 33 view .LVU1664
 3930 0038 54632834 		slwi 3,3,5
 3931              		.loc 1 273 35 view .LVU1665
 3932 003c 5529C9FE 		srwi 9,9,7
 3933              		.loc 1 275 33 view .LVU1666
 3934 0040 7C634B78 		or 3,3,9
 3935              		.loc 1 276 1 view .LVU1667
 3936 0044 5463043E 		rlwinm 3,3,0,0xffff
 3937 0048 4E800020 		blr
 3938              		.cfi_endproc
 3939              	.LFE75:
 3940              		.size	_ZN11Metaphrasis19convertRGBAToRGB565Ej, .-_ZN11Metaphrasis19convertRGBAToRGB565Ej
 3941              		.section	.text._ZN11Metaphrasis21convertBufferToRGB565EPjtt,"ax",@progbits
 3942              		.align 2
 3943              		.globl _ZN11Metaphrasis21convertBufferToRGB565EPjtt
 3944              		.type	_ZN11Metaphrasis21convertBufferToRGB565EPjtt, @function
 3945              	_ZN11Metaphrasis21convertBufferToRGB565EPjtt:
 3946              	.LVL229:
 3947              	.LFB76:
 3948              		.loc 1 289 113 is_stmt 1 view -0
 3949              		.cfi_startproc
 3950              		.loc 1 290 2 view .LVU1669
 3951              		.loc 1 289 113 is_stmt 0 view .LVU1670
 3952 0000 9421FF98 		stwu 1,-104(1)
 3953              		.cfi_def_cfa_offset 104
 3954 0004 7C0802A6 		mflr 0
 3955 0008 92610034 		stw 19,52(1)
 3956              		.cfi_register 65, 0
 3957              		.cfi_offset 19, -52
 3958              		.loc 1 290 37 view .LVU1671
 3959 000c 7E6521D6 		mullw 19,5,4
 3960              		.loc 1 289 113 view .LVU1672
 3961 0010 92A1003C 		stw 21,60(1)
 3962              		.cfi_offset 21, -44
 3963 0014 7C952378 		mr 21,4
 3964 0018 93E10064 		stw 31,100(1)
 3965              		.cfi_offset 31, -4
 3966 001c 7C7F1B78 		mr 31,3
 3967              		.loc 1 291 51 view .LVU1673
 3968 0020 38600020 		li 3,32
 3969              	.LVL230:
 3970              		.loc 1 289 113 view .LVU1674
 3971 0024 9001006C 		stw 0,108(1)
 3972              		.loc 1 290 11 view .LVU1675
 3973 0028 5673083C 		slwi 19,19,1
 3974              	.LVL231:
 3975              		.loc 1 291 2 is_stmt 1 view .LVU1676
 3976              		.loc 1 289 113 is_stmt 0 view .LVU1677
 3977 002c 92810038 		stw 20,56(1)
 3978              		.loc 1 291 51 view .LVU1678
 3979 0030 7E649B78 		mr 4,19
 3980              	.LVL232:
 3981              		.loc 1 289 113 view .LVU1679
 3982 0034 93A1005C 		stw 29,92(1)
 3983              		.cfi_offset 65, 4
 3984              		.cfi_offset 20, -48
 3985              		.cfi_offset 29, -12
 3986 0038 7CBD2B78 		mr 29,5
 3987              		.loc 1 291 51 view .LVU1680
 3988 003c 48000001 		bl memalign
 3989              	.LVL233:
 3990              		.loc 1 292 8 view .LVU1681
 3991 0040 7E659B78 		mr 5,19
 3992 0044 38800000 		li 4,0
 3993              		.loc 1 291 51 view .LVU1682
 3994 0048 7C741B78 		mr 20,3
 3995              	.LVL234:
 3996              		.loc 1 292 2 is_stmt 1 view .LVU1683
 3997              		.loc 1 292 8 is_stmt 0 view .LVU1684
 3998 004c 48000001 		bl memset
 3999              	.LVL235:
 4000              		.loc 1 294 2 is_stmt 1 view .LVU1685
 4001              		.loc 1 295 2 view .LVU1686
 4002              		.loc 1 297 2 view .LVU1687
 4003              	.LBB224:
 4004              		.loc 1 297 24 discriminator 1 view .LVU1688
 4005 0050 2C1D0000 		cmpwi 0,29,0
 4006 0054 418205F4 		beq- 0,.L82
 4007 0058 2C150000 		cmpwi 0,21,0
 4008              	.LBB225:
 4009              	.LBB226:
 4010              	.LBB227:
 4011              	.LBB228:
 4012              		.loc 1 271 35 is_stmt 0 view .LVU1689
 4013 005c 3D208080 		lis 9,0x8080
 4014 0060 9221002C 		stw 17,44(1)
 4015              		.cfi_offset 17, -60
 4016 0064 61298081 		ori 9,9,0x8081
 4017              	.LBE228:
 4018              	.LBE227:
 4019              	.LBE226:
 4020              	.LBE225:
 4021              	.LBE224:
 4022              		.loc 1 295 12 view .LVU1690
 4023 0068 7E8AA378 		mr 10,20
 4024              	.LBB563:
 4025              		.loc 1 297 15 view .LVU1691
 4026 006c 3A200000 		li 17,0
 4027 0070 4182060C 		beq- 0,.L94
 4028 0074 91C10020 		stw 14,32(1)
 4029              		.cfi_offset 14, -72
 4030 0078 91E10024 		stw 15,36(1)
 4031              		.cfi_offset 15, -68
 4032 007c 92010028 		stw 16,40(1)
 4033              		.cfi_offset 16, -64
 4034 0080 92410030 		stw 18,48(1)
 4035              		.cfi_offset 18, -56
 4036 0084 92C10040 		stw 22,64(1)
 4037              		.cfi_offset 22, -40
 4038 0088 92E10044 		stw 23,68(1)
 4039              		.cfi_offset 23, -36
 4040 008c 93010048 		stw 24,72(1)
 4041              		.cfi_offset 24, -32
 4042 0090 9321004C 		stw 25,76(1)
 4043              		.cfi_offset 25, -28
 4044 0094 93410050 		stw 26,80(1)
 4045              		.cfi_offset 26, -24
 4046 0098 93610054 		stw 27,84(1)
 4047              		.cfi_offset 27, -20
 4048 009c 93810058 		stw 28,88(1)
 4049              		.cfi_offset 28, -16
 4050 00a0 93C10060 		stw 30,96(1)
 4051              		.cfi_offset 30, -8
 4052 00a4 92610014 		stw 19,20(1)
 4053 00a8 92810018 		stw 20,24(1)
 4054 00ac 93A10010 		stw 29,16(1)
 4055              	.LVL236:
 4056              	.L83:
 4057              	.LBB562:
 4058              		.loc 1 298 25 is_stmt 1 discriminator 1 view .LVU1692
 4059              	.LBB557:
 4060              		.loc 1 300 53 is_stmt 0 view .LVU1693
 4061 00b0 5634043E 		rlwinm 20,17,0,0xffff
 4062 00b4 B221000C 		sth 17,12(1)
 4063              		.loc 1 300 63 view .LVU1694
 4064 00b8 7E94A9D6 		mullw 20,20,21
 4065 00bc 92A10008 		stw 21,8(1)
 4066              	.LBE557:
 4067              		.loc 1 298 16 view .LVU1695
 4068 00c0 3AC00000 		li 22,0
 4069              	.LBB558:
 4070              		.loc 1 300 63 view .LVU1696
 4071 00c4 7E55A214 		add 18,21,20
 4072 00c8 7E759214 		add 19,21,18
 4073 00cc 7E159A14 		add 16,21,19
 4074              	.LVL237:
 4075              	.L84:
 4076              		.loc 1 299 32 is_stmt 1 discriminator 1 view .LVU1697
 4077              		.loc 1 300 5 view .LVU1698
 4078              		.loc 1 300 81 is_stmt 0 view .LVU1699
 4079 00d0 56C8043E 		rlwinm 8,22,0,0xffff
 4080              	.LBE558:
 4081              		.loc 1 298 42 discriminator 2 view .LVU1700
 4082 00d4 3AD60004 		addi 22,22,4
 4083              	.LVL238:
 4084              	.LBB559:
 4085              		.loc 1 301 83 view .LVU1701
 4086 00d8 3B080001 		addi 24,8,1
 4087              		.loc 1 303 83 view .LVU1702
 4088 00dc 38880003 		addi 4,8,3
 4089              		.loc 1 301 87 view .LVU1703
 4090 00e0 7FD4C214 		add 30,20,24
 4091              		.loc 1 303 87 view .LVU1704
 4092 00e4 7CB42214 		add 5,20,4
 4093              		.loc 1 301 46 view .LVU1705
 4094 00e8 57DE103A 		slwi 30,30,2
 4095              		.loc 1 302 83 view .LVU1706
 4096 00ec 3BA80002 		addi 29,8,2
 4097              		.loc 1 301 46 view .LVU1707
 4098 00f0 7FDFF02E 		lwzx 30,31,30
 4099              		.loc 1 300 87 view .LVU1708
 4100 00f4 7D744214 		add 11,20,8
 4101 00f8 7DE89214 		add 15,8,18
 4102 00fc 7F289A14 		add 25,8,19
 4103              		.loc 1 303 46 view .LVU1709
 4104 0100 54A5103A 		slwi 5,5,2
 4105              		.loc 1 300 87 view .LVU1710
 4106 0104 7D088214 		add 8,8,16
 4107              		.loc 1 303 46 view .LVU1711
 4108 0108 7CFF282E 		lwzx 7,31,5
 4109              		.loc 1 300 46 view .LVU1712
 4110 010c 551C103A 		slwi 28,8,2
 4111              	.LBB259:
 4112              	.LBB260:
 4113              		.loc 1 272 21 view .LVU1713
 4114 0110 57C5863E 		rlwinm 5,30,16,24,31
 4115              		.loc 1 271 14 view .LVU1714
 4116 0114 57C8463E 		srwi 8,30,24
 4117              		.loc 1 271 29 view .LVU1715
 4118 0118 1D08001F 		mulli 8,8,31
 4119              	.LBE260:
 4120              	.LBE259:
 4121              		.loc 1 301 87 view .LVU1716
 4122 011c 7E389214 		add 17,24,18
 4123              	.LBB305:
 4124              	.LBB261:
 4125              		.loc 1 272 29 view .LVU1717
 4126 0120 1CA5003F 		mulli 5,5,63
 4127              	.LBE261:
 4128              	.LBE305:
 4129              		.loc 1 300 46 view .LVU1718
 4130 0124 556B103A 		slwi 11,11,2
 4131              	.LBB306:
 4132              	.LBB262:
 4133              		.loc 1 271 35 view .LVU1719
 4134 0128 7D084816 		mulhwu 8,8,9
 4135              	.LBE262:
 4136              	.LBE306:
 4137              		.loc 1 301 46 view .LVU1720
 4138 012c 5631103A 		slwi 17,17,2
 4139              		.loc 1 300 46 view .LVU1721
 4140 0130 7F7F582E 		lwzx 27,31,11
 4141              	.LVL239:
 4142              	.LBB307:
 4143              	.LBI227:
 4144              		.loc 1 268 10 is_stmt 1 view .LVU1722
 4145              	.LBB229:
 4146              		.loc 1 269 2 view .LVU1723
 4147              		.loc 1 271 2 view .LVU1724
 4148              		.loc 1 272 2 view .LVU1725
 4149              		.loc 1 273 2 view .LVU1726
 4150              		.loc 1 275 2 view .LVU1727
 4151              		.loc 1 275 2 is_stmt 0 view .LVU1728
 4152              	.LBE229:
 4153              	.LBE307:
 4154              		.loc 1 303 87 view .LVU1729
 4155 0134 7D649A14 		add 11,4,19
 4156              		.loc 1 301 46 view .LVU1730
 4157 0138 7E3F882E 		lwzx 17,31,17
 4158              		.loc 1 300 46 view .LVU1731
 4159 013c 55EF103A 		slwi 15,15,2
 4160 0140 5739103A 		slwi 25,25,2
 4161 0144 7DDF782E 		lwzx 14,31,15
 4162              	.LBB308:
 4163              	.LBB263:
 4164              		.loc 1 272 35 view .LVU1732
 4165 0148 7CA54816 		mulhwu 5,5,9
 4166              	.LBE263:
 4167              	.LBE308:
 4168              		.loc 1 303 46 view .LVU1733
 4169 014c 556B103A 		slwi 11,11,2
 4170              	.LBB309:
 4171              	.LBB264:
 4172              		.loc 1 275 14 view .LVU1734
 4173 0150 5508F872 		rlwinm 8,8,31,1,25
 4174              	.LBE264:
 4175              	.LBE309:
 4176              		.loc 1 300 46 view .LVU1735
 4177 0154 7DFFC82E 		lwzx 15,31,25
 4178              		.loc 1 303 46 view .LVU1736
 4179 0158 7F3F582E 		lwzx 25,31,11
 4180              	.LBB310:
 4181              	.LBB265:
 4182              		.loc 1 271 14 view .LVU1737
 4183 015c 562B463E 		srwi 11,17,24
 4184              	.LBE265:
 4185              	.LBE310:
 4186              		.loc 1 302 87 view .LVU1738
 4187 0160 7C74EA14 		add 3,20,29
 4188              		.loc 1 300 46 view .LVU1739
 4189 0164 7F9FE02E 		lwzx 28,31,28
 4190              	.LBB311:
 4191              	.LBB266:
 4192              		.loc 1 272 35 view .LVU1740
 4193 0168 54A5C9FE 		srwi 5,5,7
 4194              		.loc 1 271 29 view .LVU1741
 4195 016c 1D6B001F 		mulli 11,11,31
 4196              		.loc 1 275 20 view .LVU1742
 4197 0170 7D082B78 		or 8,8,5
 4198              		.loc 1 272 21 view .LVU1743
 4199 0174 5625863E 		rlwinm 5,17,16,24,31
 4200              		.loc 1 272 29 view .LVU1744
 4201 0178 1CA5003F 		mulli 5,5,63
 4202              	.LBE266:
 4203              	.LBE311:
 4204              		.loc 1 302 46 view .LVU1745
 4205 017c 5463103A 		slwi 3,3,2
 4206              	.LBB312:
 4207              	.LBB267:
 4208              		.loc 1 271 35 view .LVU1746
 4209 0180 7D6B4816 		mulhwu 11,11,9
 4210              	.LBE267:
 4211              	.LBE312:
 4212              		.loc 1 302 46 view .LVU1747
 4213 0184 7C7F182E 		lwzx 3,31,3
 4214              		.loc 1 302 87 view .LVU1748
 4215 0188 7CDD9214 		add 6,29,18
 4216              	.LBB313:
 4217              	.LBB314:
 4218              		.loc 1 272 21 view .LVU1749
 4219 018c 5475863E 		rlwinm 21,3,16,24,31
 4220              	.LBE314:
 4221              	.LBE313:
 4222              		.loc 1 303 87 view .LVU1750
 4223 0190 7EE49214 		add 23,4,18
 4224              	.LBB357:
 4225              	.LBB268:
 4226              		.loc 1 272 35 view .LVU1751
 4227 0194 7CA54816 		mulhwu 5,5,9
 4228              	.LBE268:
 4229              	.LBE357:
 4230              		.loc 1 301 87 view .LVU1752
 4231 0198 7C189A14 		add 0,24,19
 4232              		.loc 1 302 87 view .LVU1753
 4233 019c 7F5D9A14 		add 26,29,19
 4234              		.loc 1 301 87 view .LVU1754
 4235 01a0 7F188214 		add 24,24,16
 4236              		.loc 1 302 87 view .LVU1755
 4237 01a4 7FBD8214 		add 29,29,16
 4238              	.LBB358:
 4239              	.LBB269:
 4240              		.loc 1 272 35 view .LVU1756
 4241 01a8 54A5C9FE 		srwi 5,5,7
 4242              	.LBE269:
 4243              	.LBE358:
 4244              		.loc 1 303 87 view .LVU1757
 4245 01ac 7C848214 		add 4,4,16
 4246              	.LBB359:
 4247              	.LBB270:
 4248              		.loc 1 275 14 view .LVU1758
 4249 01b0 556BF872 		rlwinm 11,11,31,1,25
 4250              	.LBE270:
 4251              	.LBE359:
 4252              		.loc 1 303 46 view .LVU1759
 4253 01b4 56F7103A 		slwi 23,23,2
 4254              		.loc 1 301 46 view .LVU1760
 4255 01b8 5718103A 		slwi 24,24,2
 4256              		.loc 1 302 46 view .LVU1761
 4257 01bc 575A103A 		slwi 26,26,2
 4258 01c0 57BD103A 		slwi 29,29,2
 4259              		.loc 1 303 46 view .LVU1762
 4260 01c4 5484103A 		slwi 4,4,2
 4261              	.LBB360:
 4262              	.LBB271:
 4263              		.loc 1 275 20 view .LVU1763
 4264 01c8 7D6B2B78 		or 11,11,5
 4265              	.LBE271:
 4266              	.LBE360:
 4267              	.LBB361:
 4268              	.LBB315:
 4269              		.loc 1 272 29 view .LVU1764
 4270 01cc 1CB5003F 		mulli 5,21,63
 4271              	.LBE315:
 4272              	.LBE361:
 4273              		.loc 1 303 46 view .LVU1765
 4274 01d0 7D9FB82E 		lwzx 12,31,23
 4275              	.LBB362:
 4276              	.LBB272:
 4277              		.loc 1 273 21 view .LVU1766
 4278 01d4 57DEC63E 		rlwinm 30,30,24,24,31
 4279              	.LBE272:
 4280              	.LBE362:
 4281              		.loc 1 301 46 view .LVU1767
 4282 01d8 7EFFC02E 		lwzx 23,31,24
 4283              	.LBB363:
 4284              	.LBB316:
 4285              		.loc 1 272 35 view .LVU1768
 4286 01dc 7CA54816 		mulhwu 5,5,9
 4287              	.LBE316:
 4288              	.LBE363:
 4289              		.loc 1 302 46 view .LVU1769
 4290 01e0 7F1FD02E 		lwzx 24,31,26
 4291              	.LBB364:
 4292              	.LBB273:
 4293              		.loc 1 273 21 view .LVU1770
 4294 01e4 5631C63E 		rlwinm 17,17,24,24,31
 4295              	.LBE273:
 4296              	.LBE364:
 4297              		.loc 1 302 46 view .LVU1771
 4298 01e8 7F5FE82E 		lwzx 26,31,29
 4299              	.LBB365:
 4300              	.LBB274:
 4301              		.loc 1 275 33 view .LVU1772
 4302 01ec 55082834 		slwi 8,8,5
 4303              	.LBE274:
 4304              	.LBE365:
 4305              		.loc 1 303 46 view .LVU1773
 4306 01f0 7FBF202E 		lwzx 29,31,4
 4307              	.LBB366:
 4308              	.LBB317:
 4309              		.loc 1 271 14 view .LVU1774
 4310 01f4 5464463E 		srwi 4,3,24
 4311              		.loc 1 271 29 view .LVU1775
 4312 01f8 1C84001F 		mulli 4,4,31
 4313              		.loc 1 272 35 view .LVU1776
 4314 01fc 7CA803A6 		mtlr 5
 4315              	.LBE317:
 4316              	.LBE366:
 4317              	.LBB367:
 4318              	.LBB275:
 4319              		.loc 1 273 29 view .LVU1777
 4320 0200 1FDE001F 		mulli 30,30,31
 4321              	.LBE275:
 4322              	.LBE367:
 4323              	.LBB368:
 4324              	.LBB318:
 4325              		.loc 1 272 35 view .LVU1778
 4326 0204 7EA802A6 		mflr 21
 4327              		.loc 1 271 35 view .LVU1779
 4328 0208 7C844816 		mulhwu 4,4,9
 4329              		.loc 1 272 35 view .LVU1780
 4330 020c 56B5C9FE 		srwi 21,21,7
 4331              	.LBE318:
 4332              	.LBE368:
 4333              	.LBB369:
 4334              	.LBB370:
 4335              		.loc 1 271 14 view .LVU1781
 4336 0210 54E5463E 		srwi 5,7,24
 4337              	.LBE370:
 4338              	.LBE369:
 4339              		.loc 1 302 46 view .LVU1782
 4340 0214 54C6103A 		slwi 6,6,2
 4341              		.loc 1 301 46 view .LVU1783
 4342 0218 5400103A 		slwi 0,0,2
 4343              		.loc 1 302 46 view .LVU1784
 4344 021c 7CDF302E 		lwzx 6,31,6
 4345              	.LBB416:
 4346              	.LBB276:
 4347              		.loc 1 273 35 view .LVU1785
 4348 0220 7FDE4816 		mulhwu 30,30,9
 4349              	.LBE276:
 4350              	.LBE416:
 4351              	.LBB417:
 4352              	.LBB319:
 4353              		.loc 1 275 14 view .LVU1786
 4354 0224 5484F872 		rlwinm 4,4,31,1,25
 4355              		.loc 1 275 20 view .LVU1787
 4356 0228 7C84AB78 		or 4,4,21
 4357              	.LBE319:
 4358              	.LBE417:
 4359              		.loc 1 301 46 view .LVU1788
 4360 022c 7C1F002E 		lwzx 0,31,0
 4361              	.LBB418:
 4362              	.LBB371:
 4363              		.loc 1 272 21 view .LVU1789
 4364 0230 54F5863E 		rlwinm 21,7,16,24,31
 4365              		.loc 1 273 21 view .LVU1790
 4366 0234 54E7C63E 		rlwinm 7,7,24,24,31
 4367              	.LBE371:
 4368              	.LBE418:
 4369              	.LBB419:
 4370              	.LBB277:
 4371              		.loc 1 273 29 view .LVU1791
 4372 0238 1E31001F 		mulli 17,17,31
 4373              		.loc 1 273 35 view .LVU1792
 4374 023c 57DEC9FE 		srwi 30,30,7
 4375              	.LBE277:
 4376              	.LBE419:
 4377              	.LBB420:
 4378              	.LBB372:
 4379              		.loc 1 273 29 view .LVU1793
 4380 0240 1CE7001F 		mulli 7,7,31
 4381              	.LBE372:
 4382              	.LBE420:
 4383              	.LBB421:
 4384              	.LBB278:
 4385              		.loc 1 275 33 view .LVU1794
 4386 0244 7D08F378 		or 8,8,30
 4387              	.LBE278:
 4388              	.LBE421:
 4389              	.LBB422:
 4390              	.LBB373:
 4391              		.loc 1 271 29 view .LVU1795
 4392 0248 1CA5001F 		mulli 5,5,31
 4393              	.LBE373:
 4394              	.LBE422:
 4395              		.loc 1 301 12 discriminator 1 view .LVU1796
 4396 024c B10A0002 		sth 8,2(10)
 4397              	.LBB423:
 4398              	.LBB374:
 4399              		.loc 1 273 29 view .LVU1797
 4400 0250 7CE903A6 		mtctr 7
 4401              	.LBE374:
 4402              	.LBE423:
 4403              	.LBB424:
 4404              	.LBB279:
 4405              		.loc 1 273 35 view .LVU1798
 4406 0254 7CF14816 		mulhwu 7,17,9
 4407              		.loc 1 275 33 view .LVU1799
 4408 0258 556B2834 		slwi 11,11,5
 4409              	.LBE279:
 4410              	.LBE424:
 4411              	.LBB425:
 4412              	.LBB320:
 4413              		.loc 1 272 21 view .LVU1800
 4414 025c 54D1863E 		rlwinm 17,6,16,24,31
 4415              		.loc 1 273 21 view .LVU1801
 4416 0260 5463C63E 		rlwinm 3,3,24,24,31
 4417              	.LBE320:
 4418              	.LBE425:
 4419              	.LBB426:
 4420              	.LBB375:
 4421              		.loc 1 272 29 view .LVU1802
 4422 0264 1FD5003F 		mulli 30,21,63
 4423              	.LBE375:
 4424              	.LBE426:
 4425              	.LBB427:
 4426              	.LBB280:
 4427              		.loc 1 273 35 view .LVU1803
 4428 0268 54E7C9FE 		srwi 7,7,7
 4429              	.LBE280:
 4430              	.LBE427:
 4431              	.LBB428:
 4432              	.LBB376:
 4433              		.loc 1 271 35 view .LVU1804
 4434 026c 7CA54816 		mulhwu 5,5,9
 4435              	.LBE376:
 4436              	.LBE428:
 4437              	.LBB429:
 4438              	.LBB281:
 4439              		.loc 1 275 33 view .LVU1805
 4440 0270 7D6B3B78 		or 11,11,7
 4441              	.LBE281:
 4442              	.LBE429:
 4443              		.loc 1 301 12 discriminator 1 view .LVU1806
 4444 0274 B16A000A 		sth 11,10(10)
 4445              	.LBB430:
 4446              	.LBB377:
 4447              		.loc 1 272 21 view .LVU1807
 4448 0278 558B863E 		rlwinm 11,12,16,24,31
 4449              	.LBE377:
 4450              	.LBE430:
 4451              	.LBB431:
 4452              	.LBB321:
 4453              		.loc 1 275 33 view .LVU1808
 4454 027c 54842834 		slwi 4,4,5
 4455              	.LBE321:
 4456              	.LBE431:
 4457              		.loc 1 303 9 discriminator 1 view .LVU1809
 4458 0280 394A0020 		addi 10,10,32
 4459              	.LVL240:
 4460              	.LBB432:
 4461              	.LBB378:
 4462              		.loc 1 272 35 view .LVU1810
 4463 0284 7D1E4816 		mulhwu 8,30,9
 4464              	.LBE378:
 4465              	.LBE432:
 4466              	.LBB433:
 4467              	.LBB322:
 4468              		.loc 1 271 14 view .LVU1811
 4469 0288 54DE463E 		srwi 30,6,24
 4470              	.LBE322:
 4471              	.LBE433:
 4472              	.LBB434:
 4473              	.LBB379:
 4474              		.loc 1 275 14 view .LVU1812
 4475 028c 54A5F872 		rlwinm 5,5,31,1,25
 4476              	.LBE379:
 4477              	.LBE434:
 4478              	.LBB435:
 4479              	.LBB323:
 4480              		.loc 1 273 21 view .LVU1813
 4481 0290 54C6C63E 		rlwinm 6,6,24,24,31
 4482              		.loc 1 271 29 view .LVU1814
 4483 0294 1FDE001F 		mulli 30,30,31
 4484              	.LBE323:
 4485              	.LBE435:
 4486              	.LBB436:
 4487              	.LBB380:
 4488              		.loc 1 272 35 view .LVU1815
 4489 0298 5508C9FE 		srwi 8,8,7
 4490              	.LBE380:
 4491              	.LBE436:
 4492              	.LBB437:
 4493              	.LBB324:
 4494              		.loc 1 272 29 view .LVU1816
 4495 029c 1E31003F 		mulli 17,17,63
 4496              	.LBE324:
 4497              	.LBE437:
 4498              	.LBB438:
 4499              	.LBB381:
 4500              		.loc 1 275 20 view .LVU1817
 4501 02a0 7CA54378 		or 5,5,8
 4502              		.loc 1 272 29 view .LVU1818
 4503 02a4 1D6B003F 		mulli 11,11,63
 4504              		.loc 1 275 33 view .LVU1819
 4505 02a8 54A52834 		slwi 5,5,5
 4506              	.LBE381:
 4507              	.LBE438:
 4508              	.LBB439:
 4509              	.LBB325:
 4510              		.loc 1 271 35 view .LVU1820
 4511 02ac 7D1E4816 		mulhwu 8,30,9
 4512              	.LBE325:
 4513              	.LBE439:
 4514              	.LBB440:
 4515              	.LBB382:
 4516              		.loc 1 271 14 view .LVU1821
 4517 02b0 559E463E 		srwi 30,12,24
 4518              		.loc 1 273 21 view .LVU1822
 4519 02b4 558CC63E 		rlwinm 12,12,24,24,31
 4520              	.LBE382:
 4521              	.LBE440:
 4522              	.LBB441:
 4523              	.LBB326:
 4524              		.loc 1 272 35 view .LVU1823
 4525 02b8 7E314816 		mulhwu 17,17,9
 4526              		.loc 1 275 14 view .LVU1824
 4527 02bc 5508F872 		rlwinm 8,8,31,1,25
 4528              	.LBE326:
 4529              	.LBE441:
 4530              	.LBB442:
 4531              	.LBB383:
 4532              		.loc 1 272 35 view .LVU1825
 4533 02c0 7D6B4816 		mulhwu 11,11,9
 4534              	.LBE383:
 4535              	.LBE442:
 4536              	.LBB443:
 4537              	.LBB327:
 4538 02c4 5631C9FE 		srwi 17,17,7
 4539              		.loc 1 275 20 view .LVU1826
 4540 02c8 7D088B78 		or 8,8,17
 4541              	.LBE327:
 4542              	.LBE443:
 4543              	.LBB444:
 4544              	.LBB282:
 4545              		.loc 1 271 14 view .LVU1827
 4546 02cc 5411463E 		srwi 17,0,24
 4547              	.LBE282:
 4548              	.LBE444:
 4549              	.LBB445:
 4550              	.LBB328:
 4551              		.loc 1 275 33 view .LVU1828
 4552 02d0 55082834 		slwi 8,8,5
 4553              	.LBE328:
 4554              	.LBE445:
 4555              	.LBB446:
 4556              	.LBB384:
 4557              		.loc 1 271 29 view .LVU1829
 4558 02d4 1FDE001F 		mulli 30,30,31
 4559              		.loc 1 272 35 view .LVU1830
 4560 02d8 5567C9FE 		srwi 7,11,7
 4561              	.LBE384:
 4562              	.LBE446:
 4563              	.LBB447:
 4564              	.LBB283:
 4565              		.loc 1 272 21 view .LVU1831
 4566 02dc 540B863E 		rlwinm 11,0,16,24,31
 4567              		.loc 1 271 29 view .LVU1832
 4568 02e0 1E31001F 		mulli 17,17,31
 4569              	.LBE283:
 4570              	.LBE447:
 4571              	.LBB448:
 4572              	.LBB385:
 4573              		.loc 1 271 35 view .LVU1833
 4574 02e4 7FDE4816 		mulhwu 30,30,9
 4575              	.LBE385:
 4576              	.LBE448:
 4577              	.LBB449:
 4578              	.LBB284:
 4579              		.loc 1 273 21 view .LVU1834
 4580 02e8 5400C63E 		rlwinm 0,0,24,24,31
 4581              		.loc 1 272 29 view .LVU1835
 4582 02ec 1D6B003F 		mulli 11,11,63
 4583              	.LBE284:
 4584              	.LBE449:
 4585              	.LBB450:
 4586              	.LBB386:
 4587              		.loc 1 275 14 view .LVU1836
 4588 02f0 57DEF872 		rlwinm 30,30,31,1,25
 4589              		.loc 1 275 20 view .LVU1837
 4590 02f4 7FDE3B78 		or 30,30,7
 4591              	.LBE386:
 4592              	.LBE450:
 4593              	.LBB451:
 4594              	.LBB285:
 4595              		.loc 1 271 35 view .LVU1838
 4596 02f8 7E314816 		mulhwu 17,17,9
 4597              	.LBE285:
 4598              	.LBE451:
 4599              	.LBB452:
 4600              	.LBB387:
 4601              		.loc 1 275 33 view .LVU1839
 4602 02fc 57DE2834 		slwi 30,30,5
 4603              	.LBE387:
 4604              	.LBE452:
 4605              	.LBB453:
 4606              	.LBB286:
 4607              		.loc 1 272 35 view .LVU1840
 4608 0300 7CEB4816 		mulhwu 7,11,9
 4609              		.loc 1 275 14 view .LVU1841
 4610 0304 5631F872 		rlwinm 17,17,31,1,25
 4611              		.loc 1 271 14 view .LVU1842
 4612 0308 56EB463E 		srwi 11,23,24
 4613              	.LBE286:
 4614              	.LBE453:
 4615              	.LBB454:
 4616              	.LBB329:
 4617              		.loc 1 273 29 view .LVU1843
 4618 030c 1C63001F 		mulli 3,3,31
 4619              	.LBE329:
 4620              	.LBE454:
 4621              	.LBB455:
 4622              	.LBB287:
 4623              		.loc 1 272 35 view .LVU1844
 4624 0310 54E7C9FE 		srwi 7,7,7
 4625              		.loc 1 275 20 view .LVU1845
 4626 0314 7E313B78 		or 17,17,7
 4627              		.loc 1 272 21 view .LVU1846
 4628 0318 56E7863E 		rlwinm 7,23,16,24,31
 4629              	.LBE287:
 4630              	.LBE455:
 4631              	.LBB456:
 4632              	.LBB330:
 4633              		.loc 1 273 35 view .LVU1847
 4634 031c 7C634816 		mulhwu 3,3,9
 4635              	.LBE330:
 4636              	.LBE456:
 4637              	.LBB457:
 4638              	.LBB288:
 4639              		.loc 1 273 21 view .LVU1848
 4640 0320 56F7C63E 		rlwinm 23,23,24,24,31
 4641              		.loc 1 275 33 view .LVU1849
 4642 0324 56312834 		slwi 17,17,5
 4643              		.loc 1 271 29 view .LVU1850
 4644 0328 1D6B001F 		mulli 11,11,31
 4645              	.LBE288:
 4646              	.LBE457:
 4647              	.LBB458:
 4648              	.LBB331:
 4649              		.loc 1 273 35 view .LVU1851
 4650 032c 5463C9FE 		srwi 3,3,7
 4651              	.LBE331:
 4652              	.LBE458:
 4653              	.LBB459:
 4654              	.LBB289:
 4655              		.loc 1 272 29 view .LVU1852
 4656 0330 1CE7003F 		mulli 7,7,63
 4657              	.LBE289:
 4658              	.LBE459:
 4659              	.LBB460:
 4660              	.LBB332:
 4661              		.loc 1 275 33 view .LVU1853
 4662 0334 7C841B78 		or 4,4,3
 4663              	.LBE332:
 4664              	.LBE460:
 4665              	.LBB461:
 4666              	.LBB290:
 4667              		.loc 1 271 35 view .LVU1854
 4668 0338 7D6B4816 		mulhwu 11,11,9
 4669              	.LBE290:
 4670              	.LBE461:
 4671              		.loc 1 302 12 discriminator 1 view .LVU1855
 4672 033c B08AFFE4 		sth 4,-28(10)
 4673              	.LBB462:
 4674              	.LBB388:
 4675              		.loc 1 273 35 view .LVU1856
 4676 0340 7C8902A6 		mfctr 4
 4677              	.LBE388:
 4678              	.LBE462:
 4679              	.LBB463:
 4680              	.LBB333:
 4681              		.loc 1 271 14 view .LVU1857
 4682 0344 5703463E 		srwi 3,24,24
 4683              	.LBE333:
 4684              	.LBE463:
 4685              	.LBB464:
 4686              	.LBB291:
 4687              		.loc 1 272 35 view .LVU1858
 4688 0348 7CE74816 		mulhwu 7,7,9
 4689              		.loc 1 275 14 view .LVU1859
 4690 034c 556BF872 		rlwinm 11,11,31,1,25
 4691              	.LBE291:
 4692              	.LBE464:
 4693              	.LBB465:
 4694              	.LBB389:
 4695              		.loc 1 273 35 view .LVU1860
 4696 0350 7C844816 		mulhwu 4,4,9
 4697              	.LBE389:
 4698              	.LBE465:
 4699              	.LBB466:
 4700              	.LBB292:
 4701              		.loc 1 272 35 view .LVU1861
 4702 0354 54E7C9FE 		srwi 7,7,7
 4703              		.loc 1 275 20 view .LVU1862
 4704 0358 7D6B3B78 		or 11,11,7
 4705              	.LBE292:
 4706              	.LBE466:
 4707              	.LBB467:
 4708              	.LBB334:
 4709              		.loc 1 272 21 view .LVU1863
 4710 035c 5707863E 		rlwinm 7,24,16,24,31
 4711              		.loc 1 273 21 view .LVU1864
 4712 0360 5718C63E 		rlwinm 24,24,24,24,31
 4713              		.loc 1 272 29 view .LVU1865
 4714 0364 1CE7003F 		mulli 7,7,63
 4715              	.LBE334:
 4716              	.LBE467:
 4717              	.LBB468:
 4718              	.LBB390:
 4719              		.loc 1 273 35 view .LVU1866
 4720 0368 5484C9FE 		srwi 4,4,7
 4721              		.loc 1 275 33 view .LVU1867
 4722 036c 7CA52378 		or 5,5,4
 4723              	.LBE390:
 4724              	.LBE468:
 4725              	.LBB469:
 4726              	.LBB335:
 4727              		.loc 1 271 29 view .LVU1868
 4728 0370 1C63001F 		mulli 3,3,31
 4729              	.LBE335:
 4730              	.LBE469:
 4731              		.loc 1 303 12 discriminator 1 view .LVU1869
 4732 0374 B0AAFFE6 		sth 5,-26(10)
 4733              	.LBB470:
 4734              	.LBB336:
 4735              		.loc 1 272 35 view .LVU1870
 4736 0378 7CA74816 		mulhwu 5,7,9
 4737              	.LBE336:
 4738              	.LBE470:
 4739              	.LBB471:
 4740              	.LBB391:
 4741              		.loc 1 272 21 view .LVU1871
 4742 037c 5727863E 		rlwinm 7,25,16,24,31
 4743              		.loc 1 271 14 view .LVU1872
 4744 0380 5724463E 		srwi 4,25,24
 4745              		.loc 1 273 21 view .LVU1873
 4746 0384 5739C63E 		rlwinm 25,25,24,24,31
 4747              		.loc 1 272 29 view .LVU1874
 4748 0388 1CE7003F 		mulli 7,7,63
 4749              	.LBE391:
 4750              	.LBE471:
 4751              	.LBB472:
 4752              	.LBB337:
 4753              		.loc 1 272 35 view .LVU1875
 4754 038c 54A5C9FE 		srwi 5,5,7
 4755              		.loc 1 271 35 view .LVU1876
 4756 0390 7C634816 		mulhwu 3,3,9
 4757              	.LBE337:
 4758              	.LBE472:
 4759              	.LBB473:
 4760              	.LBB293:
 4761              		.loc 1 275 33 view .LVU1877
 4762 0394 556B2834 		slwi 11,11,5
 4763              	.LBE293:
 4764              	.LBE473:
 4765              	.LBB474:
 4766              	.LBB392:
 4767              		.loc 1 272 35 view .LVU1878
 4768 0398 7CE74816 		mulhwu 7,7,9
 4769              	.LBE392:
 4770              	.LBE474:
 4771              	.LBB475:
 4772              	.LBB338:
 4773              		.loc 1 275 14 view .LVU1879
 4774 039c 5463F872 		rlwinm 3,3,31,1,25
 4775              		.loc 1 275 20 view .LVU1880
 4776 03a0 7C632B78 		or 3,3,5
 4777              		.loc 1 271 14 view .LVU1881
 4778 03a4 5745463E 		srwi 5,26,24
 4779              		.loc 1 275 33 view .LVU1882
 4780 03a8 54632834 		slwi 3,3,5
 4781              	.LBE338:
 4782              	.LBE475:
 4783              	.LBB476:
 4784              	.LBB393:
 4785              		.loc 1 272 35 view .LVU1883
 4786 03ac 54E7C9FE 		srwi 7,7,7
 4787              	.LBE393:
 4788              	.LBE476:
 4789              	.LBB477:
 4790              	.LBB339:
 4791              		.loc 1 273 29 view .LVU1884
 4792 03b0 1CC6001F 		mulli 6,6,31
 4793              	.LBE339:
 4794              	.LBE477:
 4795              	.LBB478:
 4796              	.LBB394:
 4797              		.loc 1 272 35 view .LVU1885
 4798 03b4 7CE803A6 		mtlr 7
 4799              	.LBE394:
 4800              	.LBE478:
 4801              	.LBB479:
 4802              	.LBB340:
 4803              		.loc 1 272 21 view .LVU1886
 4804 03b8 5747863E 		rlwinm 7,26,16,24,31
 4805              		.loc 1 272 29 view .LVU1887
 4806 03bc 1CE7003F 		mulli 7,7,63
 4807              	.LBE340:
 4808              	.LBE479:
 4809              	.LBB480:
 4810              	.LBB395:
 4811              		.loc 1 275 20 view .LVU1888
 4812 03c0 7EA802A6 		mflr 21
 4813              	.LBE395:
 4814              	.LBE480:
 4815              	.LBB481:
 4816              	.LBB341:
 4817              		.loc 1 273 35 view .LVU1889
 4818 03c4 7CC64816 		mulhwu 6,6,9
 4819              		.loc 1 273 21 view .LVU1890
 4820 03c8 575AC63E 		rlwinm 26,26,24,24,31
 4821              		.loc 1 272 35 view .LVU1891
 4822 03cc 7CE74816 		mulhwu 7,7,9
 4823              		.loc 1 273 35 view .LVU1892
 4824 03d0 54C6C9FE 		srwi 6,6,7
 4825              		.loc 1 275 33 view .LVU1893
 4826 03d4 7D083378 		or 8,8,6
 4827              	.LBE341:
 4828              	.LBE481:
 4829              		.loc 1 302 12 discriminator 1 view .LVU1894
 4830 03d8 B10AFFEC 		sth 8,-20(10)
 4831              	.LBB482:
 4832              	.LBB230:
 4833              		.loc 1 271 14 view .LVU1895
 4834 03dc 55C8463E 		srwi 8,14,24
 4835              	.LBE230:
 4836              	.LBE482:
 4837              	.LBB483:
 4838              	.LBB342:
 4839              		.loc 1 272 35 view .LVU1896
 4840 03e0 7CE903A6 		mtctr 7
 4841              	.LBE342:
 4842              	.LBE483:
 4843              	.LBB484:
 4844              	.LBB231:
 4845              		.loc 1 271 14 view .LVU1897
 4846 03e4 5767463E 		srwi 7,27,24
 4847              		.loc 1 271 29 view .LVU1898
 4848 03e8 1CE7001F 		mulli 7,7,31
 4849              	.LBE231:
 4850              	.LBE484:
 4851              	.LBB485:
 4852              	.LBB396:
 4853 03ec 1C84001F 		mulli 4,4,31
 4854              	.LBE396:
 4855              	.LBE485:
 4856              	.LBB486:
 4857              	.LBB232:
 4858              		.loc 1 271 35 view .LVU1899
 4859 03f0 7CE74816 		mulhwu 7,7,9
 4860 03f4 7CE803A6 		mtlr 7
 4861              		.loc 1 272 21 view .LVU1900
 4862 03f8 5767863E 		rlwinm 7,27,16,24,31
 4863              		.loc 1 272 29 view .LVU1901
 4864 03fc 1CE7003F 		mulli 7,7,63
 4865              		.loc 1 275 14 view .LVU1902
 4866 0400 7CC802A6 		mflr 6
 4867              	.LBE232:
 4868              	.LBE486:
 4869              	.LBB487:
 4870              	.LBB397:
 4871              		.loc 1 271 35 view .LVU1903
 4872 0404 7C844816 		mulhwu 4,4,9
 4873              	.LBE397:
 4874              	.LBE487:
 4875              	.LBB488:
 4876              	.LBB233:
 4877              		.loc 1 275 14 view .LVU1904
 4878 0408 54C6F872 		rlwinm 6,6,31,1,25
 4879              		.loc 1 273 21 view .LVU1905
 4880 040c 577BC63E 		rlwinm 27,27,24,24,31
 4881              	.LVL241:
 4882              		.loc 1 272 35 view .LVU1906
 4883 0410 7CE74816 		mulhwu 7,7,9
 4884              	.LBE233:
 4885              	.LBE488:
 4886              	.LBB489:
 4887              	.LBB398:
 4888              		.loc 1 275 14 view .LVU1907
 4889 0414 5484F872 		rlwinm 4,4,31,1,25
 4890              		.loc 1 275 20 view .LVU1908
 4891 0418 7C84AB78 		or 4,4,21
 4892              	.LBE398:
 4893              	.LBE489:
 4894              	.LBB490:
 4895              	.LBB343:
 4896              		.loc 1 272 35 view .LVU1909
 4897 041c 7EA902A6 		mfctr 21
 4898 0420 56B5C9FE 		srwi 21,21,7
 4899              		.loc 1 271 29 view .LVU1910
 4900 0424 1CA5001F 		mulli 5,5,31
 4901              	.LBE343:
 4902              	.LBE490:
 4903              	.LBB491:
 4904              	.LBB234:
 4905              		.loc 1 272 35 view .LVU1911
 4906 0428 54E7C9FE 		srwi 7,7,7
 4907              	.LBE234:
 4908              	.LBE491:
 4909              	.LBB492:
 4910              	.LBB399:
 4911              		.loc 1 273 29 view .LVU1912
 4912 042c 1D8C001F 		mulli 12,12,31
 4913              	.LBE399:
 4914              	.LBE492:
 4915              	.LBB493:
 4916              	.LBB235:
 4917              		.loc 1 275 20 view .LVU1913
 4918 0430 7CC63B78 		or 6,6,7
 4919              	.LBE235:
 4920              	.LBE493:
 4921              	.LBB494:
 4922              	.LBB344:
 4923              		.loc 1 271 35 view .LVU1914
 4924 0434 7CA54816 		mulhwu 5,5,9
 4925              	.LBE344:
 4926              	.LBE494:
 4927              	.LBB495:
 4928              	.LBB236:
 4929              		.loc 1 272 21 view .LVU1915
 4930 0438 55C7863E 		rlwinm 7,14,16,24,31
 4931              		.loc 1 273 21 view .LVU1916
 4932 043c 55CEC63E 		rlwinm 14,14,24,24,31
 4933              	.LBE236:
 4934              	.LBE495:
 4935              	.LBB496:
 4936              	.LBB400:
 4937              		.loc 1 275 33 view .LVU1917
 4938 0440 54842834 		slwi 4,4,5
 4939              	.LBE400:
 4940              	.LBE496:
 4941              	.LBB497:
 4942              	.LBB237:
 4943 0444 54C62834 		slwi 6,6,5
 4944              	.LBE237:
 4945              	.LBE497:
 4946              	.LBB498:
 4947              	.LBB401:
 4948              		.loc 1 273 35 view .LVU1918
 4949 0448 7D8C4816 		mulhwu 12,12,9
 4950              	.LBE401:
 4951              	.LBE498:
 4952              	.LBB499:
 4953              	.LBB345:
 4954              		.loc 1 275 14 view .LVU1919
 4955 044c 54A5F872 		rlwinm 5,5,31,1,25
 4956              		.loc 1 275 20 view .LVU1920
 4957 0450 7CA5AB78 		or 5,5,21
 4958              		.loc 1 275 33 view .LVU1921
 4959 0454 54A52834 		slwi 5,5,5
 4960              	.LBE345:
 4961              	.LBE499:
 4962              	.LBB500:
 4963              	.LBB238:
 4964              		.loc 1 271 29 view .LVU1922
 4965 0458 1D08001F 		mulli 8,8,31
 4966              	.LBE238:
 4967              	.LBE500:
 4968              	.LBB501:
 4969              	.LBB402:
 4970              		.loc 1 273 35 view .LVU1923
 4971 045c 5595C9FE 		srwi 21,12,7
 4972              	.LBE402:
 4973              	.LBE501:
 4974              	.LBB502:
 4975              	.LBB239:
 4976              		.loc 1 272 29 view .LVU1924
 4977 0460 1CE7003F 		mulli 7,7,63
 4978              	.LBE239:
 4979              	.LBE502:
 4980              	.LBB503:
 4981              	.LBB403:
 4982              		.loc 1 275 33 view .LVU1925
 4983 0464 7FDEAB78 		or 30,30,21
 4984              	.LBE403:
 4985              	.LBE503:
 4986              	.LBB504:
 4987              	.LBB240:
 4988              		.loc 1 271 35 view .LVU1926
 4989 0468 7D884816 		mulhwu 12,8,9
 4990              		.loc 1 271 14 view .LVU1927
 4991 046c 55E8463E 		srwi 8,15,24
 4992              	.LBE240:
 4993              	.LBE504:
 4994              		.loc 1 303 12 discriminator 1 view .LVU1928
 4995 0470 B3CAFFEE 		sth 30,-18(10)
 4996              	.LBB505:
 4997              	.LBB241:
 4998              		.loc 1 272 35 view .LVU1929
 4999 0474 7CE74816 		mulhwu 7,7,9
 5000              		.loc 1 275 14 view .LVU1930
 5001 0478 559EF872 		rlwinm 30,12,31,1,25
 5002              		.loc 1 272 21 view .LVU1931
 5003 047c 55EC863E 		rlwinm 12,15,16,24,31
 5004              		.loc 1 273 21 view .LVU1932
 5005 0480 55EFC63E 		rlwinm 15,15,24,24,31
 5006              		.loc 1 271 29 view .LVU1933
 5007 0484 1D08001F 		mulli 8,8,31
 5008              		.loc 1 272 35 view .LVU1934
 5009 0488 54E7C9FE 		srwi 7,7,7
 5010              		.loc 1 275 20 view .LVU1935
 5011 048c 7FDE3B78 		or 30,30,7
 5012              	.LBE241:
 5013              	.LBE505:
 5014              	.LBB506:
 5015              	.LBB294:
 5016              		.loc 1 273 29 view .LVU1936
 5017 0490 1C00001F 		mulli 0,0,31
 5018              	.LBE294:
 5019              	.LBE506:
 5020              	.LBB507:
 5021              	.LBB242:
 5022              		.loc 1 271 35 view .LVU1937
 5023 0494 7CE84816 		mulhwu 7,8,9
 5024              		.loc 1 271 14 view .LVU1938
 5025 0498 5788463E 		srwi 8,28,24
 5026              		.loc 1 275 33 view .LVU1939
 5027 049c 57DE2834 		slwi 30,30,5
 5028              		.loc 1 271 29 view .LVU1940
 5029 04a0 1D08001F 		mulli 8,8,31
 5030              		.loc 1 275 14 view .LVU1941
 5031 04a4 54E7F872 		rlwinm 7,7,31,1,25
 5032              	.LBE242:
 5033              	.LBE507:
 5034              	.LBB508:
 5035              	.LBB295:
 5036              		.loc 1 273 35 view .LVU1942
 5037 04a8 7C004816 		mulhwu 0,0,9
 5038              	.LBE295:
 5039              	.LBE508:
 5040              	.LBB509:
 5041              	.LBB243:
 5042              		.loc 1 275 14 view .LVU1943
 5043 04ac 7CE903A6 		mtctr 7
 5044              		.loc 1 272 21 view .LVU1944
 5045 04b0 5787863E 		rlwinm 7,28,16,24,31
 5046              		.loc 1 275 20 view .LVU1945
 5047 04b4 7EA902A6 		mfctr 21
 5048              		.loc 1 273 21 view .LVU1946
 5049 04b8 579CC63E 		rlwinm 28,28,24,24,31
 5050              		.loc 1 271 35 view .LVU1947
 5051 04bc 7D084816 		mulhwu 8,8,9
 5052              	.LBE243:
 5053              	.LBE509:
 5054              	.LBB510:
 5055              	.LBB296:
 5056              		.loc 1 273 35 view .LVU1948
 5057 04c0 5400C9FE 		srwi 0,0,7
 5058              		.loc 1 275 33 view .LVU1949
 5059 04c4 7E200378 		or 0,17,0
 5060              	.LBE296:
 5061              	.LBE510:
 5062              	.LBB511:
 5063              	.LBB404:
 5064              		.loc 1 272 21 view .LVU1950
 5065 04c8 57B1863E 		rlwinm 17,29,16,24,31
 5066              	.LBE404:
 5067              	.LBE511:
 5068              		.loc 1 301 12 discriminator 1 view .LVU1951
 5069 04cc B00AFFF2 		sth 0,-14(10)
 5070              	.LBB512:
 5071              	.LBB297:
 5072              		.loc 1 273 29 view .LVU1952
 5073 04d0 1EF7001F 		mulli 23,23,31
 5074              	.LBE297:
 5075              	.LBE512:
 5076              	.LBB513:
 5077              	.LBB244:
 5078              		.loc 1 275 14 view .LVU1953
 5079 04d4 5508F872 		rlwinm 8,8,31,1,25
 5080              	.LBE244:
 5081              	.LBE513:
 5082              	.LBB514:
 5083              	.LBB346:
 5084              		.loc 1 273 29 view .LVU1954
 5085 04d8 1F18001F 		mulli 24,24,31
 5086              	.LBE346:
 5087              	.LBE514:
 5088              	.LBB515:
 5089              	.LBB245:
 5090              		.loc 1 275 14 view .LVU1955
 5091 04dc 7D0903A6 		mtctr 8
 5092              	.LBE245:
 5093              	.LBE515:
 5094              	.LBB516:
 5095              	.LBB298:
 5096              		.loc 1 273 35 view .LVU1956
 5097 04e0 7EF74816 		mulhwu 23,23,9
 5098              	.LBE298:
 5099              	.LBE516:
 5100              	.LBB517:
 5101              	.LBB405:
 5102              		.loc 1 271 14 view .LVU1957
 5103 04e4 57A8463E 		srwi 8,29,24
 5104              		.loc 1 273 21 view .LVU1958
 5105 04e8 57BDC63E 		rlwinm 29,29,24,24,31
 5106              	.LBE405:
 5107              	.LBE517:
 5108              	.LBB518:
 5109              	.LBB246:
 5110              		.loc 1 272 29 view .LVU1959
 5111 04ec 1D8C003F 		mulli 12,12,63
 5112              	.LBE246:
 5113              	.LBE518:
 5114              	.LBB519:
 5115              	.LBB299:
 5116              		.loc 1 273 35 view .LVU1960
 5117 04f0 56F7C9FE 		srwi 23,23,7
 5118              	.LBE299:
 5119              	.LBE519:
 5120              	.LBB520:
 5121              	.LBB347:
 5122 04f4 7F184816 		mulhwu 24,24,9
 5123              	.LBE347:
 5124              	.LBE520:
 5125              	.LBB521:
 5126              	.LBB300:
 5127              		.loc 1 275 33 view .LVU1961
 5128 04f8 7D6BBB78 		or 11,11,23
 5129              	.LBE300:
 5130              	.LBE521:
 5131              		.loc 1 301 12 discriminator 1 view .LVU1962
 5132 04fc B16AFFFA 		sth 11,-6(10)
 5133              	.LBE559:
 5134              		.loc 1 298 25 discriminator 1 view .LVU1963
 5135 0500 81610008 		lwz 11,8(1)
 5136              	.LBB560:
 5137              	.LBB522:
 5138              	.LBB247:
 5139              		.loc 1 272 29 view .LVU1964
 5140 0504 1CE7003F 		mulli 7,7,63
 5141              	.LBE247:
 5142              	.LBE522:
 5143              	.LBB523:
 5144              	.LBB348:
 5145              		.loc 1 273 35 view .LVU1965
 5146 0508 5718C9FE 		srwi 24,24,7
 5147              	.LBE348:
 5148              	.LBE523:
 5149              	.LBB524:
 5150              	.LBB248:
 5151              		.loc 1 272 35 view .LVU1966
 5152 050c 7D8C4816 		mulhwu 12,12,9
 5153              	.LBE248:
 5154              	.LBE524:
 5155              	.LBB525:
 5156              	.LBB349:
 5157              		.loc 1 275 33 view .LVU1967
 5158 0510 7C63C378 		or 3,3,24
 5159              	.LBE349:
 5160              	.LBE525:
 5161              		.loc 1 302 12 discriminator 1 view .LVU1968
 5162 0514 B06AFFF4 		sth 3,-12(10)
 5163              	.LBE560:
 5164              		.loc 1 298 25 discriminator 1 view .LVU1969
 5165 0518 56C3043E 		rlwinm 3,22,0,0xffff
 5166 051c 7C035840 		cmplw 0,3,11
 5167              	.LBB561:
 5168              	.LBB526:
 5169              	.LBB406:
 5170              		.loc 1 271 29 view .LVU1970
 5171 0520 1D08001F 		mulli 8,8,31
 5172              	.LBE406:
 5173              	.LBE526:
 5174              	.LBB527:
 5175              	.LBB249:
 5176              		.loc 1 272 35 view .LVU1971
 5177 0524 558CC9FE 		srwi 12,12,7
 5178              	.LBE249:
 5179              	.LBE527:
 5180              	.LBB528:
 5181              	.LBB407:
 5182              		.loc 1 272 29 view .LVU1972
 5183 0528 1E31003F 		mulli 17,17,63
 5184              	.LBE407:
 5185              	.LBE528:
 5186              	.LBB529:
 5187              	.LBB250:
 5188              		.loc 1 275 20 view .LVU1973
 5189 052c 7EAC6378 		or 12,21,12
 5190              		.loc 1 272 35 view .LVU1974
 5191 0530 7CE74816 		mulhwu 7,7,9
 5192              		.loc 1 275 20 view .LVU1975
 5193 0534 7EA902A6 		mfctr 21
 5194              		.loc 1 275 33 view .LVU1976
 5195 0538 558C2834 		slwi 12,12,5
 5196              	.LBE250:
 5197              	.LBE529:
 5198              	.LBB530:
 5199              	.LBB408:
 5200              		.loc 1 273 29 view .LVU1977
 5201 053c 1F39001F 		mulli 25,25,31
 5202              	.LBE408:
 5203              	.LBE530:
 5204              	.LBB531:
 5205              	.LBB251:
 5206              		.loc 1 272 35 view .LVU1978
 5207 0540 54E7C9FE 		srwi 7,7,7
 5208              	.LBE251:
 5209              	.LBE531:
 5210              	.LBB532:
 5211              	.LBB350:
 5212              		.loc 1 273 29 view .LVU1979
 5213 0544 1F5A001F 		mulli 26,26,31
 5214              	.LBE350:
 5215              	.LBE532:
 5216              	.LBB533:
 5217              	.LBB252:
 5218              		.loc 1 275 20 view .LVU1980
 5219 0548 7EA73B78 		or 7,21,7
 5220              		.loc 1 273 29 view .LVU1981
 5221 054c 1F7B001F 		mulli 27,27,31
 5222              		.loc 1 275 33 view .LVU1982
 5223 0550 54E72834 		slwi 7,7,5
 5224              		.loc 1 273 29 view .LVU1983
 5225 0554 1DCE001F 		mulli 14,14,31
 5226 0558 1DEF001F 		mulli 15,15,31
 5227 055c 1F9C001F 		mulli 28,28,31
 5228              	.LBE252:
 5229              	.LBE533:
 5230              	.LBB534:
 5231              	.LBB409:
 5232              		.loc 1 271 35 view .LVU1984
 5233 0560 7D084816 		mulhwu 8,8,9
 5234              		.loc 1 272 35 view .LVU1985
 5235 0564 7E314816 		mulhwu 17,17,9
 5236              		.loc 1 275 14 view .LVU1986
 5237 0568 5508F872 		rlwinm 8,8,31,1,25
 5238              		.loc 1 273 29 view .LVU1987
 5239 056c 1FBD001F 		mulli 29,29,31
 5240              		.loc 1 272 35 view .LVU1988
 5241 0570 5631C9FE 		srwi 17,17,7
 5242              		.loc 1 273 35 view .LVU1989
 5243 0574 7F394816 		mulhwu 25,25,9
 5244              		.loc 1 275 20 view .LVU1990
 5245 0578 7D088B78 		or 8,8,17
 5246              		.loc 1 275 33 view .LVU1991
 5247 057c 55082834 		slwi 8,8,5
 5248              	.LBE409:
 5249              	.LBE534:
 5250              	.LBB535:
 5251              	.LBB351:
 5252              		.loc 1 273 35 view .LVU1992
 5253 0580 7F5A4816 		mulhwu 26,26,9
 5254              	.LBE351:
 5255              	.LBE535:
 5256              	.LBB536:
 5257              	.LBB410:
 5258 0584 5739C9FE 		srwi 25,25,7
 5259              		.loc 1 275 33 view .LVU1993
 5260 0588 7C84CB78 		or 4,4,25
 5261              	.LBE410:
 5262              	.LBE536:
 5263              		.loc 1 303 12 discriminator 1 view .LVU1994
 5264 058c B08AFFF6 		sth 4,-10(10)
 5265              	.LBB537:
 5266              	.LBB253:
 5267              		.loc 1 273 35 view .LVU1995
 5268 0590 7F7B4816 		mulhwu 27,27,9
 5269              	.LBE253:
 5270              	.LBE537:
 5271              	.LBB538:
 5272              	.LBB352:
 5273 0594 575AC9FE 		srwi 26,26,7
 5274              		.loc 1 275 33 view .LVU1996
 5275 0598 7CA5D378 		or 5,5,26
 5276              	.LBE352:
 5277              	.LBE538:
 5278              		.loc 1 302 12 discriminator 1 view .LVU1997
 5279 059c B0AAFFFC 		sth 5,-4(10)
 5280              	.LBB539:
 5281              	.LBB254:
 5282              		.loc 1 273 35 view .LVU1998
 5283 05a0 7DCE4816 		mulhwu 14,14,9
 5284 05a4 577BC9FE 		srwi 27,27,7
 5285              		.loc 1 275 33 view .LVU1999
 5286 05a8 7CC6DB78 		or 6,6,27
 5287              	.LBE254:
 5288              	.LBE539:
 5289              		.loc 1 300 12 discriminator 1 view .LVU2000
 5290 05ac B0CAFFE0 		sth 6,-32(10)
 5291              		.loc 1 301 5 is_stmt 1 view .LVU2001
 5292              	.LVL242:
 5293              	.LBB540:
 5294              	.LBI259:
 5295              		.loc 1 268 10 view .LVU2002
 5296              	.LBB301:
 5297              		.loc 1 269 2 view .LVU2003
 5298              		.loc 1 271 2 view .LVU2004
 5299              		.loc 1 272 2 view .LVU2005
 5300              		.loc 1 273 2 view .LVU2006
 5301              		.loc 1 275 2 view .LVU2007
 5302              		.loc 1 275 2 is_stmt 0 view .LVU2008
 5303              	.LBE301:
 5304              	.LBE540:
 5305              		.loc 1 302 5 is_stmt 1 view .LVU2009
 5306              	.LBB541:
 5307              	.LBI313:
 5308              		.loc 1 268 10 view .LVU2010
 5309              	.LBB353:
 5310              		.loc 1 269 2 view .LVU2011
 5311              		.loc 1 271 2 view .LVU2012
 5312              		.loc 1 272 2 view .LVU2013
 5313              		.loc 1 273 2 view .LVU2014
 5314              		.loc 1 275 2 view .LVU2015
 5315              		.loc 1 275 2 is_stmt 0 view .LVU2016
 5316              	.LBE353:
 5317              	.LBE541:
 5318              		.loc 1 303 5 is_stmt 1 view .LVU2017
 5319              	.LBB542:
 5320              	.LBI369:
 5321              		.loc 1 268 10 view .LVU2018
 5322              	.LBB411:
 5323              		.loc 1 269 2 view .LVU2019
 5324              		.loc 1 271 2 view .LVU2020
 5325              		.loc 1 272 2 view .LVU2021
 5326              		.loc 1 273 2 view .LVU2022
 5327              		.loc 1 275 2 view .LVU2023
 5328              		.loc 1 275 2 is_stmt 0 view .LVU2024
 5329              	.LBE411:
 5330              	.LBE542:
 5331              		.loc 1 299 4 is_stmt 1 discriminator 3 view .LVU2025
 5332              		.loc 1 299 32 discriminator 1 view .LVU2026
 5333              		.loc 1 300 5 view .LVU2027
 5334              	.LBB543:
 5335              		.loc 1 268 10 view .LVU2028
 5336              	.LBB255:
 5337              		.loc 1 269 2 view .LVU2029
 5338              		.loc 1 271 2 view .LVU2030
 5339              		.loc 1 272 2 view .LVU2031
 5340              		.loc 1 273 2 view .LVU2032
 5341              		.loc 1 275 2 view .LVU2033
 5342              		.loc 1 273 35 is_stmt 0 view .LVU2034
 5343 05b0 7DEF4816 		mulhwu 15,15,9
 5344 05b4 55CEC9FE 		srwi 14,14,7
 5345              		.loc 1 275 33 view .LVU2035
 5346 05b8 7FDE7378 		or 30,30,14
 5347              	.LBE255:
 5348              	.LBE543:
 5349              		.loc 1 300 12 discriminator 1 view .LVU2036
 5350 05bc B3CAFFE8 		sth 30,-24(10)
 5351              		.loc 1 301 5 is_stmt 1 view .LVU2037
 5352              	.LVL243:
 5353              	.LBB544:
 5354              		.loc 1 268 10 view .LVU2038
 5355              	.LBB302:
 5356              		.loc 1 269 2 view .LVU2039
 5357              		.loc 1 271 2 view .LVU2040
 5358              		.loc 1 272 2 view .LVU2041
 5359              		.loc 1 273 2 view .LVU2042
 5360              		.loc 1 275 2 view .LVU2043
 5361              		.loc 1 275 2 is_stmt 0 view .LVU2044
 5362              	.LBE302:
 5363              	.LBE544:
 5364              		.loc 1 302 5 is_stmt 1 view .LVU2045
 5365              	.LBB545:
 5366              		.loc 1 268 10 view .LVU2046
 5367              	.LBB354:
 5368              		.loc 1 269 2 view .LVU2047
 5369              		.loc 1 271 2 view .LVU2048
 5370              		.loc 1 272 2 view .LVU2049
 5371              		.loc 1 273 2 view .LVU2050
 5372              		.loc 1 275 2 view .LVU2051
 5373              		.loc 1 275 2 is_stmt 0 view .LVU2052
 5374              	.LBE354:
 5375              	.LBE545:
 5376              		.loc 1 303 5 is_stmt 1 view .LVU2053
 5377              	.LBB546:
 5378              		.loc 1 268 10 view .LVU2054
 5379              	.LBB412:
 5380              		.loc 1 269 2 view .LVU2055
 5381              		.loc 1 271 2 view .LVU2056
 5382              		.loc 1 272 2 view .LVU2057
 5383              		.loc 1 273 2 view .LVU2058
 5384              		.loc 1 275 2 view .LVU2059
 5385              		.loc 1 275 2 is_stmt 0 view .LVU2060
 5386              	.LBE412:
 5387              	.LBE546:
 5388              		.loc 1 299 4 is_stmt 1 discriminator 3 view .LVU2061
 5389              		.loc 1 299 32 discriminator 1 view .LVU2062
 5390              		.loc 1 300 5 view .LVU2063
 5391              	.LBB547:
 5392              		.loc 1 268 10 view .LVU2064
 5393              	.LBB256:
 5394              		.loc 1 269 2 view .LVU2065
 5395              		.loc 1 271 2 view .LVU2066
 5396              		.loc 1 272 2 view .LVU2067
 5397              		.loc 1 273 2 view .LVU2068
 5398              		.loc 1 275 2 view .LVU2069
 5399              		.loc 1 273 35 is_stmt 0 view .LVU2070
 5400 05c0 7F9C4816 		mulhwu 28,28,9
 5401 05c4 55EFC9FE 		srwi 15,15,7
 5402              		.loc 1 275 33 view .LVU2071
 5403 05c8 7D8C7B78 		or 12,12,15
 5404              	.LBE256:
 5405              	.LBE547:
 5406              		.loc 1 300 12 discriminator 1 view .LVU2072
 5407 05cc B18AFFF0 		sth 12,-16(10)
 5408              		.loc 1 301 5 is_stmt 1 view .LVU2073
 5409              	.LVL244:
 5410              	.LBB548:
 5411              		.loc 1 268 10 view .LVU2074
 5412              	.LBB303:
 5413              		.loc 1 269 2 view .LVU2075
 5414              		.loc 1 271 2 view .LVU2076
 5415              		.loc 1 272 2 view .LVU2077
 5416              		.loc 1 273 2 view .LVU2078
 5417              		.loc 1 275 2 view .LVU2079
 5418              		.loc 1 275 2 is_stmt 0 view .LVU2080
 5419              	.LBE303:
 5420              	.LBE548:
 5421              		.loc 1 302 5 is_stmt 1 view .LVU2081
 5422              	.LBB549:
 5423              		.loc 1 268 10 view .LVU2082
 5424              	.LBB355:
 5425              		.loc 1 269 2 view .LVU2083
 5426              		.loc 1 271 2 view .LVU2084
 5427              		.loc 1 272 2 view .LVU2085
 5428              		.loc 1 273 2 view .LVU2086
 5429              		.loc 1 275 2 view .LVU2087
 5430              		.loc 1 275 2 is_stmt 0 view .LVU2088
 5431              	.LBE355:
 5432              	.LBE549:
 5433              		.loc 1 303 5 is_stmt 1 view .LVU2089
 5434              	.LBB550:
 5435              		.loc 1 268 10 view .LVU2090
 5436              	.LBB413:
 5437              		.loc 1 269 2 view .LVU2091
 5438              		.loc 1 271 2 view .LVU2092
 5439              		.loc 1 272 2 view .LVU2093
 5440              		.loc 1 273 2 view .LVU2094
 5441              		.loc 1 275 2 view .LVU2095
 5442              		.loc 1 275 2 is_stmt 0 view .LVU2096
 5443              	.LBE413:
 5444              	.LBE550:
 5445              		.loc 1 299 4 is_stmt 1 discriminator 3 view .LVU2097
 5446              		.loc 1 299 32 discriminator 1 view .LVU2098
 5447              		.loc 1 300 5 view .LVU2099
 5448              	.LBB551:
 5449              		.loc 1 268 10 view .LVU2100
 5450              	.LBB257:
 5451              		.loc 1 269 2 view .LVU2101
 5452              		.loc 1 271 2 view .LVU2102
 5453              		.loc 1 272 2 view .LVU2103
 5454              		.loc 1 273 2 view .LVU2104
 5455              		.loc 1 275 2 view .LVU2105
 5456              		.loc 1 275 2 is_stmt 0 view .LVU2106
 5457              	.LBE257:
 5458              	.LBE551:
 5459              	.LBB552:
 5460              	.LBB414:
 5461              		.loc 1 273 35 view .LVU2107
 5462 05d0 7FBD4816 		mulhwu 29,29,9
 5463              	.LBE414:
 5464              	.LBE552:
 5465              	.LBB553:
 5466              	.LBB258:
 5467 05d4 579CC9FE 		srwi 28,28,7
 5468              		.loc 1 275 33 view .LVU2108
 5469 05d8 7CFCE378 		or 28,7,28
 5470              	.LBE258:
 5471              	.LBE553:
 5472              		.loc 1 300 12 discriminator 1 view .LVU2109
 5473 05dc B38AFFF8 		sth 28,-8(10)
 5474              		.loc 1 301 5 is_stmt 1 view .LVU2110
 5475              	.LVL245:
 5476              	.LBB554:
 5477              		.loc 1 268 10 view .LVU2111
 5478              	.LBB304:
 5479              		.loc 1 269 2 view .LVU2112
 5480              		.loc 1 271 2 view .LVU2113
 5481              		.loc 1 272 2 view .LVU2114
 5482              		.loc 1 273 2 view .LVU2115
 5483              		.loc 1 275 2 view .LVU2116
 5484              		.loc 1 275 2 is_stmt 0 view .LVU2117
 5485              	.LBE304:
 5486              	.LBE554:
 5487              		.loc 1 302 5 is_stmt 1 view .LVU2118
 5488              	.LBB555:
 5489              		.loc 1 268 10 view .LVU2119
 5490              	.LBB356:
 5491              		.loc 1 269 2 view .LVU2120
 5492              		.loc 1 271 2 view .LVU2121
 5493              		.loc 1 272 2 view .LVU2122
 5494              		.loc 1 273 2 view .LVU2123
 5495              		.loc 1 275 2 view .LVU2124
 5496              		.loc 1 275 2 is_stmt 0 view .LVU2125
 5497              	.LBE356:
 5498              	.LBE555:
 5499              		.loc 1 303 5 is_stmt 1 view .LVU2126
 5500              	.LBB556:
 5501              		.loc 1 268 10 view .LVU2127
 5502              	.LBB415:
 5503              		.loc 1 269 2 view .LVU2128
 5504              		.loc 1 271 2 view .LVU2129
 5505              		.loc 1 272 2 view .LVU2130
 5506              		.loc 1 273 2 view .LVU2131
 5507              		.loc 1 275 2 view .LVU2132
 5508              		.loc 1 273 35 is_stmt 0 view .LVU2133
 5509 05e0 57BDC9FE 		srwi 29,29,7
 5510              		.loc 1 275 33 view .LVU2134
 5511 05e4 7D08EB78 		or 8,8,29
 5512              	.LBE415:
 5513              	.LBE556:
 5514              		.loc 1 303 12 discriminator 1 view .LVU2135
 5515 05e8 B10AFFFE 		sth 8,-2(10)
 5516              		.loc 1 299 4 is_stmt 1 discriminator 3 view .LVU2136
 5517              	.LVL246:
 5518              		.loc 1 299 32 discriminator 1 view .LVU2137
 5519              	.LBE561:
 5520              		.loc 1 298 3 discriminator 2 view .LVU2138
 5521              		.loc 1 298 25 discriminator 1 view .LVU2139
 5522 05ec 4180FAE4 		blt+ 0,.L84
 5523              	.LBE562:
 5524              		.loc 1 297 42 is_stmt 0 discriminator 2 view .LVU2140
 5525 05f0 A221000C 		lhz 17,12(1)
 5526 05f4 7D755B78 		mr 21,11
 5527              		.loc 1 297 2 is_stmt 1 discriminator 2 view .LVU2141
 5528              		.loc 1 297 24 is_stmt 0 discriminator 1 view .LVU2142
 5529 05f8 80E10010 		lwz 7,16(1)
 5530              		.loc 1 297 42 discriminator 2 view .LVU2143
 5531 05fc 3A310004 		addi 17,17,4
 5532              		.loc 1 297 24 discriminator 1 view .LVU2144
 5533 0600 5628043E 		rlwinm 8,17,0,0xffff
 5534              	.LVL247:
 5535              		.loc 1 297 24 is_stmt 1 discriminator 1 view .LVU2145
 5536 0604 7C083840 		cmplw 0,8,7
 5537 0608 4180FAA8 		blt+ 0,.L83
 5538 060c 82610014 		lwz 19,20(1)
 5539 0610 82810018 		lwz 20,24(1)
 5540 0614 81C10020 		lwz 14,32(1)
 5541              		.cfi_restore 14
 5542 0618 81E10024 		lwz 15,36(1)
 5543              		.cfi_restore 15
 5544 061c 82010028 		lwz 16,40(1)
 5545              		.cfi_restore 16
 5546              	.LVL248:
 5547              		.loc 1 297 24 is_stmt 0 discriminator 1 view .LVU2146
 5548 0620 8221002C 		lwz 17,44(1)
 5549              		.cfi_restore 17
 5550              	.LVL249:
 5551              		.loc 1 297 24 discriminator 1 view .LVU2147
 5552 0624 82410030 		lwz 18,48(1)
 5553              		.cfi_restore 18
 5554              	.LVL250:
 5555              		.loc 1 297 24 discriminator 1 view .LVU2148
 5556 0628 82C10040 		lwz 22,64(1)
 5557              		.cfi_restore 22
 5558              	.LVL251:
 5559              		.loc 1 297 24 discriminator 1 view .LVU2149
 5560 062c 82E10044 		lwz 23,68(1)
 5561              		.cfi_restore 23
 5562 0630 83010048 		lwz 24,72(1)
 5563              		.cfi_restore 24
 5564 0634 8321004C 		lwz 25,76(1)
 5565              		.cfi_restore 25
 5566 0638 83410050 		lwz 26,80(1)
 5567              		.cfi_restore 26
 5568 063c 83610054 		lwz 27,84(1)
 5569              		.cfi_restore 27
 5570 0640 83810058 		lwz 28,88(1)
 5571              		.cfi_restore 28
 5572 0644 83C10060 		lwz 30,96(1)
 5573              		.cfi_restore 30
 5574              	.LVL252:
 5575              	.L82:
 5576              		.loc 1 297 24 discriminator 1 view .LVU2150
 5577              	.LBE563:
 5578              		.loc 1 307 2 is_stmt 1 view .LVU2151
 5579              		.loc 1 307 14 is_stmt 0 view .LVU2152
 5580 0648 7E83A378 		mr 3,20
 5581 064c 7E649B78 		mr 4,19
 5582 0650 48000001 		bl DCFlushRange
 5583              	.LVL253:
 5584              		.loc 1 309 2 is_stmt 1 view .LVU2153
 5585              		.loc 1 310 1 is_stmt 0 view .LVU2154
 5586 0654 8001006C 		lwz 0,108(1)
 5587 0658 7E83A378 		mr 3,20
 5588 065c 82610034 		lwz 19,52(1)
 5589 0660 82810038 		lwz 20,56(1)
 5590 0664 7C0803A6 		mtlr 0
 5591              		.cfi_restore 65
 5592 0668 82A1003C 		lwz 21,60(1)
 5593 066c 83A1005C 		lwz 29,92(1)
 5594 0670 83E10064 		lwz 31,100(1)
 5595              	.LVL254:
 5596              		.loc 1 310 1 view .LVU2155
 5597 0674 38210068 		addi 1,1,104
 5598              		.cfi_restore 31
 5599              		.cfi_restore 29
 5600              		.cfi_restore 21
 5601              		.cfi_restore 20
 5602              		.cfi_restore 19
 5603              		.cfi_def_cfa_offset 0
 5604 0678 4E800020 		blr
 5605              	.LVL255:
 5606              	.L94:
 5607              		.cfi_def_cfa_offset 104
 5608              		.cfi_offset 17, -60
 5609              		.cfi_offset 19, -52
 5610              		.cfi_offset 20, -48
 5611              		.cfi_offset 21, -44
 5612              		.cfi_offset 29, -12
 5613              		.cfi_offset 31, -4
 5614              		.cfi_offset 65, 4
 5615              		.loc 1 310 1 view .LVU2156
 5616 067c 8221002C 		lwz 17,44(1)
 5617              		.cfi_restore 17
 5618 0680 4BFFFFC8 		b .L82
 5619              		.cfi_endproc
 5620              	.LFE76:
 5621              		.size	_ZN11Metaphrasis21convertBufferToRGB565EPjtt, .-_ZN11Metaphrasis21convertBufferToRGB565EPjtt
 5622              		.section	.text._ZN11Metaphrasis19convertRGBAToRGB5A3Ej,"ax",@progbits
 5623              		.align 2
 5624              		.globl _ZN11Metaphrasis19convertRGBAToRGB5A3Ej
 5625              		.type	_ZN11Metaphrasis19convertRGBAToRGB5A3Ej, @function
 5626              	_ZN11Metaphrasis19convertRGBAToRGB5A3Ej:
 5627              	.LVL256:
 5628              	.LFB77:
 5629              		.loc 1 322 58 is_stmt 1 view -0
 5630              		.cfi_startproc
 5631              		.loc 1 323 2 view .LVU2158
 5632              		.loc 1 324 2 view .LVU2159
 5633              		.loc 1 326 2 view .LVU2160
 5634              		.loc 1 327 2 view .LVU2161
 5635              		.loc 1 329 4 is_stmt 0 view .LVU2162
 5636 0000 5469063E 		rlwinm 9,3,0,24,31
 5637              		.loc 1 327 4 view .LVU2163
 5638 0004 546A863E 		rlwinm 10,3,16,24,31
 5639              	.LVL257:
 5640              		.loc 1 328 2 is_stmt 1 view .LVU2164
 5641              		.loc 1 331 2 is_stmt 0 view .LVU2165
 5642 0008 280900E0 		cmplwi 0,9,224
 5643              		.loc 1 328 4 view .LVU2166
 5644 000c 5468C63E 		rlwinm 8,3,24,24,31
 5645              	.LVL258:
 5646              		.loc 1 329 2 is_stmt 1 view .LVU2167
 5647              		.loc 1 331 2 view .LVU2168
 5648 0010 40810028 		ble- 0,.L96
 5649              		.loc 1 332 3 view .LVU2169
 5650              	.LVL259:
 5651              		.loc 1 333 3 view .LVU2170
 5652              		.loc 1 334 3 view .LVU2171
 5653              		.loc 1 336 3 view .LVU2172
 5654              		.loc 1 336 26 is_stmt 0 view .LVU2173
 5655 0014 554A15B4 		rlwinm 10,10,2,22,26
 5656              	.LVL260:
 5657              		.loc 1 336 14 view .LVU2174
 5658 0018 54637C6A 		rlwinm 3,3,15,17,21
 5659              	.LVL261:
 5660              		.loc 1 336 21 view .LVU2175
 5661 001c 7C635378 		or 3,3,10
 5662              		.loc 1 334 5 view .LVU2176
 5663 0020 5508E8FE 		srwi 8,8,3
 5664              	.LVL262:
 5665              		.loc 1 336 9 view .LVU2177
 5666 0024 7C634378 		or 3,3,8
 5667              	.LVL263:
 5668              		.loc 1 337 3 is_stmt 1 view .LVU2178
 5669              		.loc 1 337 9 is_stmt 0 view .LVU2179
 5670 0028 3920FFFF 		li 9,-1
 5671              	.LVL264:
 5672              		.loc 1 337 9 view .LVU2180
 5673 002c 51237820 		rlwimi 3,9,15,0,16
 5674              	.LVL265:
 5675              		.loc 1 348 2 is_stmt 1 view .LVU2181
 5676              		.loc 1 349 1 is_stmt 0 view .LVU2182
 5677 0030 5463043E 		rlwinm 3,3,0,0xffff
 5678              		.loc 1 349 1 view .LVU2183
 5679 0034 4E800020 		blr
 5680              	.LVL266:
 5681              	.L96:
 5682              		.loc 1 340 3 is_stmt 1 view .LVU2184
 5683              		.loc 1 341 3 view .LVU2185
 5684              		.loc 1 342 3 view .LVU2186
 5685              		.loc 1 343 3 view .LVU2187
 5686              		.loc 1 345 3 view .LVU2188
 5687              		.loc 1 342 5 is_stmt 0 view .LVU2189
 5688 0038 5508E13E 		srwi 8,8,4
 5689              	.LVL267:
 5690              		.loc 1 345 14 view .LVU2190
 5691 003c 55293C66 		rlwinm 9,9,7,17,19
 5692              	.LVL268:
 5693              		.loc 1 345 9 view .LVU2191
 5694 0040 7D294378 		or 9,9,8
 5695              		.loc 1 345 26 view .LVU2192
 5696 0044 5463652E 		rlwinm 3,3,12,20,23
 5697              	.LVL269:
 5698              		.loc 1 345 9 view .LVU2193
 5699 0048 7D231B78 		or 3,9,3
 5700              		.loc 1 345 37 view .LVU2194
 5701 004c 554A0636 		rlwinm 10,10,0,24,27
 5702              	.LVL270:
 5703              		.loc 1 345 9 view .LVU2195
 5704 0050 7C635378 		or 3,3,10
 5705              	.LVL271:
 5706              		.loc 1 348 2 is_stmt 1 view .LVU2196
 5707              		.loc 1 349 1 is_stmt 0 view .LVU2197
 5708 0054 5463043E 		rlwinm 3,3,0,0xffff
 5709              		.loc 1 349 1 view .LVU2198
 5710 0058 4E800020 		blr
 5711              		.cfi_endproc
 5712              	.LFE77:
 5713              		.size	_ZN11Metaphrasis19convertRGBAToRGB5A3Ej, .-_ZN11Metaphrasis19convertRGBAToRGB5A3Ej
 5714              		.section	.text._ZN11Metaphrasis21convertBufferToRGB5A3EPjtt,"ax",@progbits
 5715              		.align 2
 5716              		.globl _ZN11Metaphrasis21convertBufferToRGB5A3EPjtt
 5717              		.type	_ZN11Metaphrasis21convertBufferToRGB5A3EPjtt, @function
 5718              	_ZN11Metaphrasis21convertBufferToRGB5A3EPjtt:
 5719              	.LVL272:
 5720              	.LFB78:
 5721              		.loc 1 362 113 is_stmt 1 view -0
 5722              		.cfi_startproc
 5723              		.loc 1 363 2 view .LVU2200
 5724              		.loc 1 362 113 is_stmt 0 view .LVU2201
 5725 0000 9421FFD0 		stwu 1,-48(1)
 5726              		.cfi_def_cfa_offset 48
 5727 0004 7C0802A6 		mflr 0
 5728 0008 93C10028 		stw 30,40(1)
 5729              		.cfi_register 65, 0
 5730              		.cfi_offset 30, -8
 5731              		.loc 1 363 37 view .LVU2202
 5732 000c 7FC521D6 		mullw 30,5,4
 5733              		.loc 1 362 113 view .LVU2203
 5734 0010 93810020 		stw 28,32(1)
 5735              		.cfi_offset 28, -16
 5736 0014 7C9C2378 		mr 28,4
 5737 0018 93E1002C 		stw 31,44(1)
 5738              		.cfi_offset 31, -4
 5739 001c 7C7F1B78 		mr 31,3
 5740              		.loc 1 364 51 view .LVU2204
 5741 0020 38600020 		li 3,32
 5742              	.LVL273:
 5743              		.loc 1 362 113 view .LVU2205
 5744 0024 90010034 		stw 0,52(1)
 5745              		.loc 1 363 11 view .LVU2206
 5746 0028 57DE083C 		slwi 30,30,1
 5747              	.LVL274:
 5748              		.loc 1 364 2 is_stmt 1 view .LVU2207
 5749              		.loc 1 362 113 is_stmt 0 view .LVU2208
 5750 002c 9361001C 		stw 27,28(1)
 5751              		.loc 1 364 51 view .LVU2209
 5752 0030 7FC4F378 		mr 4,30
 5753              	.LVL275:
 5754              		.cfi_offset 65, 4
 5755              		.cfi_offset 27, -20
 5756              		.loc 1 362 113 view .LVU2210
 5757 0034 7CBB2B78 		mr 27,5
 5758 0038 93A10024 		stw 29,36(1)
 5759              		.cfi_offset 29, -12
 5760              		.loc 1 364 51 view .LVU2211
 5761 003c 48000001 		bl memalign
 5762              	.LVL276:
 5763              		.loc 1 365 8 view .LVU2212
 5764 0040 7FC5F378 		mr 5,30
 5765 0044 38800000 		li 4,0
 5766              		.loc 1 364 51 view .LVU2213
 5767 0048 7C7D1B78 		mr 29,3
 5768              	.LVL277:
 5769              		.loc 1 365 2 is_stmt 1 view .LVU2214
 5770              		.loc 1 365 8 is_stmt 0 view .LVU2215
 5771 004c 48000001 		bl memset
 5772              	.LVL278:
 5773              		.loc 1 367 2 is_stmt 1 view .LVU2216
 5774              		.loc 1 368 2 view .LVU2217
 5775              		.loc 1 370 2 view .LVU2218
 5776              	.LBB575:
 5777              		.loc 1 370 24 discriminator 1 view .LVU2219
 5778 0050 2C1B0000 		cmpwi 0,27,0
 5779 0054 41820480 		beq- 0,.L99
 5780 0058 2C1C0000 		cmpwi 0,28,0
 5781 005c 41820478 		beq- 0,.L99
 5782 0060 92E1000C 		stw 23,12(1)
 5783              		.cfi_offset 23, -36
 5784              	.LBE575:
 5785              		.loc 1 368 12 is_stmt 0 view .LVU2220
 5786 0064 7FA9EB78 		mr 9,29
 5787 0068 93010010 		stw 24,16(1)
 5788              		.cfi_offset 24, -32
 5789              	.LBB725:
 5790              		.loc 1 370 15 view .LVU2221
 5791 006c 39800000 		li 12,0
 5792 0070 93210014 		stw 25,20(1)
 5793              		.cfi_offset 25, -28
 5794 0074 93410018 		stw 26,24(1)
 5795              		.cfi_offset 26, -24
 5796              	.LVL279:
 5797              	.L134:
 5798              	.LBB576:
 5799              		.loc 1 371 25 is_stmt 1 discriminator 1 view .LVU2222
 5800              	.LBB577:
 5801              		.loc 1 373 53 is_stmt 0 view .LVU2223
 5802 0078 5583043E 		rlwinm 3,12,0,0xffff
 5803              	.LBE577:
 5804              		.loc 1 371 16 view .LVU2224
 5805 007c 3B400000 		li 26,0
 5806              	.LBB716:
 5807              		.loc 1 373 63 view .LVU2225
 5808 0080 7C63E1D6 		mullw 3,3,28
 5809 0084 7C9C1A14 		add 4,28,3
 5810 0088 7CBC2214 		add 5,28,4
 5811 008c 7D7C2A14 		add 11,28,5
 5812              	.LVL280:
 5813              	.L133:
 5814              		.loc 1 372 32 is_stmt 1 discriminator 1 view .LVU2226
 5815              		.loc 1 373 5 view .LVU2227
 5816              		.loc 1 373 81 is_stmt 0 view .LVU2228
 5817 0090 574A043E 		rlwinm 10,26,0,0xffff
 5818              		.loc 1 373 87 view .LVU2229
 5819 0094 7D0A1A14 		add 8,10,3
 5820              		.loc 1 373 46 view .LVU2230
 5821 0098 5508103A 		slwi 8,8,2
 5822 009c 7CFF402E 		lwzx 7,31,8
 5823              	.LVL281:
 5824              	.LBB578:
 5825              	.LBI578:
 5826              		.loc 1 322 10 is_stmt 1 view .LVU2231
 5827              	.LBB579:
 5828              		.loc 1 323 2 view .LVU2232
 5829              		.loc 1 324 2 view .LVU2233
 5830              		.loc 1 326 2 view .LVU2234
 5831              		.loc 1 327 2 view .LVU2235
 5832              		.loc 1 329 4 is_stmt 0 view .LVU2236
 5833 00a0 54E8063E 		rlwinm 8,7,0,24,31
 5834              		.loc 1 327 4 view .LVU2237
 5835 00a4 54E6863E 		rlwinm 6,7,16,24,31
 5836              	.LVL282:
 5837              		.loc 1 328 2 is_stmt 1 view .LVU2238
 5838              		.loc 1 331 2 is_stmt 0 view .LVU2239
 5839 00a8 280800E0 		cmplwi 0,8,224
 5840              		.loc 1 328 4 view .LVU2240
 5841 00ac 54E0C63E 		rlwinm 0,7,24,24,31
 5842              	.LVL283:
 5843              		.loc 1 329 2 is_stmt 1 view .LVU2241
 5844              		.loc 1 331 2 view .LVU2242
 5845 00b0 408104AC 		ble- 0,.L100
 5846              	.LVL284:
 5847              	.L144:
 5848              		.loc 1 332 3 view .LVU2243
 5849              		.loc 1 333 3 view .LVU2244
 5850              		.loc 1 334 3 view .LVU2245
 5851              		.loc 1 336 3 view .LVU2246
 5852              		.loc 1 336 14 is_stmt 0 view .LVU2247
 5853 00b4 54E77C6A 		rlwinm 7,7,15,17,21
 5854              	.LVL285:
 5855              		.loc 1 336 26 view .LVU2248
 5856 00b8 54C615B4 		rlwinm 6,6,2,22,26
 5857              	.LVL286:
 5858              		.loc 1 336 21 view .LVU2249
 5859 00bc 7CC63B78 		or 6,6,7
 5860              		.loc 1 334 5 view .LVU2250
 5861 00c0 5400E8FE 		srwi 0,0,3
 5862              	.LVL287:
 5863              		.loc 1 336 9 view .LVU2251
 5864 00c4 7CC80378 		or 8,6,0
 5865              	.LVL288:
 5866              		.loc 1 337 3 is_stmt 1 view .LVU2252
 5867              		.loc 1 337 9 is_stmt 0 view .LVU2253
 5868 00c8 38E0FFFF 		li 7,-1
 5869 00cc 50E87820 		rlwimi 8,7,15,0,16
 5870              	.LVL289:
 5871              		.loc 1 348 2 is_stmt 1 view .LVU2254
 5872              		.loc 1 348 2 is_stmt 0 view .LVU2255
 5873              	.LBE579:
 5874              	.LBE578:
 5875              		.loc 1 374 83 view .LVU2256
 5876 00d0 38CA0001 		addi 6,10,1
 5877              		.loc 1 373 12 discriminator 1 view .LVU2257
 5878 00d4 B1090000 		sth 8,0(9)
 5879              		.loc 1 374 5 is_stmt 1 view .LVU2258
 5880              		.loc 1 374 87 is_stmt 0 view .LVU2259
 5881 00d8 7D061A14 		add 8,6,3
 5882              		.loc 1 374 46 view .LVU2260
 5883 00dc 5508103A 		slwi 8,8,2
 5884 00e0 7CFF402E 		lwzx 7,31,8
 5885              	.LVL290:
 5886              	.LBB595:
 5887              	.LBI595:
 5888              		.loc 1 322 10 is_stmt 1 view .LVU2261
 5889              	.LBB596:
 5890              		.loc 1 323 2 view .LVU2262
 5891              		.loc 1 324 2 view .LVU2263
 5892              		.loc 1 326 2 view .LVU2264
 5893              		.loc 1 327 2 view .LVU2265
 5894              		.loc 1 329 4 is_stmt 0 view .LVU2266
 5895 00e4 54E8063E 		rlwinm 8,7,0,24,31
 5896              		.loc 1 327 4 view .LVU2267
 5897 00e8 54E0863E 		rlwinm 0,7,16,24,31
 5898              	.LVL291:
 5899              		.loc 1 328 2 is_stmt 1 view .LVU2268
 5900              		.loc 1 331 2 is_stmt 0 view .LVU2269
 5901 00ec 280800E0 		cmplwi 0,8,224
 5902              		.loc 1 328 4 view .LVU2270
 5903 00f0 54F9C63E 		rlwinm 25,7,24,24,31
 5904              	.LVL292:
 5905              		.loc 1 329 2 is_stmt 1 view .LVU2271
 5906              		.loc 1 331 2 view .LVU2272
 5907 00f4 408104AC 		ble- 0,.L102
 5908              	.LVL293:
 5909              	.L145:
 5910              		.loc 1 332 3 view .LVU2273
 5911              		.loc 1 333 3 view .LVU2274
 5912              		.loc 1 334 3 view .LVU2275
 5913              		.loc 1 336 3 view .LVU2276
 5914              		.loc 1 336 14 is_stmt 0 view .LVU2277
 5915 00f8 54E77C6A 		rlwinm 7,7,15,17,21
 5916              	.LVL294:
 5917              		.loc 1 336 26 view .LVU2278
 5918 00fc 540015B4 		rlwinm 0,0,2,22,26
 5919              	.LVL295:
 5920              		.loc 1 336 21 view .LVU2279
 5921 0100 7C003B78 		or 0,0,7
 5922              		.loc 1 334 5 view .LVU2280
 5923 0104 5739E8FE 		srwi 25,25,3
 5924              	.LVL296:
 5925              		.loc 1 336 9 view .LVU2281
 5926 0108 7C08CB78 		or 8,0,25
 5927              	.LVL297:
 5928              		.loc 1 337 3 is_stmt 1 view .LVU2282
 5929              		.loc 1 337 9 is_stmt 0 view .LVU2283
 5930 010c 38E0FFFF 		li 7,-1
 5931 0110 50E87820 		rlwimi 8,7,15,0,16
 5932              	.LVL298:
 5933              		.loc 1 348 2 is_stmt 1 view .LVU2284
 5934              		.loc 1 348 2 is_stmt 0 view .LVU2285
 5935              	.LBE596:
 5936              	.LBE595:
 5937              		.loc 1 375 83 view .LVU2286
 5938 0114 38EA0002 		addi 7,10,2
 5939              		.loc 1 374 12 discriminator 1 view .LVU2287
 5940 0118 B1090002 		sth 8,2(9)
 5941              		.loc 1 375 5 is_stmt 1 view .LVU2288
 5942              		.loc 1 375 87 is_stmt 0 view .LVU2289
 5943 011c 7D071A14 		add 8,7,3
 5944              		.loc 1 375 46 view .LVU2290
 5945 0120 5508103A 		slwi 8,8,2
 5946 0124 7F3F402E 		lwzx 25,31,8
 5947              	.LVL299:
 5948              	.LBB614:
 5949              	.LBI614:
 5950              		.loc 1 322 10 is_stmt 1 view .LVU2291
 5951              	.LBB615:
 5952              		.loc 1 323 2 view .LVU2292
 5953              		.loc 1 324 2 view .LVU2293
 5954              		.loc 1 326 2 view .LVU2294
 5955              		.loc 1 327 2 view .LVU2295
 5956              		.loc 1 329 4 is_stmt 0 view .LVU2296
 5957 0128 5720063E 		rlwinm 0,25,0,24,31
 5958              		.loc 1 327 4 view .LVU2297
 5959 012c 5738863E 		rlwinm 24,25,16,24,31
 5960              	.LVL300:
 5961              		.loc 1 328 2 is_stmt 1 view .LVU2298
 5962              		.loc 1 331 2 is_stmt 0 view .LVU2299
 5963 0130 280000E0 		cmplwi 0,0,224
 5964              		.loc 1 328 4 view .LVU2300
 5965 0134 5737C63E 		rlwinm 23,25,24,24,31
 5966              	.LVL301:
 5967              		.loc 1 329 2 is_stmt 1 view .LVU2301
 5968              		.loc 1 331 2 view .LVU2302
 5969 0138 408104AC 		ble- 0,.L104
 5970              	.LVL302:
 5971              	.L146:
 5972              		.loc 1 332 3 view .LVU2303
 5973              		.loc 1 333 3 view .LVU2304
 5974              		.loc 1 334 3 view .LVU2305
 5975              		.loc 1 336 3 view .LVU2306
 5976              		.loc 1 336 14 is_stmt 0 view .LVU2307
 5977 013c 57397C6A 		rlwinm 25,25,15,17,21
 5978              	.LVL303:
 5979              		.loc 1 336 26 view .LVU2308
 5980 0140 571815B4 		rlwinm 24,24,2,22,26
 5981              	.LVL304:
 5982              		.loc 1 336 21 view .LVU2309
 5983 0144 7F18CB78 		or 24,24,25
 5984              		.loc 1 334 5 view .LVU2310
 5985 0148 56F7E8FE 		srwi 23,23,3
 5986              	.LVL305:
 5987              		.loc 1 336 9 view .LVU2311
 5988 014c 7F00BB78 		or 0,24,23
 5989              	.LVL306:
 5990              		.loc 1 337 3 is_stmt 1 view .LVU2312
 5991              		.loc 1 337 9 is_stmt 0 view .LVU2313
 5992 0150 3900FFFF 		li 8,-1
 5993 0154 51007820 		rlwimi 0,8,15,0,16
 5994              	.LVL307:
 5995              		.loc 1 348 2 is_stmt 1 view .LVU2314
 5996              		.loc 1 348 2 is_stmt 0 view .LVU2315
 5997              	.LBE615:
 5998              	.LBE614:
 5999              		.loc 1 376 83 view .LVU2316
 6000 0158 390A0003 		addi 8,10,3
 6001              		.loc 1 375 12 discriminator 1 view .LVU2317
 6002 015c B0090004 		sth 0,4(9)
 6003              		.loc 1 376 5 is_stmt 1 view .LVU2318
 6004              		.loc 1 376 87 is_stmt 0 view .LVU2319
 6005 0160 7C081A14 		add 0,8,3
 6006              		.loc 1 376 46 view .LVU2320
 6007 0164 5400103A 		slwi 0,0,2
 6008 0168 7F3F002E 		lwzx 25,31,0
 6009              	.LVL308:
 6010              	.LBB629:
 6011              	.LBI629:
 6012              		.loc 1 322 10 is_stmt 1 view .LVU2321
 6013              	.LBB630:
 6014              		.loc 1 323 2 view .LVU2322
 6015              		.loc 1 324 2 view .LVU2323
 6016              		.loc 1 326 2 view .LVU2324
 6017              		.loc 1 327 2 view .LVU2325
 6018              		.loc 1 329 4 is_stmt 0 view .LVU2326
 6019 016c 5720063E 		rlwinm 0,25,0,24,31
 6020              		.loc 1 327 4 view .LVU2327
 6021 0170 5738863E 		rlwinm 24,25,16,24,31
 6022              	.LVL309:
 6023              		.loc 1 328 2 is_stmt 1 view .LVU2328
 6024              		.loc 1 331 2 is_stmt 0 view .LVU2329
 6025 0174 280000E0 		cmplwi 0,0,224
 6026              		.loc 1 328 4 view .LVU2330
 6027 0178 5737C63E 		rlwinm 23,25,24,24,31
 6028              	.LVL310:
 6029              		.loc 1 329 2 is_stmt 1 view .LVU2331
 6030              		.loc 1 331 2 view .LVU2332
 6031 017c 408104AC 		ble- 0,.L106
 6032              	.LVL311:
 6033              	.L147:
 6034              		.loc 1 332 3 view .LVU2333
 6035              		.loc 1 333 3 view .LVU2334
 6036              		.loc 1 334 3 view .LVU2335
 6037              		.loc 1 336 3 view .LVU2336
 6038              		.loc 1 336 26 is_stmt 0 view .LVU2337
 6039 0180 571815B4 		rlwinm 24,24,2,22,26
 6040              	.LVL312:
 6041              		.loc 1 336 14 view .LVU2338
 6042 0184 57397C6A 		rlwinm 25,25,15,17,21
 6043              	.LVL313:
 6044              		.loc 1 336 21 view .LVU2339
 6045 0188 7F39C378 		or 25,25,24
 6046              		.loc 1 334 5 view .LVU2340
 6047 018c 56F7E8FE 		srwi 23,23,3
 6048              	.LVL314:
 6049              		.loc 1 336 9 view .LVU2341
 6050 0190 7F20BB78 		or 0,25,23
 6051              	.LVL315:
 6052              		.loc 1 337 3 is_stmt 1 view .LVU2342
 6053              		.loc 1 337 9 is_stmt 0 view .LVU2343
 6054 0194 3B20FFFF 		li 25,-1
 6055 0198 53207820 		rlwimi 0,25,15,0,16
 6056              	.LVL316:
 6057              		.loc 1 348 2 is_stmt 1 view .LVU2344
 6058              		.loc 1 348 2 is_stmt 0 view .LVU2345
 6059              	.LBE630:
 6060              	.LBE629:
 6061              		.loc 1 373 87 view .LVU2346
 6062 019c 7F2A2214 		add 25,10,4
 6063              		.loc 1 373 46 view .LVU2347
 6064 01a0 5739103A 		slwi 25,25,2
 6065              		.loc 1 376 12 discriminator 1 view .LVU2348
 6066 01a4 B0090006 		sth 0,6(9)
 6067              		.loc 1 372 4 is_stmt 1 discriminator 3 view .LVU2349
 6068              	.LVL317:
 6069              		.loc 1 372 32 discriminator 1 view .LVU2350
 6070              		.loc 1 373 5 view .LVU2351
 6071              		.loc 1 373 46 is_stmt 0 view .LVU2352
 6072 01a8 7F3FC82E 		lwzx 25,31,25
 6073              	.LVL318:
 6074              	.LBB651:
 6075              		.loc 1 322 10 is_stmt 1 view .LVU2353
 6076              	.LBB580:
 6077              		.loc 1 323 2 view .LVU2354
 6078              		.loc 1 324 2 view .LVU2355
 6079              		.loc 1 326 2 view .LVU2356
 6080              		.loc 1 327 2 view .LVU2357
 6081              		.loc 1 329 4 is_stmt 0 view .LVU2358
 6082 01ac 5720063E 		rlwinm 0,25,0,24,31
 6083              		.loc 1 327 4 view .LVU2359
 6084 01b0 5738863E 		rlwinm 24,25,16,24,31
 6085              	.LVL319:
 6086              		.loc 1 328 2 is_stmt 1 view .LVU2360
 6087              		.loc 1 331 2 is_stmt 0 view .LVU2361
 6088 01b4 280000E0 		cmplwi 0,0,224
 6089              		.loc 1 328 4 view .LVU2362
 6090 01b8 5737C63E 		rlwinm 23,25,24,24,31
