   1              		.file	"Metaphrasis.cpp"
   2              		.machine ppc
   3              		.section	".text"
   4              	.Ltext0:
   5              		.file 1 "F:/GameModding/MarioKartWii/Mods/Distro/RetroRewind6/dev/Launcher/RRLauncher/launcher/lib
   6              		.section	.text._ZN11MetaphrasisD2Ev,"ax",@progbits
   7              		.align 2
   8              		.globl _ZN11MetaphrasisD2Ev
   9              		.type	_ZN11MetaphrasisD2Ev, @function
  10              	_ZN11MetaphrasisD2Ev:
  11              	.LVL0:
  12              	.LFB65:
  13              		.loc 1 35 1 view -0
  14              		.cfi_startproc
  15              		.loc 1 36 1 is_stmt 0 view .LVU1
  16 0000 4E800020 		blr
  17              		.cfi_endproc
  18              	.LFE65:
  19              		.size	_ZN11MetaphrasisD2Ev, .-_ZN11MetaphrasisD2Ev
  20              		.globl _ZN11MetaphrasisD1Ev
  21              		.set	_ZN11MetaphrasisD1Ev,_ZN11MetaphrasisD2Ev
  22              		.section	.text._ZN11MetaphrasisD0Ev,"ax",@progbits
  23              		.align 2
  24              		.globl _ZN11MetaphrasisD0Ev
  25              		.type	_ZN11MetaphrasisD0Ev, @function
  26              	_ZN11MetaphrasisD0Ev:
  27              	.LVL1:
  28              	.LFB67:
  29              		.loc 1 35 1 is_stmt 1 view -0
  30              		.cfi_startproc
  31              	.LBB46:
  32              	.LBI46:
  33              		.loc 1 35 1 view .LVU3
  34              		.loc 1 35 1 is_stmt 0 view .LVU4
  35              	.LBE46:
  36              		.loc 1 36 1 discriminator 1 view .LVU5
  37 0000 38800004 		li 4,4
  38 0004 48000000 		b _ZdlPvj
  39              	.LVL2:
  40              		.loc 1 36 1 discriminator 1 view .LVU6
  41              		.cfi_endproc
  42              	.LFE67:
  43              		.size	_ZN11MetaphrasisD0Ev, .-_ZN11MetaphrasisD0Ev
  44              		.section	.text._ZN11MetaphrasisC2Ev,"ax",@progbits
  45              		.align 2
  46              		.globl _ZN11MetaphrasisC2Ev
  47              		.type	_ZN11MetaphrasisC2Ev, @function
  48              	_ZN11MetaphrasisC2Ev:
  49              	.LVL3:
  50              	.LFB62:
  51              		.loc 1 28 1 is_stmt 1 view -0
  52              		.cfi_startproc
  53              	.LBB47:
  54              		.loc 1 28 26 is_stmt 0 view .LVU8
  55 0000 3D200000 		lis 9,_ZTV11Metaphrasis+8@ha
  56 0004 39290000 		la 9,_ZTV11Metaphrasis+8@l(9)
  57 0008 91230000 		stw 9,0(3)
  58              	.LBE47:
  59              		.loc 1 29 1 view .LVU9
  60 000c 4E800020 		blr
  61              		.cfi_endproc
  62              	.LFE62:
  63              		.size	_ZN11MetaphrasisC2Ev, .-_ZN11MetaphrasisC2Ev
  64              		.globl _ZN11MetaphrasisC1Ev
  65              		.set	_ZN11MetaphrasisC1Ev,_ZN11MetaphrasisC2Ev
  66              		.section	.text._ZN11Metaphrasis17convertBufferToI4EPjtt,"ax",@progbits
  67              		.align 2
  68              		.globl _ZN11Metaphrasis17convertBufferToI4EPjtt
  69              		.type	_ZN11Metaphrasis17convertBufferToI4EPjtt, @function
  70              	_ZN11Metaphrasis17convertBufferToI4EPjtt:
  71              	.LVL4:
  72              	.LFB68:
  73              		.loc 1 49 109 is_stmt 1 view -0
  74              		.cfi_startproc
  75              		.loc 1 50 2 view .LVU11
  76              		.loc 1 49 109 is_stmt 0 view .LVU12
  77 0000 9421FFB0 		stwu 1,-80(1)
  78              		.cfi_def_cfa_offset 80
  79 0004 7C0802A6 		mflr 0
  80 0008 93A10044 		stw 29,68(1)
  81              		.cfi_register 65, 0
  82              		.cfi_offset 29, -12
  83              		.loc 1 50 36 view .LVU13
  84 000c 7FA521D6 		mullw 29,5,4
  85              		.loc 1 49 109 view .LVU14
  86 0010 92C10028 		stw 22,40(1)
  87              		.cfi_offset 22, -40
  88 0014 7C962378 		mr 22,4
  89 0018 93E1004C 		stw 31,76(1)
  90              		.cfi_offset 31, -4
  91 001c 7C7F1B78 		mr 31,3
  92              		.loc 1 51 47 view .LVU15
  93 0020 38600020 		li 3,32
  94              	.LVL5:
  95              		.loc 1 49 109 view .LVU16
  96 0024 90010054 		stw 0,84(1)
  97              		.loc 1 50 51 view .LVU17
  98 0028 7FBD0E70 		srawi 29,29,1
  99              	.LVL6:
 100              		.loc 1 51 2 is_stmt 1 view .LVU18
 101              		.loc 1 49 109 is_stmt 0 view .LVU19
 102 002c 92A10024 		stw 21,36(1)
 103              		.loc 1 51 47 view .LVU20
 104 0030 7FA4EB78 		mr 4,29
 105              	.LVL7:
 106              		.cfi_offset 65, 4
 107              		.cfi_offset 21, -44
 108              		.loc 1 49 109 view .LVU21
 109 0034 7CB52B78 		mr 21,5
 110 0038 93C10048 		stw 30,72(1)
 111              		.cfi_offset 30, -8
 112              		.loc 1 51 47 view .LVU22
 113 003c 48000001 		bl memalign
 114              	.LVL8:
 115              		.loc 1 52 8 view .LVU23
 116 0040 7FA5EB78 		mr 5,29
 117 0044 38800000 		li 4,0
 118              		.loc 1 51 47 view .LVU24
 119 0048 7C7E1B78 		mr 30,3
 120              	.LVL9:
 121              		.loc 1 52 2 is_stmt 1 view .LVU25
 122              		.loc 1 52 8 is_stmt 0 view .LVU26
 123 004c 48000001 		bl memset
 124              	.LVL10:
 125              		.loc 1 54 2 is_stmt 1 view .LVU27
 126              		.loc 1 55 2 view .LVU28
 127              		.loc 1 57 2 view .LVU29
 128              	.LBB48:
 129              		.loc 1 57 24 discriminator 1 view .LVU30
 130 0050 2C150000 		cmpwi 0,21,0
 131 0054 418204AC 		beq- 0,.L6
 132 0058 2C160000 		cmpwi 0,22,0
 133              	.LBE48:
 134              		.loc 1 55 11 is_stmt 0 view .LVU31
 135 005c 7FC9F378 		mr 9,30
 136              	.LBB55:
 137              		.loc 1 57 15 view .LVU32
 138 0060 39400000 		li 10,0
 139 0064 4182049C 		beq- 0,.L6
 140 0068 91C10008 		stw 14,8(1)
 141              		.cfi_offset 14, -72
 142 006c 91E1000C 		stw 15,12(1)
 143              		.cfi_offset 15, -68
 144 0070 92010010 		stw 16,16(1)
 145              		.cfi_offset 16, -64
 146 0074 92210014 		stw 17,20(1)
 147              		.cfi_offset 17, -60
 148 0078 92410018 		stw 18,24(1)
 149              		.cfi_offset 18, -56
 150 007c 9261001C 		stw 19,28(1)
 151              		.cfi_offset 19, -52
 152 0080 92810020 		stw 20,32(1)
 153              		.cfi_offset 20, -48
 154 0084 92E1002C 		stw 23,44(1)
 155              		.cfi_offset 23, -36
 156 0088 93010030 		stw 24,48(1)
 157              		.cfi_offset 24, -32
 158 008c 93210034 		stw 25,52(1)
 159              		.cfi_offset 25, -28
 160 0090 93410038 		stw 26,56(1)
 161              		.cfi_offset 26, -24
 162 0094 9361003C 		stw 27,60(1)
 163              		.cfi_offset 27, -20
 164 0098 93810040 		stw 28,64(1)
 165              		.cfi_offset 28, -16
 166              	.LVL11:
 167              	.L7:
 168              	.LBB49:
 169              		.loc 1 58 25 is_stmt 1 discriminator 1 view .LVU33
 170              	.LBB50:
 171              		.loc 1 60 21 is_stmt 0 view .LVU34
 172 009c 5540043E 		rlwinm 0,10,0,0xffff
 173 00a0 7D4803A6 		mtlr 10
 174              		.loc 1 60 31 view .LVU35
 175 00a4 7C00B1D6 		mullw 0,0,22
 176              	.LBE50:
 177              		.loc 1 58 16 view .LVU36
 178 00a8 3A600000 		li 19,0
 179              	.LBB51:
 180              		.loc 1 60 31 view .LVU37
 181 00ac 7EF60214 		add 23,22,0
 182 00b0 7F16BA14 		add 24,22,23
 183 00b4 7F36C214 		add 25,22,24
 184 00b8 7F56CA14 		add 26,22,25
 185 00bc 7F76D214 		add 27,22,26
 186 00c0 7F96DA14 		add 28,22,27
 187 00c4 7E96E214 		add 20,22,28
 188              	.LVL12:
 189              	.L8:
 190              		.loc 1 59 32 is_stmt 1 discriminator 1 view .LVU38
 191              		.loc 1 60 5 view .LVU39
 192              		.loc 1 60 49 is_stmt 0 view .LVU40
 193 00c8 5668043E 		rlwinm 8,19,0,0xffff
 194              	.LBE51:
 195              		.loc 1 58 42 discriminator 2 view .LVU41
 196 00cc 3A730008 		addi 19,19,8
 197              	.LVL13:
 198              	.LBB52:
 199              		.loc 1 60 105 view .LVU42
 200 00d0 39680001 		addi 11,8,1
 201              	.LVL14:
 202              		.loc 1 60 55 view .LVU43
 203 00d4 7CC04214 		add 6,0,8
 204              		.loc 1 60 109 view .LVU44
 205 00d8 7CE05A14 		add 7,0,11
 206              		.loc 1 60 55 view .LVU45
 207 00dc 54C6103A 		slwi 6,6,2
 208              		.loc 1 60 109 view .LVU46
 209 00e0 54E7103A 		slwi 7,7,2
 210              		.loc 1 60 57 view .LVU47
 211 00e4 7CBF302E 		lwzx 5,31,6
 212              		.loc 1 60 119 view .LVU48
 213 00e8 7CDF382E 		lwzx 6,31,7
 214              		.loc 1 61 105 view .LVU49
 215 00ec 38680003 		addi 3,8,3
 216              		.loc 1 61 51 view .LVU50
 217 00f0 38880002 		addi 4,8,2
 218              		.loc 1 61 109 view .LVU51
 219 00f4 7CE01A14 		add 7,0,3
 220              		.loc 1 60 65 view .LVU52
 221 00f8 50C5E73E 		rlwimi 5,6,28,28,31
 222              		.loc 1 61 55 view .LVU53
 223 00fc 7CC02214 		add 6,0,4
 224              		.loc 1 60 12 view .LVU54
 225 0100 98A90000 		stb 5,0(9)
 226              		.loc 1 61 5 is_stmt 1 view .LVU55
 227              	.LVL15:
 228              		.loc 1 61 109 is_stmt 0 view .LVU56
 229 0104 54E7103A 		slwi 7,7,2
 230              		.loc 1 61 55 view .LVU57
 231 0108 54C6103A 		slwi 6,6,2
 232              		.loc 1 62 51 view .LVU58
 233 010c 38A80004 		addi 5,8,4
 234              		.loc 1 61 119 view .LVU59
 235 0110 7E1F382E 		lwzx 16,31,7
 236              		.loc 1 62 105 view .LVU60
 237 0114 38E80005 		addi 7,8,5
 238              		.loc 1 61 57 view .LVU61
 239 0118 7CDF302E 		lwzx 6,31,6
 240              		.loc 1 62 55 view .LVU62
 241 011c 7E202A14 		add 17,0,5
 242              		.loc 1 62 100 view .LVU63
 243 0120 7E403A14 		add 18,0,7
 244              		.loc 1 62 55 view .LVU64
 245 0124 5631103A 		slwi 17,17,2
 246              		.loc 1 61 65 view .LVU65
 247 0128 5206E73E 		rlwimi 6,16,28,28,31
 248              		.loc 1 62 109 view .LVU66
 249 012c 5652103A 		slwi 18,18,2
 250              		.loc 1 61 12 view .LVU67
 251 0130 98C90001 		stb 6,1(9)
 252              		.loc 1 62 5 is_stmt 1 view .LVU68
 253              	.LVL16:
 254              		.loc 1 63 105 is_stmt 0 view .LVU69
 255 0134 38C80007 		addi 6,8,7
 256              		.loc 1 63 109 view .LVU70
 257 0138 7DE03214 		add 15,0,6
 258              		.loc 1 60 109 view .LVU71
 259 013c 7D8BBA14 		add 12,11,23
 260              		.loc 1 62 119 view .LVU72
 261 0140 7DDF902E 		lwzx 14,31,18
 262              		.loc 1 63 109 view .LVU73
 263 0144 55EF103A 		slwi 15,15,2
 264              		.loc 1 62 57 view .LVU74
 265 0148 7E1F882E 		lwzx 16,31,17
 266              		.loc 1 60 55 view .LVU75
 267 014c 7E28BA14 		add 17,8,23
 268              		.loc 1 60 109 view .LVU76
 269 0150 558C103A 		slwi 12,12,2
 270              		.loc 1 60 55 view .LVU77
 271 0154 5631103A 		slwi 17,17,2
 272              		.loc 1 62 65 view .LVU78
 273 0158 51D0E73E 		rlwimi 16,14,28,28,31
 274              		.loc 1 61 109 view .LVU79
 275 015c 7DC3BA14 		add 14,3,23
 276              		.loc 1 62 12 view .LVU80
 277 0160 9A090002 		stb 16,2(9)
 278              		.loc 1 63 5 is_stmt 1 view .LVU81
 279              	.LVL17:
 280              		.loc 1 61 55 is_stmt 0 view .LVU82
 281 0164 7E04BA14 		add 16,4,23
 282              		.loc 1 61 109 view .LVU83
 283 0168 55CE103A 		slwi 14,14,2
 284              		.loc 1 61 55 view .LVU84
 285 016c 5610103A 		slwi 16,16,2
 286              		.loc 1 63 119 view .LVU85
 287 0170 7D5F782E 		lwzx 10,31,15
 288              		.loc 1 62 55 view .LVU86
 289 0174 7DE5BA14 		add 15,5,23
 290              		.loc 1 63 57 view .LVU87
 291 0178 7E5F902E 		lwzx 18,31,18
 292              		.loc 1 62 55 view .LVU88
 293 017c 55EF103A 		slwi 15,15,2
 294              		.loc 1 63 9 view .LVU89
 295 0180 39290020 		addi 9,9,32
 296              	.LVL18:
 297              		.loc 1 63 65 view .LVU90
 298 0184 5152E73E 		rlwimi 18,10,28,28,31
 299              		.loc 1 63 12 view .LVU91
 300 0188 9A49FFE3 		stb 18,-29(9)
 301              		.loc 1 59 4 is_stmt 1 discriminator 3 view .LVU92
 302              	.LVL19:
 303              		.loc 1 59 32 discriminator 1 view .LVU93
 304              		.loc 1 60 5 view .LVU94
 305              		.loc 1 62 100 is_stmt 0 view .LVU95
 306 018c 7E47BA14 		add 18,7,23
 307              		.loc 1 62 109 view .LVU96
 308 0190 5652103A 		slwi 18,18,2
 309              		.loc 1 60 119 view .LVU97
 310 0194 7D5F602E 		lwzx 10,31,12
 311              		.loc 1 60 57 view .LVU98
 312 0198 7D9F882E 		lwzx 12,31,17
 313              		.loc 1 63 109 view .LVU99
 314 019c 7E26BA14 		add 17,6,23
 315 01a0 5631103A 		slwi 17,17,2
 316              		.loc 1 60 65 view .LVU100
 317 01a4 514CE73E 		rlwimi 12,10,28,28,31
 318              		.loc 1 60 12 view .LVU101
 319 01a8 9989FFE4 		stb 12,-28(9)
 320              		.loc 1 61 5 is_stmt 1 view .LVU102
 321              	.LVL20:
 322              		.loc 1 60 109 is_stmt 0 view .LVU103
 323 01ac 7D8BC214 		add 12,11,24
 324 01b0 558C103A 		slwi 12,12,2
 325              		.loc 1 61 119 view .LVU104
 326 01b4 7D5F702E 		lwzx 10,31,14
 327              		.loc 1 61 57 view .LVU105
 328 01b8 7DDF802E 		lwzx 14,31,16
 329              		.loc 1 60 55 view .LVU106
 330 01bc 7E08C214 		add 16,8,24
 331 01c0 5610103A 		slwi 16,16,2
 332              		.loc 1 61 65 view .LVU107
 333 01c4 514EE73E 		rlwimi 14,10,28,28,31
 334              		.loc 1 61 12 view .LVU108
 335 01c8 99C9FFE5 		stb 14,-27(9)
 336              		.loc 1 62 5 is_stmt 1 view .LVU109
 337              	.LVL21:
 338              		.loc 1 61 109 is_stmt 0 view .LVU110
 339 01cc 7DC3C214 		add 14,3,24
 340 01d0 55CE103A 		slwi 14,14,2
 341              		.loc 1 62 57 view .LVU111
 342 01d4 7D5F782E 		lwzx 10,31,15
 343              		.loc 1 62 119 view .LVU112
 344 01d8 7DFF902E 		lwzx 15,31,18
 345              		.loc 1 62 65 view .LVU113
 346 01dc 51EAE73E 		rlwimi 10,15,28,28,31
 347              		.loc 1 61 55 view .LVU114
 348 01e0 7DE4C214 		add 15,4,24
 349              		.loc 1 62 12 view .LVU115
 350 01e4 9949FFE6 		stb 10,-26(9)
 351              		.loc 1 63 5 is_stmt 1 view .LVU116
 352              	.LVL22:
 353              		.loc 1 61 55 is_stmt 0 view .LVU117
 354 01e8 55EF103A 		slwi 15,15,2
 355              		.loc 1 63 119 view .LVU118
 356 01ec 7D5F882E 		lwzx 10,31,17
 357              		.loc 1 62 55 view .LVU119
 358 01f0 7E25C214 		add 17,5,24
 359              		.loc 1 63 57 view .LVU120
 360 01f4 7E5F902E 		lwzx 18,31,18
 361              		.loc 1 62 55 view .LVU121
 362 01f8 5631103A 		slwi 17,17,2
 363              		.loc 1 63 65 view .LVU122
 364 01fc 5152E73E 		rlwimi 18,10,28,28,31
 365              		.loc 1 63 12 view .LVU123
 366 0200 9A49FFE7 		stb 18,-25(9)
 367              		.loc 1 59 4 is_stmt 1 discriminator 3 view .LVU124
 368              	.LVL23:
 369              		.loc 1 59 32 discriminator 1 view .LVU125
 370              		.loc 1 60 5 view .LVU126
 371              		.loc 1 62 100 is_stmt 0 view .LVU127
 372 0204 7E47C214 		add 18,7,24
 373              		.loc 1 62 109 view .LVU128
 374 0208 5652103A 		slwi 18,18,2
 375              		.loc 1 60 119 view .LVU129
 376 020c 7D5F602E 		lwzx 10,31,12
 377              		.loc 1 60 57 view .LVU130
 378 0210 7D9F802E 		lwzx 12,31,16
 379              		.loc 1 63 109 view .LVU131
 380 0214 7E06C214 		add 16,6,24
 381 0218 5610103A 		slwi 16,16,2
 382              		.loc 1 60 65 view .LVU132
 383 021c 514CE73E 		rlwimi 12,10,28,28,31
 384              		.loc 1 60 12 view .LVU133
 385 0220 9989FFE8 		stb 12,-24(9)
 386              		.loc 1 61 5 is_stmt 1 view .LVU134
 387              		.loc 1 60 109 is_stmt 0 view .LVU135
 388 0224 7D8BCA14 		add 12,11,25
 389 0228 558C103A 		slwi 12,12,2
 390              		.loc 1 61 119 view .LVU136
 391 022c 7D5F702E 		lwzx 10,31,14
 392              		.loc 1 61 57 view .LVU137
 393 0230 7DDF782E 		lwzx 14,31,15
 394              		.loc 1 60 55 view .LVU138
 395 0234 7DE8CA14 		add 15,8,25
 396 0238 55EF103A 		slwi 15,15,2
 397              		.loc 1 61 65 view .LVU139
 398 023c 514EE73E 		rlwimi 14,10,28,28,31
 399              		.loc 1 61 12 view .LVU140
 400 0240 99C9FFE9 		stb 14,-23(9)
 401              		.loc 1 62 5 is_stmt 1 view .LVU141
 402              		.loc 1 61 109 is_stmt 0 view .LVU142
 403 0244 7DC3CA14 		add 14,3,25
 404 0248 55CE103A 		slwi 14,14,2
 405              		.loc 1 62 57 view .LVU143
 406 024c 7D5F882E 		lwzx 10,31,17
 407              		.loc 1 62 119 view .LVU144
 408 0250 7E3F902E 		lwzx 17,31,18
 409              		.loc 1 62 65 view .LVU145
 410 0254 522AE73E 		rlwimi 10,17,28,28,31
 411              		.loc 1 61 55 view .LVU146
 412 0258 7E24CA14 		add 17,4,25
 413              		.loc 1 62 12 view .LVU147
 414 025c 9949FFEA 		stb 10,-22(9)
 415              		.loc 1 63 5 is_stmt 1 view .LVU148
 416              		.loc 1 61 55 is_stmt 0 view .LVU149
 417 0260 5631103A 		slwi 17,17,2
 418              		.loc 1 63 119 view .LVU150
 419 0264 7D5F802E 		lwzx 10,31,16
 420              		.loc 1 62 55 view .LVU151
 421 0268 7E05CA14 		add 16,5,25
 422              		.loc 1 63 57 view .LVU152
 423 026c 7E5F902E 		lwzx 18,31,18
 424              		.loc 1 62 55 view .LVU153
 425 0270 5610103A 		slwi 16,16,2
 426              		.loc 1 63 65 view .LVU154
 427 0274 5152E73E 		rlwimi 18,10,28,28,31
 428              		.loc 1 63 12 view .LVU155
 429 0278 9A49FFEB 		stb 18,-21(9)
 430              		.loc 1 59 4 is_stmt 1 discriminator 3 view .LVU156
 431              	.LVL24:
 432              		.loc 1 59 32 discriminator 1 view .LVU157
 433              		.loc 1 60 5 view .LVU158
 434              		.loc 1 62 100 is_stmt 0 view .LVU159
 435 027c 7E47CA14 		add 18,7,25
 436              		.loc 1 62 109 view .LVU160
 437 0280 5652103A 		slwi 18,18,2
 438              		.loc 1 60 119 view .LVU161
 439 0284 7D5F602E 		lwzx 10,31,12
 440              		.loc 1 60 57 view .LVU162
 441 0288 7D9F782E 		lwzx 12,31,15
 442              		.loc 1 63 109 view .LVU163
 443 028c 7DE6CA14 		add 15,6,25
 444 0290 55EF103A 		slwi 15,15,2
 445              		.loc 1 60 65 view .LVU164
 446 0294 514CE73E 		rlwimi 12,10,28,28,31
 447              		.loc 1 60 12 view .LVU165
 448 0298 9989FFEC 		stb 12,-20(9)
 449              		.loc 1 61 5 is_stmt 1 view .LVU166
 450              		.loc 1 60 109 is_stmt 0 view .LVU167
 451 029c 7D8BD214 		add 12,11,26
 452 02a0 558C103A 		slwi 12,12,2
 453              		.loc 1 61 119 view .LVU168
 454 02a4 7D5F702E 		lwzx 10,31,14
 455              		.loc 1 61 57 view .LVU169
 456 02a8 7DDF882E 		lwzx 14,31,17
 457              		.loc 1 60 55 view .LVU170
 458 02ac 7E28D214 		add 17,8,26
 459 02b0 5631103A 		slwi 17,17,2
 460              		.loc 1 61 65 view .LVU171
 461 02b4 514EE73E 		rlwimi 14,10,28,28,31
 462              		.loc 1 61 12 view .LVU172
 463 02b8 99C9FFED 		stb 14,-19(9)
 464              		.loc 1 62 5 is_stmt 1 view .LVU173
 465              		.loc 1 61 109 is_stmt 0 view .LVU174
 466 02bc 7DC3D214 		add 14,3,26
 467 02c0 55CE103A 		slwi 14,14,2
 468              		.loc 1 62 57 view .LVU175
 469 02c4 7D5F802E 		lwzx 10,31,16
 470              		.loc 1 62 119 view .LVU176
 471 02c8 7E1F902E 		lwzx 16,31,18
 472              		.loc 1 62 65 view .LVU177
 473 02cc 520AE73E 		rlwimi 10,16,28,28,31
 474              		.loc 1 61 55 view .LVU178
 475 02d0 7E04D214 		add 16,4,26
 476              		.loc 1 62 12 view .LVU179
 477 02d4 9949FFEE 		stb 10,-18(9)
 478              		.loc 1 63 5 is_stmt 1 view .LVU180
 479              		.loc 1 61 55 is_stmt 0 view .LVU181
 480 02d8 5610103A 		slwi 16,16,2
 481              		.loc 1 63 119 view .LVU182
 482 02dc 7D5F782E 		lwzx 10,31,15
 483              		.loc 1 62 55 view .LVU183
 484 02e0 7DE5D214 		add 15,5,26
 485              		.loc 1 63 57 view .LVU184
 486 02e4 7E5F902E 		lwzx 18,31,18
 487              		.loc 1 62 55 view .LVU185
 488 02e8 55EF103A 		slwi 15,15,2
 489              		.loc 1 63 65 view .LVU186
 490 02ec 5152E73E 		rlwimi 18,10,28,28,31
 491              		.loc 1 63 12 view .LVU187
 492 02f0 9A49FFEF 		stb 18,-17(9)
 493              		.loc 1 59 4 is_stmt 1 discriminator 3 view .LVU188
 494              	.LVL25:
 495              		.loc 1 59 32 discriminator 1 view .LVU189
 496              		.loc 1 60 5 view .LVU190
 497              		.loc 1 62 100 is_stmt 0 view .LVU191
 498 02f4 7E47D214 		add 18,7,26
 499              		.loc 1 62 109 view .LVU192
 500 02f8 5652103A 		slwi 18,18,2
 501              		.loc 1 60 119 view .LVU193
 502 02fc 7D5F602E 		lwzx 10,31,12
 503              		.loc 1 60 57 view .LVU194
 504 0300 7D9F882E 		lwzx 12,31,17
 505              		.loc 1 63 109 view .LVU195
 506 0304 7E26D214 		add 17,6,26
 507 0308 5631103A 		slwi 17,17,2
 508              		.loc 1 60 65 view .LVU196
 509 030c 514CE73E 		rlwimi 12,10,28,28,31
 510              		.loc 1 60 109 view .LVU197
 511 0310 7D4BDA14 		add 10,11,27
 512              		.loc 1 60 12 view .LVU198
 513 0314 9989FFF0 		stb 12,-16(9)
 514              		.loc 1 61 5 is_stmt 1 view .LVU199
 515              		.loc 1 60 55 is_stmt 0 view .LVU200
 516 0318 7D88DA14 		add 12,8,27
 517              		.loc 1 60 109 view .LVU201
 518 031c 554A103A 		slwi 10,10,2
 519              		.loc 1 60 55 view .LVU202
 520 0320 558C103A 		slwi 12,12,2
 521              		.loc 1 61 119 view .LVU203
 522 0324 7DDF702E 		lwzx 14,31,14
 523              		.loc 1 61 57 view .LVU204
 524 0328 7E1F802E 		lwzx 16,31,16
 525              		.loc 1 61 65 view .LVU205
 526 032c 51D0E73E 		rlwimi 16,14,28,28,31
 527              		.loc 1 61 12 view .LVU206
 528 0330 9A09FFF1 		stb 16,-15(9)
 529              		.loc 1 62 5 is_stmt 1 view .LVU207
 530              		.loc 1 61 109 is_stmt 0 view .LVU208
 531 0334 7E03DA14 		add 16,3,27
 532 0338 5610103A 		slwi 16,16,2
 533              		.loc 1 62 57 view .LVU209
 534 033c 7DDF782E 		lwzx 14,31,15
 535              		.loc 1 62 119 view .LVU210
 536 0340 7DFF902E 		lwzx 15,31,18
 537              		.loc 1 62 65 view .LVU211
 538 0344 51EEE73E 		rlwimi 14,15,28,28,31
 539              		.loc 1 62 12 view .LVU212
 540 0348 99C9FFF2 		stb 14,-14(9)
 541              		.loc 1 63 5 is_stmt 1 view .LVU213
 542              		.loc 1 61 55 is_stmt 0 view .LVU214
 543 034c 7DC4DA14 		add 14,4,27
 544 0350 55CE103A 		slwi 14,14,2
 545              		.loc 1 63 119 view .LVU215
 546 0354 7DFF882E 		lwzx 15,31,17
 547              		.loc 1 62 100 view .LVU216
 548 0358 7E27DA14 		add 17,7,27
 549              		.loc 1 63 57 view .LVU217
 550 035c 7E5F902E 		lwzx 18,31,18
 551              		.loc 1 62 109 view .LVU218
 552 0360 5631103A 		slwi 17,17,2
 553              		.loc 1 63 65 view .LVU219
 554 0364 51F2E73E 		rlwimi 18,15,28,28,31
 555              		.loc 1 62 55 view .LVU220
 556 0368 7DE5DA14 		add 15,5,27
 557              		.loc 1 63 12 view .LVU221
 558 036c 9A49FFF3 		stb 18,-13(9)
 559              		.loc 1 59 4 is_stmt 1 discriminator 3 view .LVU222
 560              	.LVL26:
 561              		.loc 1 59 32 discriminator 1 view .LVU223
 562              		.loc 1 60 5 view .LVU224
 563              		.loc 1 62 55 is_stmt 0 view .LVU225
 564 0370 55EF103A 		slwi 15,15,2
 565              		.loc 1 63 109 view .LVU226
 566 0374 7E46DA14 		add 18,6,27
 567              		.loc 1 60 119 view .LVU227
 568 0378 7D5F502E 		lwzx 10,31,10
 569              		.loc 1 63 109 view .LVU228
 570 037c 5652103A 		slwi 18,18,2
 571              		.loc 1 60 57 view .LVU229
 572 0380 7D9F602E 		lwzx 12,31,12
 573              		.loc 1 60 65 view .LVU230
 574 0384 514CE73E 		rlwimi 12,10,28,28,31
 575              		.loc 1 60 12 view .LVU231
 576 0388 9989FFF4 		stb 12,-12(9)
 577              		.loc 1 61 5 is_stmt 1 view .LVU232
 578              		.loc 1 60 109 is_stmt 0 view .LVU233
 579 038c 7D8BE214 		add 12,11,28
 580 0390 558C103A 		slwi 12,12,2
 581 0394 7D6BA214 		add 11,11,20
 582              		.loc 1 61 119 view .LVU234
 583 0398 7E1F802E 		lwzx 16,31,16
 584              		.loc 1 60 109 view .LVU235
 585 039c 556B103A 		slwi 11,11,2
 586              		.loc 1 61 57 view .LVU236
 587 03a0 7D5F702E 		lwzx 10,31,14
 588              		.loc 1 60 55 view .LVU237
 589 03a4 7DC8E214 		add 14,8,28
 590 03a8 55CE103A 		slwi 14,14,2
 591 03ac 7D08A214 		add 8,8,20
 592              		.loc 1 61 65 view .LVU238
 593 03b0 520AE73E 		rlwimi 10,16,28,28,31
 594              		.loc 1 60 55 view .LVU239
 595 03b4 5508103A 		slwi 8,8,2
 596              		.loc 1 61 12 view .LVU240
 597 03b8 9949FFF5 		stb 10,-11(9)
 598              		.loc 1 62 5 is_stmt 1 view .LVU241
 599              		.loc 1 62 119 is_stmt 0 view .LVU242
 600 03bc 7E1F882E 		lwzx 16,31,17
 601              		.loc 1 62 57 view .LVU243
 602 03c0 7D5F782E 		lwzx 10,31,15
 603              		.loc 1 61 109 view .LVU244
 604 03c4 7DE3E214 		add 15,3,28
 605 03c8 55EF103A 		slwi 15,15,2
 606 03cc 7C63A214 		add 3,3,20
 607              		.loc 1 62 65 view .LVU245
 608 03d0 520AE73E 		rlwimi 10,16,28,28,31
 609              		.loc 1 61 55 view .LVU246
 610 03d4 7E04E214 		add 16,4,28
 611              		.loc 1 62 12 view .LVU247
 612 03d8 9949FFF6 		stb 10,-10(9)
 613              		.loc 1 63 5 is_stmt 1 view .LVU248
 614              		.loc 1 61 55 is_stmt 0 view .LVU249
 615 03dc 5610103A 		slwi 16,16,2
 616 03e0 7C84A214 		add 4,4,20
 617              		.loc 1 61 109 view .LVU250
 618 03e4 5463103A 		slwi 3,3,2
 619              		.loc 1 63 57 view .LVU251
 620 03e8 7D5F882E 		lwzx 10,31,17
 621              		.loc 1 62 55 view .LVU252
 622 03ec 7E25E214 		add 17,5,28
 623              		.loc 1 63 119 view .LVU253
 624 03f0 7E5F902E 		lwzx 18,31,18
 625              		.loc 1 62 55 view .LVU254
 626 03f4 5631103A 		slwi 17,17,2
 627              		.loc 1 61 55 view .LVU255
 628 03f8 5484103A 		slwi 4,4,2
 629              		.loc 1 62 55 view .LVU256
 630 03fc 7CA5A214 		add 5,5,20
 631              		.loc 1 63 65 view .LVU257
 632 0400 524AE73E 		rlwimi 10,18,28,28,31
 633              		.loc 1 62 100 view .LVU258
 634 0404 7E47E214 		add 18,7,28
 635              		.loc 1 63 12 view .LVU259
 636 0408 9949FFF7 		stb 10,-9(9)
 637              		.loc 1 59 4 is_stmt 1 discriminator 3 view .LVU260
 638              	.LVL27:
 639              		.loc 1 59 32 discriminator 1 view .LVU261
 640              		.loc 1 60 5 view .LVU262
 641              		.loc 1 62 109 is_stmt 0 view .LVU263
 642 040c 5652103A 		slwi 18,18,2
 643              		.loc 1 62 100 view .LVU264
 644 0410 7CE7A214 		add 7,7,20
 645              		.loc 1 62 55 view .LVU265
 646 0414 54A5103A 		slwi 5,5,2
 647              		.loc 1 60 119 view .LVU266
 648 0418 7D9F602E 		lwzx 12,31,12
 649              		.loc 1 62 109 view .LVU267
 650 041c 54E7103A 		slwi 7,7,2
 651              		.loc 1 60 57 view .LVU268
 652 0420 7D5F702E 		lwzx 10,31,14
 653              		.loc 1 63 109 view .LVU269
 654 0424 7DC6E214 		add 14,6,28
 655 0428 55CE103A 		slwi 14,14,2
 656 042c 7CC6A214 		add 6,6,20
 657              		.loc 1 60 65 view .LVU270
 658 0430 518AE73E 		rlwimi 10,12,28,28,31
 659              	.LBE52:
 660              		.loc 1 58 25 discriminator 1 view .LVU271
 661 0434 566C043E 		rlwinm 12,19,0,0xffff
 662              	.LBB53:
 663              		.loc 1 60 12 view .LVU272
 664 0438 9949FFF8 		stb 10,-8(9)
 665              		.loc 1 61 5 is_stmt 1 view .LVU273
 666              		.loc 1 63 109 is_stmt 0 view .LVU274
 667 043c 54C6103A 		slwi 6,6,2
 668              	.LBE53:
 669              		.loc 1 58 25 discriminator 1 view .LVU275
 670 0440 7C0CB040 		cmplw 0,12,22
 671              	.LBB54:
 672              		.loc 1 61 119 view .LVU276
 673 0444 7DFF782E 		lwzx 15,31,15
 674              		.loc 1 61 57 view .LVU277
 675 0448 7E1F802E 		lwzx 16,31,16
 676              		.loc 1 61 65 view .LVU278
 677 044c 51F0E73E 		rlwimi 16,15,28,28,31
 678              		.loc 1 61 12 view .LVU279
 679 0450 9A09FFF9 		stb 16,-7(9)
 680              		.loc 1 62 5 is_stmt 1 view .LVU280
 681              		.loc 1 62 119 is_stmt 0 view .LVU281
 682 0454 7E1F902E 		lwzx 16,31,18
 683              		.loc 1 62 57 view .LVU282
 684 0458 7E3F882E 		lwzx 17,31,17
 685              		.loc 1 62 65 view .LVU283
 686 045c 5211E73E 		rlwimi 17,16,28,28,31
 687              		.loc 1 62 12 view .LVU284
 688 0460 9A29FFFA 		stb 17,-6(9)
 689              		.loc 1 63 5 is_stmt 1 view .LVU285
 690              		.loc 1 63 57 is_stmt 0 view .LVU286
 691 0464 7E5F902E 		lwzx 18,31,18
 692              		.loc 1 63 119 view .LVU287
 693 0468 7E3F702E 		lwzx 17,31,14
 694              		.loc 1 63 65 view .LVU288
 695 046c 5232E73E 		rlwimi 18,17,28,28,31
 696              		.loc 1 63 12 view .LVU289
 697 0470 9A49FFFB 		stb 18,-5(9)
 698              		.loc 1 59 4 is_stmt 1 discriminator 3 view .LVU290
 699              	.LVL28:
 700              		.loc 1 59 32 discriminator 1 view .LVU291
 701              		.loc 1 60 5 view .LVU292
 702              		.loc 1 60 119 is_stmt 0 view .LVU293
 703 0474 7D7F582E 		lwzx 11,31,11
 704              		.loc 1 60 57 view .LVU294
 705 0478 7D1F402E 		lwzx 8,31,8
 706              		.loc 1 60 65 view .LVU295
 707 047c 5168E73E 		rlwimi 8,11,28,28,31
 708              		.loc 1 60 12 view .LVU296
 709 0480 9909FFFC 		stb 8,-4(9)
 710              		.loc 1 61 5 is_stmt 1 view .LVU297
 711              		.loc 1 61 119 is_stmt 0 view .LVU298
 712 0484 7C7F182E 		lwzx 3,31,3
 713              		.loc 1 61 57 view .LVU299
 714 0488 7D1F202E 		lwzx 8,31,4
 715              		.loc 1 61 65 view .LVU300
 716 048c 5068E73E 		rlwimi 8,3,28,28,31
 717              		.loc 1 61 12 view .LVU301
 718 0490 9909FFFD 		stb 8,-3(9)
 719              		.loc 1 62 5 is_stmt 1 view .LVU302
 720              		.loc 1 62 57 is_stmt 0 view .LVU303
 721 0494 7D1F282E 		lwzx 8,31,5
 722              		.loc 1 62 119 view .LVU304
 723 0498 7CBF382E 		lwzx 5,31,7
 724              		.loc 1 62 65 view .LVU305
 725 049c 50A8E73E 		rlwimi 8,5,28,28,31
 726              		.loc 1 62 12 view .LVU306
 727 04a0 9909FFFE 		stb 8,-2(9)
 728              		.loc 1 63 5 is_stmt 1 view .LVU307
 729              	.LVL29:
 730              		.loc 1 63 119 is_stmt 0 view .LVU308
 731 04a4 7CDF302E 		lwzx 6,31,6
 732              		.loc 1 63 57 view .LVU309
 733 04a8 7D1F382E 		lwzx 8,31,7
 734              		.loc 1 63 65 view .LVU310
 735 04ac 50C8E73E 		rlwimi 8,6,28,28,31
 736              		.loc 1 63 12 view .LVU311
 737 04b0 9909FFFF 		stb 8,-1(9)
 738              		.loc 1 59 4 is_stmt 1 discriminator 3 view .LVU312
 739              	.LVL30:
 740              		.loc 1 59 32 discriminator 1 view .LVU313
 741              	.LBE54:
 742              		.loc 1 58 3 discriminator 2 view .LVU314
 743              		.loc 1 58 25 discriminator 1 view .LVU315
 744 04b4 4180FC14 		blt+ 0,.L8
 745              	.LBE49:
 746              		.loc 1 57 42 is_stmt 0 discriminator 2 view .LVU316
 747 04b8 7D4802A6 		mflr 10
 748              		.loc 1 57 2 is_stmt 1 discriminator 2 view .LVU317
 749              		.loc 1 57 42 is_stmt 0 discriminator 2 view .LVU318
 750 04bc 394A0008 		addi 10,10,8
 751              		.loc 1 57 24 discriminator 1 view .LVU319
 752 04c0 5548043E 		rlwinm 8,10,0,0xffff
 753              	.LVL31:
 754              		.loc 1 57 24 is_stmt 1 discriminator 1 view .LVU320
 755 04c4 7C08A840 		cmplw 0,8,21
 756 04c8 4180FBD4 		blt+ 0,.L7
 757 04cc 81C10008 		lwz 14,8(1)
 758              		.cfi_restore 14
 759 04d0 81E1000C 		lwz 15,12(1)
 760              		.cfi_restore 15
 761 04d4 82010010 		lwz 16,16(1)
 762              		.cfi_restore 16
 763 04d8 82210014 		lwz 17,20(1)
 764              		.cfi_restore 17
 765 04dc 82410018 		lwz 18,24(1)
 766              		.cfi_restore 18
 767 04e0 8261001C 		lwz 19,28(1)
 768              		.cfi_restore 19
 769              	.LVL32:
 770              		.loc 1 57 24 is_stmt 0 discriminator 1 view .LVU321
 771 04e4 82810020 		lwz 20,32(1)
 772              		.cfi_restore 20
 773 04e8 82E1002C 		lwz 23,44(1)
 774              		.cfi_restore 23
 775 04ec 83010030 		lwz 24,48(1)
 776              		.cfi_restore 24
 777 04f0 83210034 		lwz 25,52(1)
 778              		.cfi_restore 25
 779 04f4 83410038 		lwz 26,56(1)
 780              		.cfi_restore 26
 781 04f8 8361003C 		lwz 27,60(1)
 782              		.cfi_restore 27
 783 04fc 83810040 		lwz 28,64(1)
 784              		.cfi_restore 28
 785              	.LVL33:
 786              	.L6:
 787              		.loc 1 57 24 discriminator 1 view .LVU322
 788              	.LBE55:
 789              		.loc 1 67 2 is_stmt 1 view .LVU323
 790              		.loc 1 67 14 is_stmt 0 view .LVU324
 791 0500 7FC3F378 		mr 3,30
 792 0504 7FA4EB78 		mr 4,29
 793 0508 48000001 		bl DCFlushRange
 794              	.LVL34:
 795              		.loc 1 69 2 is_stmt 1 view .LVU325
 796              		.loc 1 70 1 is_stmt 0 view .LVU326
 797 050c 80010054 		lwz 0,84(1)
 798 0510 7FC3F378 		mr 3,30
 799 0514 82A10024 		lwz 21,36(1)
 800              	.LVL35:
 801              		.loc 1 70 1 view .LVU327
 802 0518 82C10028 		lwz 22,40(1)
 803              	.LVL36:
 804              		.loc 1 70 1 view .LVU328
 805 051c 7C0803A6 		mtlr 0
 806              		.cfi_restore 65
 807 0520 83A10044 		lwz 29,68(1)
 808              	.LVL37:
 809              		.loc 1 70 1 view .LVU329
 810 0524 83C10048 		lwz 30,72(1)
 811              	.LVL38:
 812              		.loc 1 70 1 view .LVU330
 813 0528 83E1004C 		lwz 31,76(1)
 814              	.LVL39:
 815              		.loc 1 70 1 view .LVU331
 816 052c 38210050 		addi 1,1,80
 817              		.cfi_restore 31
 818              		.cfi_restore 30
 819              		.cfi_restore 29
 820              		.cfi_restore 22
 821              		.cfi_restore 21
 822              		.cfi_def_cfa_offset 0
 823 0530 4E800020 		blr
 824              		.cfi_endproc
 825              	.LFE68:
 826              		.size	_ZN11Metaphrasis17convertBufferToI4EPjtt, .-_ZN11Metaphrasis17convertBufferToI4EPjtt
 827              		.section	.text._ZN11Metaphrasis17convertBufferToI8EPjtt,"ax",@progbits
 828              		.align 2
 829              		.globl _ZN11Metaphrasis17convertBufferToI8EPjtt
 830              		.type	_ZN11Metaphrasis17convertBufferToI8EPjtt, @function
 831              	_ZN11Metaphrasis17convertBufferToI8EPjtt:
 832              	.LVL40:
 833              	.LFB69:
 834              		.loc 1 83 109 is_stmt 1 view -0
 835              		.cfi_startproc
 836              		.loc 1 84 2 view .LVU333
 837              		.loc 1 83 109 is_stmt 0 view .LVU334
 838 0000 9421FFB0 		stwu 1,-80(1)
 839              		.cfi_def_cfa_offset 80
 840 0004 7C0802A6 		mflr 0
 841 0008 93A10044 		stw 29,68(1)
 842              		.cfi_register 65, 0
 843              		.cfi_offset 29, -12
 844              		.loc 1 84 36 view .LVU335
 845 000c 7FA521D6 		mullw 29,5,4
 846              	.LVL41:
 847              		.loc 1 85 2 is_stmt 1 view .LVU336
 848              		.loc 1 83 109 is_stmt 0 view .LVU337
 849 0010 92A10024 		stw 21,36(1)
 850              		.cfi_offset 21, -44
 851 0014 7C952378 		mr 21,4
 852 0018 93E1004C 		stw 31,76(1)
 853              		.cfi_offset 31, -4
 854 001c 7C7F1B78 		mr 31,3
 855              		.loc 1 85 47 view .LVU338
 856 0020 38600020 		li 3,32
 857              	.LVL42:
 858              		.loc 1 83 109 view .LVU339
 859 0024 90010054 		stw 0,84(1)
 860              		.loc 1 85 47 view .LVU340
 861 0028 7FA4EB78 		mr 4,29
 862              	.LVL43:
 863              		.loc 1 83 109 view .LVU341
 864 002c 92810020 		stw 20,32(1)
 865 0030 93C10048 		stw 30,72(1)
 866              		.cfi_offset 65, 4
 867              		.cfi_offset 20, -48
 868              		.cfi_offset 30, -8
 869 0034 7CB42B78 		mr 20,5
 870              		.loc 1 85 47 view .LVU342
 871 0038 48000001 		bl memalign
 872              	.LVL44:
 873              		.loc 1 86 8 view .LVU343
 874 003c 7FA5EB78 		mr 5,29
 875 0040 38800000 		li 4,0
 876              		.loc 1 85 47 view .LVU344
 877 0044 7C7E1B78 		mr 30,3
 878              	.LVL45:
 879              		.loc 1 86 2 is_stmt 1 view .LVU345
 880              		.loc 1 86 8 is_stmt 0 view .LVU346
 881 0048 48000001 		bl memset
 882              	.LVL46:
 883              		.loc 1 88 2 is_stmt 1 view .LVU347
 884              		.loc 1 89 2 view .LVU348
 885              		.loc 1 91 2 view .LVU349
 886              	.LBB56:
 887              		.loc 1 91 24 discriminator 1 view .LVU350
 888 004c 2C140000 		cmpwi 0,20,0
 889 0050 418202E0 		beq- 0,.L21
 890 0054 2C150000 		cmpwi 0,21,0
 891              	.LBE56:
 892              		.loc 1 89 11 is_stmt 0 view .LVU351
 893 0058 7FC9F378 		mr 9,30
 894              	.LBB62:
 895              		.loc 1 91 15 view .LVU352
 896 005c 39400000 		li 10,0
 897 0060 418202D0 		beq- 0,.L21
 898 0064 91C10008 		stw 14,8(1)
 899              		.cfi_offset 14, -72
 900 0068 91E1000C 		stw 15,12(1)
 901              		.cfi_offset 15, -68
 902 006c 92010010 		stw 16,16(1)
 903              		.cfi_offset 16, -64
 904 0070 92210014 		stw 17,20(1)
 905              		.cfi_offset 17, -60
 906 0074 92410018 		stw 18,24(1)
 907              		.cfi_offset 18, -56
 908 0078 9261001C 		stw 19,28(1)
 909              		.cfi_offset 19, -52
 910 007c 92C10028 		stw 22,40(1)
 911              		.cfi_offset 22, -40
 912 0080 92E1002C 		stw 23,44(1)
 913              		.cfi_offset 23, -36
 914 0084 93010030 		stw 24,48(1)
 915              		.cfi_offset 24, -32
 916 0088 93210034 		stw 25,52(1)
 917              		.cfi_offset 25, -28
 918 008c 93410038 		stw 26,56(1)
 919              		.cfi_offset 26, -24
 920 0090 9361003C 		stw 27,60(1)
 921              		.cfi_offset 27, -20
 922 0094 93810040 		stw 28,64(1)
 923              		.cfi_offset 28, -16
 924              	.LVL47:
 925              	.L22:
 926              	.LBB57:
 927              		.loc 1 92 25 is_stmt 1 discriminator 1 view .LVU353
 928              	.LBB58:
 929              		.loc 1 94 20 is_stmt 0 view .LVU354
 930 0098 555C043E 		rlwinm 28,10,0,0xffff
 931 009c 7D4903A6 		mtctr 10
 932              		.loc 1 94 30 view .LVU355
 933 00a0 7F9CA9D6 		mullw 28,28,21
 934              	.LBE58:
 935              		.loc 1 92 16 view .LVU356
 936 00a4 3B000000 		li 24,0
 937              	.LBB59:
 938              		.loc 1 94 30 view .LVU357
 939 00a8 7F55E214 		add 26,21,28
 940 00ac 7F75D214 		add 27,21,26
 941 00b0 7F35DA14 		add 25,21,27
 942              	.LVL48:
 943              	.L23:
 944              		.loc 1 93 32 is_stmt 1 discriminator 1 view .LVU358
 945              		.loc 1 94 5 view .LVU359
 946              		.loc 1 94 48 is_stmt 0 view .LVU360
 947 00b4 5708043E 		rlwinm 8,24,0,0xffff
 948              	.LVL49:
 949              		.loc 1 94 48 view .LVU361
 950              	.LBE59:
 951              		.loc 1 92 42 discriminator 2 view .LVU362
 952 00b8 3B180008 		addi 24,24,8
 953              	.LVL50:
 954              	.LBB60:
 955              		.loc 1 94 54 view .LVU363
 956 00bc 7CFC4214 		add 7,28,8
 957              		.loc 1 95 50 view .LVU364
 958 00c0 38080001 		addi 0,8,1
 959              		.loc 1 94 54 view .LVU365
 960 00c4 54E7103A 		slwi 7,7,2
 961              		.loc 1 95 54 view .LVU366
 962 00c8 7CDC0214 		add 6,28,0
 963              		.loc 1 94 12 view .LVU367
 964 00cc 7CFF382E 		lwzx 7,31,7
 965              		.loc 1 95 54 view .LVU368
 966 00d0 54C6103A 		slwi 6,6,2
 967              		.loc 1 96 50 view .LVU369
 968 00d4 39680002 		addi 11,8,2
 969              		.loc 1 97 50 view .LVU370
 970 00d8 38680003 		addi 3,8,3
 971              		.loc 1 94 12 view .LVU371
 972 00dc 98E90000 		stb 7,0(9)
 973              		.loc 1 95 5 is_stmt 1 view .LVU372
 974              	.LVL51:
 975              		.loc 1 96 54 is_stmt 0 view .LVU373
 976 00e0 7CFC5A14 		add 7,28,11
 977 00e4 54E7103A 		slwi 7,7,2
 978              		.loc 1 97 54 view .LVU374
 979 00e8 7E5C1A14 		add 18,28,3
 980              		.loc 1 95 12 view .LVU375
 981 00ec 7CDF302E 		lwzx 6,31,6
 982              		.loc 1 97 54 view .LVU376
 983 00f0 5652103A 		slwi 18,18,2
 984              		.loc 1 98 50 view .LVU377
 985 00f4 38880004 		addi 4,8,4
 986              		.loc 1 99 50 view .LVU378
 987 00f8 38A80005 		addi 5,8,5
 988              		.loc 1 95 12 view .LVU379
 989 00fc 98C90001 		stb 6,1(9)
 990              		.loc 1 96 5 is_stmt 1 view .LVU380
 991              	.LVL52:
 992              		.loc 1 98 54 is_stmt 0 view .LVU381
 993 0100 7E7C2214 		add 19,28,4
 994 0104 5673103A 		slwi 19,19,2
 995              		.loc 1 99 54 view .LVU382
 996 0108 7EDC2A14 		add 22,28,5
 997              		.loc 1 96 12 view .LVU383
 998 010c 7EFF382E 		lwzx 23,31,7
 999              		.loc 1 99 54 view .LVU384
 1000 0110 56D6103A 		slwi 22,22,2
 1001              		.loc 1 100 50 view .LVU385
 1002 0114 38C80006 		addi 6,8,6
 1003              		.loc 1 101 50 view .LVU386
 1004 0118 38E80007 		addi 7,8,7
 1005              		.loc 1 96 12 view .LVU387
 1006 011c 9AE90002 		stb 23,2(9)
 1007              		.loc 1 97 5 is_stmt 1 view .LVU388
 1008              	.LVL53:
 1009              		.loc 1 100 54 is_stmt 0 view .LVU389
 1010 0120 7EFC3214 		add 23,28,6
 1011 0124 56F7103A 		slwi 23,23,2
 1012              		.loc 1 101 54 view .LVU390
 1013 0128 7D5C3A14 		add 10,28,7
 1014              		.loc 1 97 12 view .LVU391
 1015 012c 7E5F902E 		lwzx 18,31,18
 1016              		.loc 1 101 54 view .LVU392
 1017 0130 554A103A 		slwi 10,10,2
 1018              		.loc 1 94 54 view .LVU393
 1019 0134 7D88D214 		add 12,8,26
 1020              		.loc 1 95 54 view .LVU394
 1021 0138 7DC0D214 		add 14,0,26
 1022              		.loc 1 97 12 view .LVU395
 1023 013c 9A490003 		stb 18,3(9)
 1024              		.loc 1 98 5 is_stmt 1 view .LVU396
 1025              	.LVL54:
 1026              		.loc 1 94 54 is_stmt 0 view .LVU397
 1027 0140 558C103A 		slwi 12,12,2
 1028              		.loc 1 95 54 view .LVU398
 1029 0144 55CE103A 		slwi 14,14,2
 1030              		.loc 1 96 54 view .LVU399
 1031 0148 7DEBD214 		add 15,11,26
 1032              		.loc 1 98 12 view .LVU400
 1033 014c 7E7F982E 		lwzx 19,31,19
 1034              		.loc 1 96 54 view .LVU401
 1035 0150 55EF103A 		slwi 15,15,2
 1036              		.loc 1 97 54 view .LVU402
 1037 0154 7E03D214 		add 16,3,26
 1038              		.loc 1 98 54 view .LVU403
 1039 0158 7E24D214 		add 17,4,26
 1040              		.loc 1 98 12 view .LVU404
 1041 015c 9A690004 		stb 19,4(9)
 1042              		.loc 1 99 5 is_stmt 1 view .LVU405
 1043              	.LVL55:
 1044              		.loc 1 97 54 is_stmt 0 view .LVU406
 1045 0160 5610103A 		slwi 16,16,2
 1046              		.loc 1 98 54 view .LVU407
 1047 0164 5631103A 		slwi 17,17,2
 1048              		.loc 1 99 54 view .LVU408
 1049 0168 7E45D214 		add 18,5,26
 1050              		.loc 1 99 12 view .LVU409
 1051 016c 7EDFB02E 		lwzx 22,31,22
 1052              		.loc 1 99 54 view .LVU410
 1053 0170 5652103A 		slwi 18,18,2
 1054              		.loc 1 100 54 view .LVU411
 1055 0174 7E66D214 		add 19,6,26
 1056              		.loc 1 101 9 view .LVU412
 1057 0178 39290020 		addi 9,9,32
 1058              	.LVL56:
 1059              		.loc 1 99 12 view .LVU413
 1060 017c 9AC9FFE5 		stb 22,-27(9)
 1061              		.loc 1 100 5 is_stmt 1 view .LVU414
 1062              	.LVL57:
 1063              		.loc 1 100 54 is_stmt 0 view .LVU415
 1064 0180 5673103A 		slwi 19,19,2
 1065              		.loc 1 101 54 view .LVU416
 1066 0184 7EC7D214 		add 22,7,26
 1067              		.loc 1 100 12 view .LVU417
 1068 0188 7EFFB82E 		lwzx 23,31,23
 1069              		.loc 1 101 54 view .LVU418
 1070 018c 56D6103A 		slwi 22,22,2
 1071              		.loc 1 100 12 view .LVU419
 1072 0190 9AE9FFE6 		stb 23,-26(9)
 1073              		.loc 1 101 5 is_stmt 1 view .LVU420
 1074              	.LVL58:
 1075              		.loc 1 94 54 is_stmt 0 view .LVU421
 1076 0194 7EE8DA14 		add 23,8,27
 1077 0198 56F7103A 		slwi 23,23,2
 1078 019c 7D08CA14 		add 8,8,25
 1079              		.loc 1 101 12 view .LVU422
 1080 01a0 7D5F502E 		lwzx 10,31,10
 1081              		.loc 1 94 54 view .LVU423
 1082 01a4 5508103A 		slwi 8,8,2
 1083              		.loc 1 101 12 view .LVU424
 1084 01a8 9949FFE7 		stb 10,-25(9)
 1085              		.loc 1 93 4 is_stmt 1 discriminator 3 view .LVU425
 1086              	.LVL59:
 1087              		.loc 1 93 32 discriminator 1 view .LVU426
 1088              		.loc 1 94 5 view .LVU427
 1089              		.loc 1 95 54 is_stmt 0 view .LVU428
 1090 01ac 7D40DA14 		add 10,0,27
 1091 01b0 554A103A 		slwi 10,10,2
 1092 01b4 7C00CA14 		add 0,0,25
 1093              		.loc 1 94 12 view .LVU429
 1094 01b8 7D9F602E 		lwzx 12,31,12
 1095              		.loc 1 95 54 view .LVU430
 1096 01bc 5400103A 		slwi 0,0,2
 1097              		.loc 1 94 12 view .LVU431
 1098 01c0 9989FFE8 		stb 12,-24(9)
 1099              		.loc 1 95 5 is_stmt 1 view .LVU432
 1100              		.loc 1 96 54 is_stmt 0 view .LVU433
 1101 01c4 7D8BDA14 		add 12,11,27
 1102 01c8 558C103A 		slwi 12,12,2
 1103 01cc 7D6BCA14 		add 11,11,25
 1104              		.loc 1 95 12 view .LVU434
 1105 01d0 7DDF702E 		lwzx 14,31,14
 1106              		.loc 1 96 54 view .LVU435
 1107 01d4 556B103A 		slwi 11,11,2
 1108              		.loc 1 95 12 view .LVU436
 1109 01d8 99C9FFE9 		stb 14,-23(9)
 1110              		.loc 1 96 5 is_stmt 1 view .LVU437
 1111              		.loc 1 97 54 is_stmt 0 view .LVU438
 1112 01dc 7DC3DA14 		add 14,3,27
 1113 01e0 55CE103A 		slwi 14,14,2
 1114 01e4 7C63CA14 		add 3,3,25
 1115              		.loc 1 96 12 view .LVU439
 1116 01e8 7DFF782E 		lwzx 15,31,15
 1117              		.loc 1 97 54 view .LVU440
 1118 01ec 5463103A 		slwi 3,3,2
 1119              		.loc 1 96 12 view .LVU441
 1120 01f0 99E9FFEA 		stb 15,-22(9)
 1121              		.loc 1 97 5 is_stmt 1 view .LVU442
 1122              		.loc 1 98 54 is_stmt 0 view .LVU443
 1123 01f4 7DE4DA14 		add 15,4,27
 1124 01f8 55EF103A 		slwi 15,15,2
 1125 01fc 7C84CA14 		add 4,4,25
 1126              		.loc 1 97 12 view .LVU444
 1127 0200 7E1F802E 		lwzx 16,31,16
 1128              		.loc 1 98 54 view .LVU445
 1129 0204 5484103A 		slwi 4,4,2
 1130              		.loc 1 97 12 view .LVU446
 1131 0208 9A09FFEB 		stb 16,-21(9)
 1132              		.loc 1 98 5 is_stmt 1 view .LVU447
 1133              		.loc 1 99 54 is_stmt 0 view .LVU448
 1134 020c 7E05DA14 		add 16,5,27
 1135 0210 5610103A 		slwi 16,16,2
 1136 0214 7CA5CA14 		add 5,5,25
 1137              		.loc 1 98 12 view .LVU449
 1138 0218 7E3F882E 		lwzx 17,31,17
 1139              		.loc 1 99 54 view .LVU450
 1140 021c 54A5103A 		slwi 5,5,2
 1141              		.loc 1 98 12 view .LVU451
 1142 0220 9A29FFEC 		stb 17,-20(9)
 1143              		.loc 1 99 5 is_stmt 1 view .LVU452
 1144              		.loc 1 100 54 is_stmt 0 view .LVU453
 1145 0224 7E26DA14 		add 17,6,27
 1146 0228 5631103A 		slwi 17,17,2
 1147 022c 7CC6CA14 		add 6,6,25
 1148              		.loc 1 99 12 view .LVU454
 1149 0230 7E5F902E 		lwzx 18,31,18
 1150              		.loc 1 100 54 view .LVU455
 1151 0234 54C6103A 		slwi 6,6,2
 1152              		.loc 1 99 12 view .LVU456
 1153 0238 9A49FFED 		stb 18,-19(9)
 1154              		.loc 1 100 5 is_stmt 1 view .LVU457
 1155              		.loc 1 101 54 is_stmt 0 view .LVU458
 1156 023c 7E47DA14 		add 18,7,27
 1157 0240 5652103A 		slwi 18,18,2
 1158 0244 7CE7CA14 		add 7,7,25
 1159              		.loc 1 100 12 view .LVU459
 1160 0248 7E7F982E 		lwzx 19,31,19
 1161              		.loc 1 101 54 view .LVU460
 1162 024c 54E7103A 		slwi 7,7,2
 1163              		.loc 1 100 12 view .LVU461
 1164 0250 9A69FFEE 		stb 19,-18(9)
 1165              		.loc 1 101 5 is_stmt 1 view .LVU462
 1166              		.loc 1 101 5 is_stmt 0 view .LVU463
 1167              	.LBE60:
 1168              		.loc 1 92 25 discriminator 1 view .LVU464
 1169 0254 5713043E 		rlwinm 19,24,0,0xffff
 1170 0258 7C13A840 		cmplw 0,19,21
 1171              	.LBB61:
 1172              		.loc 1 101 12 view .LVU465
 1173 025c 7EDFB02E 		lwzx 22,31,22
 1174 0260 9AC9FFEF 		stb 22,-17(9)
 1175              		.loc 1 93 4 is_stmt 1 discriminator 3 view .LVU466
 1176              	.LVL60:
 1177              		.loc 1 93 32 discriminator 1 view .LVU467
 1178              		.loc 1 94 5 view .LVU468
 1179              		.loc 1 94 12 is_stmt 0 view .LVU469
 1180 0264 7EFFB82E 		lwzx 23,31,23
 1181 0268 9AE9FFF0 		stb 23,-16(9)
 1182              		.loc 1 95 5 is_stmt 1 view .LVU470
 1183              		.loc 1 95 12 is_stmt 0 view .LVU471
 1184 026c 7EFF502E 		lwzx 23,31,10
 1185 0270 9AE9FFF1 		stb 23,-15(9)
 1186              		.loc 1 96 5 is_stmt 1 view .LVU472
 1187              		.loc 1 96 12 is_stmt 0 view .LVU473
 1188 0274 7EFF602E 		lwzx 23,31,12
 1189 0278 9AE9FFF2 		stb 23,-14(9)
 1190              		.loc 1 97 5 is_stmt 1 view .LVU474
 1191              		.loc 1 97 12 is_stmt 0 view .LVU475
 1192 027c 7EFF702E 		lwzx 23,31,14
 1193 0280 9AE9FFF3 		stb 23,-13(9)
 1194              		.loc 1 98 5 is_stmt 1 view .LVU476
 1195              		.loc 1 98 12 is_stmt 0 view .LVU477
 1196 0284 7EFF782E 		lwzx 23,31,15
 1197 0288 9AE9FFF4 		stb 23,-12(9)
 1198              		.loc 1 99 5 is_stmt 1 view .LVU478
 1199              		.loc 1 99 12 is_stmt 0 view .LVU479
 1200 028c 7EFF802E 		lwzx 23,31,16
 1201 0290 9AE9FFF5 		stb 23,-11(9)
 1202              		.loc 1 100 5 is_stmt 1 view .LVU480
 1203              		.loc 1 100 12 is_stmt 0 view .LVU481
 1204 0294 7EFF882E 		lwzx 23,31,17
 1205 0298 9AE9FFF6 		stb 23,-10(9)
 1206              		.loc 1 101 5 is_stmt 1 view .LVU482
 1207              		.loc 1 101 12 is_stmt 0 view .LVU483
 1208 029c 7EFF902E 		lwzx 23,31,18
 1209 02a0 9AE9FFF7 		stb 23,-9(9)
 1210              		.loc 1 93 4 is_stmt 1 discriminator 3 view .LVU484
 1211              	.LVL61:
 1212              		.loc 1 93 32 discriminator 1 view .LVU485
 1213              		.loc 1 94 5 view .LVU486
 1214              		.loc 1 94 12 is_stmt 0 view .LVU487
 1215 02a4 7D1F402E 		lwzx 8,31,8
 1216 02a8 9909FFF8 		stb 8,-8(9)
 1217              		.loc 1 95 5 is_stmt 1 view .LVU488
 1218              		.loc 1 95 12 is_stmt 0 view .LVU489
 1219 02ac 7D1F002E 		lwzx 8,31,0
 1220 02b0 9909FFF9 		stb 8,-7(9)
 1221              		.loc 1 96 5 is_stmt 1 view .LVU490
 1222              		.loc 1 96 12 is_stmt 0 view .LVU491
 1223 02b4 7D1F582E 		lwzx 8,31,11
 1224 02b8 9909FFFA 		stb 8,-6(9)
 1225              		.loc 1 97 5 is_stmt 1 view .LVU492
 1226              		.loc 1 97 12 is_stmt 0 view .LVU493
 1227 02bc 7D1F182E 		lwzx 8,31,3
 1228 02c0 9909FFFB 		stb 8,-5(9)
 1229              		.loc 1 98 5 is_stmt 1 view .LVU494
 1230              		.loc 1 98 12 is_stmt 0 view .LVU495
 1231 02c4 7D1F202E 		lwzx 8,31,4
 1232 02c8 9909FFFC 		stb 8,-4(9)
 1233              		.loc 1 99 5 is_stmt 1 view .LVU496
 1234              		.loc 1 99 12 is_stmt 0 view .LVU497
 1235 02cc 7D1F282E 		lwzx 8,31,5
 1236 02d0 9909FFFD 		stb 8,-3(9)
 1237              		.loc 1 100 5 is_stmt 1 view .LVU498
 1238              		.loc 1 100 12 is_stmt 0 view .LVU499
 1239 02d4 7D1F302E 		lwzx 8,31,6
 1240 02d8 9909FFFE 		stb 8,-2(9)
 1241              		.loc 1 101 5 is_stmt 1 view .LVU500
 1242              	.LVL62:
 1243              		.loc 1 101 12 is_stmt 0 view .LVU501
 1244 02dc 7D1F382E 		lwzx 8,31,7
 1245 02e0 9909FFFF 		stb 8,-1(9)
 1246              		.loc 1 93 4 is_stmt 1 discriminator 3 view .LVU502
 1247              	.LVL63:
 1248              		.loc 1 93 32 discriminator 1 view .LVU503
 1249              	.LBE61:
 1250              		.loc 1 92 3 discriminator 2 view .LVU504
 1251              		.loc 1 92 25 discriminator 1 view .LVU505
 1252 02e4 4180FDD0 		blt+ 0,.L23
 1253              	.LBE57:
 1254              		.loc 1 91 42 is_stmt 0 discriminator 2 view .LVU506
 1255 02e8 7D4902A6 		mfctr 10
 1256              		.loc 1 91 2 is_stmt 1 discriminator 2 view .LVU507
 1257              		.loc 1 91 42 is_stmt 0 discriminator 2 view .LVU508
 1258 02ec 394A0004 		addi 10,10,4
 1259              		.loc 1 91 24 discriminator 1 view .LVU509
 1260 02f0 5548043E 		rlwinm 8,10,0,0xffff
 1261              	.LVL64:
 1262              		.loc 1 91 24 is_stmt 1 discriminator 1 view .LVU510
 1263 02f4 7C08A040 		cmplw 0,8,20
 1264 02f8 4180FDA0 		blt+ 0,.L22
 1265 02fc 81C10008 		lwz 14,8(1)
 1266              		.cfi_restore 14
 1267 0300 81E1000C 		lwz 15,12(1)
 1268              		.cfi_restore 15
 1269 0304 82010010 		lwz 16,16(1)
 1270              		.cfi_restore 16
 1271 0308 82210014 		lwz 17,20(1)
 1272              		.cfi_restore 17
 1273 030c 82410018 		lwz 18,24(1)
 1274              		.cfi_restore 18
 1275 0310 8261001C 		lwz 19,28(1)
 1276              		.cfi_restore 19
 1277 0314 82C10028 		lwz 22,40(1)
 1278              		.cfi_restore 22
 1279 0318 82E1002C 		lwz 23,44(1)
 1280              		.cfi_restore 23
 1281 031c 83010030 		lwz 24,48(1)
 1282              		.cfi_restore 24
 1283              	.LVL65:
 1284              		.loc 1 91 24 is_stmt 0 discriminator 1 view .LVU511
 1285 0320 83210034 		lwz 25,52(1)
 1286              		.cfi_restore 25
 1287 0324 83410038 		lwz 26,56(1)
 1288              		.cfi_restore 26
 1289 0328 8361003C 		lwz 27,60(1)
 1290              		.cfi_restore 27
 1291 032c 83810040 		lwz 28,64(1)
 1292              		.cfi_restore 28
 1293              	.LVL66:
 1294              	.L21:
 1295              		.loc 1 91 24 discriminator 1 view .LVU512
 1296              	.LBE62:
 1297              		.loc 1 105 2 is_stmt 1 view .LVU513
 1298              		.loc 1 105 14 is_stmt 0 view .LVU514
 1299 0330 7FC3F378 		mr 3,30
 1300 0334 7FA4EB78 		mr 4,29
 1301 0338 48000001 		bl DCFlushRange
 1302              	.LVL67:
 1303              		.loc 1 107 2 is_stmt 1 view .LVU515
 1304              		.loc 1 108 1 is_stmt 0 view .LVU516
 1305 033c 80010054 		lwz 0,84(1)
 1306 0340 7FC3F378 		mr 3,30
 1307 0344 82810020 		lwz 20,32(1)
 1308              	.LVL68:
 1309              		.loc 1 108 1 view .LVU517
 1310 0348 82A10024 		lwz 21,36(1)
 1311              	.LVL69:
 1312              		.loc 1 108 1 view .LVU518
 1313 034c 7C0803A6 		mtlr 0
 1314              		.cfi_restore 65
 1315 0350 83A10044 		lwz 29,68(1)
 1316              	.LVL70:
 1317              		.loc 1 108 1 view .LVU519
 1318 0354 83C10048 		lwz 30,72(1)
 1319              	.LVL71:
 1320              		.loc 1 108 1 view .LVU520
 1321 0358 83E1004C 		lwz 31,76(1)
 1322              	.LVL72:
 1323              		.loc 1 108 1 view .LVU521
 1324 035c 38210050 		addi 1,1,80
 1325              		.cfi_restore 31
 1326              		.cfi_restore 30
 1327              		.cfi_restore 29
 1328              		.cfi_restore 21
 1329              		.cfi_restore 20
 1330              		.cfi_def_cfa_offset 0
 1331 0360 4E800020 		blr
 1332              		.cfi_endproc
 1333              	.LFE69:
 1334              		.size	_ZN11Metaphrasis17convertBufferToI8EPjtt, .-_ZN11Metaphrasis17convertBufferToI8EPjtt
 1335              		.section	.text._ZN11Metaphrasis16convertRGBAToIA4Ej,"ax",@progbits
 1336              		.align 2
 1337              		.globl _ZN11Metaphrasis16convertRGBAToIA4Ej
 1338              		.type	_ZN11Metaphrasis16convertRGBAToIA4Ej, @function
 1339              	_ZN11Metaphrasis16convertRGBAToIA4Ej:
 1340              	.LVL73:
 1341              	.LFB70:
 1342              		.loc 1 119 54 is_stmt 1 view -0
 1343              		.cfi_startproc
 1344              		.loc 1 120 2 view .LVU523
 1345              		.loc 1 122 2 view .LVU524
 1346              		.loc 1 123 2 view .LVU525
 1347              		.loc 1 125 2 view .LVU526
 1348              		.loc 1 125 16 is_stmt 0 view .LVU527
 1349 0000 5469E73E 		rlwinm 9,3,28,28,31
 1350              		.loc 1 125 20 view .LVU528
 1351 0004 5463C636 		rlwinm 3,3,24,24,27
 1352              	.LVL74:
 1353              		.loc 1 126 1 view .LVU529
 1354 0008 7C634B78 		or 3,3,9
 1355 000c 4E800020 		blr
 1356              		.cfi_endproc
 1357              	.LFE70:
 1358              		.size	_ZN11Metaphrasis16convertRGBAToIA4Ej, .-_ZN11Metaphrasis16convertRGBAToIA4Ej
 1359              		.section	.text._ZN11Metaphrasis18convertBufferToIA4EPjtt,"ax",@progbits
 1360              		.align 2
 1361              		.globl _ZN11Metaphrasis18convertBufferToIA4EPjtt
 1362              		.type	_ZN11Metaphrasis18convertBufferToIA4EPjtt, @function
 1363              	_ZN11Metaphrasis18convertBufferToIA4EPjtt:
 1364              	.LVL75:
 1365              	.LFB71:
 1366              		.loc 1 139 110 is_stmt 1 view -0
 1367              		.cfi_startproc
 1368              		.loc 1 140 2 view .LVU531
 1369              		.loc 1 139 110 is_stmt 0 view .LVU532
 1370 0000 9421FFB0 		stwu 1,-80(1)
 1371              		.cfi_def_cfa_offset 80
 1372 0004 7C0802A6 		mflr 0
 1373 0008 93A10044 		stw 29,68(1)
 1374              		.cfi_register 65, 0
 1375              		.cfi_offset 29, -12
 1376              		.loc 1 140 36 view .LVU533
 1377 000c 7FA521D6 		mullw 29,5,4
 1378              	.LVL76:
 1379              		.loc 1 141 2 is_stmt 1 view .LVU534
 1380              		.loc 1 139 110 is_stmt 0 view .LVU535
 1381 0010 92C10028 		stw 22,40(1)
 1382              		.cfi_offset 22, -40
 1383 0014 7C962378 		mr 22,4
 1384 0018 93E1004C 		stw 31,76(1)
 1385              		.cfi_offset 31, -4
 1386 001c 7C7F1B78 		mr 31,3
 1387              		.loc 1 141 48 view .LVU536
 1388 0020 38600020 		li 3,32
 1389              	.LVL77:
 1390              		.loc 1 139 110 view .LVU537
 1391 0024 90010054 		stw 0,84(1)
 1392              		.loc 1 141 48 view .LVU538
 1393 0028 7FA4EB78 		mr 4,29
 1394              	.LVL78:
 1395              		.loc 1 139 110 view .LVU539
 1396 002c 92A10024 		stw 21,36(1)
 1397 0030 93C10048 		stw 30,72(1)
 1398              		.cfi_offset 65, 4
 1399              		.cfi_offset 21, -44
 1400              		.cfi_offset 30, -8
 1401 0034 7CB52B78 		mr 21,5
 1402              		.loc 1 141 48 view .LVU540
 1403 0038 48000001 		bl memalign
 1404              	.LVL79:
 1405              		.loc 1 142 8 view .LVU541
 1406 003c 7FA5EB78 		mr 5,29
 1407 0040 38800000 		li 4,0
 1408              		.loc 1 141 48 view .LVU542
 1409 0044 7C7E1B78 		mr 30,3
 1410              	.LVL80:
 1411              		.loc 1 142 2 is_stmt 1 view .LVU543
 1412              		.loc 1 142 8 is_stmt 0 view .LVU544
 1413 0048 48000001 		bl memset
 1414              	.LVL81:
 1415              		.loc 1 144 2 is_stmt 1 view .LVU545
 1416              		.loc 1 145 2 view .LVU546
 1417              		.loc 1 147 2 view .LVU547
 1418              	.LBB63:
 1419              		.loc 1 147 24 discriminator 1 view .LVU548
 1420 004c 2C150000 		cmpwi 0,21,0
 1421 0050 41820460 		beq- 0,.L37
 1422 0054 2C160000 		cmpwi 0,22,0
 1423              	.LBE63:
 1424              		.loc 1 145 11 is_stmt 0 view .LVU549
 1425 0058 7FC9F378 		mr 9,30
 1426              	.LBB159:
 1427              		.loc 1 147 15 view .LVU550
 1428 005c 39400000 		li 10,0
 1429 0060 41820450 		beq- 0,.L37
 1430 0064 91C10008 		stw 14,8(1)
 1431              		.cfi_offset 14, -72
 1432 0068 91E1000C 		stw 15,12(1)
 1433              		.cfi_offset 15, -68
 1434 006c 92010010 		stw 16,16(1)
 1435              		.cfi_offset 16, -64
 1436 0070 92210014 		stw 17,20(1)
 1437              		.cfi_offset 17, -60
 1438 0074 92410018 		stw 18,24(1)
 1439              		.cfi_offset 18, -56
 1440 0078 9261001C 		stw 19,28(1)
 1441              		.cfi_offset 19, -52
 1442 007c 92810020 		stw 20,32(1)
 1443              		.cfi_offset 20, -48
 1444 0080 92E1002C 		stw 23,44(1)
 1445              		.cfi_offset 23, -36
 1446 0084 93010030 		stw 24,48(1)
 1447              		.cfi_offset 24, -32
 1448 0088 93210034 		stw 25,52(1)
 1449              		.cfi_offset 25, -28
 1450 008c 93410038 		stw 26,56(1)
 1451              		.cfi_offset 26, -24
 1452 0090 9361003C 		stw 27,60(1)
 1453              		.cfi_offset 27, -20
 1454 0094 93810040 		stw 28,64(1)
 1455              		.cfi_offset 28, -16
 1456              	.LVL82:
 1457              	.L38:
 1458              	.LBB64:
 1459              		.loc 1 148 25 is_stmt 1 discriminator 1 view .LVU551
 1460              	.LBB65:
 1461              		.loc 1 150 50 is_stmt 0 view .LVU552
 1462 0098 555C043E 		rlwinm 28,10,0,0xffff
 1463 009c 7D4903A6 		mtctr 10
 1464              		.loc 1 150 60 view .LVU553
 1465 00a0 7F9CB1D6 		mullw 28,28,22
 1466              	.LBE65:
 1467              		.loc 1 148 16 view .LVU554
 1468 00a4 3B000000 		li 24,0
 1469              	.LBB156:
 1470              		.loc 1 150 60 view .LVU555
 1471 00a8 7F56E214 		add 26,22,28
 1472 00ac 7F76D214 		add 27,22,26
 1473 00b0 7F36DA14 		add 25,22,27
 1474              	.LVL83:
 1475              	.L39:
 1476              		.loc 1 149 32 is_stmt 1 discriminator 1 view .LVU556
 1477              		.loc 1 150 5 view .LVU557
 1478              		.loc 1 150 78 is_stmt 0 view .LVU558
 1479 00b4 5708043E 		rlwinm 8,24,0,0xffff
 1480              	.LBE156:
 1481              		.loc 1 148 42 discriminator 2 view .LVU559
 1482 00b8 3B180008 		addi 24,24,8
 1483              	.LVL84:
 1484              	.LBB157:
 1485              		.loc 1 150 84 view .LVU560
 1486 00bc 7CFC4214 		add 7,28,8
 1487              		.loc 1 151 80 view .LVU561
 1488 00c0 38080001 		addi 0,8,1
 1489              		.loc 1 150 43 view .LVU562
 1490 00c4 54E7103A 		slwi 7,7,2
 1491              		.loc 1 151 84 view .LVU563
 1492 00c8 7CDC0214 		add 6,28,0
 1493              		.loc 1 150 43 view .LVU564
 1494 00cc 7CFF382E 		lwzx 7,31,7
 1495              	.LVL85:
 1496              	.LBB66:
 1497              	.LBI66:
 1498              		.loc 1 119 9 is_stmt 1 view .LVU565
 1499              	.LBB67:
 1500              		.loc 1 120 2 view .LVU566
 1501              		.loc 1 122 2 view .LVU567
 1502              		.loc 1 123 2 view .LVU568
 1503              		.loc 1 125 2 view .LVU569
 1504              		.loc 1 125 2 is_stmt 0 view .LVU570
 1505              	.LBE67:
 1506              	.LBE66:
 1507              		.loc 1 151 43 view .LVU571
 1508 00d0 54C6103A 		slwi 6,6,2
 1509              		.loc 1 152 80 view .LVU572
 1510 00d4 39680002 		addi 11,8,2
 1511              		.loc 1 153 80 view .LVU573
 1512 00d8 38680003 		addi 3,8,3
 1513              	.LBB73:
 1514              	.LBB68:
 1515              		.loc 1 122 4 view .LVU574
 1516 00dc 54E5C236 		rlwinm 5,7,24,8,27
 1517              		.loc 1 125 16 view .LVU575
 1518 00e0 54E7E73E 		rlwinm 7,7,28,28,31
 1519              		.loc 1 125 20 view .LVU576
 1520 00e4 7CA73B78 		or 7,5,7
 1521              	.LBE68:
 1522              	.LBE73:
 1523              		.loc 1 152 84 view .LVU577
 1524 00e8 7EFC5A14 		add 23,28,11
 1525              		.loc 1 150 12 discriminator 1 view .LVU578
 1526 00ec 98E90000 		stb 7,0(9)
 1527              		.loc 1 151 5 is_stmt 1 view .LVU579
 1528              		.loc 1 152 43 is_stmt 0 view .LVU580
 1529 00f0 56F7103A 		slwi 23,23,2
 1530              		.loc 1 153 84 view .LVU581
 1531 00f4 7E7C1A14 		add 19,28,3
 1532              		.loc 1 154 80 view .LVU582
 1533 00f8 38880004 		addi 4,8,4
 1534              		.loc 1 151 43 view .LVU583
 1535 00fc 7CFF302E 		lwzx 7,31,6
 1536              	.LVL86:
 1537              	.LBB74:
 1538              	.LBI74:
 1539              		.loc 1 119 9 is_stmt 1 view .LVU584
 1540              	.LBB75:
 1541              		.loc 1 120 2 view .LVU585
 1542              		.loc 1 122 2 view .LVU586
 1543              		.loc 1 123 2 view .LVU587
 1544              		.loc 1 125 2 view .LVU588
 1545              		.loc 1 125 2 is_stmt 0 view .LVU589
 1546              	.LBE75:
 1547              	.LBE74:
 1548              		.loc 1 153 43 view .LVU590
 1549 0100 5673103A 		slwi 19,19,2
 1550              		.loc 1 154 84 view .LVU591
 1551 0104 7E9C2214 		add 20,28,4
 1552              		.loc 1 155 80 view .LVU592
 1553 0108 38A80005 		addi 5,8,5
 1554              	.LBB81:
 1555              	.LBB76:
 1556              		.loc 1 122 4 view .LVU593
 1557 010c 54E6C236 		rlwinm 6,7,24,8,27
 1558              		.loc 1 125 16 view .LVU594
 1559 0110 54E7E73E 		rlwinm 7,7,28,28,31
 1560              		.loc 1 125 20 view .LVU595
 1561 0114 7CC73B78 		or 7,6,7
 1562              	.LBE76:
 1563              	.LBE81:
 1564              		.loc 1 154 43 view .LVU596
 1565 0118 5694103A 		slwi 20,20,2
 1566              		.loc 1 151 12 discriminator 1 view .LVU597
 1567 011c 98E90001 		stb 7,1(9)
 1568              		.loc 1 152 5 is_stmt 1 view .LVU598
 1569              		.loc 1 155 84 is_stmt 0 view .LVU599
 1570 0120 7E1C2A14 		add 16,28,5
 1571              		.loc 1 155 43 view .LVU600
 1572 0124 5610103A 		slwi 16,16,2
 1573              		.loc 1 156 80 view .LVU601
 1574 0128 38C80006 		addi 6,8,6
 1575              		.loc 1 152 43 view .LVU602
 1576 012c 7EFFB82E 		lwzx 23,31,23
 1577              	.LVL87:
 1578              	.LBB82:
 1579              	.LBI82:
 1580              		.loc 1 119 9 is_stmt 1 view .LVU603
 1581              	.LBB83:
 1582              		.loc 1 120 2 view .LVU604
 1583              		.loc 1 122 2 view .LVU605
 1584              		.loc 1 123 2 view .LVU606
 1585              		.loc 1 125 2 view .LVU607
 1586              		.loc 1 125 2 is_stmt 0 view .LVU608
 1587              	.LBE83:
 1588              	.LBE82:
 1589              		.loc 1 156 84 view .LVU609
 1590 0130 7DFC3214 		add 15,28,6
 1591              		.loc 1 156 43 view .LVU610
 1592 0134 55EF103A 		slwi 15,15,2
 1593              		.loc 1 157 80 view .LVU611
 1594 0138 38E80007 		addi 7,8,7
 1595              	.LBB89:
 1596              	.LBB84:
 1597              		.loc 1 122 4 view .LVU612
 1598 013c 56F2C236 		rlwinm 18,23,24,8,27
 1599              		.loc 1 125 16 view .LVU613
 1600 0140 56F7E73E 		rlwinm 23,23,28,28,31
 1601              		.loc 1 125 20 view .LVU614
 1602 0144 7E57BB78 		or 23,18,23
 1603              	.LBE84:
 1604              	.LBE89:
 1605              		.loc 1 157 84 view .LVU615
 1606 0148 7D5C3A14 		add 10,28,7
 1607              		.loc 1 152 12 discriminator 1 view .LVU616
 1608 014c 9AE90002 		stb 23,2(9)
 1609              		.loc 1 153 5 is_stmt 1 view .LVU617
 1610              		.loc 1 157 43 is_stmt 0 view .LVU618
 1611 0150 554A103A 		slwi 10,10,2
 1612              		.loc 1 150 84 view .LVU619
 1613 0154 7DC8D214 		add 14,8,26
 1614              		.loc 1 151 84 view .LVU620
 1615 0158 7E20D214 		add 17,0,26
 1616              		.loc 1 153 43 view .LVU621
 1617 015c 7EFF982E 		lwzx 23,31,19
 1618              	.LVL88:
 1619              	.LBB90:
 1620              	.LBI90:
 1621              		.loc 1 119 9 is_stmt 1 view .LVU622
 1622              	.LBB91:
 1623              		.loc 1 120 2 view .LVU623
 1624              		.loc 1 122 2 view .LVU624
 1625              		.loc 1 123 2 view .LVU625
 1626              		.loc 1 125 2 view .LVU626
 1627              		.loc 1 125 2 is_stmt 0 view .LVU627
 1628              	.LBE91:
 1629              	.LBE90:
 1630              		.loc 1 150 43 view .LVU628
 1631 0160 55CE103A 		slwi 14,14,2
 1632              		.loc 1 151 43 view .LVU629
 1633 0164 5631103A 		slwi 17,17,2
 1634              		.loc 1 152 84 view .LVU630
 1635 0168 7E4BD214 		add 18,11,26
 1636              	.LBB97:
 1637              	.LBB92:
 1638              		.loc 1 122 4 view .LVU631
 1639 016c 56F3C236 		rlwinm 19,23,24,8,27
 1640              		.loc 1 125 16 view .LVU632
 1641 0170 56F7E73E 		rlwinm 23,23,28,28,31
 1642              		.loc 1 125 20 view .LVU633
 1643 0174 7E77BB78 		or 23,19,23
 1644              	.LBE92:
 1645              	.LBE97:
 1646              		.loc 1 152 43 view .LVU634
 1647 0178 5652103A 		slwi 18,18,2
 1648              		.loc 1 153 12 discriminator 1 view .LVU635
 1649 017c 9AE90003 		stb 23,3(9)
 1650              		.loc 1 154 5 is_stmt 1 view .LVU636
 1651              		.loc 1 153 84 is_stmt 0 view .LVU637
 1652 0180 7E63D214 		add 19,3,26
 1653              		.loc 1 153 43 view .LVU638
 1654 0184 5673103A 		slwi 19,19,2
 1655              		.loc 1 157 9 discriminator 1 view .LVU639
 1656 0188 39290020 		addi 9,9,32
 1657              	.LVL89:
 1658              		.loc 1 154 43 view .LVU640
 1659 018c 7EFFA02E 		lwzx 23,31,20
 1660              	.LVL90:
 1661              	.LBB98:
 1662              	.LBI98:
 1663              		.loc 1 119 9 is_stmt 1 view .LVU641
 1664              	.LBB99:
 1665              		.loc 1 120 2 view .LVU642
 1666              		.loc 1 122 2 view .LVU643
 1667              		.loc 1 123 2 view .LVU644
 1668              		.loc 1 125 2 view .LVU645
 1669              		.loc 1 125 2 is_stmt 0 view .LVU646
 1670              	.LBE99:
 1671              	.LBE98:
 1672              		.loc 1 154 84 view .LVU647
 1673 0190 7E84D214 		add 20,4,26
 1674              		.loc 1 154 43 view .LVU648
 1675 0194 5694103A 		slwi 20,20,2
 1676              	.LBB105:
 1677              	.LBB100:
 1678              		.loc 1 122 4 view .LVU649
 1679 0198 56ECC236 		rlwinm 12,23,24,8,27
 1680              		.loc 1 125 16 view .LVU650
 1681 019c 56F7E73E 		rlwinm 23,23,28,28,31
 1682              		.loc 1 125 20 view .LVU651
 1683 01a0 7D97BB78 		or 23,12,23
 1684              	.LBE100:
 1685              	.LBE105:
 1686              		.loc 1 154 12 discriminator 1 view .LVU652
 1687 01a4 9AE9FFE4 		stb 23,-28(9)
 1688              		.loc 1 155 5 is_stmt 1 view .LVU653
 1689              		.loc 1 155 84 is_stmt 0 view .LVU654
 1690 01a8 7EE5D214 		add 23,5,26
 1691              		.loc 1 155 43 view .LVU655
 1692 01ac 56F7103A 		slwi 23,23,2
 1693 01b0 7E1F802E 		lwzx 16,31,16
 1694              	.LVL91:
 1695              	.LBB106:
 1696              	.LBI106:
 1697              		.loc 1 119 9 is_stmt 1 view .LVU656
 1698              	.LBB107:
 1699              		.loc 1 120 2 view .LVU657
 1700              		.loc 1 122 2 view .LVU658
 1701              		.loc 1 123 2 view .LVU659
 1702              		.loc 1 125 2 view .LVU660
 1703              		.loc 1 122 4 is_stmt 0 view .LVU661
 1704 01b4 560CC236 		rlwinm 12,16,24,8,27
 1705              		.loc 1 125 16 view .LVU662
 1706 01b8 5610E73E 		rlwinm 16,16,28,28,31
 1707              		.loc 1 125 20 view .LVU663
 1708 01bc 7D908378 		or 16,12,16
 1709              	.LBE107:
 1710              	.LBE106:
 1711              		.loc 1 156 84 view .LVU664
 1712 01c0 7D86D214 		add 12,6,26
 1713              		.loc 1 155 12 discriminator 1 view .LVU665
 1714 01c4 9A09FFE5 		stb 16,-27(9)
 1715              		.loc 1 156 5 is_stmt 1 view .LVU666
 1716              		.loc 1 156 43 is_stmt 0 view .LVU667
 1717 01c8 558C103A 		slwi 12,12,2
 1718 01cc 7E1F782E 		lwzx 16,31,15
 1719              	.LVL92:
 1720              	.LBB112:
 1721              	.LBI112:
 1722              		.loc 1 119 9 is_stmt 1 view .LVU668
 1723              	.LBB113:
 1724              		.loc 1 120 2 view .LVU669
 1725              		.loc 1 122 2 view .LVU670
 1726              		.loc 1 123 2 view .LVU671
 1727              		.loc 1 125 2 view .LVU672
 1728              		.loc 1 122 4 is_stmt 0 view .LVU673
 1729 01d0 560FC236 		rlwinm 15,16,24,8,27
 1730              		.loc 1 125 16 view .LVU674
 1731 01d4 5610E73E 		rlwinm 16,16,28,28,31
 1732              		.loc 1 125 20 view .LVU675
 1733 01d8 7DF08378 		or 16,15,16
 1734              	.LBE113:
 1735              	.LBE112:
 1736              		.loc 1 157 84 view .LVU676
 1737 01dc 7DE7D214 		add 15,7,26
 1738              		.loc 1 156 12 discriminator 1 view .LVU677
 1739 01e0 9A09FFE6 		stb 16,-26(9)
 1740              		.loc 1 157 5 is_stmt 1 view .LVU678
 1741              		.loc 1 157 43 is_stmt 0 view .LVU679
 1742 01e4 55EF103A 		slwi 15,15,2
 1743 01e8 7E1F502E 		lwzx 16,31,10
 1744              	.LVL93:
 1745              	.LBB118:
 1746              	.LBI118:
 1747              		.loc 1 119 9 is_stmt 1 view .LVU680
 1748              	.LBB119:
 1749              		.loc 1 120 2 view .LVU681
 1750              		.loc 1 122 2 view .LVU682
 1751              		.loc 1 123 2 view .LVU683
 1752              		.loc 1 125 2 view .LVU684
 1753              		.loc 1 122 4 is_stmt 0 view .LVU685
 1754 01ec 560AC236 		rlwinm 10,16,24,8,27
 1755              		.loc 1 125 16 view .LVU686
 1756 01f0 5610E73E 		rlwinm 16,16,28,28,31
 1757              		.loc 1 125 20 view .LVU687
 1758 01f4 7D508378 		or 16,10,16
 1759              	.LBE119:
 1760              	.LBE118:
 1761              		.loc 1 157 12 discriminator 1 view .LVU688
 1762 01f8 9A09FFE7 		stb 16,-25(9)
 1763              		.loc 1 149 4 is_stmt 1 discriminator 3 view .LVU689
 1764              	.LVL94:
 1765              		.loc 1 149 32 discriminator 1 view .LVU690
 1766              		.loc 1 150 5 view .LVU691
 1767              		.loc 1 150 84 is_stmt 0 view .LVU692
 1768 01fc 7E08DA14 		add 16,8,27
 1769              		.loc 1 150 43 view .LVU693
 1770 0200 5610103A 		slwi 16,16,2
 1771              		.loc 1 150 84 view .LVU694
 1772 0204 7D08CA14 		add 8,8,25
 1773              		.loc 1 150 43 view .LVU695
 1774 0208 7DDF702E 		lwzx 14,31,14
 1775              	.LVL95:
 1776              	.LBB124:
 1777              		.loc 1 119 9 is_stmt 1 view .LVU696
 1778              	.LBB69:
 1779              		.loc 1 120 2 view .LVU697
 1780              		.loc 1 122 2 view .LVU698
 1781              		.loc 1 123 2 view .LVU699
 1782              		.loc 1 125 2 view .LVU700
 1783              		.loc 1 125 2 is_stmt 0 view .LVU701
 1784              	.LBE69:
 1785              	.LBE124:
 1786              		.loc 1 150 43 view .LVU702
 1787 020c 5508103A 		slwi 8,8,2
 1788              	.LBB125:
 1789              	.LBB70:
 1790              		.loc 1 122 4 view .LVU703
 1791 0210 55CAC236 		rlwinm 10,14,24,8,27
 1792              		.loc 1 125 16 view .LVU704
 1793 0214 55CEE73E 		rlwinm 14,14,28,28,31
 1794              		.loc 1 125 20 view .LVU705
 1795 0218 7D4E7378 		or 14,10,14
 1796              	.LBE70:
 1797              	.LBE125:
 1798              		.loc 1 150 12 discriminator 1 view .LVU706
 1799 021c 99C9FFE8 		stb 14,-24(9)
 1800              		.loc 1 151 5 is_stmt 1 view .LVU707
 1801              		.loc 1 151 84 is_stmt 0 view .LVU708
 1802 0220 7DC0DA14 		add 14,0,27
 1803              		.loc 1 151 43 view .LVU709
 1804 0224 55CE103A 		slwi 14,14,2
 1805              		.loc 1 151 84 view .LVU710
 1806 0228 7C00CA14 		add 0,0,25
 1807              		.loc 1 151 43 view .LVU711
 1808 022c 7E3F882E 		lwzx 17,31,17
 1809              	.LVL96:
 1810              	.LBB126:
 1811              		.loc 1 119 9 is_stmt 1 view .LVU712
 1812              	.LBB77:
 1813              		.loc 1 120 2 view .LVU713
 1814              		.loc 1 122 2 view .LVU714
 1815              		.loc 1 123 2 view .LVU715
 1816              		.loc 1 125 2 view .LVU716
 1817              		.loc 1 125 2 is_stmt 0 view .LVU717
 1818              	.LBE77:
 1819              	.LBE126:
 1820              		.loc 1 151 43 view .LVU718
 1821 0230 5400103A 		slwi 0,0,2
 1822              	.LBB127:
 1823              	.LBB78:
 1824              		.loc 1 122 4 view .LVU719
 1825 0234 562AC236 		rlwinm 10,17,24,8,27
 1826              		.loc 1 125 16 view .LVU720
 1827 0238 5631E73E 		rlwinm 17,17,28,28,31
 1828              		.loc 1 125 20 view .LVU721
 1829 023c 7D518B78 		or 17,10,17
 1830              	.LBE78:
 1831              	.LBE127:
 1832              		.loc 1 151 12 discriminator 1 view .LVU722
 1833 0240 9A29FFE9 		stb 17,-23(9)
 1834              		.loc 1 152 5 is_stmt 1 view .LVU723
 1835              		.loc 1 152 84 is_stmt 0 view .LVU724
 1836 0244 7E2BDA14 		add 17,11,27
 1837              		.loc 1 152 43 view .LVU725
 1838 0248 5631103A 		slwi 17,17,2
 1839              		.loc 1 152 84 view .LVU726
 1840 024c 7D6BCA14 		add 11,11,25
 1841              		.loc 1 152 43 view .LVU727
 1842 0250 7E5F902E 		lwzx 18,31,18
 1843              	.LVL97:
 1844              	.LBB128:
 1845              		.loc 1 119 9 is_stmt 1 view .LVU728
 1846              	.LBB85:
 1847              		.loc 1 120 2 view .LVU729
 1848              		.loc 1 122 2 view .LVU730
 1849              		.loc 1 123 2 view .LVU731
 1850              		.loc 1 125 2 view .LVU732
 1851              		.loc 1 125 2 is_stmt 0 view .LVU733
 1852              	.LBE85:
 1853              	.LBE128:
 1854              		.loc 1 152 43 view .LVU734
 1855 0254 556B103A 		slwi 11,11,2
 1856              	.LBB129:
 1857              	.LBB86:
 1858              		.loc 1 122 4 view .LVU735
 1859 0258 564AC236 		rlwinm 10,18,24,8,27
 1860              		.loc 1 125 16 view .LVU736
 1861 025c 5652E73E 		rlwinm 18,18,28,28,31
 1862              		.loc 1 125 20 view .LVU737
 1863 0260 7D529378 		or 18,10,18
 1864              	.LBE86:
 1865              	.LBE129:
 1866              		.loc 1 152 12 discriminator 1 view .LVU738
 1867 0264 9A49FFEA 		stb 18,-22(9)
 1868              		.loc 1 153 5 is_stmt 1 view .LVU739
 1869              		.loc 1 153 84 is_stmt 0 view .LVU740
 1870 0268 7E43DA14 		add 18,3,27
 1871              		.loc 1 153 43 view .LVU741
 1872 026c 5652103A 		slwi 18,18,2
 1873              		.loc 1 153 84 view .LVU742
 1874 0270 7C63CA14 		add 3,3,25
 1875              		.loc 1 153 43 view .LVU743
 1876 0274 7E7F982E 		lwzx 19,31,19
 1877              	.LVL98:
 1878              	.LBB130:
 1879              		.loc 1 119 9 is_stmt 1 view .LVU744
 1880              	.LBB93:
 1881              		.loc 1 120 2 view .LVU745
 1882              		.loc 1 122 2 view .LVU746
 1883              		.loc 1 123 2 view .LVU747
 1884              		.loc 1 125 2 view .LVU748
 1885              		.loc 1 125 2 is_stmt 0 view .LVU749
 1886              	.LBE93:
 1887              	.LBE130:
 1888              		.loc 1 153 43 view .LVU750
 1889 0278 5463103A 		slwi 3,3,2
 1890              	.LBB131:
 1891              	.LBB94:
 1892              		.loc 1 122 4 view .LVU751
 1893 027c 566AC236 		rlwinm 10,19,24,8,27
 1894              		.loc 1 125 16 view .LVU752
 1895 0280 5673E73E 		rlwinm 19,19,28,28,31
 1896              		.loc 1 125 20 view .LVU753
 1897 0284 7D539B78 		or 19,10,19
 1898              	.LBE94:
 1899              	.LBE131:
 1900              		.loc 1 153 12 discriminator 1 view .LVU754
 1901 0288 9A69FFEB 		stb 19,-21(9)
 1902              		.loc 1 154 5 is_stmt 1 view .LVU755
 1903              		.loc 1 154 84 is_stmt 0 view .LVU756
 1904 028c 7E64DA14 		add 19,4,27
 1905              		.loc 1 154 43 view .LVU757
 1906 0290 5673103A 		slwi 19,19,2
 1907              		.loc 1 154 84 view .LVU758
 1908 0294 7C84CA14 		add 4,4,25
 1909              		.loc 1 154 43 view .LVU759
 1910 0298 7E9FA02E 		lwzx 20,31,20
 1911              	.LVL99:
 1912              	.LBB132:
 1913              		.loc 1 119 9 is_stmt 1 view .LVU760
 1914              	.LBB101:
 1915              		.loc 1 120 2 view .LVU761
 1916              		.loc 1 122 2 view .LVU762
 1917              		.loc 1 123 2 view .LVU763
 1918              		.loc 1 125 2 view .LVU764
 1919              		.loc 1 125 2 is_stmt 0 view .LVU765
 1920              	.LBE101:
 1921              	.LBE132:
 1922              		.loc 1 154 43 view .LVU766
 1923 029c 5484103A 		slwi 4,4,2
 1924              	.LBB133:
 1925              	.LBB102:
 1926              		.loc 1 122 4 view .LVU767
 1927 02a0 568AC236 		rlwinm 10,20,24,8,27
 1928              		.loc 1 125 16 view .LVU768
 1929 02a4 5694E73E 		rlwinm 20,20,28,28,31
 1930              		.loc 1 125 20 view .LVU769
 1931 02a8 7D54A378 		or 20,10,20
 1932              	.LBE102:
 1933              	.LBE133:
 1934              		.loc 1 154 12 discriminator 1 view .LVU770
 1935 02ac 9A89FFEC 		stb 20,-20(9)
 1936              		.loc 1 155 5 is_stmt 1 view .LVU771
 1937              		.loc 1 155 84 is_stmt 0 view .LVU772
 1938 02b0 7E85DA14 		add 20,5,27
 1939              		.loc 1 155 43 view .LVU773
 1940 02b4 5694103A 		slwi 20,20,2
 1941              		.loc 1 155 84 view .LVU774
 1942 02b8 7CA5CA14 		add 5,5,25
 1943              		.loc 1 155 43 view .LVU775
 1944 02bc 7EFFB82E 		lwzx 23,31,23
 1945              	.LVL100:
 1946              	.LBB134:
 1947              		.loc 1 119 9 is_stmt 1 view .LVU776
 1948              	.LBB108:
 1949              		.loc 1 120 2 view .LVU777
 1950              		.loc 1 122 2 view .LVU778
 1951              		.loc 1 123 2 view .LVU779
 1952              		.loc 1 125 2 view .LVU780
 1953              		.loc 1 125 2 is_stmt 0 view .LVU781
 1954              	.LBE108:
 1955              	.LBE134:
 1956              		.loc 1 155 43 view .LVU782
 1957 02c0 54A5103A 		slwi 5,5,2
 1958              	.LBB135:
 1959              	.LBB109:
 1960              		.loc 1 122 4 view .LVU783
 1961 02c4 56EAC236 		rlwinm 10,23,24,8,27
 1962              		.loc 1 125 16 view .LVU784
 1963 02c8 56F7E73E 		rlwinm 23,23,28,28,31
 1964              		.loc 1 125 20 view .LVU785
 1965 02cc 7D57BB78 		or 23,10,23
 1966              	.LBE109:
 1967              	.LBE135:
 1968              		.loc 1 155 12 discriminator 1 view .LVU786
 1969 02d0 9AE9FFED 		stb 23,-19(9)
 1970              		.loc 1 156 5 is_stmt 1 view .LVU787
 1971              		.loc 1 156 84 is_stmt 0 view .LVU788
 1972 02d4 7EE6DA14 		add 23,6,27
 1973              		.loc 1 156 43 view .LVU789
 1974 02d8 56F7103A 		slwi 23,23,2
 1975              		.loc 1 156 84 view .LVU790
 1976 02dc 7CC6CA14 		add 6,6,25
 1977              		.loc 1 156 43 view .LVU791
 1978 02e0 7D9F602E 		lwzx 12,31,12
 1979              	.LVL101:
 1980              	.LBB136:
 1981              		.loc 1 119 9 is_stmt 1 view .LVU792
 1982              	.LBB114:
 1983              		.loc 1 120 2 view .LVU793
 1984              		.loc 1 122 2 view .LVU794
 1985              		.loc 1 123 2 view .LVU795
 1986              		.loc 1 125 2 view .LVU796
 1987              		.loc 1 125 2 is_stmt 0 view .LVU797
 1988              	.LBE114:
 1989              	.LBE136:
 1990              		.loc 1 156 43 view .LVU798
 1991 02e4 54C6103A 		slwi 6,6,2
 1992              	.LBB137:
 1993              	.LBB115:
 1994              		.loc 1 122 4 view .LVU799
 1995 02e8 558AC236 		rlwinm 10,12,24,8,27
 1996              		.loc 1 125 16 view .LVU800
 1997 02ec 558CE73E 		rlwinm 12,12,28,28,31
 1998              		.loc 1 125 20 view .LVU801
 1999 02f0 7D4C6378 		or 12,10,12
 2000              	.LBE115:
 2001              	.LBE137:
 2002              		.loc 1 156 12 discriminator 1 view .LVU802
 2003 02f4 9989FFEE 		stb 12,-18(9)
 2004              		.loc 1 157 5 is_stmt 1 view .LVU803
 2005              		.loc 1 157 84 is_stmt 0 view .LVU804
 2006 02f8 7D87DA14 		add 12,7,27
 2007              		.loc 1 157 43 view .LVU805
 2008 02fc 558C103A 		slwi 12,12,2
 2009              		.loc 1 157 84 view .LVU806
 2010 0300 7CE7CA14 		add 7,7,25
 2011              		.loc 1 157 43 view .LVU807
 2012 0304 7DFF782E 		lwzx 15,31,15
 2013              	.LVL102:
 2014              	.LBB138:
 2015              		.loc 1 119 9 is_stmt 1 view .LVU808
 2016              	.LBB120:
 2017              		.loc 1 120 2 view .LVU809
 2018              		.loc 1 122 2 view .LVU810
 2019              		.loc 1 123 2 view .LVU811
 2020              		.loc 1 125 2 view .LVU812
 2021              		.loc 1 125 2 is_stmt 0 view .LVU813
 2022              	.LBE120:
 2023              	.LBE138:
 2024              		.loc 1 157 43 view .LVU814
 2025 0308 54E7103A 		slwi 7,7,2
 2026              	.LBB139:
 2027              	.LBB121:
 2028              		.loc 1 122 4 view .LVU815
 2029 030c 55EAC236 		rlwinm 10,15,24,8,27
 2030              		.loc 1 125 16 view .LVU816
 2031 0310 55EFE73E 		rlwinm 15,15,28,28,31
 2032              		.loc 1 125 20 view .LVU817
 2033 0314 7D4F7B78 		or 15,10,15
 2034              	.LBE121:
 2035              	.LBE139:
 2036              		.loc 1 157 12 discriminator 1 view .LVU818
 2037 0318 99E9FFEF 		stb 15,-17(9)
 2038              		.loc 1 149 4 is_stmt 1 discriminator 3 view .LVU819
 2039              	.LVL103:
 2040              		.loc 1 149 32 discriminator 1 view .LVU820
 2041              		.loc 1 150 5 view .LVU821
 2042              	.LBE157:
 2043              		.loc 1 148 25 is_stmt 0 discriminator 1 view .LVU822
 2044 031c 570F043E 		rlwinm 15,24,0,0xffff
 2045 0320 7C0FB040 		cmplw 0,15,22
 2046              	.LBB158:
 2047              		.loc 1 150 43 view .LVU823
 2048 0324 7E1F802E 		lwzx 16,31,16
 2049              	.LVL104:
 2050              	.LBB140:
 2051              		.loc 1 119 9 is_stmt 1 view .LVU824
 2052              	.LBB71:
 2053              		.loc 1 120 2 view .LVU825
 2054              		.loc 1 122 2 view .LVU826
 2055              		.loc 1 123 2 view .LVU827
 2056              		.loc 1 125 2 view .LVU828
 2057              		.loc 1 122 4 is_stmt 0 view .LVU829
 2058 0328 560FC236 		rlwinm 15,16,24,8,27
 2059              		.loc 1 125 16 view .LVU830
 2060 032c 5610E73E 		rlwinm 16,16,28,28,31
 2061              		.loc 1 125 20 view .LVU831
 2062 0330 7DF08378 		or 16,15,16
 2063              	.LBE71:
 2064              	.LBE140:
 2065              		.loc 1 150 12 discriminator 1 view .LVU832
 2066 0334 9A09FFF0 		stb 16,-16(9)
 2067              		.loc 1 151 5 is_stmt 1 view .LVU833
 2068              		.loc 1 151 43 is_stmt 0 view .LVU834
 2069 0338 7E1F702E 		lwzx 16,31,14
 2070              	.LVL105:
 2071              	.LBB141:
 2072              		.loc 1 119 9 is_stmt 1 view .LVU835
 2073              	.LBB79:
 2074              		.loc 1 120 2 view .LVU836
 2075              		.loc 1 122 2 view .LVU837
 2076              		.loc 1 123 2 view .LVU838
 2077              		.loc 1 125 2 view .LVU839
 2078              		.loc 1 122 4 is_stmt 0 view .LVU840
 2079 033c 560FC236 		rlwinm 15,16,24,8,27
 2080              		.loc 1 125 16 view .LVU841
 2081 0340 5610E73E 		rlwinm 16,16,28,28,31
 2082              		.loc 1 125 20 view .LVU842
 2083 0344 7DF08378 		or 16,15,16
 2084              	.LBE79:
 2085              	.LBE141:
 2086              		.loc 1 151 12 discriminator 1 view .LVU843
 2087 0348 9A09FFF1 		stb 16,-15(9)
 2088              		.loc 1 152 5 is_stmt 1 view .LVU844
 2089              		.loc 1 152 43 is_stmt 0 view .LVU845
 2090 034c 7E3F882E 		lwzx 17,31,17
 2091              	.LVL106:
 2092              	.LBB142:
 2093              		.loc 1 119 9 is_stmt 1 view .LVU846
 2094              	.LBB87:
 2095              		.loc 1 120 2 view .LVU847
 2096              		.loc 1 122 2 view .LVU848
 2097              		.loc 1 123 2 view .LVU849
 2098              		.loc 1 125 2 view .LVU850
 2099              		.loc 1 122 4 is_stmt 0 view .LVU851
 2100 0350 5630C236 		rlwinm 16,17,24,8,27
 2101              		.loc 1 125 16 view .LVU852
 2102 0354 5631E73E 		rlwinm 17,17,28,28,31
 2103              		.loc 1 125 20 view .LVU853
 2104 0358 7E118B78 		or 17,16,17
 2105              	.LBE87:
 2106              	.LBE142:
 2107              		.loc 1 152 12 discriminator 1 view .LVU854
 2108 035c 9A29FFF2 		stb 17,-14(9)
 2109              		.loc 1 153 5 is_stmt 1 view .LVU855
 2110              		.loc 1 153 43 is_stmt 0 view .LVU856
 2111 0360 7E5F902E 		lwzx 18,31,18
 2112              	.LVL107:
 2113              	.LBB143:
 2114              		.loc 1 119 9 is_stmt 1 view .LVU857
 2115              	.LBB95:
 2116              		.loc 1 120 2 view .LVU858
 2117              		.loc 1 122 2 view .LVU859
 2118              		.loc 1 123 2 view .LVU860
 2119              		.loc 1 125 2 view .LVU861
 2120              		.loc 1 122 4 is_stmt 0 view .LVU862
 2121 0364 5651C236 		rlwinm 17,18,24,8,27
 2122              		.loc 1 125 16 view .LVU863
 2123 0368 5652E73E 		rlwinm 18,18,28,28,31
 2124              		.loc 1 125 20 view .LVU864
 2125 036c 7E329378 		or 18,17,18
 2126              	.LBE95:
 2127              	.LBE143:
 2128              		.loc 1 153 12 discriminator 1 view .LVU865
 2129 0370 9A49FFF3 		stb 18,-13(9)
 2130              		.loc 1 154 5 is_stmt 1 view .LVU866
 2131              		.loc 1 154 43 is_stmt 0 view .LVU867
 2132 0374 7E7F982E 		lwzx 19,31,19
 2133              	.LVL108:
 2134              	.LBB144:
 2135              		.loc 1 119 9 is_stmt 1 view .LVU868
 2136              	.LBB103:
 2137              		.loc 1 120 2 view .LVU869
 2138              		.loc 1 122 2 view .LVU870
 2139              		.loc 1 123 2 view .LVU871
 2140              		.loc 1 125 2 view .LVU872
 2141              		.loc 1 122 4 is_stmt 0 view .LVU873
 2142 0378 5672C236 		rlwinm 18,19,24,8,27
 2143              		.loc 1 125 16 view .LVU874
 2144 037c 5673E73E 		rlwinm 19,19,28,28,31
 2145              		.loc 1 125 20 view .LVU875
 2146 0380 7E539B78 		or 19,18,19
 2147              	.LBE103:
 2148              	.LBE144:
 2149              		.loc 1 154 12 discriminator 1 view .LVU876
 2150 0384 9A69FFF4 		stb 19,-12(9)
 2151              		.loc 1 155 5 is_stmt 1 view .LVU877
 2152              		.loc 1 155 43 is_stmt 0 view .LVU878
 2153 0388 7E9FA02E 		lwzx 20,31,20
 2154              	.LVL109:
 2155              	.LBB145:
 2156              		.loc 1 119 9 is_stmt 1 view .LVU879
 2157              	.LBB110:
 2158              		.loc 1 120 2 view .LVU880
 2159              		.loc 1 122 2 view .LVU881
 2160              		.loc 1 123 2 view .LVU882
 2161              		.loc 1 125 2 view .LVU883
 2162              		.loc 1 122 4 is_stmt 0 view .LVU884
 2163 038c 5693C236 		rlwinm 19,20,24,8,27
 2164              		.loc 1 125 16 view .LVU885
 2165 0390 5694E73E 		rlwinm 20,20,28,28,31
 2166              		.loc 1 125 20 view .LVU886
 2167 0394 7E74A378 		or 20,19,20
 2168              	.LBE110:
 2169              	.LBE145:
 2170              		.loc 1 155 12 discriminator 1 view .LVU887
 2171 0398 9A89FFF5 		stb 20,-11(9)
 2172              		.loc 1 156 5 is_stmt 1 view .LVU888
 2173              		.loc 1 156 43 is_stmt 0 view .LVU889
 2174 039c 7EFFB82E 		lwzx 23,31,23
 2175              	.LVL110:
 2176              	.LBB146:
 2177              		.loc 1 119 9 is_stmt 1 view .LVU890
 2178              	.LBB116:
 2179              		.loc 1 120 2 view .LVU891
 2180              		.loc 1 122 2 view .LVU892
 2181              		.loc 1 123 2 view .LVU893
 2182              		.loc 1 125 2 view .LVU894
 2183              		.loc 1 122 4 is_stmt 0 view .LVU895
 2184 03a0 56F4C236 		rlwinm 20,23,24,8,27
 2185              		.loc 1 125 16 view .LVU896
 2186 03a4 56F7E73E 		rlwinm 23,23,28,28,31
 2187              		.loc 1 125 20 view .LVU897
 2188 03a8 7E97BB78 		or 23,20,23
 2189              	.LBE116:
 2190              	.LBE146:
 2191              		.loc 1 156 12 discriminator 1 view .LVU898
 2192 03ac 9AE9FFF6 		stb 23,-10(9)
 2193              		.loc 1 157 5 is_stmt 1 view .LVU899
 2194              		.loc 1 157 43 is_stmt 0 view .LVU900
 2195 03b0 7EFF602E 		lwzx 23,31,12
 2196              	.LVL111:
 2197              	.LBB147:
 2198              		.loc 1 119 9 is_stmt 1 view .LVU901
 2199              	.LBB122:
 2200              		.loc 1 120 2 view .LVU902
 2201              		.loc 1 122 2 view .LVU903
 2202              		.loc 1 123 2 view .LVU904
 2203              		.loc 1 125 2 view .LVU905
 2204              		.loc 1 122 4 is_stmt 0 view .LVU906
 2205 03b4 56F4C236 		rlwinm 20,23,24,8,27
 2206              		.loc 1 125 16 view .LVU907
 2207 03b8 56F7E73E 		rlwinm 23,23,28,28,31
 2208              		.loc 1 125 20 view .LVU908
 2209 03bc 7E97BB78 		or 23,20,23
 2210              	.LBE122:
 2211              	.LBE147:
 2212              		.loc 1 157 12 discriminator 1 view .LVU909
 2213 03c0 9AE9FFF7 		stb 23,-9(9)
 2214              		.loc 1 149 4 is_stmt 1 discriminator 3 view .LVU910
 2215              	.LVL112:
 2216              		.loc 1 149 32 discriminator 1 view .LVU911
 2217              		.loc 1 150 5 view .LVU912
 2218              		.loc 1 150 43 is_stmt 0 view .LVU913
 2219 03c4 7D1F402E 		lwzx 8,31,8
 2220              	.LVL113:
 2221              	.LBB148:
 2222              		.loc 1 119 9 is_stmt 1 view .LVU914
 2223              	.LBB72:
 2224              		.loc 1 120 2 view .LVU915
 2225              		.loc 1 122 2 view .LVU916
 2226              		.loc 1 123 2 view .LVU917
 2227              		.loc 1 125 2 view .LVU918
 2228              		.loc 1 122 4 is_stmt 0 view .LVU919
 2229 03c8 5517C236 		rlwinm 23,8,24,8,27
 2230              		.loc 1 125 16 view .LVU920
 2231 03cc 5508E73E 		rlwinm 8,8,28,28,31
 2232              		.loc 1 125 20 view .LVU921
 2233 03d0 7EE84378 		or 8,23,8
 2234              	.LBE72:
 2235              	.LBE148:
 2236              		.loc 1 150 12 discriminator 1 view .LVU922
 2237 03d4 9909FFF8 		stb 8,-8(9)
 2238              		.loc 1 151 5 is_stmt 1 view .LVU923
 2239              		.loc 1 151 43 is_stmt 0 view .LVU924
 2240 03d8 7D1F002E 		lwzx 8,31,0
 2241              	.LVL114:
 2242              	.LBB149:
 2243              		.loc 1 119 9 is_stmt 1 view .LVU925
 2244              	.LBB80:
 2245              		.loc 1 120 2 view .LVU926
 2246              		.loc 1 122 2 view .LVU927
 2247              		.loc 1 123 2 view .LVU928
 2248              		.loc 1 125 2 view .LVU929
 2249              		.loc 1 122 4 is_stmt 0 view .LVU930
 2250 03dc 5500C236 		rlwinm 0,8,24,8,27
 2251              		.loc 1 125 16 view .LVU931
 2252 03e0 5508E73E 		rlwinm 8,8,28,28,31
 2253              		.loc 1 125 20 view .LVU932
 2254 03e4 7C084378 		or 8,0,8
 2255              	.LBE80:
 2256              	.LBE149:
 2257              		.loc 1 151 12 discriminator 1 view .LVU933
 2258 03e8 9909FFF9 		stb 8,-7(9)
 2259              		.loc 1 152 5 is_stmt 1 view .LVU934
 2260              		.loc 1 152 43 is_stmt 0 view .LVU935
 2261 03ec 7D1F582E 		lwzx 8,31,11
 2262              	.LVL115:
 2263              	.LBB150:
 2264              		.loc 1 119 9 is_stmt 1 view .LVU936
 2265              	.LBB88:
 2266              		.loc 1 120 2 view .LVU937
 2267              		.loc 1 122 2 view .LVU938
 2268              		.loc 1 123 2 view .LVU939
 2269              		.loc 1 125 2 view .LVU940
 2270              		.loc 1 122 4 is_stmt 0 view .LVU941
 2271 03f0 550BC236 		rlwinm 11,8,24,8,27
 2272              		.loc 1 125 16 view .LVU942
 2273 03f4 5508E73E 		rlwinm 8,8,28,28,31
 2274              		.loc 1 125 20 view .LVU943
 2275 03f8 7D684378 		or 8,11,8
 2276              	.LBE88:
 2277              	.LBE150:
 2278              		.loc 1 152 12 discriminator 1 view .LVU944
 2279 03fc 9909FFFA 		stb 8,-6(9)
 2280              		.loc 1 153 5 is_stmt 1 view .LVU945
 2281              		.loc 1 153 43 is_stmt 0 view .LVU946
 2282 0400 7D1F182E 		lwzx 8,31,3
 2283              	.LVL116:
 2284              	.LBB151:
 2285              		.loc 1 119 9 is_stmt 1 view .LVU947
 2286              	.LBB96:
 2287              		.loc 1 120 2 view .LVU948
 2288              		.loc 1 122 2 view .LVU949
 2289              		.loc 1 123 2 view .LVU950
 2290              		.loc 1 125 2 view .LVU951
 2291              		.loc 1 122 4 is_stmt 0 view .LVU952
 2292 0404 5503C236 		rlwinm 3,8,24,8,27
 2293              		.loc 1 125 16 view .LVU953
 2294 0408 5508E73E 		rlwinm 8,8,28,28,31
 2295              		.loc 1 125 20 view .LVU954
 2296 040c 7C684378 		or 8,3,8
 2297              	.LBE96:
 2298              	.LBE151:
 2299              		.loc 1 153 12 discriminator 1 view .LVU955
 2300 0410 9909FFFB 		stb 8,-5(9)
 2301              		.loc 1 154 5 is_stmt 1 view .LVU956
 2302              		.loc 1 154 43 is_stmt 0 view .LVU957
 2303 0414 7D1F202E 		lwzx 8,31,4
 2304              	.LVL117:
 2305              	.LBB152:
 2306              		.loc 1 119 9 is_stmt 1 view .LVU958
 2307              	.LBB104:
 2308              		.loc 1 120 2 view .LVU959
 2309              		.loc 1 122 2 view .LVU960
 2310              		.loc 1 123 2 view .LVU961
 2311              		.loc 1 125 2 view .LVU962
 2312              		.loc 1 122 4 is_stmt 0 view .LVU963
 2313 0418 5504C236 		rlwinm 4,8,24,8,27
 2314              		.loc 1 125 16 view .LVU964
 2315 041c 5508E73E 		rlwinm 8,8,28,28,31
 2316              		.loc 1 125 20 view .LVU965
 2317 0420 7C884378 		or 8,4,8
 2318              	.LBE104:
 2319              	.LBE152:
 2320              		.loc 1 154 12 discriminator 1 view .LVU966
 2321 0424 9909FFFC 		stb 8,-4(9)
 2322              		.loc 1 155 5 is_stmt 1 view .LVU967
 2323              		.loc 1 155 43 is_stmt 0 view .LVU968
 2324 0428 7D1F282E 		lwzx 8,31,5
 2325              	.LVL118:
 2326              	.LBB153:
 2327              		.loc 1 119 9 is_stmt 1 view .LVU969
 2328              	.LBB111:
 2329              		.loc 1 120 2 view .LVU970
 2330              		.loc 1 122 2 view .LVU971
 2331              		.loc 1 123 2 view .LVU972
 2332              		.loc 1 125 2 view .LVU973
 2333              		.loc 1 122 4 is_stmt 0 view .LVU974
 2334 042c 5505C236 		rlwinm 5,8,24,8,27
 2335              		.loc 1 125 16 view .LVU975
 2336 0430 5508E73E 		rlwinm 8,8,28,28,31
 2337              		.loc 1 125 20 view .LVU976
 2338 0434 7CA84378 		or 8,5,8
 2339              	.LBE111:
 2340              	.LBE153:
 2341              		.loc 1 155 12 discriminator 1 view .LVU977
 2342 0438 9909FFFD 		stb 8,-3(9)
 2343              		.loc 1 156 5 is_stmt 1 view .LVU978
 2344              		.loc 1 156 43 is_stmt 0 view .LVU979
 2345 043c 7D1F302E 		lwzx 8,31,6
 2346              	.LVL119:
 2347              	.LBB154:
 2348              		.loc 1 119 9 is_stmt 1 view .LVU980
 2349              	.LBB117:
 2350              		.loc 1 120 2 view .LVU981
 2351              		.loc 1 122 2 view .LVU982
 2352              		.loc 1 123 2 view .LVU983
 2353              		.loc 1 125 2 view .LVU984
 2354              		.loc 1 122 4 is_stmt 0 view .LVU985
 2355 0440 5506C236 		rlwinm 6,8,24,8,27
 2356              		.loc 1 125 16 view .LVU986
 2357 0444 5508E73E 		rlwinm 8,8,28,28,31
 2358              		.loc 1 125 20 view .LVU987
 2359 0448 7CC84378 		or 8,6,8
 2360              	.LBE117:
 2361              	.LBE154:
 2362              		.loc 1 156 12 discriminator 1 view .LVU988
 2363 044c 9909FFFE 		stb 8,-2(9)
 2364              		.loc 1 157 5 is_stmt 1 view .LVU989
 2365              		.loc 1 157 43 is_stmt 0 view .LVU990
 2366 0450 7D1F382E 		lwzx 8,31,7
 2367              	.LVL120:
 2368              	.LBB155:
 2369              		.loc 1 119 9 is_stmt 1 view .LVU991
 2370              	.LBB123:
 2371              		.loc 1 120 2 view .LVU992
 2372              		.loc 1 122 2 view .LVU993
 2373              		.loc 1 123 2 view .LVU994
 2374              		.loc 1 125 2 view .LVU995
 2375              		.loc 1 122 4 is_stmt 0 view .LVU996
 2376 0454 5507C236 		rlwinm 7,8,24,8,27
 2377              		.loc 1 125 16 view .LVU997
 2378 0458 5508E73E 		rlwinm 8,8,28,28,31
 2379              		.loc 1 125 20 view .LVU998
 2380 045c 7CE84378 		or 8,7,8
 2381              	.LBE123:
 2382              	.LBE155:
 2383              		.loc 1 157 12 discriminator 1 view .LVU999
 2384 0460 9909FFFF 		stb 8,-1(9)
 2385              		.loc 1 149 4 is_stmt 1 discriminator 3 view .LVU1000
 2386              	.LVL121:
 2387              		.loc 1 149 32 discriminator 1 view .LVU1001
 2388              	.LBE158:
 2389              		.loc 1 148 3 discriminator 2 view .LVU1002
 2390              		.loc 1 148 25 discriminator 1 view .LVU1003
 2391 0464 4180FC50 		blt+ 0,.L39
 2392              	.LBE64:
 2393              		.loc 1 147 42 is_stmt 0 discriminator 2 view .LVU1004
 2394 0468 7D4902A6 		mfctr 10
 2395              		.loc 1 147 2 is_stmt 1 discriminator 2 view .LVU1005
 2396              		.loc 1 147 42 is_stmt 0 discriminator 2 view .LVU1006
 2397 046c 394A0004 		addi 10,10,4
 2398              		.loc 1 147 24 discriminator 1 view .LVU1007
 2399 0470 5548043E 		rlwinm 8,10,0,0xffff
 2400              	.LVL122:
 2401              		.loc 1 147 24 is_stmt 1 discriminator 1 view .LVU1008
 2402 0474 7C08A840 		cmplw 0,8,21
 2403 0478 4180FC20 		blt+ 0,.L38
 2404 047c 81C10008 		lwz 14,8(1)
 2405              		.cfi_restore 14
 2406 0480 81E1000C 		lwz 15,12(1)
 2407              		.cfi_restore 15
 2408 0484 82010010 		lwz 16,16(1)
 2409              		.cfi_restore 16
 2410 0488 82210014 		lwz 17,20(1)
 2411              		.cfi_restore 17
 2412 048c 82410018 		lwz 18,24(1)
 2413              		.cfi_restore 18
 2414 0490 8261001C 		lwz 19,28(1)
 2415              		.cfi_restore 19
 2416 0494 82810020 		lwz 20,32(1)
 2417              		.cfi_restore 20
 2418 0498 82E1002C 		lwz 23,44(1)
 2419              		.cfi_restore 23
 2420 049c 83010030 		lwz 24,48(1)
 2421              		.cfi_restore 24
 2422              	.LVL123:
 2423              		.loc 1 147 24 is_stmt 0 discriminator 1 view .LVU1009
 2424 04a0 83210034 		lwz 25,52(1)
 2425              		.cfi_restore 25
 2426 04a4 83410038 		lwz 26,56(1)
 2427              		.cfi_restore 26
 2428 04a8 8361003C 		lwz 27,60(1)
 2429              		.cfi_restore 27
 2430 04ac 83810040 		lwz 28,64(1)
 2431              		.cfi_restore 28
 2432              	.LVL124:
 2433              	.L37:
 2434              		.loc 1 147 24 discriminator 1 view .LVU1010
 2435              	.LBE159:
 2436              		.loc 1 161 2 is_stmt 1 view .LVU1011
 2437              		.loc 1 161 14 is_stmt 0 view .LVU1012
 2438 04b0 7FC3F378 		mr 3,30
 2439 04b4 7FA4EB78 		mr 4,29
 2440 04b8 48000001 		bl DCFlushRange
 2441              	.LVL125:
 2442              		.loc 1 163 2 is_stmt 1 view .LVU1013
 2443              		.loc 1 164 1 is_stmt 0 view .LVU1014
 2444 04bc 80010054 		lwz 0,84(1)
 2445 04c0 7FC3F378 		mr 3,30
 2446 04c4 82A10024 		lwz 21,36(1)
 2447              	.LVL126:
 2448              		.loc 1 164 1 view .LVU1015
 2449 04c8 82C10028 		lwz 22,40(1)
 2450              	.LVL127:
 2451              		.loc 1 164 1 view .LVU1016
 2452 04cc 7C0803A6 		mtlr 0
 2453              		.cfi_restore 65
 2454 04d0 83A10044 		lwz 29,68(1)
 2455              	.LVL128:
 2456              		.loc 1 164 1 view .LVU1017
 2457 04d4 83C10048 		lwz 30,72(1)
 2458              	.LVL129:
 2459              		.loc 1 164 1 view .LVU1018
 2460 04d8 83E1004C 		lwz 31,76(1)
 2461              	.LVL130:
 2462              		.loc 1 164 1 view .LVU1019
 2463 04dc 38210050 		addi 1,1,80
 2464              		.cfi_restore 31
 2465              		.cfi_restore 30
 2466              		.cfi_restore 29
 2467              		.cfi_restore 22
 2468              		.cfi_restore 21
 2469              		.cfi_def_cfa_offset 0
 2470 04e0 4E800020 		blr
 2471              		.cfi_endproc
 2472              	.LFE71:
 2473              		.size	_ZN11Metaphrasis18convertBufferToIA4EPjtt, .-_ZN11Metaphrasis18convertBufferToIA4EPjtt
 2474              		.section	.text._ZN11Metaphrasis16convertRGBAToIA8Ej,"ax",@progbits
 2475              		.align 2
 2476              		.globl _ZN11Metaphrasis16convertRGBAToIA8Ej
 2477              		.type	_ZN11Metaphrasis16convertRGBAToIA8Ej, @function
 2478              	_ZN11Metaphrasis16convertRGBAToIA8Ej:
 2479              	.LVL131:
 2480              	.LFB72:
 2481              		.loc 1 175 55 is_stmt 1 view -0
 2482              		.cfi_startproc
 2483              		.loc 1 176 2 view .LVU1021
 2484              		.loc 1 178 2 view .LVU1022
 2485              		.loc 1 179 2 view .LVU1023
 2486              		.loc 1 181 2 view .LVU1024
 2487              		.loc 1 182 1 is_stmt 0 view .LVU1025
 2488 0000 5463043E 		rlwinm 3,3,0,0xffff
 2489              	.LVL132:
 2490              		.loc 1 182 1 view .LVU1026
 2491 0004 4E800020 		blr
 2492              		.cfi_endproc
 2493              	.LFE72:
 2494              		.size	_ZN11Metaphrasis16convertRGBAToIA8Ej, .-_ZN11Metaphrasis16convertRGBAToIA8Ej
 2495              		.section	.text._ZN11Metaphrasis18convertBufferToIA8EPjtt,"ax",@progbits
 2496              		.align 2
 2497              		.globl _ZN11Metaphrasis18convertBufferToIA8EPjtt
 2498              		.type	_ZN11Metaphrasis18convertBufferToIA8EPjtt, @function
 2499              	_ZN11Metaphrasis18convertBufferToIA8EPjtt:
 2500              	.LVL133:
 2501              	.LFB73:
 2502              		.loc 1 195 110 is_stmt 1 view -0
 2503              		.cfi_startproc
 2504              		.loc 1 196 2 view .LVU1028
 2505              		.loc 1 195 110 is_stmt 0 view .LVU1029
 2506 0000 9421FFB0 		stwu 1,-80(1)
 2507              		.cfi_def_cfa_offset 80
 2508 0004 7C0802A6 		mflr 0
 2509 0008 93C10048 		stw 30,72(1)
 2510              		.cfi_register 65, 0
 2511              		.cfi_offset 30, -8
 2512              		.loc 1 196 37 view .LVU1030
 2513 000c 7FC521D6 		mullw 30,5,4
 2514              		.loc 1 195 110 view .LVU1031
 2515 0010 92C10028 		stw 22,40(1)
 2516              		.cfi_offset 22, -40
 2517 0014 7C962378 		mr 22,4
 2518 0018 93E1004C 		stw 31,76(1)
 2519              		.cfi_offset 31, -4
 2520 001c 7C7F1B78 		mr 31,3
 2521              		.loc 1 197 48 view .LVU1032
 2522 0020 38600020 		li 3,32
 2523              	.LVL134:
 2524              		.loc 1 195 110 view .LVU1033
 2525 0024 90010054 		stw 0,84(1)
 2526              		.loc 1 196 11 view .LVU1034
 2527 0028 57DE083C 		slwi 30,30,1
 2528              	.LVL135:
 2529              		.loc 1 197 2 is_stmt 1 view .LVU1035
 2530              		.loc 1 195 110 is_stmt 0 view .LVU1036
 2531 002c 92A10024 		stw 21,36(1)
 2532              		.loc 1 197 48 view .LVU1037
 2533 0030 7FC4F378 		mr 4,30
 2534              	.LVL136:
 2535              		.cfi_offset 65, 4
 2536              		.cfi_offset 21, -44
 2537              		.loc 1 195 110 view .LVU1038
 2538 0034 7CB52B78 		mr 21,5
 2539 0038 93A10044 		stw 29,68(1)
 2540              		.cfi_offset 29, -12
 2541              		.loc 1 197 48 view .LVU1039
 2542 003c 48000001 		bl memalign
 2543              	.LVL137:
 2544              		.loc 1 198 8 view .LVU1040
 2545 0040 7FC5F378 		mr 5,30
 2546 0044 38800000 		li 4,0
 2547              		.loc 1 197 48 view .LVU1041
 2548 0048 7C7D1B78 		mr 29,3
 2549              	.LVL138:
 2550              		.loc 1 198 2 is_stmt 1 view .LVU1042
 2551              		.loc 1 198 8 is_stmt 0 view .LVU1043
 2552 004c 48000001 		bl memset
 2553              	.LVL139:
 2554              		.loc 1 200 2 is_stmt 1 view .LVU1044
 2555              		.loc 1 201 2 view .LVU1045
 2556              		.loc 1 203 2 view .LVU1046
 2557              	.LBB160:
 2558              		.loc 1 203 24 discriminator 1 view .LVU1047
 2559 0050 2C150000 		cmpwi 0,21,0
 2560 0054 418201C8 		beq- 0,.L53
 2561 0058 2C160000 		cmpwi 0,22,0
 2562 005c 92210014 		stw 17,20(1)
 2563              		.cfi_offset 17, -60
 2564              	.LBE160:
 2565              		.loc 1 201 12 is_stmt 0 view .LVU1048
 2566 0060 7FA9EB78 		mr 9,29
 2567              	.LBB199:
 2568              		.loc 1 203 15 view .LVU1049
 2569 0064 3A200000 		li 17,0
 2570 0068 418201E8 		beq- 0,.L65
 2571 006c 91C10008 		stw 14,8(1)
 2572              		.cfi_offset 14, -72
 2573 0070 91E1000C 		stw 15,12(1)
 2574              		.cfi_offset 15, -68
 2575 0074 92010010 		stw 16,16(1)
 2576              		.cfi_offset 16, -64
 2577 0078 92410018 		stw 18,24(1)
 2578              		.cfi_offset 18, -56
 2579 007c 9261001C 		stw 19,28(1)
 2580              		.cfi_offset 19, -52
 2581 0080 92810020 		stw 20,32(1)
 2582              		.cfi_offset 20, -48
 2583 0084 92E1002C 		stw 23,44(1)
 2584              		.cfi_offset 23, -36
 2585 0088 93010030 		stw 24,48(1)
 2586              		.cfi_offset 24, -32
 2587 008c 93210034 		stw 25,52(1)
 2588              		.cfi_offset 25, -28
 2589 0090 93410038 		stw 26,56(1)
 2590              		.cfi_offset 26, -24
 2591 0094 9361003C 		stw 27,60(1)
 2592              		.cfi_offset 27, -20
 2593 0098 93810040 		stw 28,64(1)
 2594              		.cfi_offset 28, -16
 2595              	.LVL140:
 2596              	.L54:
 2597              	.LBB161:
 2598              		.loc 1 204 25 is_stmt 1 discriminator 1 view .LVU1050
 2599              	.LBB162:
 2600              		.loc 1 206 50 is_stmt 0 view .LVU1051
 2601 009c 562B043E 		rlwinm 11,17,0,0xffff
 2602              	.LBE162:
 2603              		.loc 1 204 16 view .LVU1052
 2604 00a0 38600000 		li 3,0
 2605              	.LBB195:
 2606              		.loc 1 206 60 view .LVU1053
 2607 00a4 7D6BB1D6 		mullw 11,11,22
 2608 00a8 7D965A14 		add 12,22,11
 2609 00ac 7C166214 		add 0,22,12
 2610 00b0 7CB60214 		add 5,22,0
 2611              	.LVL141:
 2612              	.L55:
 2613              		.loc 1 205 32 is_stmt 1 discriminator 1 view .LVU1054
 2614              		.loc 1 206 5 view .LVU1055
 2615              		.loc 1 206 78 is_stmt 0 view .LVU1056
 2616 00b4 5468043E 		rlwinm 8,3,0,0xffff
 2617              	.LBE195:
 2618              		.loc 1 204 42 discriminator 2 view .LVU1057
 2619 00b8 38630004 		addi 3,3,4
 2620              	.LVL142:
 2621              	.LBB196:
 2622              		.loc 1 207 80 view .LVU1058
 2623 00bc 38C80001 		addi 6,8,1
 2624              		.loc 1 208 80 view .LVU1059
 2625 00c0 38E80002 		addi 7,8,2
 2626              		.loc 1 209 80 view .LVU1060
 2627 00c4 39480003 		addi 10,8,3
 2628              		.loc 1 207 84 view .LVU1061
 2629 00c8 7DEB3214 		add 15,11,6
 2630              		.loc 1 206 84 view .LVU1062
 2631 00cc 7E0B4214 		add 16,11,8
 2632              		.loc 1 207 84 view .LVU1063
 2633 00d0 7E466214 		add 18,6,12
 2634              		.loc 1 208 84 view .LVU1064
 2635 00d4 7E6B3A14 		add 19,11,7
 2636              		.loc 1 209 84 view .LVU1065
 2637 00d8 7E8B5214 		add 20,11,10
 2638              		.loc 1 206 84 view .LVU1066
 2639 00dc 7EE86214 		add 23,8,12
 2640              		.loc 1 208 84 view .LVU1067
 2641 00e0 7F076214 		add 24,7,12
 2642              		.loc 1 209 84 view .LVU1068
 2643 00e4 7F2A6214 		add 25,10,12
 2644              		.loc 1 207 84 view .LVU1069
 2645 00e8 7F460214 		add 26,6,0
 2646              		.loc 1 206 84 view .LVU1070
 2647 00ec 7F680214 		add 27,8,0
 2648              		.loc 1 208 84 view .LVU1071
 2649 00f0 7F870214 		add 28,7,0
 2650              		.loc 1 209 84 view .LVU1072
 2651 00f4 7C8A0214 		add 4,10,0
 2652              		.loc 1 207 84 view .LVU1073
 2653 00f8 7CC62A14 		add 6,6,5
 2654              		.loc 1 206 84 view .LVU1074
 2655 00fc 7D082A14 		add 8,8,5
 2656              		.loc 1 208 84 view .LVU1075
 2657 0100 7CE72A14 		add 7,7,5
 2658              	.LBE196:
 2659              		.loc 1 204 25 discriminator 1 view .LVU1076
 2660 0104 546E043E 		rlwinm 14,3,0,0xffff
 2661              	.LBB197:
 2662              		.loc 1 207 43 view .LVU1077
 2663 0108 55EF103A 		slwi 15,15,2
 2664              		.loc 1 206 43 view .LVU1078
 2665 010c 5610103A 		slwi 16,16,2
 2666              		.loc 1 207 43 view .LVU1079
 2667 0110 5652103A 		slwi 18,18,2
 2668              		.loc 1 208 43 view .LVU1080
 2669 0114 5673103A 		slwi 19,19,2
 2670              		.loc 1 209 43 view .LVU1081
 2671 0118 5694103A 		slwi 20,20,2
 2672              		.loc 1 206 43 view .LVU1082
 2673 011c 56F7103A 		slwi 23,23,2
 2674              		.loc 1 208 43 view .LVU1083
 2675 0120 5718103A 		slwi 24,24,2
 2676              		.loc 1 209 43 view .LVU1084
 2677 0124 5739103A 		slwi 25,25,2
 2678              		.loc 1 207 43 view .LVU1085
 2679 0128 575A103A 		slwi 26,26,2
 2680 012c 54C6103A 		slwi 6,6,2
 2681              		.loc 1 206 43 view .LVU1086
 2682 0130 577B103A 		slwi 27,27,2
 2683 0134 5508103A 		slwi 8,8,2
 2684              		.loc 1 208 43 view .LVU1087
 2685 0138 579C103A 		slwi 28,28,2
 2686 013c 54E7103A 		slwi 7,7,2
 2687              		.loc 1 209 43 view .LVU1088
 2688 0140 5484103A 		slwi 4,4,2
 2689              		.loc 1 209 84 view .LVU1089
 2690 0144 7D4A2A14 		add 10,10,5
 2691              	.LBE197:
 2692              		.loc 1 204 25 discriminator 1 view .LVU1090
 2693 0148 7C0EB040 		cmplw 0,14,22
 2694              	.LBB198:
 2695              		.loc 1 207 43 view .LVU1091
 2696 014c 7DFF782E 		lwzx 15,31,15
 2697              		.loc 1 209 43 view .LVU1092
 2698 0150 554A103A 		slwi 10,10,2
 2699              		.loc 1 206 43 view .LVU1093
 2700 0154 7E1F802E 		lwzx 16,31,16
 2701              	.LVL143:
 2702              	.LBB163:
 2703              	.LBI163:
 2704              		.loc 1 175 10 is_stmt 1 view .LVU1094
 2705              	.LBB164:
 2706              		.loc 1 176 2 view .LVU1095
 2707              		.loc 1 178 2 view .LVU1096
 2708              		.loc 1 179 2 view .LVU1097
 2709              		.loc 1 181 2 view .LVU1098
 2710              		.loc 1 181 2 is_stmt 0 view .LVU1099
 2711              	.LBE164:
 2712              	.LBE163:
 2713              		.loc 1 209 9 discriminator 1 view .LVU1100
 2714 0158 39290020 		addi 9,9,32
 2715              	.LVL144:
 2716              		.loc 1 207 43 view .LVU1101
 2717 015c 7E5F902E 		lwzx 18,31,18
 2718              		.loc 1 208 43 view .LVU1102
 2719 0160 7E7F982E 		lwzx 19,31,19
 2720              		.loc 1 209 43 view .LVU1103
 2721 0164 7E9FA02E 		lwzx 20,31,20
 2722              		.loc 1 206 43 view .LVU1104
 2723 0168 7EFFB82E 		lwzx 23,31,23
 2724              		.loc 1 208 43 view .LVU1105
 2725 016c 7F1FC02E 		lwzx 24,31,24
 2726              		.loc 1 209 43 view .LVU1106
 2727 0170 7F3FC82E 		lwzx 25,31,25
 2728              		.loc 1 207 43 view .LVU1107
 2729 0174 7F5FD02E 		lwzx 26,31,26
 2730 0178 7CDF302E 		lwzx 6,31,6
 2731              		.loc 1 206 43 view .LVU1108
 2732 017c 7F7FD82E 		lwzx 27,31,27
 2733 0180 7D1F402E 		lwzx 8,31,8
 2734              		.loc 1 208 43 view .LVU1109
 2735 0184 7F9FE02E 		lwzx 28,31,28
 2736 0188 7CFF382E 		lwzx 7,31,7
 2737              		.loc 1 209 43 view .LVU1110
 2738 018c 7C9F202E 		lwzx 4,31,4
 2739 0190 7D5F502E 		lwzx 10,31,10
 2740              		.loc 1 207 12 discriminator 1 view .LVU1111
 2741 0194 B1E9FFE2 		sth 15,-30(9)
 2742              		.loc 1 206 12 discriminator 1 view .LVU1112
 2743 0198 B209FFE0 		sth 16,-32(9)
 2744              		.loc 1 207 5 is_stmt 1 view .LVU1113
 2745              	.LVL145:
 2746              	.LBB168:
 2747              	.LBI168:
 2748              		.loc 1 175 10 view .LVU1114
 2749              	.LBB169:
 2750              		.loc 1 176 2 view .LVU1115
 2751              		.loc 1 178 2 view .LVU1116
 2752              		.loc 1 179 2 view .LVU1117
 2753              		.loc 1 181 2 view .LVU1118
 2754              		.loc 1 181 2 is_stmt 0 view .LVU1119
 2755              	.LBE169:
 2756              	.LBE168:
 2757              		.loc 1 208 5 is_stmt 1 view .LVU1120
 2758              	.LBB173:
 2759              	.LBI173:
 2760              		.loc 1 175 10 view .LVU1121
 2761              	.LBB174:
 2762              		.loc 1 176 2 view .LVU1122
 2763              		.loc 1 178 2 view .LVU1123
 2764              		.loc 1 179 2 view .LVU1124
 2765              		.loc 1 181 2 view .LVU1125
 2766              		.loc 1 181 2 is_stmt 0 view .LVU1126
 2767              	.LBE174:
 2768              	.LBE173:
 2769              		.loc 1 208 12 discriminator 1 view .LVU1127
 2770 019c B269FFE4 		sth 19,-28(9)
 2771              		.loc 1 209 5 is_stmt 1 view .LVU1128
 2772              	.LVL146:
 2773              	.LBB178:
 2774              	.LBI178:
 2775              		.loc 1 175 10 view .LVU1129
 2776              	.LBB179:
 2777              		.loc 1 176 2 view .LVU1130
 2778              		.loc 1 178 2 view .LVU1131
 2779              		.loc 1 179 2 view .LVU1132
 2780              		.loc 1 181 2 view .LVU1133
 2781              		.loc 1 181 2 is_stmt 0 view .LVU1134
 2782              	.LBE179:
 2783              	.LBE178:
 2784              		.loc 1 209 12 discriminator 1 view .LVU1135
 2785 01a0 B289FFE6 		sth 20,-26(9)
 2786              		.loc 1 205 4 is_stmt 1 discriminator 3 view .LVU1136
 2787              	.LVL147:
 2788              		.loc 1 205 32 discriminator 1 view .LVU1137
 2789              		.loc 1 206 5 view .LVU1138
 2790              	.LBB183:
 2791              		.loc 1 175 10 view .LVU1139
 2792              	.LBB165:
 2793              		.loc 1 176 2 view .LVU1140
 2794              		.loc 1 178 2 view .LVU1141
 2795              		.loc 1 179 2 view .LVU1142
 2796              		.loc 1 181 2 view .LVU1143
 2797              		.loc 1 181 2 is_stmt 0 view .LVU1144
 2798              	.LBE165:
 2799              	.LBE183:
 2800              		.loc 1 207 12 discriminator 1 view .LVU1145
 2801 01a4 B249FFEA 		sth 18,-22(9)
 2802              		.loc 1 206 12 discriminator 1 view .LVU1146
 2803 01a8 B2E9FFE8 		sth 23,-24(9)
 2804              		.loc 1 207 5 is_stmt 1 view .LVU1147
 2805              	.LVL148:
 2806              	.LBB184:
 2807              		.loc 1 175 10 view .LVU1148
 2808              	.LBB170:
 2809              		.loc 1 176 2 view .LVU1149
 2810              		.loc 1 178 2 view .LVU1150
 2811              		.loc 1 179 2 view .LVU1151
 2812              		.loc 1 181 2 view .LVU1152
 2813              		.loc 1 181 2 is_stmt 0 view .LVU1153
 2814              	.LBE170:
 2815              	.LBE184:
 2816              		.loc 1 208 5 is_stmt 1 view .LVU1154
 2817              	.LBB185:
 2818              		.loc 1 175 10 view .LVU1155
 2819              	.LBB175:
 2820              		.loc 1 176 2 view .LVU1156
 2821              		.loc 1 178 2 view .LVU1157
 2822              		.loc 1 179 2 view .LVU1158
 2823              		.loc 1 181 2 view .LVU1159
 2824              		.loc 1 181 2 is_stmt 0 view .LVU1160
 2825              	.LBE175:
 2826              	.LBE185:
 2827              		.loc 1 208 12 discriminator 1 view .LVU1161
 2828 01ac B309FFEC 		sth 24,-20(9)
 2829              		.loc 1 209 5 is_stmt 1 view .LVU1162
 2830              	.LVL149:
 2831              	.LBB186:
 2832              		.loc 1 175 10 view .LVU1163
 2833              	.LBB180:
 2834              		.loc 1 176 2 view .LVU1164
 2835              		.loc 1 178 2 view .LVU1165
 2836              		.loc 1 179 2 view .LVU1166
 2837              		.loc 1 181 2 view .LVU1167
 2838              		.loc 1 181 2 is_stmt 0 view .LVU1168
 2839              	.LBE180:
 2840              	.LBE186:
 2841              		.loc 1 209 12 discriminator 1 view .LVU1169
 2842 01b0 B329FFEE 		sth 25,-18(9)
 2843              		.loc 1 205 4 is_stmt 1 discriminator 3 view .LVU1170
 2844              	.LVL150:
 2845              		.loc 1 205 32 discriminator 1 view .LVU1171
 2846              		.loc 1 206 5 view .LVU1172
 2847              	.LBB187:
 2848              		.loc 1 175 10 view .LVU1173
 2849              	.LBB166:
 2850              		.loc 1 176 2 view .LVU1174
 2851              		.loc 1 178 2 view .LVU1175
 2852              		.loc 1 179 2 view .LVU1176
 2853              		.loc 1 181 2 view .LVU1177
 2854              		.loc 1 181 2 is_stmt 0 view .LVU1178
 2855              	.LBE166:
 2856              	.LBE187:
 2857              		.loc 1 207 12 discriminator 1 view .LVU1179
 2858 01b4 B349FFF2 		sth 26,-14(9)
 2859              		.loc 1 206 12 discriminator 1 view .LVU1180
 2860 01b8 B369FFF0 		sth 27,-16(9)
 2861              		.loc 1 207 5 is_stmt 1 view .LVU1181
 2862              	.LVL151:
 2863              	.LBB188:
 2864              		.loc 1 175 10 view .LVU1182
 2865              	.LBB171:
 2866              		.loc 1 176 2 view .LVU1183
 2867              		.loc 1 178 2 view .LVU1184
 2868              		.loc 1 179 2 view .LVU1185
 2869              		.loc 1 181 2 view .LVU1186
 2870              		.loc 1 181 2 is_stmt 0 view .LVU1187
 2871              	.LBE171:
 2872              	.LBE188:
 2873              		.loc 1 208 5 is_stmt 1 view .LVU1188
 2874              	.LBB189:
 2875              		.loc 1 175 10 view .LVU1189
 2876              	.LBB176:
 2877              		.loc 1 176 2 view .LVU1190
 2878              		.loc 1 178 2 view .LVU1191
 2879              		.loc 1 179 2 view .LVU1192
 2880              		.loc 1 181 2 view .LVU1193
 2881              		.loc 1 181 2 is_stmt 0 view .LVU1194
 2882              	.LBE176:
 2883              	.LBE189:
 2884              		.loc 1 208 12 discriminator 1 view .LVU1195
 2885 01bc B389FFF4 		sth 28,-12(9)
 2886              		.loc 1 209 5 is_stmt 1 view .LVU1196
 2887              	.LVL152:
 2888              	.LBB190:
 2889              		.loc 1 175 10 view .LVU1197
 2890              	.LBB181:
 2891              		.loc 1 176 2 view .LVU1198
 2892              		.loc 1 178 2 view .LVU1199
 2893              		.loc 1 179 2 view .LVU1200
 2894              		.loc 1 181 2 view .LVU1201
 2895              		.loc 1 181 2 is_stmt 0 view .LVU1202
 2896              	.LBE181:
 2897              	.LBE190:
 2898              		.loc 1 207 12 discriminator 1 view .LVU1203
 2899 01c0 B0C9FFFA 		sth 6,-6(9)
 2900              		.loc 1 209 12 discriminator 1 view .LVU1204
 2901 01c4 B089FFF6 		sth 4,-10(9)
 2902              		.loc 1 205 4 is_stmt 1 discriminator 3 view .LVU1205
 2903              	.LVL153:
 2904              		.loc 1 205 32 discriminator 1 view .LVU1206
 2905              		.loc 1 206 5 view .LVU1207
 2906              	.LBB191:
 2907              		.loc 1 175 10 view .LVU1208
 2908              	.LBB167:
 2909              		.loc 1 176 2 view .LVU1209
 2910              		.loc 1 178 2 view .LVU1210
 2911              		.loc 1 179 2 view .LVU1211
 2912              		.loc 1 181 2 view .LVU1212
 2913              		.loc 1 181 2 is_stmt 0 view .LVU1213
 2914              	.LBE167:
 2915              	.LBE191:
 2916              		.loc 1 208 12 discriminator 1 view .LVU1214
 2917 01c8 B0E9FFFC 		sth 7,-4(9)
 2918              		.loc 1 206 12 discriminator 1 view .LVU1215
 2919 01cc B109FFF8 		sth 8,-8(9)
 2920              		.loc 1 207 5 is_stmt 1 view .LVU1216
 2921              	.LVL154:
 2922              	.LBB192:
 2923              		.loc 1 175 10 view .LVU1217
 2924              	.LBB172:
 2925              		.loc 1 176 2 view .LVU1218
 2926              		.loc 1 178 2 view .LVU1219
 2927              		.loc 1 179 2 view .LVU1220
 2928              		.loc 1 181 2 view .LVU1221
 2929              		.loc 1 181 2 is_stmt 0 view .LVU1222
 2930              	.LBE172:
 2931              	.LBE192:
 2932              		.loc 1 208 5 is_stmt 1 view .LVU1223
 2933              	.LBB193:
 2934              		.loc 1 175 10 view .LVU1224
 2935              	.LBB177:
 2936              		.loc 1 176 2 view .LVU1225
 2937              		.loc 1 178 2 view .LVU1226
 2938              		.loc 1 179 2 view .LVU1227
 2939              		.loc 1 181 2 view .LVU1228
 2940              		.loc 1 181 2 is_stmt 0 view .LVU1229
 2941              	.LBE177:
 2942              	.LBE193:
 2943              		.loc 1 209 5 is_stmt 1 view .LVU1230
 2944              	.LBB194:
 2945              		.loc 1 175 10 view .LVU1231
 2946              	.LBB182:
 2947              		.loc 1 176 2 view .LVU1232
 2948              		.loc 1 178 2 view .LVU1233
 2949              		.loc 1 179 2 view .LVU1234
 2950              		.loc 1 181 2 view .LVU1235
 2951              		.loc 1 181 2 is_stmt 0 view .LVU1236
 2952              	.LBE182:
 2953              	.LBE194:
 2954              		.loc 1 209 12 discriminator 1 view .LVU1237
 2955 01d0 B149FFFE 		sth 10,-2(9)
 2956              		.loc 1 205 4 is_stmt 1 discriminator 3 view .LVU1238
 2957              	.LVL155:
 2958              		.loc 1 205 32 discriminator 1 view .LVU1239
 2959              	.LBE198:
 2960              		.loc 1 204 3 discriminator 2 view .LVU1240
 2961              		.loc 1 204 25 discriminator 1 view .LVU1241
 2962 01d4 4180FEE0 		blt+ 0,.L55
 2963              	.LBE161:
 2964              		.loc 1 203 2 discriminator 2 view .LVU1242
 2965              		.loc 1 203 42 is_stmt 0 discriminator 2 view .LVU1243
 2966 01d8 3A310004 		addi 17,17,4
 2967              	.LVL156:
 2968              		.loc 1 203 24 discriminator 1 view .LVU1244
 2969 01dc 562A043E 		rlwinm 10,17,0,0xffff
 2970              	.LVL157:
 2971              		.loc 1 203 24 is_stmt 1 discriminator 1 view .LVU1245
 2972 01e0 7C0AA840 		cmplw 0,10,21
 2973 01e4 4180FEB8 		blt+ 0,.L54
 2974 01e8 81C10008 		lwz 14,8(1)
 2975              		.cfi_restore 14
 2976 01ec 81E1000C 		lwz 15,12(1)
 2977              		.cfi_restore 15
 2978 01f0 82010010 		lwz 16,16(1)
 2979              		.cfi_restore 16
 2980 01f4 82210014 		lwz 17,20(1)
 2981              		.cfi_restore 17
 2982              	.LVL158:
 2983              		.loc 1 203 24 is_stmt 0 discriminator 1 view .LVU1246
 2984 01f8 82410018 		lwz 18,24(1)
 2985              		.cfi_restore 18
 2986 01fc 8261001C 		lwz 19,28(1)
 2987              		.cfi_restore 19
 2988 0200 82810020 		lwz 20,32(1)
 2989              		.cfi_restore 20
 2990 0204 82E1002C 		lwz 23,44(1)
 2991              		.cfi_restore 23
 2992 0208 83010030 		lwz 24,48(1)
 2993              		.cfi_restore 24
 2994 020c 83210034 		lwz 25,52(1)
 2995              		.cfi_restore 25
 2996 0210 83410038 		lwz 26,56(1)
 2997              		.cfi_restore 26
 2998 0214 8361003C 		lwz 27,60(1)
 2999              		.cfi_restore 27
 3000 0218 83810040 		lwz 28,64(1)
 3001              		.cfi_restore 28
 3002              	.LVL159:
 3003              	.L53:
 3004              		.loc 1 203 24 discriminator 1 view .LVU1247
 3005              	.LBE199:
 3006              		.loc 1 213 2 is_stmt 1 view .LVU1248
 3007              		.loc 1 213 14 is_stmt 0 view .LVU1249
 3008 021c 7FA3EB78 		mr 3,29
 3009 0220 7FC4F378 		mr 4,30
 3010 0224 48000001 		bl DCFlushRange
 3011              	.LVL160:
 3012              		.loc 1 215 2 is_stmt 1 view .LVU1250
 3013              		.loc 1 216 1 is_stmt 0 view .LVU1251
 3014 0228 80010054 		lwz 0,84(1)
 3015 022c 7FA3EB78 		mr 3,29
 3016 0230 82A10024 		lwz 21,36(1)
 3017              	.LVL161:
 3018              		.loc 1 216 1 view .LVU1252
 3019 0234 82C10028 		lwz 22,40(1)
 3020              	.LVL162:
 3021              		.loc 1 216 1 view .LVU1253
 3022 0238 7C0803A6 		mtlr 0
 3023              		.cfi_restore 65
 3024 023c 83A10044 		lwz 29,68(1)
 3025              	.LVL163:
 3026              		.loc 1 216 1 view .LVU1254
 3027 0240 83C10048 		lwz 30,72(1)
 3028              	.LVL164:
 3029              		.loc 1 216 1 view .LVU1255
 3030 0244 83E1004C 		lwz 31,76(1)
 3031              	.LVL165:
 3032              		.loc 1 216 1 view .LVU1256
 3033 0248 38210050 		addi 1,1,80
 3034              		.cfi_restore 31
 3035              		.cfi_restore 30
 3036              		.cfi_restore 29
 3037              		.cfi_restore 22
 3038              		.cfi_restore 21
 3039              		.cfi_def_cfa_offset 0
 3040 024c 4E800020 		blr
 3041              	.LVL166:
 3042              	.L65:
 3043              		.cfi_def_cfa_offset 80
 3044              		.cfi_offset 17, -60
 3045              		.cfi_offset 21, -44
 3046              		.cfi_offset 22, -40
 3047              		.cfi_offset 29, -12
 3048              		.cfi_offset 30, -8
 3049              		.cfi_offset 31, -4
 3050              		.cfi_offset 65, 4
 3051              		.loc 1 216 1 view .LVU1257
 3052 0250 82210014 		lwz 17,20(1)
 3053              		.cfi_restore 17
 3054 0254 4BFFFFC8 		b .L53
 3055              		.cfi_endproc
 3056              	.LFE73:
 3057              		.size	_ZN11Metaphrasis18convertBufferToIA8EPjtt, .-_ZN11Metaphrasis18convertBufferToIA8EPjtt
 3058              		.section	.text._ZN11Metaphrasis20convertBufferToRGBA8EPjtt,"ax",@progbits
 3059              		.align 2
 3060              		.globl _ZN11Metaphrasis20convertBufferToRGBA8EPjtt
 3061              		.type	_ZN11Metaphrasis20convertBufferToRGBA8EPjtt, @function
 3062              	_ZN11Metaphrasis20convertBufferToRGBA8EPjtt:
 3063              	.LVL167:
 3064              	.LFB74:
 3065              		.loc 1 229 112 is_stmt 1 view -0
 3066              		.cfi_startproc
 3067              		.loc 1 230 2 view .LVU1259
 3068              		.loc 1 229 112 is_stmt 0 view .LVU1260
 3069 0000 9421FFA8 		stwu 1,-88(1)
 3070              		.cfi_def_cfa_offset 88
 3071 0004 7C0802A6 		mflr 0
 3072 0008 93A1004C 		stw 29,76(1)
 3073              		.cfi_register 65, 0
 3074              		.cfi_offset 29, -12
 3075              		.loc 1 230 37 view .LVU1261
 3076 000c 7FA521D6 		mullw 29,5,4
 3077              		.loc 1 229 112 view .LVU1262
 3078 0010 92610024 		stw 19,36(1)
 3079              		.cfi_offset 19, -52
 3080 0014 7C932378 		mr 19,4
 3081 0018 93E10054 		stw 31,84(1)
 3082              		.cfi_offset 31, -4
 3083 001c 7C7F1B78 		mr 31,3
 3084              		.loc 1 231 50 view .LVU1263
 3085 0020 38600020 		li 3,32
 3086              	.LVL168:
 3087              		.loc 1 229 112 view .LVU1264
 3088 0024 9001005C 		stw 0,92(1)
 3089              		.loc 1 230 11 view .LVU1265
 3090 0028 57BD103A 		slwi 29,29,2
 3091              	.LVL169:
 3092              		.loc 1 231 2 is_stmt 1 view .LVU1266
 3093              		.loc 1 229 112 is_stmt 0 view .LVU1267
 3094 002c 93410040 		stw 26,64(1)
 3095              		.loc 1 231 50 view .LVU1268
 3096 0030 7FA4EB78 		mr 4,29
 3097              	.LVL170:
 3098              		.cfi_offset 65, 4
 3099              		.cfi_offset 26, -24
 3100              		.loc 1 229 112 view .LVU1269
 3101 0034 7CBA2B78 		mr 26,5
 3102 0038 93C10050 		stw 30,80(1)
 3103              		.cfi_offset 30, -8
 3104              		.loc 1 231 50 view .LVU1270
 3105 003c 48000001 		bl memalign
 3106              	.LVL171:
 3107              		.loc 1 232 8 view .LVU1271
 3108 0040 7FA5EB78 		mr 5,29
 3109 0044 38800000 		li 4,0
 3110              		.loc 1 231 50 view .LVU1272
 3111 0048 7C7E1B78 		mr 30,3
 3112              	.LVL172:
 3113              		.loc 1 232 2 is_stmt 1 view .LVU1273
 3114              		.loc 1 232 8 is_stmt 0 view .LVU1274
 3115 004c 48000001 		bl memset
 3116              	.LVL173:
 3117              		.loc 1 234 2 is_stmt 1 view .LVU1275
 3118              		.loc 1 235 2 view .LVU1276
 3119              		.loc 1 237 2 view .LVU1277
 3120              	.LBB200:
 3121              		.loc 1 237 32 discriminator 1 view .LVU1278
 3122 0050 2C1A0000 		cmpwi 0,26,0
 3123 0054 418203A8 		beq- 0,.L67
 3124 0058 2C130000 		cmpwi 0,19,0
 3125 005c 9321003C 		stw 25,60(1)
 3126              		.cfi_offset 25, -28
 3127              	.LBE200:
 3128              		.loc 1 235 11 is_stmt 0 view .LVU1279
 3129 0060 7FC9F378 		mr 9,30
 3130              	.LBB223:
 3131              		.loc 1 237 15 view .LVU1280
 3132 0064 3B200000 		li 25,0
 3133 0068 418203C8 		beq- 0,.L79
 3134 006c 91C10010 		stw 14,16(1)
 3135              		.cfi_offset 14, -72
 3136 0070 91E10014 		stw 15,20(1)
 3137              		.cfi_offset 15, -68
 3138 0074 92010018 		stw 16,24(1)
 3139              		.cfi_offset 16, -64
 3140 0078 9221001C 		stw 17,28(1)
 3141              		.cfi_offset 17, -60
 3142 007c 92410020 		stw 18,32(1)
 3143              		.cfi_offset 18, -56
 3144 0080 92810028 		stw 20,40(1)
 3145              		.cfi_offset 20, -48
 3146 0084 92A1002C 		stw 21,44(1)
 3147              		.cfi_offset 21, -44
 3148 0088 92C10030 		stw 22,48(1)
 3149              		.cfi_offset 22, -40
 3150 008c 92E10034 		stw 23,52(1)
 3151              		.cfi_offset 23, -36
 3152 0090 93010038 		stw 24,56(1)
 3153              		.cfi_offset 24, -32
 3154 0094 93610044 		stw 27,68(1)
 3155              		.cfi_offset 27, -20
 3156 0098 93810048 		stw 28,72(1)
 3157              		.cfi_offset 28, -16
 3158 009c 93A1000C 		stw 29,12(1)
 3159 00a0 93410008 		stw 26,8(1)
 3160              	.LVL174:
 3161              	.L68:
 3162              	.LBB201:
 3163              		.loc 1 238 25 is_stmt 1 discriminator 1 view .LVU1281
 3164              	.LBB202:
 3165              	.LBB203:
 3166              		.loc 1 241 34 is_stmt 0 view .LVU1282
 3167 00a4 573D043E 		rlwinm 29,25,0,0xffff
 3168 00a8 7F2803A6 		mtlr 25
 3169              		.loc 1 241 45 view .LVU1283
 3170 00ac 7FBD99D6 		mullw 29,29,19
 3171              	.LBE203:
 3172              	.LBE202:
 3173              		.loc 1 238 16 view .LVU1284
 3174 00b0 38A00000 		li 5,0
 3175 00b4 7FC903A6 		mtctr 30
 3176              	.LBB212:
 3177              	.LBB204:
 3178              		.loc 1 241 45 view .LVU1285
 3179 00b8 7F73EA14 		add 27,19,29
 3180 00bc 7F93DA14 		add 28,19,27
 3181 00c0 7F13E214 		add 24,19,28
 3182              	.LVL175:
 3183              	.L69:
 3184              		.loc 1 241 45 view .LVU1286
 3185              	.LBE204:
 3186              		.loc 1 239 27 is_stmt 1 discriminator 1 view .LVU1287
 3187              	.LBB205:
 3188              		.loc 1 240 30 discriminator 1 view .LVU1288
 3189              		.loc 1 241 6 view .LVU1289
 3190              		.loc 1 241 22 is_stmt 0 view .LVU1290
 3191 00c4 54AA043E 		rlwinm 10,5,0,0xffff
 3192              	.LBE205:
 3193              	.LBE212:
 3194              		.loc 1 238 42 discriminator 2 view .LVU1291
 3195 00c8 38A50004 		addi 5,5,4
 3196              	.LVL176:
 3197              	.LBB213:
 3198              	.LBB206:
 3199              		.loc 1 241 30 view .LVU1292
 3200 00cc 7C8AEA14 		add 4,10,29
 3201              		.loc 1 241 24 view .LVU1293
 3202 00d0 38CA0001 		addi 6,10,1
 3203              		.loc 1 241 61 view .LVU1294
 3204 00d4 5484103A 		slwi 4,4,2
 3205              		.loc 1 241 30 view .LVU1295
 3206 00d8 7C1D3214 		add 0,29,6
 3207              		.loc 1 241 69 view .LVU1296
 3208 00dc 7FDF2214 		add 30,31,4
 3209              		.loc 1 241 61 view .LVU1297
 3210 00e0 5400103A 		slwi 0,0,2
 3211              		.loc 1 241 69 view .LVU1298
 3212 00e4 887E0003 		lbz 3,3(30)
 3213              	.LVL177:
 3214              		.loc 1 241 69 view .LVU1299
 3215 00e8 7D9F0214 		add 12,31,0
 3216              		.loc 1 241 24 view .LVU1300
 3217 00ec 38EA0002 		addi 7,10,2
 3218 00f0 390A0003 		addi 8,10,3
 3219              		.loc 1 241 13 view .LVU1301
 3220 00f4 98690000 		stb 3,0(9)
 3221              		.loc 1 242 6 is_stmt 1 view .LVU1302
 3222              		.loc 1 241 30 is_stmt 0 view .LVU1303
 3223 00f8 7D7D3A14 		add 11,29,7
 3224              		.loc 1 241 61 view .LVU1304
 3225 00fc 556B103A 		slwi 11,11,2
 3226              		.loc 1 241 30 view .LVU1305
 3227 0100 7EDD4214 		add 22,29,8
 3228              		.loc 1 242 63 view .LVU1306
 3229 0104 7C9F20AE 		lbzx 4,31,4
 3230              	.LVL178:
 3231              		.loc 1 241 69 view .LVU1307
 3232 0108 7DDF5A14 		add 14,31,11
 3233              		.loc 1 241 61 view .LVU1308
 3234 010c 56D6103A 		slwi 22,22,2
 3235              		.loc 1 241 30 view .LVU1309
 3236 0110 7C6ADA14 		add 3,10,27
 3237              		.loc 1 242 13 view .LVU1310
 3238 0114 98890001 		stb 4,1(9)
 3239              		.loc 1 240 5 is_stmt 1 discriminator 3 view .LVU1311
 3240              	.LVL179:
 3241              		.loc 1 240 30 discriminator 1 view .LVU1312
 3242              		.loc 1 241 6 view .LVU1313
 3243              		.loc 1 241 69 is_stmt 0 view .LVU1314
 3244 0118 7DFFB214 		add 15,31,22
 3245              		.loc 1 241 61 view .LVU1315
 3246 011c 5463103A 		slwi 3,3,2
 3247              		.loc 1 241 30 view .LVU1316
 3248 0120 7EE6DA14 		add 23,6,27
 3249              		.loc 1 241 69 view .LVU1317
 3250 0124 8AAC0003 		lbz 21,3(12)
 3251              	.LVL180:
 3252              		.loc 1 241 69 view .LVU1318
 3253 0128 7E1F1A14 		add 16,31,3
 3254              		.loc 1 241 61 view .LVU1319
 3255 012c 56F7103A 		slwi 23,23,2
 3256              		.loc 1 241 30 view .LVU1320
 3257 0130 7C87DA14 		add 4,7,27
 3258              		.loc 1 241 13 view .LVU1321
 3259 0134 9AA90002 		stb 21,2(9)
 3260              		.loc 1 242 6 is_stmt 1 view .LVU1322
 3261              		.loc 1 241 69 is_stmt 0 view .LVU1323
 3262 0138 7E3FBA14 		add 17,31,23
 3263              		.loc 1 241 61 view .LVU1324
 3264 013c 5484103A 		slwi 4,4,2
 3265              		.loc 1 241 30 view .LVU1325
 3266 0140 7F48DA14 		add 26,8,27
 3267              		.loc 1 242 63 view .LVU1326
 3268 0144 7EBF00AE 		lbzx 21,31,0
 3269              	.LVL181:
 3270              		.loc 1 241 69 view .LVU1327
 3271 0148 7E5F2214 		add 18,31,4
 3272              		.loc 1 241 61 view .LVU1328
 3273 014c 575A103A 		slwi 26,26,2
 3274              		.loc 1 241 30 view .LVU1329
 3275 0150 7C0AE214 		add 0,10,28
 3276              		.loc 1 242 13 view .LVU1330
 3277 0154 9AA90003 		stb 21,3(9)
 3278              		.loc 1 240 5 is_stmt 1 discriminator 3 view .LVU1331
 3279              	.LVL182:
 3280              		.loc 1 240 30 discriminator 1 view .LVU1332
 3281              		.loc 1 241 6 view .LVU1333
 3282              		.loc 1 241 69 is_stmt 0 view .LVU1334
 3283 0158 7E9FD214 		add 20,31,26
 3284              		.loc 1 241 61 view .LVU1335
 3285 015c 5400103A 		slwi 0,0,2
 3286              		.loc 1 241 30 view .LVU1336
 3287 0160 7D4AC214 		add 10,10,24
 3288              		.loc 1 241 69 view .LVU1337
 3289 0164 8AAE0003 		lbz 21,3(14)
 3290              	.LVL183:
 3291              		.loc 1 241 61 view .LVU1338
 3292 0168 554A103A 		slwi 10,10,2
 3293              	.LBE206:
 3294              	.LBE213:
 3295              	.LBB214:
 3296              	.LBB215:
 3297              		.loc 1 248 10 view .LVU1339
 3298 016c 39290040 		addi 9,9,64
 3299              	.LVL184:
 3300              		.loc 1 248 10 view .LVU1340
 3301              	.LBE215:
 3302              	.LBE214:
 3303              	.LBB220:
 3304              	.LBB207:
 3305              		.loc 1 241 13 view .LVU1341
 3306 0170 9AA9FFC4 		stb 21,-60(9)
 3307              		.loc 1 242 6 is_stmt 1 view .LVU1342
 3308              		.loc 1 241 69 is_stmt 0 view .LVU1343
 3309 0174 7EBF0214 		add 21,31,0
 3310              		.loc 1 242 63 view .LVU1344
 3311 0178 7D7F58AE 		lbzx 11,31,11
 3312              	.LVL185:
 3313              		.loc 1 242 13 view .LVU1345
 3314 017c 9969FFC5 		stb 11,-59(9)
 3315              		.loc 1 240 5 is_stmt 1 discriminator 3 view .LVU1346
 3316              	.LVL186:
 3317              		.loc 1 240 30 discriminator 1 view .LVU1347
 3318              		.loc 1 241 6 view .LVU1348
 3319              		.loc 1 241 69 is_stmt 0 view .LVU1349
 3320 0180 896F0003 		lbz 11,3(15)
 3321              		.loc 1 241 13 view .LVU1350
 3322 0184 9969FFC6 		stb 11,-58(9)
 3323              		.loc 1 242 6 is_stmt 1 view .LVU1351
 3324              		.loc 1 241 30 is_stmt 0 view .LVU1352
 3325 0188 7D66E214 		add 11,6,28
 3326              		.loc 1 241 61 view .LVU1353
 3327 018c 556B103A 		slwi 11,11,2
 3328              		.loc 1 241 30 view .LVU1354
 3329 0190 7CC6C214 		add 6,6,24
 3330              		.loc 1 242 63 view .LVU1355
 3331 0194 7EDFB0AE 		lbzx 22,31,22
 3332              		.loc 1 241 61 view .LVU1356
 3333 0198 54C6103A 		slwi 6,6,2
 3334              		.loc 1 242 13 view .LVU1357
 3335 019c 9AC9FFC7 		stb 22,-57(9)
 3336              		.loc 1 240 5 is_stmt 1 discriminator 3 view .LVU1358
 3337              	.LVL187:
 3338              		.loc 1 240 30 discriminator 1 view .LVU1359
 3339              	.LBE207:
 3340              		.loc 1 239 4 discriminator 2 view .LVU1360
 3341              		.loc 1 239 27 discriminator 1 view .LVU1361
 3342              	.LBB208:
 3343              		.loc 1 240 30 discriminator 1 view .LVU1362
 3344              		.loc 1 241 6 view .LVU1363
 3345              		.loc 1 241 69 is_stmt 0 view .LVU1364
 3346 01a0 8AD00003 		lbz 22,3(16)
 3347              		.loc 1 241 13 view .LVU1365
 3348 01a4 9AC9FFC8 		stb 22,-56(9)
 3349              		.loc 1 242 6 is_stmt 1 view .LVU1366
 3350              		.loc 1 241 69 is_stmt 0 view .LVU1367
 3351 01a8 7EDF5A14 		add 22,31,11
 3352              		.loc 1 242 63 view .LVU1368
 3353 01ac 7C7F18AE 		lbzx 3,31,3
 3354              		.loc 1 242 13 view .LVU1369
 3355 01b0 9869FFC9 		stb 3,-55(9)
 3356              		.loc 1 240 5 is_stmt 1 discriminator 3 view .LVU1370
 3357              	.LVL188:
 3358              		.loc 1 240 30 discriminator 1 view .LVU1371
 3359              		.loc 1 241 6 view .LVU1372
 3360              		.loc 1 241 69 is_stmt 0 view .LVU1373
 3361 01b4 88710003 		lbz 3,3(17)
 3362              		.loc 1 241 13 view .LVU1374
 3363 01b8 9869FFCA 		stb 3,-54(9)
 3364              		.loc 1 242 6 is_stmt 1 view .LVU1375
 3365              		.loc 1 241 30 is_stmt 0 view .LVU1376
 3366 01bc 7C67E214 		add 3,7,28
 3367              		.loc 1 241 61 view .LVU1377
 3368 01c0 5463103A 		slwi 3,3,2
 3369              		.loc 1 241 30 view .LVU1378
 3370 01c4 7CE7C214 		add 7,7,24
 3371              		.loc 1 242 63 view .LVU1379
 3372 01c8 7EFFB8AE 		lbzx 23,31,23
 3373              		.loc 1 241 61 view .LVU1380
 3374 01cc 54E7103A 		slwi 7,7,2
 3375              		.loc 1 242 13 view .LVU1381
 3376 01d0 9AE9FFCB 		stb 23,-53(9)
 3377              		.loc 1 240 5 is_stmt 1 discriminator 3 view .LVU1382
 3378              	.LVL189:
 3379              		.loc 1 240 30 discriminator 1 view .LVU1383
 3380              		.loc 1 241 6 view .LVU1384
 3381              		.loc 1 241 69 is_stmt 0 view .LVU1385
 3382 01d4 8AF20003 		lbz 23,3(18)
 3383              		.loc 1 241 13 view .LVU1386
 3384 01d8 9AE9FFCC 		stb 23,-52(9)
 3385              		.loc 1 242 6 is_stmt 1 view .LVU1387
 3386              		.loc 1 241 69 is_stmt 0 view .LVU1388
 3387 01dc 7EFF1A14 		add 23,31,3
 3388              		.loc 1 242 63 view .LVU1389
 3389 01e0 7C9F20AE 		lbzx 4,31,4
 3390              		.loc 1 242 13 view .LVU1390
 3391 01e4 9889FFCD 		stb 4,-51(9)
 3392              		.loc 1 240 5 is_stmt 1 discriminator 3 view .LVU1391
 3393              	.LVL190:
 3394              		.loc 1 240 30 discriminator 1 view .LVU1392
 3395              		.loc 1 241 6 view .LVU1393
 3396              		.loc 1 241 69 is_stmt 0 view .LVU1394
 3397 01e8 88940003 		lbz 4,3(20)
 3398              		.loc 1 241 13 view .LVU1395
 3399 01ec 9889FFCE 		stb 4,-50(9)
 3400              		.loc 1 242 6 is_stmt 1 view .LVU1396
 3401              		.loc 1 241 30 is_stmt 0 view .LVU1397
 3402 01f0 7C88E214 		add 4,8,28
 3403              		.loc 1 241 61 view .LVU1398
 3404 01f4 5484103A 		slwi 4,4,2
 3405              		.loc 1 241 30 view .LVU1399
 3406 01f8 7D08C214 		add 8,8,24
 3407              		.loc 1 242 63 view .LVU1400
 3408 01fc 7F5FD0AE 		lbzx 26,31,26
 3409              		.loc 1 241 69 view .LVU1401
 3410 0200 7F3F2214 		add 25,31,4
 3411              		.loc 1 241 61 view .LVU1402
 3412 0204 5508103A 		slwi 8,8,2
 3413              		.loc 1 242 63 view .LVU1403
 3414 0208 9B49FFCF 		stb 26,-49(9)
 3415              		.loc 1 240 5 is_stmt 1 discriminator 3 view .LVU1404
 3416              	.LVL191:
 3417              		.loc 1 240 30 discriminator 1 view .LVU1405
 3418              	.LBE208:
 3419              		.loc 1 239 4 discriminator 2 view .LVU1406
 3420              		.loc 1 239 27 discriminator 1 view .LVU1407
 3421              	.LBB209:
 3422              		.loc 1 240 30 discriminator 1 view .LVU1408
 3423              		.loc 1 241 6 view .LVU1409
 3424              		.loc 1 241 13 is_stmt 0 view .LVU1410
 3425 020c 8B550003 		lbz 26,3(21)
 3426 0210 9B49FFD0 		stb 26,-48(9)
 3427              		.loc 1 242 6 is_stmt 1 view .LVU1411
 3428              		.loc 1 241 69 is_stmt 0 view .LVU1412
 3429 0214 7F5F5214 		add 26,31,10
 3430              		.loc 1 242 63 view .LVU1413
 3431 0218 7C1F00AE 		lbzx 0,31,0
 3432              		.loc 1 242 13 view .LVU1414
 3433 021c 9809FFD1 		stb 0,-47(9)
 3434              		.loc 1 240 5 is_stmt 1 discriminator 3 view .LVU1415
 3435              	.LVL192:
 3436              		.loc 1 240 30 discriminator 1 view .LVU1416
 3437              		.loc 1 241 6 view .LVU1417
 3438              		.loc 1 241 69 is_stmt 0 view .LVU1418
 3439 0220 88160003 		lbz 0,3(22)
 3440              		.loc 1 241 13 view .LVU1419
 3441 0224 9809FFD2 		stb 0,-46(9)
 3442              		.loc 1 242 6 is_stmt 1 view .LVU1420
 3443              		.loc 1 242 63 is_stmt 0 view .LVU1421
 3444 0228 7D7F58AE 		lbzx 11,31,11
 3445              		.loc 1 242 13 view .LVU1422
 3446 022c 9969FFD3 		stb 11,-45(9)
 3447              		.loc 1 240 5 is_stmt 1 discriminator 3 view .LVU1423
 3448              	.LVL193:
 3449              		.loc 1 240 30 discriminator 1 view .LVU1424
 3450              		.loc 1 241 6 view .LVU1425
 3451              		.loc 1 241 69 is_stmt 0 view .LVU1426
 3452 0230 89770003 		lbz 11,3(23)
 3453              		.loc 1 241 13 view .LVU1427
 3454 0234 9969FFD4 		stb 11,-44(9)
 3455              		.loc 1 242 6 is_stmt 1 view .LVU1428
 3456              		.loc 1 241 69 is_stmt 0 view .LVU1429
 3457 0238 7D7F3214 		add 11,31,6
 3458              		.loc 1 242 63 view .LVU1430
 3459 023c 7C7F18AE 		lbzx 3,31,3
 3460              		.loc 1 242 13 view .LVU1431
 3461 0240 9869FFD5 		stb 3,-43(9)
 3462              		.loc 1 240 5 is_stmt 1 discriminator 3 view .LVU1432
 3463              	.LVL194:
 3464              		.loc 1 240 30 discriminator 1 view .LVU1433
 3465              		.loc 1 241 6 view .LVU1434
 3466              		.loc 1 241 69 is_stmt 0 view .LVU1435
 3467 0244 88790003 		lbz 3,3(25)
 3468              		.loc 1 241 13 view .LVU1436
 3469 0248 9869FFD6 		stb 3,-42(9)
 3470              		.loc 1 242 6 is_stmt 1 view .LVU1437
 3471              		.loc 1 241 69 is_stmt 0 view .LVU1438
 3472 024c 7C7F3A14 		add 3,31,7
 3473              		.loc 1 242 63 view .LVU1439
 3474 0250 7C9F20AE 		lbzx 4,31,4
 3475              		.loc 1 242 13 view .LVU1440
 3476 0254 9889FFD7 		stb 4,-41(9)
 3477              		.loc 1 240 5 is_stmt 1 discriminator 3 view .LVU1441
 3478              	.LVL195:
 3479              		.loc 1 240 30 discriminator 1 view .LVU1442
 3480              	.LBE209:
 3481              		.loc 1 239 4 discriminator 2 view .LVU1443
 3482              		.loc 1 239 27 discriminator 1 view .LVU1444
 3483              	.LBB210:
 3484              		.loc 1 240 30 discriminator 1 view .LVU1445
 3485              		.loc 1 241 6 view .LVU1446
 3486              		.loc 1 241 69 is_stmt 0 view .LVU1447
 3487 0258 889A0003 		lbz 4,3(26)
 3488              		.loc 1 241 13 view .LVU1448
 3489 025c 9889FFD8 		stb 4,-40(9)
 3490              		.loc 1 242 6 is_stmt 1 view .LVU1449
 3491              		.loc 1 241 69 is_stmt 0 view .LVU1450
 3492 0260 7C9F4214 		add 4,31,8
 3493              		.loc 1 242 63 view .LVU1451
 3494 0264 7D5F50AE 		lbzx 10,31,10
 3495              		.loc 1 242 13 view .LVU1452
 3496 0268 9949FFD9 		stb 10,-39(9)
 3497              		.loc 1 240 5 is_stmt 1 discriminator 3 view .LVU1453
 3498              	.LVL196:
 3499              		.loc 1 240 30 discriminator 1 view .LVU1454
 3500              		.loc 1 241 6 view .LVU1455
 3501              		.loc 1 241 69 is_stmt 0 view .LVU1456
 3502 026c 894B0003 		lbz 10,3(11)
 3503              		.loc 1 241 13 view .LVU1457
 3504 0270 9949FFDA 		stb 10,-38(9)
 3505              		.loc 1 242 6 is_stmt 1 view .LVU1458
 3506              	.LBE210:
 3507              	.LBE220:
 3508              		.loc 1 238 25 is_stmt 0 discriminator 1 view .LVU1459
 3509 0274 54AA043E 		rlwinm 10,5,0,0xffff
 3510 0278 7C0A9840 		cmplw 0,10,19
 3511              	.LBB221:
 3512              	.LBB211:
 3513              		.loc 1 242 63 view .LVU1460
 3514 027c 7D5F30AE 		lbzx 10,31,6
 3515              		.loc 1 242 13 view .LVU1461
 3516 0280 9949FFDB 		stb 10,-37(9)
 3517              		.loc 1 240 5 is_stmt 1 discriminator 3 view .LVU1462
 3518              	.LVL197:
 3519              		.loc 1 240 30 discriminator 1 view .LVU1463
 3520              		.loc 1 241 6 view .LVU1464
 3521              		.loc 1 241 69 is_stmt 0 view .LVU1465
 3522 0284 89430003 		lbz 10,3(3)
 3523              		.loc 1 241 13 view .LVU1466
 3524 0288 9949FFDC 		stb 10,-36(9)
 3525              		.loc 1 242 6 is_stmt 1 view .LVU1467
 3526              		.loc 1 242 63 is_stmt 0 view .LVU1468
 3527 028c 7D5F38AE 		lbzx 10,31,7
 3528              		.loc 1 242 13 view .LVU1469
 3529 0290 9949FFDD 		stb 10,-35(9)
 3530              		.loc 1 240 5 is_stmt 1 discriminator 3 view .LVU1470
 3531              	.LVL198:
 3532              		.loc 1 240 30 discriminator 1 view .LVU1471
 3533              		.loc 1 241 6 view .LVU1472
 3534              		.loc 1 241 69 is_stmt 0 view .LVU1473
 3535 0294 89440003 		lbz 10,3(4)
 3536              		.loc 1 241 13 view .LVU1474
 3537 0298 9949FFDE 		stb 10,-34(9)
 3538              		.loc 1 242 6 is_stmt 1 view .LVU1475
 3539              		.loc 1 242 63 is_stmt 0 view .LVU1476
 3540 029c 7D5F40AE 		lbzx 10,31,8
 3541              		.loc 1 242 13 view .LVU1477
 3542 02a0 9949FFDF 		stb 10,-33(9)
 3543              		.loc 1 240 5 is_stmt 1 discriminator 3 view .LVU1478
 3544              	.LVL199:
 3545              		.loc 1 240 30 discriminator 1 view .LVU1479
 3546              	.LBE211:
 3547              		.loc 1 239 4 discriminator 2 view .LVU1480
 3548              		.loc 1 239 27 discriminator 1 view .LVU1481
 3549              		.loc 1 239 27 is_stmt 0 discriminator 1 view .LVU1482
 3550              	.LBE221:
 3551              	.LBB222:
 3552              		.loc 1 245 27 is_stmt 1 discriminator 1 view .LVU1483
 3553              	.LBB216:
 3554              		.loc 1 246 30 discriminator 1 view .LVU1484
 3555              		.loc 1 247 6 view .LVU1485
 3556              		.loc 1 247 69 is_stmt 0 view .LVU1486
 3557 02a4 895E0001 		lbz 10,1(30)
 3558              		.loc 1 247 13 view .LVU1487
 3559 02a8 9949FFE0 		stb 10,-32(9)
 3560              		.loc 1 248 6 is_stmt 1 view .LVU1488
 3561              		.loc 1 248 69 is_stmt 0 view .LVU1489
 3562 02ac 895E0002 		lbz 10,2(30)
 3563              		.loc 1 248 13 view .LVU1490
 3564 02b0 9949FFE1 		stb 10,-31(9)
 3565              		.loc 1 246 5 is_stmt 1 discriminator 3 view .LVU1491
 3566              	.LVL200:
 3567              		.loc 1 246 30 discriminator 1 view .LVU1492
 3568              		.loc 1 247 6 view .LVU1493
 3569              		.loc 1 247 69 is_stmt 0 view .LVU1494
 3570 02b4 894C0001 		lbz 10,1(12)
 3571              		.loc 1 247 13 view .LVU1495
 3572 02b8 9949FFE2 		stb 10,-30(9)
 3573              		.loc 1 248 6 is_stmt 1 view .LVU1496
 3574              		.loc 1 248 69 is_stmt 0 view .LVU1497
 3575 02bc 894C0002 		lbz 10,2(12)
 3576              		.loc 1 248 13 view .LVU1498
 3577 02c0 9949FFE3 		stb 10,-29(9)
 3578              		.loc 1 246 5 is_stmt 1 discriminator 3 view .LVU1499
 3579              	.LVL201:
 3580              		.loc 1 246 30 discriminator 1 view .LVU1500
 3581              		.loc 1 247 6 view .LVU1501
 3582              		.loc 1 247 69 is_stmt 0 view .LVU1502
 3583 02c4 894E0001 		lbz 10,1(14)
 3584              		.loc 1 247 13 view .LVU1503
 3585 02c8 9949FFE4 		stb 10,-28(9)
 3586              		.loc 1 248 6 is_stmt 1 view .LVU1504
 3587              		.loc 1 248 69 is_stmt 0 view .LVU1505
 3588 02cc 894E0002 		lbz 10,2(14)
 3589              		.loc 1 248 13 view .LVU1506
 3590 02d0 9949FFE5 		stb 10,-27(9)
 3591              		.loc 1 246 5 is_stmt 1 discriminator 3 view .LVU1507
 3592              	.LVL202:
 3593              		.loc 1 246 30 discriminator 1 view .LVU1508
 3594              		.loc 1 247 6 view .LVU1509
 3595              		.loc 1 247 69 is_stmt 0 view .LVU1510
 3596 02d4 894F0001 		lbz 10,1(15)
 3597              		.loc 1 247 13 view .LVU1511
 3598 02d8 9949FFE6 		stb 10,-26(9)
 3599              		.loc 1 248 6 is_stmt 1 view .LVU1512
 3600              		.loc 1 248 69 is_stmt 0 view .LVU1513
 3601 02dc 894F0002 		lbz 10,2(15)
 3602              		.loc 1 248 13 view .LVU1514
 3603 02e0 9949FFE7 		stb 10,-25(9)
 3604              		.loc 1 246 5 is_stmt 1 discriminator 3 view .LVU1515
 3605              	.LVL203:
 3606              		.loc 1 246 30 discriminator 1 view .LVU1516
 3607              	.LBE216:
 3608              		.loc 1 245 4 discriminator 2 view .LVU1517
 3609              		.loc 1 245 27 discriminator 1 view .LVU1518
 3610              	.LBB217:
 3611              		.loc 1 246 30 discriminator 1 view .LVU1519
 3612              		.loc 1 247 6 view .LVU1520
 3613              		.loc 1 247 69 is_stmt 0 view .LVU1521
 3614 02e4 89500001 		lbz 10,1(16)
 3615              		.loc 1 247 13 view .LVU1522
 3616 02e8 9949FFE8 		stb 10,-24(9)
 3617              		.loc 1 248 6 is_stmt 1 view .LVU1523
 3618              		.loc 1 248 69 is_stmt 0 view .LVU1524
 3619 02ec 89500002 		lbz 10,2(16)
 3620              		.loc 1 248 13 view .LVU1525
 3621 02f0 9949FFE9 		stb 10,-23(9)
 3622              		.loc 1 246 5 is_stmt 1 discriminator 3 view .LVU1526
 3623              	.LVL204:
 3624              		.loc 1 246 30 discriminator 1 view .LVU1527
 3625              		.loc 1 247 6 view .LVU1528
 3626              		.loc 1 247 69 is_stmt 0 view .LVU1529
 3627 02f4 89510001 		lbz 10,1(17)
 3628              		.loc 1 247 13 view .LVU1530
 3629 02f8 9949FFEA 		stb 10,-22(9)
 3630              		.loc 1 248 6 is_stmt 1 view .LVU1531
 3631              		.loc 1 248 69 is_stmt 0 view .LVU1532
 3632 02fc 89510002 		lbz 10,2(17)
 3633              		.loc 1 248 13 view .LVU1533
 3634 0300 9949FFEB 		stb 10,-21(9)
 3635              		.loc 1 246 5 is_stmt 1 discriminator 3 view .LVU1534
 3636              	.LVL205:
 3637              		.loc 1 246 30 discriminator 1 view .LVU1535
 3638              		.loc 1 247 6 view .LVU1536
 3639              		.loc 1 247 69 is_stmt 0 view .LVU1537
 3640 0304 89520001 		lbz 10,1(18)
 3641              		.loc 1 247 13 view .LVU1538
 3642 0308 9949FFEC 		stb 10,-20(9)
 3643              		.loc 1 248 6 is_stmt 1 view .LVU1539
 3644              		.loc 1 248 69 is_stmt 0 view .LVU1540
 3645 030c 89520002 		lbz 10,2(18)
 3646              		.loc 1 248 13 view .LVU1541
 3647 0310 9949FFED 		stb 10,-19(9)
 3648              		.loc 1 246 5 is_stmt 1 discriminator 3 view .LVU1542
 3649              	.LVL206:
 3650              		.loc 1 246 30 discriminator 1 view .LVU1543
 3651              		.loc 1 247 6 view .LVU1544
 3652              		.loc 1 247 69 is_stmt 0 view .LVU1545
 3653 0314 89540001 		lbz 10,1(20)
 3654              		.loc 1 247 13 view .LVU1546
 3655 0318 9949FFEE 		stb 10,-18(9)
 3656              		.loc 1 248 6 is_stmt 1 view .LVU1547
 3657              		.loc 1 248 69 is_stmt 0 view .LVU1548
 3658 031c 89540002 		lbz 10,2(20)
 3659              		.loc 1 248 13 view .LVU1549
 3660 0320 9949FFEF 		stb 10,-17(9)
 3661              		.loc 1 246 5 is_stmt 1 discriminator 3 view .LVU1550
 3662              	.LVL207:
 3663              		.loc 1 246 30 discriminator 1 view .LVU1551
 3664              	.LBE217:
 3665              		.loc 1 245 4 discriminator 2 view .LVU1552
 3666              		.loc 1 245 27 discriminator 1 view .LVU1553
 3667              	.LBB218:
 3668              		.loc 1 246 30 discriminator 1 view .LVU1554
 3669              		.loc 1 247 6 view .LVU1555
 3670              		.loc 1 247 69 is_stmt 0 view .LVU1556
 3671 0324 89550001 		lbz 10,1(21)
 3672              		.loc 1 247 13 view .LVU1557
 3673 0328 9949FFF0 		stb 10,-16(9)
 3674              		.loc 1 248 6 is_stmt 1 view .LVU1558
 3675              		.loc 1 248 69 is_stmt 0 view .LVU1559
 3676 032c 89550002 		lbz 10,2(21)
 3677              		.loc 1 248 13 view .LVU1560
 3678 0330 9949FFF1 		stb 10,-15(9)
 3679              		.loc 1 246 5 is_stmt 1 discriminator 3 view .LVU1561
 3680              	.LVL208:
 3681              		.loc 1 246 30 discriminator 1 view .LVU1562
 3682              		.loc 1 247 6 view .LVU1563
 3683              		.loc 1 247 69 is_stmt 0 view .LVU1564
 3684 0334 89560001 		lbz 10,1(22)
 3685              		.loc 1 247 13 view .LVU1565
 3686 0338 9949FFF2 		stb 10,-14(9)
 3687              		.loc 1 248 6 is_stmt 1 view .LVU1566
 3688              		.loc 1 248 69 is_stmt 0 view .LVU1567
 3689 033c 89560002 		lbz 10,2(22)
 3690              		.loc 1 248 13 view .LVU1568
 3691 0340 9949FFF3 		stb 10,-13(9)
 3692              		.loc 1 246 5 is_stmt 1 discriminator 3 view .LVU1569
 3693              	.LVL209:
 3694              		.loc 1 246 30 discriminator 1 view .LVU1570
 3695              		.loc 1 247 6 view .LVU1571
 3696              		.loc 1 247 69 is_stmt 0 view .LVU1572
 3697 0344 89570001 		lbz 10,1(23)
 3698              		.loc 1 247 13 view .LVU1573
 3699 0348 9949FFF4 		stb 10,-12(9)
 3700              		.loc 1 248 6 is_stmt 1 view .LVU1574
 3701              		.loc 1 248 69 is_stmt 0 view .LVU1575
 3702 034c 89570002 		lbz 10,2(23)
 3703              		.loc 1 248 13 view .LVU1576
 3704 0350 9949FFF5 		stb 10,-11(9)
 3705              		.loc 1 246 5 is_stmt 1 discriminator 3 view .LVU1577
 3706              	.LVL210:
 3707              		.loc 1 246 30 discriminator 1 view .LVU1578
 3708              		.loc 1 247 6 view .LVU1579
 3709              		.loc 1 247 69 is_stmt 0 view .LVU1580
 3710 0354 89590001 		lbz 10,1(25)
 3711              		.loc 1 247 13 view .LVU1581
 3712 0358 9949FFF6 		stb 10,-10(9)
 3713              		.loc 1 248 6 is_stmt 1 view .LVU1582
 3714              		.loc 1 248 69 is_stmt 0 view .LVU1583
 3715 035c 89590002 		lbz 10,2(25)
 3716              		.loc 1 248 13 view .LVU1584
 3717 0360 9949FFF7 		stb 10,-9(9)
 3718              		.loc 1 246 5 is_stmt 1 discriminator 3 view .LVU1585
 3719              	.LVL211:
 3720              		.loc 1 246 30 discriminator 1 view .LVU1586
 3721              	.LBE218:
 3722              		.loc 1 245 4 discriminator 2 view .LVU1587
 3723              		.loc 1 245 27 discriminator 1 view .LVU1588
 3724              	.LBB219:
 3725              		.loc 1 246 30 discriminator 1 view .LVU1589
 3726              		.loc 1 247 6 view .LVU1590
 3727              		.loc 1 247 69 is_stmt 0 view .LVU1591
 3728 0364 895A0001 		lbz 10,1(26)
 3729              		.loc 1 247 13 view .LVU1592
 3730 0368 9949FFF8 		stb 10,-8(9)
 3731              		.loc 1 248 6 is_stmt 1 view .LVU1593
 3732              		.loc 1 248 69 is_stmt 0 view .LVU1594
 3733 036c 895A0002 		lbz 10,2(26)
 3734              		.loc 1 248 13 view .LVU1595
 3735 0370 9949FFF9 		stb 10,-7(9)
 3736              		.loc 1 246 5 is_stmt 1 discriminator 3 view .LVU1596
 3737              	.LVL212:
 3738              		.loc 1 246 30 discriminator 1 view .LVU1597
 3739              		.loc 1 247 6 view .LVU1598
 3740              		.loc 1 247 69 is_stmt 0 view .LVU1599
 3741 0374 894B0001 		lbz 10,1(11)
 3742              		.loc 1 247 13 view .LVU1600
 3743 0378 9949FFFA 		stb 10,-6(9)
 3744              		.loc 1 248 6 is_stmt 1 view .LVU1601
 3745              		.loc 1 248 69 is_stmt 0 view .LVU1602
 3746 037c 894B0002 		lbz 10,2(11)
 3747              		.loc 1 248 13 view .LVU1603
 3748 0380 9949FFFB 		stb 10,-5(9)
 3749              		.loc 1 246 5 is_stmt 1 discriminator 3 view .LVU1604
 3750              	.LVL213:
 3751              		.loc 1 246 30 discriminator 1 view .LVU1605
 3752              		.loc 1 247 6 view .LVU1606
 3753              		.loc 1 247 69 is_stmt 0 view .LVU1607
 3754 0384 89430001 		lbz 10,1(3)
 3755              		.loc 1 247 13 view .LVU1608
 3756 0388 9949FFFC 		stb 10,-4(9)
 3757              		.loc 1 248 6 is_stmt 1 view .LVU1609
 3758              		.loc 1 248 69 is_stmt 0 view .LVU1610
 3759 038c 89430002 		lbz 10,2(3)
 3760              		.loc 1 248 13 view .LVU1611
 3761 0390 9949FFFD 		stb 10,-3(9)
 3762              		.loc 1 246 5 is_stmt 1 discriminator 3 view .LVU1612
 3763              	.LVL214:
 3764              		.loc 1 246 30 discriminator 1 view .LVU1613
 3765              		.loc 1 247 6 view .LVU1614
 3766              		.loc 1 247 69 is_stmt 0 view .LVU1615
 3767 0394 89440001 		lbz 10,1(4)
 3768              		.loc 1 247 13 view .LVU1616
 3769 0398 9949FFFE 		stb 10,-2(9)
 3770              		.loc 1 248 6 is_stmt 1 view .LVU1617
 3771              	.LVL215:
 3772              		.loc 1 248 69 is_stmt 0 view .LVU1618
 3773 039c 89440002 		lbz 10,2(4)
 3774              		.loc 1 248 13 view .LVU1619
 3775 03a0 9949FFFF 		stb 10,-1(9)
 3776              		.loc 1 246 5 is_stmt 1 discriminator 3 view .LVU1620
 3777              	.LVL216:
 3778              		.loc 1 246 30 discriminator 1 view .LVU1621
 3779              	.LBE219:
 3780              		.loc 1 245 4 discriminator 2 view .LVU1622
 3781              		.loc 1 245 27 discriminator 1 view .LVU1623
 3782              	.LBE222:
 3783              		.loc 1 238 3 discriminator 2 view .LVU1624
 3784              		.loc 1 238 25 discriminator 1 view .LVU1625
 3785 03a4 4180FD20 		blt+ 0,.L69
 3786              	.LBE201:
 3787              		.loc 1 237 54 is_stmt 0 discriminator 2 view .LVU1626
 3788 03a8 7F2802A6 		mflr 25
 3789              		.loc 1 237 32 discriminator 1 view .LVU1627
 3790 03ac 81010008 		lwz 8,8(1)
 3791              		.loc 1 237 54 discriminator 2 view .LVU1628
 3792 03b0 7FC902A6 		mfctr 30
 3793              		.loc 1 237 2 is_stmt 1 discriminator 2 view .LVU1629
 3794              		.loc 1 237 54 is_stmt 0 discriminator 2 view .LVU1630
 3795 03b4 3B390004 		addi 25,25,4
 3796              		.loc 1 237 32 discriminator 1 view .LVU1631
 3797 03b8 572A043E 		rlwinm 10,25,0,0xffff
 3798              	.LVL217:
 3799              		.loc 1 237 32 is_stmt 1 discriminator 1 view .LVU1632
 3800 03bc 7C0A4040 		cmplw 0,10,8
 3801 03c0 4180FCE4 		blt+ 0,.L68
 3802              	.LVL218:
 3803              		.loc 1 237 32 is_stmt 0 discriminator 1 view .LVU1633
 3804 03c4 83A1000C 		lwz 29,12(1)
 3805 03c8 81C10010 		lwz 14,16(1)
 3806              		.cfi_restore 14
 3807 03cc 81E10014 		lwz 15,20(1)
 3808              		.cfi_restore 15
 3809 03d0 82010018 		lwz 16,24(1)
 3810              		.cfi_restore 16
 3811 03d4 8221001C 		lwz 17,28(1)
 3812              		.cfi_restore 17
 3813 03d8 82410020 		lwz 18,32(1)
 3814              		.cfi_restore 18
 3815 03dc 82810028 		lwz 20,40(1)
 3816              		.cfi_restore 20
 3817 03e0 82A1002C 		lwz 21,44(1)
 3818              		.cfi_restore 21
 3819 03e4 82C10030 		lwz 22,48(1)
 3820              		.cfi_restore 22
 3821 03e8 82E10034 		lwz 23,52(1)
 3822              		.cfi_restore 23
 3823 03ec 83010038 		lwz 24,56(1)
 3824              		.cfi_restore 24
 3825 03f0 8321003C 		lwz 25,60(1)
 3826              		.cfi_restore 25
 3827              	.LVL219:
 3828              		.loc 1 237 32 discriminator 1 view .LVU1634
 3829 03f4 83610044 		lwz 27,68(1)
 3830              		.cfi_restore 27
 3831 03f8 83810048 		lwz 28,72(1)
 3832              		.cfi_restore 28
 3833              	.LVL220:
 3834              	.L67:
 3835              		.loc 1 237 32 discriminator 1 view .LVU1635
 3836              	.LBE223:
 3837              		.loc 1 253 2 is_stmt 1 view .LVU1636
 3838              		.loc 1 253 14 is_stmt 0 view .LVU1637
 3839 03fc 7FC3F378 		mr 3,30
 3840 0400 7FA4EB78 		mr 4,29
 3841 0404 48000001 		bl DCFlushRange
 3842              	.LVL221:
 3843              		.loc 1 255 2 is_stmt 1 view .LVU1638
 3844              		.loc 1 256 1 is_stmt 0 view .LVU1639
 3845 0408 8001005C 		lwz 0,92(1)
 3846 040c 7FC3F378 		mr 3,30
 3847 0410 82610024 		lwz 19,36(1)
 3848              	.LVL222:
 3849              		.loc 1 256 1 view .LVU1640
 3850 0414 83410040 		lwz 26,64(1)
 3851 0418 7C0803A6 		mtlr 0
 3852              		.cfi_restore 65
 3853 041c 83A1004C 		lwz 29,76(1)
 3854 0420 83C10050 		lwz 30,80(1)
 3855              	.LVL223:
 3856              		.loc 1 256 1 view .LVU1641
 3857 0424 83E10054 		lwz 31,84(1)
 3858              	.LVL224:
 3859              		.loc 1 256 1 view .LVU1642
 3860 0428 38210058 		addi 1,1,88
 3861              		.cfi_restore 31
 3862              		.cfi_restore 30
 3863              		.cfi_restore 29
 3864              		.cfi_restore 26
 3865              		.cfi_restore 19
 3866              		.cfi_def_cfa_offset 0
 3867 042c 4E800020 		blr
 3868              	.LVL225:
 3869              	.L79:
 3870              		.cfi_def_cfa_offset 88
 3871              		.cfi_offset 19, -52
 3872              		.cfi_offset 25, -28
 3873              		.cfi_offset 26, -24
 3874              		.cfi_offset 29, -12
 3875              		.cfi_offset 30, -8
 3876              		.cfi_offset 31, -4
 3877              		.cfi_offset 65, 4
 3878              		.loc 1 256 1 view .LVU1643
 3879 0430 8321003C 		lwz 25,60(1)
 3880              		.cfi_restore 25
 3881 0434 4BFFFFC8 		b .L67
 3882              		.cfi_endproc
 3883              	.LFE74:
 3884              		.size	_ZN11Metaphrasis20convertBufferToRGBA8EPjtt, .-_ZN11Metaphrasis20convertBufferToRGBA8EPjtt
 3885              		.section	.text._ZN11Metaphrasis19convertRGBAToRGB565Ej,"ax",@progbits
 3886              		.align 2
 3887              		.globl _ZN11Metaphrasis19convertRGBAToRGB565Ej
 3888              		.type	_ZN11Metaphrasis19convertRGBAToRGB565Ej, @function
 3889              	_ZN11Metaphrasis19convertRGBAToRGB565Ej:
 3890              	.LVL226:
 3891              	.LFB75:
 3892              		.loc 1 268 58 is_stmt 1 view -0
 3893              		.cfi_startproc
 3894              		.loc 1 269 2 view .LVU1645
 3895              		.loc 1 271 2 view .LVU1646
 3896              		.loc 1 271 14 is_stmt 0 view .LVU1647
 3897 0000 5469463E 		srwi 9,3,24
 3898              		.loc 1 272 21 view .LVU1648
 3899 0004 5468863E 		rlwinm 8,3,16,24,31
 3900              		.loc 1 271 29 view .LVU1649
 3901 0008 1D29001F 		mulli 9,9,31
 3902              		.loc 1 271 35 view .LVU1650
 3903 000c 3CE08080 		lis 7,0x8080
 3904              	.LVL227:
 3905              		.loc 1 272 2 is_stmt 1 view .LVU1651
 3906              		.loc 1 273 2 view .LVU1652
 3907              		.loc 1 275 2 view .LVU1653
 3908              		.loc 1 272 29 is_stmt 0 view .LVU1654
 3909 0010 1D08003F 		mulli 8,8,63
 3910              		.loc 1 271 35 view .LVU1655
 3911 0014 60E78081 		ori 7,7,0x8081
 3912              		.loc 1 273 21 view .LVU1656
 3913 0018 546AC63E 		rlwinm 10,3,24,24,31
 3914              		.loc 1 271 35 view .LVU1657
 3915 001c 7C693816 		mulhwu 3,9,7
 3916              	.LVL228:
 3917              		.loc 1 272 35 view .LVU1658
 3918 0020 7D083816 		mulhwu 8,8,7
 3919              		.loc 1 275 14 view .LVU1659
 3920 0024 5463F872 		rlwinm 3,3,31,1,25
 3921              		.loc 1 273 29 view .LVU1660
 3922 0028 1D2A001F 		mulli 9,10,31
 3923              		.loc 1 272 35 view .LVU1661
 3924 002c 5508C9FE 		srwi 8,8,7
 3925              		.loc 1 275 20 view .LVU1662
 3926 0030 7C634378 		or 3,3,8
 3927              		.loc 1 273 35 view .LVU1663
 3928 0034 7D293816 		mulhwu 9,9,7
 3929              		.loc 1 275 33 view .LVU1664
 3930 0038 54632834 		slwi 3,3,5
 3931              		.loc 1 273 35 view .LVU1665
 3932 003c 5529C9FE 		srwi 9,9,7
 3933              		.loc 1 275 33 view .LVU1666
 3934 0040 7C634B78 		or 3,3,9
 3935              		.loc 1 276 1 view .LVU1667
 3936 0044 5463043E 		rlwinm 3,3,0,0xffff
 3937 0048 4E800020 		blr
 3938              		.cfi_endproc
 3939              	.LFE75:
 3940              		.size	_ZN11Metaphrasis19convertRGBAToRGB565Ej, .-_ZN11Metaphrasis19convertRGBAToRGB565Ej
 3941              		.section	.text._ZN11Metaphrasis21convertBufferToRGB565EPjtt,"ax",@progbits
 3942              		.align 2
 3943              		.globl _ZN11Metaphrasis21convertBufferToRGB565EPjtt
 3944              		.type	_ZN11Metaphrasis21convertBufferToRGB565EPjtt, @function
 3945              	_ZN11Metaphrasis21convertBufferToRGB565EPjtt:
 3946              	.LVL229:
 3947              	.LFB76:
 3948              		.loc 1 289 113 is_stmt 1 view -0
 3949              		.cfi_startproc
 3950              		.loc 1 290 2 view .LVU1669
 3951              		.loc 1 289 113 is_stmt 0 view .LVU1670
 3952 0000 9421FF98 		stwu 1,-104(1)
 3953              		.cfi_def_cfa_offset 104
 3954 0004 7C0802A6 		mflr 0
 3955 0008 92610034 		stw 19,52(1)
 3956              		.cfi_register 65, 0
 3957              		.cfi_offset 19, -52
 3958              		.loc 1 290 37 view .LVU1671
 3959 000c 7E6521D6 		mullw 19,5,4
 3960              		.loc 1 289 113 view .LVU1672
 3961 0010 92A1003C 		stw 21,60(1)
 3962              		.cfi_offset 21, -44
 3963 0014 7C952378 		mr 21,4
 3964 0018 93E10064 		stw 31,100(1)
 3965              		.cfi_offset 31, -4
 3966 001c 7C7F1B78 		mr 31,3
 3967              		.loc 1 291 51 view .LVU1673
 3968 0020 38600020 		li 3,32
 3969              	.LVL230:
 3970              		.loc 1 289 113 view .LVU1674
 3971 0024 9001006C 		stw 0,108(1)
 3972              		.loc 1 290 11 view .LVU1675
 3973 0028 5673083C 		slwi 19,19,1
 3974              	.LVL231:
 3975              		.loc 1 291 2 is_stmt 1 view .LVU1676
 3976              		.loc 1 289 113 is_stmt 0 view .LVU1677
 3977 002c 92810038 		stw 20,56(1)
 3978              		.loc 1 291 51 view .LVU1678
 3979 0030 7E649B78 		mr 4,19
 3980              	.LVL232:
 3981              		.loc 1 289 113 view .LVU1679
 3982 0034 93A1005C 		stw 29,92(1)
 3983              		.cfi_offset 65, 4
 3984              		.cfi_offset 20, -48
 3985              		.cfi_offset 29, -12
 3986 0038 7CBD2B78 		mr 29,5
 3987              		.loc 1 291 51 view .LVU1680
 3988 003c 48000001 		bl memalign
 3989              	.LVL233:
 3990              		.loc 1 292 8 view .LVU1681
 3991 0040 7E659B78 		mr 5,19
 3992 0044 38800000 		li 4,0
 3993              		.loc 1 291 51 view .LVU1682
 3994 0048 7C741B78 		mr 20,3
 3995              	.LVL234:
 3996              		.loc 1 292 2 is_stmt 1 view .LVU1683
 3997              		.loc 1 292 8 is_stmt 0 view .LVU1684
 3998 004c 48000001 		bl memset
 3999              	.LVL235:
 4000              		.loc 1 294 2 is_stmt 1 view .LVU1685
 4001              		.loc 1 295 2 view .LVU1686
 4002              		.loc 1 297 2 view .LVU1687
 4003              	.LBB224:
 4004              		.loc 1 297 24 discriminator 1 view .LVU1688
 4005 0050 2C1D0000 		cmpwi 0,29,0
 4006 0054 418205F4 		beq- 0,.L82
 4007 0058 2C150000 		cmpwi 0,21,0
 4008              	.LBB225:
 4009              	.LBB226:
 4010              	.LBB227:
 4011              	.LBB228:
 4012              		.loc 1 271 35 is_stmt 0 view .LVU1689
 4013 005c 3D208080 		lis 9,0x8080
 4014 0060 9221002C 		stw 17,44(1)
 4015              		.cfi_offset 17, -60
 4016 0064 61298081 		ori 9,9,0x8081
 4017              	.LBE228:
 4018              	.LBE227:
 4019              	.LBE226:
 4020              	.LBE225:
 4021              	.LBE224:
 4022              		.loc 1 295 12 view .LVU1690
 4023 0068 7E8AA378 		mr 10,20
 4024              	.LBB563:
 4025              		.loc 1 297 15 view .LVU1691
 4026 006c 3A200000 		li 17,0
 4027 0070 4182060C 		beq- 0,.L94
 4028 0074 91C10020 		stw 14,32(1)
 4029              		.cfi_offset 14, -72
 4030 0078 91E10024 		stw 15,36(1)
 4031              		.cfi_offset 15, -68
 4032 007c 92010028 		stw 16,40(1)
 4033              		.cfi_offset 16, -64
 4034 0080 92410030 		stw 18,48(1)
 4035              		.cfi_offset 18, -56
 4036 0084 92C10040 		stw 22,64(1)
 4037              		.cfi_offset 22, -40
 4038 0088 92E10044 		stw 23,68(1)
 4039              		.cfi_offset 23, -36
 4040 008c 93010048 		stw 24,72(1)
 4041              		.cfi_offset 24, -32
 4042 0090 9321004C 		stw 25,76(1)
 4043              		.cfi_offset 25, -28
 4044 0094 93410050 		stw 26,80(1)
 4045              		.cfi_offset 26, -24
 4046 0098 93610054 		stw 27,84(1)
 4047              		.cfi_offset 27, -20
 4048 009c 93810058 		stw 28,88(1)
 4049              		.cfi_offset 28, -16
 4050 00a0 93C10060 		stw 30,96(1)
 4051              		.cfi_offset 30, -8
 4052 00a4 92610014 		stw 19,20(1)
 4053 00a8 92810018 		stw 20,24(1)
 4054 00ac 93A10010 		stw 29,16(1)
 4055              	.LVL236:
 4056              	.L83:
 4057              	.LBB562:
 4058              		.loc 1 298 25 is_stmt 1 discriminator 1 view .LVU1692
 4059              	.LBB557:
 4060              		.loc 1 300 53 is_stmt 0 view .LVU1693
 4061 00b0 5634043E 		rlwinm 20,17,0,0xffff
 4062 00b4 B221000C 		sth 17,12(1)
 4063              		.loc 1 300 63 view .LVU1694
 4064 00b8 7E94A9D6 		mullw 20,20,21
 4065 00bc 92A10008 		stw 21,8(1)
 4066              	.LBE557:
 4067              		.loc 1 298 16 view .LVU1695
 4068 00c0 3AC00000 		li 22,0
 4069              	.LBB558:
 4070              		.loc 1 300 63 view .LVU1696
 4071 00c4 7E55A214 		add 18,21,20
 4072 00c8 7E759214 		add 19,21,18
 4073 00cc 7E159A14 		add 16,21,19
 4074              	.LVL237:
 4075              	.L84:
 4076              		.loc 1 299 32 is_stmt 1 discriminator 1 view .LVU1697
 4077              		.loc 1 300 5 view .LVU1698
 4078              		.loc 1 300 81 is_stmt 0 view .LVU1699
 4079 00d0 56C8043E 		rlwinm 8,22,0,0xffff
 4080              	.LBE558:
 4081              		.loc 1 298 42 discriminator 2 view .LVU1700
 4082 00d4 3AD60004 		addi 22,22,4
 4083              	.LVL238:
 4084              	.LBB559:
 4085              		.loc 1 301 83 view .LVU1701
 4086 00d8 3B080001 		addi 24,8,1
 4087              		.loc 1 303 83 view .LVU1702
 4088 00dc 38880003 		addi 4,8,3
 4089              		.loc 1 301 87 view .LVU1703
 4090 00e0 7FD4C214 		add 30,20,24
 4091              		.loc 1 303 87 view .LVU1704
 4092 00e4 7CB42214 		add 5,20,4
 4093              		.loc 1 301 46 view .LVU1705
 4094 00e8 57DE103A 		slwi 30,30,2
 4095              		.loc 1 302 83 view .LVU1706
 4096 00ec 3BA80002 		addi 29,8,2
 4097              		.loc 1 301 46 view .LVU1707
 4098 00f0 7FDFF02E 		lwzx 30,31,30
 4099              		.loc 1 300 87 view .LVU1708
 4100 00f4 7D744214 		add 11,20,8
 4101 00f8 7DE89214 		add 15,8,18
 4102 00fc 7F289A14 		add 25,8,19
 4103              		.loc 1 303 46 view .LVU1709
 4104 0100 54A5103A 		slwi 5,5,2
 4105              		.loc 1 300 87 view .LVU1710
 4106 0104 7D088214 		add 8,8,16
 4107              		.loc 1 303 46 view .LVU1711
 4108 0108 7CFF282E 		lwzx 7,31,5
 4109              		.loc 1 300 46 view .LVU1712
 4110 010c 551C103A 		slwi 28,8,2
 4111              	.LBB259:
 4112              	.LBB260:
 4113              		.loc 1 272 21 view .LVU1713
 4114 0110 57C5863E 		rlwinm 5,30,16,24,31
 4115              		.loc 1 271 14 view .LVU1714
 4116 0114 57C8463E 		srwi 8,30,24
 4117              		.loc 1 271 29 view .LVU1715
 4118 0118 1D08001F 		mulli 8,8,31
 4119              	.LBE260:
 4120              	.LBE259:
 4121              		.loc 1 301 87 view .LVU1716
 4122 011c 7E389214 		add 17,24,18
 4123              	.LBB305:
 4124              	.LBB261:
 4125              		.loc 1 272 29 view .LVU1717
 4126 0120 1CA5003F 		mulli 5,5,63
 4127              	.LBE261:
 4128              	.LBE305:
 4129              		.loc 1 300 46 view .LVU1718
 4130 0124 556B103A 		slwi 11,11,2
 4131              	.LBB306:
 4132              	.LBB262:
 4133              		.loc 1 271 35 view .LVU1719
 4134 0128 7D084816 		mulhwu 8,8,9
 4135              	.LBE262:
 4136              	.LBE306:
 4137              		.loc 1 301 46 view .LVU1720
 4138 012c 5631103A 		slwi 17,17,2
 4139              		.loc 1 300 46 view .LVU1721
 4140 0130 7F7F582E 		lwzx 27,31,11
 4141              	.LVL239:
 4142              	.LBB307:
 4143              	.LBI227:
 4144              		.loc 1 268 10 is_stmt 1 view .LVU1722
 4145              	.LBB229:
 4146              		.loc 1 269 2 view .LVU1723
 4147              		.loc 1 271 2 view .LVU1724
 4148              		.loc 1 272 2 view .LVU1725
 4149              		.loc 1 273 2 view .LVU1726
 4150              		.loc 1 275 2 view .LVU1727
 4151              		.loc 1 275 2 is_stmt 0 view .LVU1728
 4152              	.LBE229:
 4153              	.LBE307:
 4154              		.loc 1 303 87 view .LVU1729
 4155 0134 7D649A14 		add 11,4,19
 4156              		.loc 1 301 46 view .LVU1730
 4157 0138 7E3F882E 		lwzx 17,31,17
 4158              		.loc 1 300 46 view .LVU1731
 4159 013c 55EF103A 		slwi 15,15,2
 4160 0140 5739103A 		slwi 25,25,2
 4161 0144 7DDF782E 		lwzx 14,31,15
 4162              	.LBB308:
 4163              	.LBB263:
 4164              		.loc 1 272 35 view .LVU1732
 4165 0148 7CA54816 		mulhwu 5,5,9
 4166              	.LBE263:
 4167              	.LBE308:
 4168              		.loc 1 303 46 view .LVU1733
 4169 014c 556B103A 		slwi 11,11,2
 4170              	.LBB309:
 4171              	.LBB264:
 4172              		.loc 1 275 14 view .LVU1734
 4173 0150 5508F872 		rlwinm 8,8,31,1,25
 4174              	.LBE264:
 4175              	.LBE309:
 4176              		.loc 1 300 46 view .LVU1735
 4177 0154 7DFFC82E 		lwzx 15,31,25
 4178              		.loc 1 303 46 view .LVU1736
 4179 0158 7F3F582E 		lwzx 25,31,11
 4180              	.LBB310:
 4181              	.LBB265:
 4182              		.loc 1 271 14 view .LVU1737
 4183 015c 562B463E 		srwi 11,17,24
 4184              	.LBE265:
 4185              	.LBE310:
 4186              		.loc 1 302 87 view .LVU1738
 4187 0160 7C74EA14 		add 3,20,29
 4188              		.loc 1 300 46 view .LVU1739
 4189 0164 7F9FE02E 		lwzx 28,31,28
 4190              	.LBB311:
 4191              	.LBB266:
 4192              		.loc 1 272 35 view .LVU1740
 4193 0168 54A5C9FE 		srwi 5,5,7
 4194              		.loc 1 271 29 view .LVU1741
 4195 016c 1D6B001F 		mulli 11,11,31
 4196              		.loc 1 275 20 view .LVU1742
 4197 0170 7D082B78 		or 8,8,5
 4198              		.loc 1 272 21 view .LVU1743
 4199 0174 5625863E 		rlwinm 5,17,16,24,31
 4200              		.loc 1 272 29 view .LVU1744
 4201 0178 1CA5003F 		mulli 5,5,63
 4202              	.LBE266:
 4203              	.LBE311:
 4204              		.loc 1 302 46 view .LVU1745
 4205 017c 5463103A 		slwi 3,3,2
 4206              	.LBB312:
 4207              	.LBB267:
 4208              		.loc 1 271 35 view .LVU1746
 4209 0180 7D6B4816 		mulhwu 11,11,9
 4210              	.LBE267:
 4211              	.LBE312:
 4212              		.loc 1 302 46 view .LVU1747
 4213 0184 7C7F182E 		lwzx 3,31,3
 4214              		.loc 1 302 87 view .LVU1748
 4215 0188 7CDD9214 		add 6,29,18
 4216              	.LBB313:
 4217              	.LBB314:
 4218              		.loc 1 272 21 view .LVU1749
 4219 018c 5475863E 		rlwinm 21,3,16,24,31
 4220              	.LBE314:
 4221              	.LBE313:
 4222              		.loc 1 303 87 view .LVU1750
 4223 0190 7EE49214 		add 23,4,18
 4224              	.LBB357:
 4225              	.LBB268:
 4226              		.loc 1 272 35 view .LVU1751
 4227 0194 7CA54816 		mulhwu 5,5,9
 4228              	.LBE268:
 4229              	.LBE357:
 4230              		.loc 1 301 87 view .LVU1752
 4231 0198 7C189A14 		add 0,24,19
 4232              		.loc 1 302 87 view .LVU1753
 4233 019c 7F5D9A14 		add 26,29,19
 4234              		.loc 1 301 87 view .LVU1754
 4235 01a0 7F188214 		add 24,24,16
 4236              		.loc 1 302 87 view .LVU1755
 4237 01a4 7FBD8214 		add 29,29,16
 4238              	.LBB358:
 4239              	.LBB269:
 4240              		.loc 1 272 35 view .LVU1756
 4241 01a8 54A5C9FE 		srwi 5,5,7
 4242              	.LBE269:
 4243              	.LBE358:
 4244              		.loc 1 303 87 view .LVU1757
 4245 01ac 7C848214 		add 4,4,16
 4246              	.LBB359:
 4247              	.LBB270:
 4248              		.loc 1 275 14 view .LVU1758
 4249 01b0 556BF872 		rlwinm 11,11,31,1,25
 4250              	.LBE270:
 4251              	.LBE359:
 4252              		.loc 1 303 46 view .LVU1759
 4253 01b4 56F7103A 		slwi 23,23,2
 4254              		.loc 1 301 46 view .LVU1760
 4255 01b8 5718103A 		slwi 24,24,2
 4256              		.loc 1 302 46 view .LVU1761
 4257 01bc 575A103A 		slwi 26,26,2
 4258 01c0 57BD103A 		slwi 29,29,2
 4259              		.loc 1 303 46 view .LVU1762
 4260 01c4 5484103A 		slwi 4,4,2
 4261              	.LBB360:
 4262              	.LBB271:
 4263              		.loc 1 275 20 view .LVU1763
 4264 01c8 7D6B2B78 		or 11,11,5
 4265              	.LBE271:
 4266              	.LBE360:
 4267              	.LBB361:
 4268              	.LBB315:
 4269              		.loc 1 272 29 view .LVU1764
 4270 01cc 1CB5003F 		mulli 5,21,63
 4271              	.LBE315:
 4272              	.LBE361:
 4273              		.loc 1 303 46 view .LVU1765
 4274 01d0 7D9FB82E 		lwzx 12,31,23
 4275              	.LBB362:
 4276              	.LBB272:
 4277              		.loc 1 273 21 view .LVU1766
 4278 01d4 57DEC63E 		rlwinm 30,30,24,24,31
 4279              	.LBE272:
 4280              	.LBE362:
 4281              		.loc 1 301 46 view .LVU1767
 4282 01d8 7EFFC02E 		lwzx 23,31,24
 4283              	.LBB363:
 4284              	.LBB316:
 4285              		.loc 1 272 35 view .LVU1768
 4286 01dc 7CA54816 		mulhwu 5,5,9
 4287              	.LBE316:
 4288              	.LBE363:
 4289              		.loc 1 302 46 view .LVU1769
 4290 01e0 7F1FD02E 		lwzx 24,31,26
 4291              	.LBB364:
 4292              	.LBB273:
 4293              		.loc 1 273 21 view .LVU1770
 4294 01e4 5631C63E 		rlwinm 17,17,24,24,31
 4295              	.LBE273:
 4296              	.LBE364:
 4297              		.loc 1 302 46 view .LVU1771
 4298 01e8 7F5FE82E 		lwzx 26,31,29
 4299              	.LBB365:
 4300              	.LBB274:
 4301              		.loc 1 275 33 view .LVU1772
 4302 01ec 55082834 		slwi 8,8,5
 4303              	.LBE274:
 4304              	.LBE365:
 4305              		.loc 1 303 46 view .LVU1773
 4306 01f0 7FBF202E 		lwzx 29,31,4
 4307              	.LBB366:
 4308              	.LBB317:
 4309              		.loc 1 271 14 view .LVU1774
 4310 01f4 5464463E 		srwi 4,3,24
 4311              		.loc 1 271 29 view .LVU1775
 4312 01f8 1C84001F 		mulli 4,4,31
 4313              		.loc 1 272 35 view .LVU1776
 4314 01fc 7CA803A6 		mtlr 5
 4315              	.LBE317:
 4316              	.LBE366:
 4317              	.LBB367:
 4318              	.LBB275:
 4319              		.loc 1 273 29 view .LVU1777
 4320 0200 1FDE001F 		mulli 30,30,31
 4321              	.LBE275:
 4322              	.LBE367:
 4323              	.LBB368:
 4324              	.LBB318:
 4325              		.loc 1 272 35 view .LVU1778
 4326 0204 7EA802A6 		mflr 21
 4327              		.loc 1 271 35 view .LVU1779
 4328 0208 7C844816 		mulhwu 4,4,9
 4329              		.loc 1 272 35 view .LVU1780
 4330 020c 56B5C9FE 		srwi 21,21,7
 4331              	.LBE318:
 4332              	.LBE368:
 4333              	.LBB369:
 4334              	.LBB370:
 4335              		.loc 1 271 14 view .LVU1781
 4336 0210 54E5463E 		srwi 5,7,24
 4337              	.LBE370:
 4338              	.LBE369:
 4339              		.loc 1 302 46 view .LVU1782
 4340 0214 54C6103A 		slwi 6,6,2
 4341              		.loc 1 301 46 view .LVU1783
 4342 0218 5400103A 		slwi 0,0,2
 4343              		.loc 1 302 46 view .LVU1784
 4344 021c 7CDF302E 		lwzx 6,31,6
 4345              	.LBB416:
 4346              	.LBB276:
 4347              		.loc 1 273 35 view .LVU1785
 4348 0220 7FDE4816 		mulhwu 30,30,9
 4349              	.LBE276:
 4350              	.LBE416:
 4351              	.LBB417:
 4352              	.LBB319:
 4353              		.loc 1 275 14 view .LVU1786
 4354 0224 5484F872 		rlwinm 4,4,31,1,25
 4355              		.loc 1 275 20 view .LVU1787
 4356 0228 7C84AB78 		or 4,4,21
 4357              	.LBE319:
 4358              	.LBE417:
 4359              		.loc 1 301 46 view .LVU1788
 4360 022c 7C1F002E 		lwzx 0,31,0
 4361              	.LBB418:
 4362              	.LBB371:
 4363              		.loc 1 272 21 view .LVU1789
 4364 0230 54F5863E 		rlwinm 21,7,16,24,31
 4365              		.loc 1 273 21 view .LVU1790
 4366 0234 54E7C63E 		rlwinm 7,7,24,24,31
 4367              	.LBE371:
 4368              	.LBE418:
 4369              	.LBB419:
 4370              	.LBB277:
 4371              		.loc 1 273 29 view .LVU1791
 4372 0238 1E31001F 		mulli 17,17,31
 4373              		.loc 1 273 35 view .LVU1792
 4374 023c 57DEC9FE 		srwi 30,30,7
 4375              	.LBE277:
 4376              	.LBE419:
 4377              	.LBB420:
 4378              	.LBB372:
 4379              		.loc 1 273 29 view .LVU1793
 4380 0240 1CE7001F 		mulli 7,7,31
 4381              	.LBE372:
 4382              	.LBE420:
 4383              	.LBB421:
 4384              	.LBB278:
 4385              		.loc 1 275 33 view .LVU1794
 4386 0244 7D08F378 		or 8,8,30
 4387              	.LBE278:
 4388              	.LBE421:
 4389              	.LBB422:
 4390              	.LBB373:
 4391              		.loc 1 271 29 view .LVU1795
 4392 0248 1CA5001F 		mulli 5,5,31
 4393              	.LBE373:
 4394              	.LBE422:
 4395              		.loc 1 301 12 discriminator 1 view .LVU1796
 4396 024c B10A0002 		sth 8,2(10)
 4397              	.LBB423:
 4398              	.LBB374:
 4399              		.loc 1 273 29 view .LVU1797
 4400 0250 7CE903A6 		mtctr 7
 4401              	.LBE374:
 4402              	.LBE423:
 4403              	.LBB424:
 4404              	.LBB279:
 4405              		.loc 1 273 35 view .LVU1798
 4406 0254 7CF14816 		mulhwu 7,17,9
 4407              		.loc 1 275 33 view .LVU1799
 4408 0258 556B2834 		slwi 11,11,5
 4409              	.LBE279:
 4410              	.LBE424:
 4411              	.LBB425:
 4412              	.LBB320:
 4413              		.loc 1 272 21 view .LVU1800
 4414 025c 54D1863E 		rlwinm 17,6,16,24,31
 4415              		.loc 1 273 21 view .LVU1801
 4416 0260 5463C63E 		rlwinm 3,3,24,24,31
 4417              	.LBE320:
 4418              	.LBE425:
 4419              	.LBB426:
 4420              	.LBB375:
 4421              		.loc 1 272 29 view .LVU1802
 4422 0264 1FD5003F 		mulli 30,21,63
 4423              	.LBE375:
 4424              	.LBE426:
 4425              	.LBB427:
 4426              	.LBB280:
 4427              		.loc 1 273 35 view .LVU1803
 4428 0268 54E7C9FE 		srwi 7,7,7
 4429              	.LBE280:
 4430              	.LBE427:
 4431              	.LBB428:
 4432              	.LBB376:
 4433              		.loc 1 271 35 view .LVU1804
 4434 026c 7CA54816 		mulhwu 5,5,9
 4435              	.LBE376:
 4436              	.LBE428:
 4437              	.LBB429:
 4438              	.LBB281:
 4439              		.loc 1 275 33 view .LVU1805
 4440 0270 7D6B3B78 		or 11,11,7
 4441              	.LBE281:
 4442              	.LBE429:
 4443              		.loc 1 301 12 discriminator 1 view .LVU1806
 4444 0274 B16A000A 		sth 11,10(10)
 4445              	.LBB430:
 4446              	.LBB377:
 4447              		.loc 1 272 21 view .LVU1807
 4448 0278 558B863E 		rlwinm 11,12,16,24,31
 4449              	.LBE377:
 4450              	.LBE430:
 4451              	.LBB431:
 4452              	.LBB321:
 4453              		.loc 1 275 33 view .LVU1808
 4454 027c 54842834 		slwi 4,4,5
 4455              	.LBE321:
 4456              	.LBE431:
 4457              		.loc 1 303 9 discriminator 1 view .LVU1809
 4458 0280 394A0020 		addi 10,10,32
 4459              	.LVL240:
 4460              	.LBB432:
 4461              	.LBB378:
 4462              		.loc 1 272 35 view .LVU1810
 4463 0284 7D1E4816 		mulhwu 8,30,9
 4464              	.LBE378:
 4465              	.LBE432:
 4466              	.LBB433:
 4467              	.LBB322:
 4468              		.loc 1 271 14 view .LVU1811
 4469 0288 54DE463E 		srwi 30,6,24
 4470              	.LBE322:
 4471              	.LBE433:
 4472              	.LBB434:
 4473              	.LBB379:
 4474              		.loc 1 275 14 view .LVU1812
 4475 028c 54A5F872 		rlwinm 5,5,31,1,25
 4476              	.LBE379:
 4477              	.LBE434:
 4478              	.LBB435:
 4479              	.LBB323:
 4480              		.loc 1 273 21 view .LVU1813
 4481 0290 54C6C63E 		rlwinm 6,6,24,24,31
 4482              		.loc 1 271 29 view .LVU1814
 4483 0294 1FDE001F 		mulli 30,30,31
 4484              	.LBE323:
 4485              	.LBE435:
 4486              	.LBB436:
 4487              	.LBB380:
 4488              		.loc 1 272 35 view .LVU1815
 4489 0298 5508C9FE 		srwi 8,8,7
 4490              	.LBE380:
 4491              	.LBE436:
 4492              	.LBB437:
 4493              	.LBB324:
 4494              		.loc 1 272 29 view .LVU1816
 4495 029c 1E31003F 		mulli 17,17,63
 4496              	.LBE324:
 4497              	.LBE437:
 4498              	.LBB438:
 4499              	.LBB381:
 4500              		.loc 1 275 20 view .LVU1817
 4501 02a0 7CA54378 		or 5,5,8
 4502              		.loc 1 272 29 view .LVU1818
 4503 02a4 1D6B003F 		mulli 11,11,63
 4504              		.loc 1 275 33 view .LVU1819
 4505 02a8 54A52834 		slwi 5,5,5
 4506              	.LBE381:
 4507              	.LBE438:
 4508              	.LBB439:
 4509              	.LBB325:
 4510              		.loc 1 271 35 view .LVU1820
 4511 02ac 7D1E4816 		mulhwu 8,30,9
 4512              	.LBE325:
 4513              	.LBE439:
 4514              	.LBB440:
 4515              	.LBB382:
 4516              		.loc 1 271 14 view .LVU1821
 4517 02b0 559E463E 		srwi 30,12,24
 4518              		.loc 1 273 21 view .LVU1822
 4519 02b4 558CC63E 		rlwinm 12,12,24,24,31
 4520              	.LBE382:
 4521              	.LBE440:
 4522              	.LBB441:
 4523              	.LBB326:
 4524              		.loc 1 272 35 view .LVU1823
 4525 02b8 7E314816 		mulhwu 17,17,9
 4526              		.loc 1 275 14 view .LVU1824
 4527 02bc 5508F872 		rlwinm 8,8,31,1,25
 4528              	.LBE326:
 4529              	.LBE441:
 4530              	.LBB442:
 4531              	.LBB383:
 4532              		.loc 1 272 35 view .LVU1825
 4533 02c0 7D6B4816 		mulhwu 11,11,9
 4534              	.LBE383:
 4535              	.LBE442:
 4536              	.LBB443:
 4537              	.LBB327:
 4538 02c4 5631C9FE 		srwi 17,17,7
 4539              		.loc 1 275 20 view .LVU1826
 4540 02c8 7D088B78 		or 8,8,17
 4541              	.LBE327:
 4542              	.LBE443:
 4543              	.LBB444:
 4544              	.LBB282:
 4545              		.loc 1 271 14 view .LVU1827
 4546 02cc 5411463E 		srwi 17,0,24
 4547              	.LBE282:
 4548              	.LBE444:
 4549              	.LBB445:
 4550              	.LBB328:
 4551              		.loc 1 275 33 view .LVU1828
 4552 02d0 55082834 		slwi 8,8,5
 4553              	.LBE328:
 4554              	.LBE445:
 4555              	.LBB446:
 4556              	.LBB384:
 4557              		.loc 1 271 29 view .LVU1829
 4558 02d4 1FDE001F 		mulli 30,30,31
 4559              		.loc 1 272 35 view .LVU1830
 4560 02d8 5567C9FE 		srwi 7,11,7
 4561              	.LBE384:
 4562              	.LBE446:
 4563              	.LBB447:
 4564              	.LBB283:
 4565              		.loc 1 272 21 view .LVU1831
 4566 02dc 540B863E 		rlwinm 11,0,16,24,31
 4567              		.loc 1 271 29 view .LVU1832
 4568 02e0 1E31001F 		mulli 17,17,31
 4569              	.LBE283:
 4570              	.LBE447:
 4571              	.LBB448:
 4572              	.LBB385:
 4573              		.loc 1 271 35 view .LVU1833
 4574 02e4 7FDE4816 		mulhwu 30,30,9
 4575              	.LBE385:
 4576              	.LBE448:
 4577              	.LBB449:
 4578              	.LBB284:
 4579              		.loc 1 273 21 view .LVU1834
 4580 02e8 5400C63E 		rlwinm 0,0,24,24,31
 4581              		.loc 1 272 29 view .LVU1835
 4582 02ec 1D6B003F 		mulli 11,11,63
 4583              	.LBE284:
 4584              	.LBE449:
 4585              	.LBB450:
 4586              	.LBB386:
 4587              		.loc 1 275 14 view .LVU1836
 4588 02f0 57DEF872 		rlwinm 30,30,31,1,25
 4589              		.loc 1 275 20 view .LVU1837
 4590 02f4 7FDE3B78 		or 30,30,7
 4591              	.LBE386:
 4592              	.LBE450:
 4593              	.LBB451:
 4594              	.LBB285:
 4595              		.loc 1 271 35 view .LVU1838
 4596 02f8 7E314816 		mulhwu 17,17,9
 4597              	.LBE285:
 4598              	.LBE451:
 4599              	.LBB452:
 4600              	.LBB387:
 4601              		.loc 1 275 33 view .LVU1839
 4602 02fc 57DE2834 		slwi 30,30,5
 4603              	.LBE387:
 4604              	.LBE452:
 4605              	.LBB453:
 4606              	.LBB286:
 4607              		.loc 1 272 35 view .LVU1840
 4608 0300 7CEB4816 		mulhwu 7,11,9
 4609              		.loc 1 275 14 view .LVU1841
 4610 0304 5631F872 		rlwinm 17,17,31,1,25
 4611              		.loc 1 271 14 view .LVU1842
 4612 0308 56EB463E 		srwi 11,23,24
 4613              	.LBE286:
 4614              	.LBE453:
 4615              	.LBB454:
 4616              	.LBB329:
 4617              		.loc 1 273 29 view .LVU1843
 4618 030c 1C63001F 		mulli 3,3,31
 4619              	.LBE329:
 4620              	.LBE454:
 4621              	.LBB455:
 4622              	.LBB287:
 4623              		.loc 1 272 35 view .LVU1844
 4624 0310 54E7C9FE 		srwi 7,7,7
 4625              		.loc 1 275 20 view .LVU1845
 4626 0314 7E313B78 		or 17,17,7
 4627              		.loc 1 272 21 view .LVU1846
 4628 0318 56E7863E 		rlwinm 7,23,16,24,31
 4629              	.LBE287:
 4630              	.LBE455:
 4631              	.LBB456:
 4632              	.LBB330:
 4633              		.loc 1 273 35 view .LVU1847
 4634 031c 7C634816 		mulhwu 3,3,9
 4635              	.LBE330:
 4636              	.LBE456:
 4637              	.LBB457:
 4638              	.LBB288:
 4639              		.loc 1 273 21 view .LVU1848
 4640 0320 56F7C63E 		rlwinm 23,23,24,24,31
 4641              		.loc 1 275 33 view .LVU1849
 4642 0324 56312834 		slwi 17,17,5
 4643              		.loc 1 271 29 view .LVU1850
 4644 0328 1D6B001F 		mulli 11,11,31
 4645              	.LBE288:
 4646              	.LBE457:
 4647              	.LBB458:
 4648              	.LBB331:
 4649              		.loc 1 273 35 view .LVU1851
 4650 032c 5463C9FE 		srwi 3,3,7
 4651              	.LBE331:
 4652              	.LBE458:
 4653              	.LBB459:
 4654              	.LBB289:
 4655              		.loc 1 272 29 view .LVU1852
 4656 0330 1CE7003F 		mulli 7,7,63
 4657              	.LBE289:
 4658              	.LBE459:
 4659              	.LBB460:
 4660              	.LBB332:
 4661              		.loc 1 275 33 view .LVU1853
 4662 0334 7C841B78 		or 4,4,3
 4663              	.LBE332:
 4664              	.LBE460:
 4665              	.LBB461:
 4666              	.LBB290:
 4667              		.loc 1 271 35 view .LVU1854
 4668 0338 7D6B4816 		mulhwu 11,11,9
 4669              	.LBE290:
 4670              	.LBE461:
 4671              		.loc 1 302 12 discriminator 1 view .LVU1855
 4672 033c B08AFFE4 		sth 4,-28(10)
 4673              	.LBB462:
 4674              	.LBB388:
 4675              		.loc 1 273 35 view .LVU1856
 4676 0340 7C8902A6 		mfctr 4
 4677              	.LBE388:
 4678              	.LBE462:
 4679              	.LBB463:
 4680              	.LBB333:
 4681              		.loc 1 271 14 view .LVU1857
 4682 0344 5703463E 		srwi 3,24,24
 4683              	.LBE333:
 4684              	.LBE463:
 4685              	.LBB464:
 4686              	.LBB291:
 4687              		.loc 1 272 35 view .LVU1858
 4688 0348 7CE74816 		mulhwu 7,7,9
 4689              		.loc 1 275 14 view .LVU1859
 4690 034c 556BF872 		rlwinm 11,11,31,1,25
 4691              	.LBE291:
 4692              	.LBE464:
 4693              	.LBB465:
 4694              	.LBB389:
 4695              		.loc 1 273 35 view .LVU1860
 4696 0350 7C844816 		mulhwu 4,4,9
 4697              	.LBE389:
 4698              	.LBE465:
 4699              	.LBB466:
 4700              	.LBB292:
 4701              		.loc 1 272 35 view .LVU1861
 4702 0354 54E7C9FE 		srwi 7,7,7
 4703              		.loc 1 275 20 view .LVU1862
 4704 0358 7D6B3B78 		or 11,11,7
 4705              	.LBE292:
 4706              	.LBE466:
 4707              	.LBB467:
 4708              	.LBB334:
 4709              		.loc 1 272 21 view .LVU1863
 4710 035c 5707863E 		rlwinm 7,24,16,24,31
 4711              		.loc 1 273 21 view .LVU1864
 4712 0360 5718C63E 		rlwinm 24,24,24,24,31
 4713              		.loc 1 272 29 view .LVU1865
 4714 0364 1CE7003F 		mulli 7,7,63
 4715              	.LBE334:
 4716              	.LBE467:
 4717              	.LBB468:
 4718              	.LBB390:
 4719              		.loc 1 273 35 view .LVU1866
 4720 0368 5484C9FE 		srwi 4,4,7
 4721              		.loc 1 275 33 view .LVU1867
 4722 036c 7CA52378 		or 5,5,4
 4723              	.LBE390:
 4724              	.LBE468:
 4725              	.LBB469:
 4726              	.LBB335:
 4727              		.loc 1 271 29 view .LVU1868
 4728 0370 1C63001F 		mulli 3,3,31
 4729              	.LBE335:
 4730              	.LBE469:
 4731              		.loc 1 303 12 discriminator 1 view .LVU1869
 4732 0374 B0AAFFE6 		sth 5,-26(10)
 4733              	.LBB470:
 4734              	.LBB336:
 4735              		.loc 1 272 35 view .LVU1870
 4736 0378 7CA74816 		mulhwu 5,7,9
 4737              	.LBE336:
 4738              	.LBE470:
 4739              	.LBB471:
 4740              	.LBB391:
 4741              		.loc 1 272 21 view .LVU1871
 4742 037c 5727863E 		rlwinm 7,25,16,24,31
 4743              		.loc 1 271 14 view .LVU1872
 4744 0380 5724463E 		srwi 4,25,24
 4745              		.loc 1 273 21 view .LVU1873
 4746 0384 5739C63E 		rlwinm 25,25,24,24,31
 4747              		.loc 1 272 29 view .LVU1874
 4748 0388 1CE7003F 		mulli 7,7,63
 4749              	.LBE391:
 4750              	.LBE471:
 4751              	.LBB472:
 4752              	.LBB337:
 4753              		.loc 1 272 35 view .LVU1875
 4754 038c 54A5C9FE 		srwi 5,5,7
 4755              		.loc 1 271 35 view .LVU1876
 4756 0390 7C634816 		mulhwu 3,3,9
 4757              	.LBE337:
 4758              	.LBE472:
 4759              	.LBB473:
 4760              	.LBB293:
 4761              		.loc 1 275 33 view .LVU1877
 4762 0394 556B2834 		slwi 11,11,5
 4763              	.LBE293:
 4764              	.LBE473:
 4765              	.LBB474:
 4766              	.LBB392:
 4767              		.loc 1 272 35 view .LVU1878
 4768 0398 7CE74816 		mulhwu 7,7,9
 4769              	.LBE392:
 4770              	.LBE474:
 4771              	.LBB475:
 4772              	.LBB338:
 4773              		.loc 1 275 14 view .LVU1879
 4774 039c 5463F872 		rlwinm 3,3,31,1,25
 4775              		.loc 1 275 20 view .LVU1880
 4776 03a0 7C632B78 		or 3,3,5
 4777              		.loc 1 271 14 view .LVU1881
 4778 03a4 5745463E 		srwi 5,26,24
 4779              		.loc 1 275 33 view .LVU1882
 4780 03a8 54632834 		slwi 3,3,5
 4781              	.LBE338:
 4782              	.LBE475:
 4783              	.LBB476:
 4784              	.LBB393:
 4785              		.loc 1 272 35 view .LVU1883
 4786 03ac 54E7C9FE 		srwi 7,7,7
 4787              	.LBE393:
 4788              	.LBE476:
 4789              	.LBB477:
 4790              	.LBB339:
 4791              		.loc 1 273 29 view .LVU1884
 4792 03b0 1CC6001F 		mulli 6,6,31
 4793              	.LBE339:
 4794              	.LBE477:
 4795              	.LBB478:
 4796              	.LBB394:
 4797              		.loc 1 272 35 view .LVU1885
 4798 03b4 7CE803A6 		mtlr 7
 4799              	.LBE394:
 4800              	.LBE478:
 4801              	.LBB479:
 4802              	.LBB340:
 4803              		.loc 1 272 21 view .LVU1886
 4804 03b8 5747863E 		rlwinm 7,26,16,24,31
 4805              		.loc 1 272 29 view .LVU1887
 4806 03bc 1CE7003F 		mulli 7,7,63
 4807              	.LBE340:
 4808              	.LBE479:
 4809              	.LBB480:
 4810              	.LBB395:
 4811              		.loc 1 275 20 view .LVU1888
 4812 03c0 7EA802A6 		mflr 21
 4813              	.LBE395:
 4814              	.LBE480:
 4815              	.LBB481:
 4816              	.LBB341:
 4817              		.loc 1 273 35 view .LVU1889
 4818 03c4 7CC64816 		mulhwu 6,6,9
 4819              		.loc 1 273 21 view .LVU1890
 4820 03c8 575AC63E 		rlwinm 26,26,24,24,31
 4821              		.loc 1 272 35 view .LVU1891
 4822 03cc 7CE74816 		mulhwu 7,7,9
 4823              		.loc 1 273 35 view .LVU1892
 4824 03d0 54C6C9FE 		srwi 6,6,7
 4825              		.loc 1 275 33 view .LVU1893
 4826 03d4 7D083378 		or 8,8,6
 4827              	.LBE341:
 4828              	.LBE481:
 4829              		.loc 1 302 12 discriminator 1 view .LVU1894
 4830 03d8 B10AFFEC 		sth 8,-20(10)
 4831              	.LBB482:
 4832              	.LBB230:
 4833              		.loc 1 271 14 view .LVU1895
 4834 03dc 55C8463E 		srwi 8,14,24
 4835              	.LBE230:
 4836              	.LBE482:
 4837              	.LBB483:
 4838              	.LBB342:
 4839              		.loc 1 272 35 view .LVU1896
 4840 03e0 7CE903A6 		mtctr 7
 4841              	.LBE342:
 4842              	.LBE483:
 4843              	.LBB484:
 4844              	.LBB231:
 4845              		.loc 1 271 14 view .LVU1897
 4846 03e4 5767463E 		srwi 7,27,24
 4847              		.loc 1 271 29 view .LVU1898
 4848 03e8 1CE7001F 		mulli 7,7,31
 4849              	.LBE231:
 4850              	.LBE484:
 4851              	.LBB485:
 4852              	.LBB396:
 4853 03ec 1C84001F 		mulli 4,4,31
 4854              	.LBE396:
 4855              	.LBE485:
 4856              	.LBB486:
 4857              	.LBB232:
 4858              		.loc 1 271 35 view .LVU1899
 4859 03f0 7CE74816 		mulhwu 7,7,9
 4860 03f4 7CE803A6 		mtlr 7
 4861              		.loc 1 272 21 view .LVU1900
 4862 03f8 5767863E 		rlwinm 7,27,16,24,31
 4863              		.loc 1 272 29 view .LVU1901
 4864 03fc 1CE7003F 		mulli 7,7,63
 4865              		.loc 1 275 14 view .LVU1902
 4866 0400 7CC802A6 		mflr 6
 4867              	.LBE232:
 4868              	.LBE486:
 4869              	.LBB487:
 4870              	.LBB397:
 4871              		.loc 1 271 35 view .LVU1903
 4872 0404 7C844816 		mulhwu 4,4,9
 4873              	.LBE397:
 4874              	.LBE487:
 4875              	.LBB488:
 4876              	.LBB233:
 4877              		.loc 1 275 14 view .LVU1904
 4878 0408 54C6F872 		rlwinm 6,6,31,1,25
 4879              		.loc 1 273 21 view .LVU1905
 4880 040c 577BC63E 		rlwinm 27,27,24,24,31
 4881              	.LVL241:
 4882              		.loc 1 272 35 view .LVU1906
 4883 0410 7CE74816 		mulhwu 7,7,9
 4884              	.LBE233:
 4885              	.LBE488:
 4886              	.LBB489:
 4887              	.LBB398:
 4888              		.loc 1 275 14 view .LVU1907
 4889 0414 5484F872 		rlwinm 4,4,31,1,25
 4890              		.loc 1 275 20 view .LVU1908
 4891 0418 7C84AB78 		or 4,4,21
 4892              	.LBE398:
 4893              	.LBE489:
 4894              	.LBB490:
 4895              	.LBB343:
 4896              		.loc 1 272 35 view .LVU1909
 4897 041c 7EA902A6 		mfctr 21
 4898 0420 56B5C9FE 		srwi 21,21,7
 4899              		.loc 1 271 29 view .LVU1910
 4900 0424 1CA5001F 		mulli 5,5,31
 4901              	.LBE343:
 4902              	.LBE490:
 4903              	.LBB491:
 4904              	.LBB234:
 4905              		.loc 1 272 35 view .LVU1911
 4906 0428 54E7C9FE 		srwi 7,7,7
 4907              	.LBE234:
 4908              	.LBE491:
 4909              	.LBB492:
 4910              	.LBB399:
 4911              		.loc 1 273 29 view .LVU1912
 4912 042c 1D8C001F 		mulli 12,12,31
 4913              	.LBE399:
 4914              	.LBE492:
 4915              	.LBB493:
 4916              	.LBB235:
 4917              		.loc 1 275 20 view .LVU1913
 4918 0430 7CC63B78 		or 6,6,7
 4919              	.LBE235:
 4920              	.LBE493:
 4921              	.LBB494:
 4922              	.LBB344:
 4923              		.loc 1 271 35 view .LVU1914
 4924 0434 7CA54816 		mulhwu 5,5,9
 4925              	.LBE344:
 4926              	.LBE494:
 4927              	.LBB495:
 4928              	.LBB236:
 4929              		.loc 1 272 21 view .LVU1915
 4930 0438 55C7863E 		rlwinm 7,14,16,24,31
 4931              		.loc 1 273 21 view .LVU1916
 4932 043c 55CEC63E 		rlwinm 14,14,24,24,31
 4933              	.LBE236:
 4934              	.LBE495:
 4935              	.LBB496:
 4936              	.LBB400:
 4937              		.loc 1 275 33 view .LVU1917
 4938 0440 54842834 		slwi 4,4,5
 4939              	.LBE400:
 4940              	.LBE496:
 4941              	.LBB497:
 4942              	.LBB237:
 4943 0444 54C62834 		slwi 6,6,5
 4944              	.LBE237:
 4945              	.LBE497:
 4946              	.LBB498:
 4947              	.LBB401:
 4948              		.loc 1 273 35 view .LVU1918
 4949 0448 7D8C4816 		mulhwu 12,12,9
 4950              	.LBE401:
 4951              	.LBE498:
 4952              	.LBB499:
 4953              	.LBB345:
 4954              		.loc 1 275 14 view .LVU1919
 4955 044c 54A5F872 		rlwinm 5,5,31,1,25
 4956              		.loc 1 275 20 view .LVU1920
 4957 0450 7CA5AB78 		or 5,5,21
 4958              		.loc 1 275 33 view .LVU1921
 4959 0454 54A52834 		slwi 5,5,5
 4960              	.LBE345:
 4961              	.LBE499:
 4962              	.LBB500:
 4963              	.LBB238:
 4964              		.loc 1 271 29 view .LVU1922
 4965 0458 1D08001F 		mulli 8,8,31
 4966              	.LBE238:
 4967              	.LBE500:
 4968              	.LBB501:
 4969              	.LBB402:
 4970              		.loc 1 273 35 view .LVU1923
 4971 045c 5595C9FE 		srwi 21,12,7
 4972              	.LBE402:
 4973              	.LBE501:
 4974              	.LBB502:
 4975              	.LBB239:
 4976              		.loc 1 272 29 view .LVU1924
 4977 0460 1CE7003F 		mulli 7,7,63
 4978              	.LBE239:
 4979              	.LBE502:
 4980              	.LBB503:
 4981              	.LBB403:
 4982              		.loc 1 275 33 view .LVU1925
 4983 0464 7FDEAB78 		or 30,30,21
 4984              	.LBE403:
 4985              	.LBE503:
 4986              	.LBB504:
 4987              	.LBB240:
 4988              		.loc 1 271 35 view .LVU1926
 4989 0468 7D884816 		mulhwu 12,8,9
 4990              		.loc 1 271 14 view .LVU1927
 4991 046c 55E8463E 		srwi 8,15,24
 4992              	.LBE240:
 4993              	.LBE504:
 4994              		.loc 1 303 12 discriminator 1 view .LVU1928
 4995 0470 B3CAFFEE 		sth 30,-18(10)
 4996              	.LBB505:
 4997              	.LBB241:
 4998              		.loc 1 272 35 view .LVU1929
 4999 0474 7CE74816 		mulhwu 7,7,9
 5000              		.loc 1 275 14 view .LVU1930
 5001 0478 559EF872 		rlwinm 30,12,31,1,25
 5002              		.loc 1 272 21 view .LVU1931
 5003 047c 55EC863E 		rlwinm 12,15,16,24,31
 5004              		.loc 1 273 21 view .LVU1932
 5005 0480 55EFC63E 		rlwinm 15,15,24,24,31
 5006              		.loc 1 271 29 view .LVU1933
 5007 0484 1D08001F 		mulli 8,8,31
 5008              		.loc 1 272 35 view .LVU1934
 5009 0488 54E7C9FE 		srwi 7,7,7
 5010              		.loc 1 275 20 view .LVU1935
 5011 048c 7FDE3B78 		or 30,30,7
 5012              	.LBE241:
 5013              	.LBE505:
 5014              	.LBB506:
 5015              	.LBB294:
 5016              		.loc 1 273 29 view .LVU1936
 5017 0490 1C00001F 		mulli 0,0,31
 5018              	.LBE294:
 5019              	.LBE506:
 5020              	.LBB507:
 5021              	.LBB242:
 5022              		.loc 1 271 35 view .LVU1937
 5023 0494 7CE84816 		mulhwu 7,8,9
 5024              		.loc 1 271 14 view .LVU1938
 5025 0498 5788463E 		srwi 8,28,24
 5026              		.loc 1 275 33 view .LVU1939
 5027 049c 57DE2834 		slwi 30,30,5
 5028              		.loc 1 271 29 view .LVU1940
 5029 04a0 1D08001F 		mulli 8,8,31
 5030              		.loc 1 275 14 view .LVU1941
 5031 04a4 54E7F872 		rlwinm 7,7,31,1,25
 5032              	.LBE242:
 5033              	.LBE507:
 5034              	.LBB508:
 5035              	.LBB295:
 5036              		.loc 1 273 35 view .LVU1942
 5037 04a8 7C004816 		mulhwu 0,0,9
 5038              	.LBE295:
 5039              	.LBE508:
 5040              	.LBB509:
 5041              	.LBB243:
 5042              		.loc 1 275 14 view .LVU1943
 5043 04ac 7CE903A6 		mtctr 7
 5044              		.loc 1 272 21 view .LVU1944
 5045 04b0 5787863E 		rlwinm 7,28,16,24,31
 5046              		.loc 1 275 20 view .LVU1945
 5047 04b4 7EA902A6 		mfctr 21
 5048              		.loc 1 273 21 view .LVU1946
 5049 04b8 579CC63E 		rlwinm 28,28,24,24,31
 5050              		.loc 1 271 35 view .LVU1947
 5051 04bc 7D084816 		mulhwu 8,8,9
 5052              	.LBE243:
 5053              	.LBE509:
 5054              	.LBB510:
 5055              	.LBB296:
 5056              		.loc 1 273 35 view .LVU1948
 5057 04c0 5400C9FE 		srwi 0,0,7
 5058              		.loc 1 275 33 view .LVU1949
 5059 04c4 7E200378 		or 0,17,0
 5060              	.LBE296:
 5061              	.LBE510:
 5062              	.LBB511:
 5063              	.LBB404:
 5064              		.loc 1 272 21 view .LVU1950
 5065 04c8 57B1863E 		rlwinm 17,29,16,24,31
 5066              	.LBE404:
 5067              	.LBE511:
 5068              		.loc 1 301 12 discriminator 1 view .LVU1951
 5069 04cc B00AFFF2 		sth 0,-14(10)
 5070              	.LBB512:
 5071              	.LBB297:
 5072              		.loc 1 273 29 view .LVU1952
 5073 04d0 1EF7001F 		mulli 23,23,31
 5074              	.LBE297:
 5075              	.LBE512:
 5076              	.LBB513:
 5077              	.LBB244:
 5078              		.loc 1 275 14 view .LVU1953
 5079 04d4 5508F872 		rlwinm 8,8,31,1,25
 5080              	.LBE244:
 5081              	.LBE513:
 5082              	.LBB514:
 5083              	.LBB346:
 5084              		.loc 1 273 29 view .LVU1954
 5085 04d8 1F18001F 		mulli 24,24,31
 5086              	.LBE346:
 5087              	.LBE514:
 5088              	.LBB515:
 5089              	.LBB245:
 5090              		.loc 1 275 14 view .LVU1955
 5091 04dc 7D0903A6 		mtctr 8
 5092              	.LBE245:
 5093              	.LBE515:
 5094              	.LBB516:
 5095              	.LBB298:
 5096              		.loc 1 273 35 view .LVU1956
 5097 04e0 7EF74816 		mulhwu 23,23,9
 5098              	.LBE298:
 5099              	.LBE516:
 5100              	.LBB517:
 5101              	.LBB405:
 5102              		.loc 1 271 14 view .LVU1957
 5103 04e4 57A8463E 		srwi 8,29,24
 5104              		.loc 1 273 21 view .LVU1958
 5105 04e8 57BDC63E 		rlwinm 29,29,24,24,31
 5106              	.LBE405:
 5107              	.LBE517:
 5108              	.LBB518:
 5109              	.LBB246:
 5110              		.loc 1 272 29 view .LVU1959
 5111 04ec 1D8C003F 		mulli 12,12,63
 5112              	.LBE246:
 5113              	.LBE518:
 5114              	.LBB519:
 5115              	.LBB299:
 5116              		.loc 1 273 35 view .LVU1960
 5117 04f0 56F7C9FE 		srwi 23,23,7
 5118              	.LBE299:
 5119              	.LBE519:
 5120              	.LBB520:
 5121              	.LBB347:
 5122 04f4 7F184816 		mulhwu 24,24,9
 5123              	.LBE347:
 5124              	.LBE520:
 5125              	.LBB521:
 5126              	.LBB300:
 5127              		.loc 1 275 33 view .LVU1961
 5128 04f8 7D6BBB78 		or 11,11,23
 5129              	.LBE300:
 5130              	.LBE521:
 5131              		.loc 1 301 12 discriminator 1 view .LVU1962
 5132 04fc B16AFFFA 		sth 11,-6(10)
 5133              	.LBE559:
 5134              		.loc 1 298 25 discriminator 1 view .LVU1963
 5135 0500 81610008 		lwz 11,8(1)
 5136              	.LBB560:
 5137              	.LBB522:
 5138              	.LBB247:
 5139              		.loc 1 272 29 view .LVU1964
 5140 0504 1CE7003F 		mulli 7,7,63
 5141              	.LBE247:
 5142              	.LBE522:
 5143              	.LBB523:
 5144              	.LBB348:
 5145              		.loc 1 273 35 view .LVU1965
 5146 0508 5718C9FE 		srwi 24,24,7
 5147              	.LBE348:
 5148              	.LBE523:
 5149              	.LBB524:
 5150              	.LBB248:
 5151              		.loc 1 272 35 view .LVU1966
 5152 050c 7D8C4816 		mulhwu 12,12,9
 5153              	.LBE248:
 5154              	.LBE524:
 5155              	.LBB525:
 5156              	.LBB349:
 5157              		.loc 1 275 33 view .LVU1967
 5158 0510 7C63C378 		or 3,3,24
 5159              	.LBE349:
 5160              	.LBE525:
 5161              		.loc 1 302 12 discriminator 1 view .LVU1968
 5162 0514 B06AFFF4 		sth 3,-12(10)
 5163              	.LBE560:
 5164              		.loc 1 298 25 discriminator 1 view .LVU1969
 5165 0518 56C3043E 		rlwinm 3,22,0,0xffff
 5166 051c 7C035840 		cmplw 0,3,11
 5167              	.LBB561:
 5168              	.LBB526:
 5169              	.LBB406:
 5170              		.loc 1 271 29 view .LVU1970
 5171 0520 1D08001F 		mulli 8,8,31
 5172              	.LBE406:
 5173              	.LBE526:
 5174              	.LBB527:
 5175              	.LBB249:
 5176              		.loc 1 272 35 view .LVU1971
 5177 0524 558CC9FE 		srwi 12,12,7
 5178              	.LBE249:
 5179              	.LBE527:
 5180              	.LBB528:
 5181              	.LBB407:
 5182              		.loc 1 272 29 view .LVU1972
 5183 0528 1E31003F 		mulli 17,17,63
 5184              	.LBE407:
 5185              	.LBE528:
 5186              	.LBB529:
 5187              	.LBB250:
 5188              		.loc 1 275 20 view .LVU1973
 5189 052c 7EAC6378 		or 12,21,12
 5190              		.loc 1 272 35 view .LVU1974
 5191 0530 7CE74816 		mulhwu 7,7,9
 5192              		.loc 1 275 20 view .LVU1975
 5193 0534 7EA902A6 		mfctr 21
 5194              		.loc 1 275 33 view .LVU1976
 5195 0538 558C2834 		slwi 12,12,5
 5196              	.LBE250:
 5197              	.LBE529:
 5198              	.LBB530:
 5199              	.LBB408:
 5200              		.loc 1 273 29 view .LVU1977
 5201 053c 1F39001F 		mulli 25,25,31
 5202              	.LBE408:
 5203              	.LBE530:
 5204              	.LBB531:
 5205              	.LBB251:
 5206              		.loc 1 272 35 view .LVU1978
 5207 0540 54E7C9FE 		srwi 7,7,7
 5208              	.LBE251:
 5209              	.LBE531:
 5210              	.LBB532:
 5211              	.LBB350:
 5212              		.loc 1 273 29 view .LVU1979
 5213 0544 1F5A001F 		mulli 26,26,31
 5214              	.LBE350:
 5215              	.LBE532:
 5216              	.LBB533:
 5217              	.LBB252:
 5218              		.loc 1 275 20 view .LVU1980
 5219 0548 7EA73B78 		or 7,21,7
 5220              		.loc 1 273 29 view .LVU1981
 5221 054c 1F7B001F 		mulli 27,27,31
 5222              		.loc 1 275 33 view .LVU1982
 5223 0550 54E72834 		slwi 7,7,5
 5224              		.loc 1 273 29 view .LVU1983
 5225 0554 1DCE001F 		mulli 14,14,31
 5226 0558 1DEF001F 		mulli 15,15,31
 5227 055c 1F9C001F 		mulli 28,28,31
 5228              	.LBE252:
 5229              	.LBE533:
 5230              	.LBB534:
 5231              	.LBB409:
 5232              		.loc 1 271 35 view .LVU1984
 5233 0560 7D084816 		mulhwu 8,8,9
 5234              		.loc 1 272 35 view .LVU1985
 5235 0564 7E314816 		mulhwu 17,17,9
 5236              		.loc 1 275 14 view .LVU1986
 5237 0568 5508F872 		rlwinm 8,8,31,1,25
 5238              		.loc 1 273 29 view .LVU1987
 5239 056c 1FBD001F 		mulli 29,29,31
 5240              		.loc 1 272 35 view .LVU1988
 5241 0570 5631C9FE 		srwi 17,17,7
 5242              		.loc 1 273 35 view .LVU1989
 5243 0574 7F394816 		mulhwu 25,25,9
 5244              		.loc 1 275 20 view .LVU1990
 5245 0578 7D088B78 		or 8,8,17
 5246              		.loc 1 275 33 view .LVU1991
 5247 057c 55082834 		slwi 8,8,5
 5248              	.LBE409:
 5249              	.LBE534:
 5250              	.LBB535:
 5251              	.LBB351:
 5252              		.loc 1 273 35 view .LVU1992
 5253 0580 7F5A4816 		mulhwu 26,26,9
 5254              	.LBE351:
 5255              	.LBE535:
 5256              	.LBB536:
 5257              	.LBB410:
 5258 0584 5739C9FE 		srwi 25,25,7
 5259              		.loc 1 275 33 view .LVU1993
 5260 0588 7C84CB78 		or 4,4,25
 5261              	.LBE410:
 5262              	.LBE536:
 5263              		.loc 1 303 12 discriminator 1 view .LVU1994
 5264 058c B08AFFF6 		sth 4,-10(10)
 5265              	.LBB537:
 5266              	.LBB253:
 5267              		.loc 1 273 35 view .LVU1995
 5268 0590 7F7B4816 		mulhwu 27,27,9
 5269              	.LBE253:
 5270              	.LBE537:
 5271              	.LBB538:
 5272              	.LBB352:
 5273 0594 575AC9FE 		srwi 26,26,7
 5274              		.loc 1 275 33 view .LVU1996
 5275 0598 7CA5D378 		or 5,5,26
 5276              	.LBE352:
 5277              	.LBE538:
 5278              		.loc 1 302 12 discriminator 1 view .LVU1997
 5279 059c B0AAFFFC 		sth 5,-4(10)
 5280              	.LBB539:
 5281              	.LBB254:
 5282              		.loc 1 273 35 view .LVU1998
 5283 05a0 7DCE4816 		mulhwu 14,14,9
 5284 05a4 577BC9FE 		srwi 27,27,7
 5285              		.loc 1 275 33 view .LVU1999
 5286 05a8 7CC6DB78 		or 6,6,27
 5287              	.LBE254:
 5288              	.LBE539:
 5289              		.loc 1 300 12 discriminator 1 view .LVU2000
 5290 05ac B0CAFFE0 		sth 6,-32(10)
 5291              		.loc 1 301 5 is_stmt 1 view .LVU2001
 5292              	.LVL242:
 5293              	.LBB540:
 5294              	.LBI259:
 5295              		.loc 1 268 10 view .LVU2002
 5296              	.LBB301:
 5297              		.loc 1 269 2 view .LVU2003
 5298              		.loc 1 271 2 view .LVU2004
 5299              		.loc 1 272 2 view .LVU2005
 5300              		.loc 1 273 2 view .LVU2006
 5301              		.loc 1 275 2 view .LVU2007
 5302              		.loc 1 275 2 is_stmt 0 view .LVU2008
 5303              	.LBE301:
 5304              	.LBE540:
 5305              		.loc 1 302 5 is_stmt 1 view .LVU2009
 5306              	.LBB541:
 5307              	.LBI313:
 5308              		.loc 1 268 10 view .LVU2010
 5309              	.LBB353:
 5310              		.loc 1 269 2 view .LVU2011
 5311              		.loc 1 271 2 view .LVU2012
 5312              		.loc 1 272 2 view .LVU2013
 5313              		.loc 1 273 2 view .LVU2014
 5314              		.loc 1 275 2 view .LVU2015
 5315              		.loc 1 275 2 is_stmt 0 view .LVU2016
 5316              	.LBE353:
 5317              	.LBE541:
 5318              		.loc 1 303 5 is_stmt 1 view .LVU2017
 5319              	.LBB542:
 5320              	.LBI369:
 5321              		.loc 1 268 10 view .LVU2018
 5322              	.LBB411:
 5323              		.loc 1 269 2 view .LVU2019
 5324              		.loc 1 271 2 view .LVU2020
 5325              		.loc 1 272 2 view .LVU2021
 5326              		.loc 1 273 2 view .LVU2022
 5327              		.loc 1 275 2 view .LVU2023
 5328              		.loc 1 275 2 is_stmt 0 view .LVU2024
 5329              	.LBE411:
 5330              	.LBE542:
 5331              		.loc 1 299 4 is_stmt 1 discriminator 3 view .LVU2025
 5332              		.loc 1 299 32 discriminator 1 view .LVU2026
 5333              		.loc 1 300 5 view .LVU2027
 5334              	.LBB543:
 5335              		.loc 1 268 10 view .LVU2028
 5336              	.LBB255:
 5337              		.loc 1 269 2 view .LVU2029
 5338              		.loc 1 271 2 view .LVU2030
 5339              		.loc 1 272 2 view .LVU2031
 5340              		.loc 1 273 2 view .LVU2032
 5341              		.loc 1 275 2 view .LVU2033
 5342              		.loc 1 273 35 is_stmt 0 view .LVU2034
 5343 05b0 7DEF4816 		mulhwu 15,15,9
 5344 05b4 55CEC9FE 		srwi 14,14,7
 5345              		.loc 1 275 33 view .LVU2035
 5346 05b8 7FDE7378 		or 30,30,14
 5347              	.LBE255:
 5348              	.LBE543:
 5349              		.loc 1 300 12 discriminator 1 view .LVU2036
 5350 05bc B3CAFFE8 		sth 30,-24(10)
 5351              		.loc 1 301 5 is_stmt 1 view .LVU2037
 5352              	.LVL243:
 5353              	.LBB544:
 5354              		.loc 1 268 10 view .LVU2038
 5355              	.LBB302:
 5356              		.loc 1 269 2 view .LVU2039
 5357              		.loc 1 271 2 view .LVU2040
 5358              		.loc 1 272 2 view .LVU2041
 5359              		.loc 1 273 2 view .LVU2042
 5360              		.loc 1 275 2 view .LVU2043
 5361              		.loc 1 275 2 is_stmt 0 view .LVU2044
 5362              	.LBE302:
 5363              	.LBE544:
 5364              		.loc 1 302 5 is_stmt 1 view .LVU2045
 5365              	.LBB545:
 5366              		.loc 1 268 10 view .LVU2046
 5367              	.LBB354:
 5368              		.loc 1 269 2 view .LVU2047
 5369              		.loc 1 271 2 view .LVU2048
 5370              		.loc 1 272 2 view .LVU2049
 5371              		.loc 1 273 2 view .LVU2050
 5372              		.loc 1 275 2 view .LVU2051
 5373              		.loc 1 275 2 is_stmt 0 view .LVU2052
 5374              	.LBE354:
 5375              	.LBE545:
 5376              		.loc 1 303 5 is_stmt 1 view .LVU2053
 5377              	.LBB546:
 5378              		.loc 1 268 10 view .LVU2054
 5379              	.LBB412:
 5380              		.loc 1 269 2 view .LVU2055
 5381              		.loc 1 271 2 view .LVU2056
 5382              		.loc 1 272 2 view .LVU2057
 5383              		.loc 1 273 2 view .LVU2058
 5384              		.loc 1 275 2 view .LVU2059
 5385              		.loc 1 275 2 is_stmt 0 view .LVU2060
 5386              	.LBE412:
 5387              	.LBE546:
 5388              		.loc 1 299 4 is_stmt 1 discriminator 3 view .LVU2061
 5389              		.loc 1 299 32 discriminator 1 view .LVU2062
 5390              		.loc 1 300 5 view .LVU2063
 5391              	.LBB547:
 5392              		.loc 1 268 10 view .LVU2064
 5393              	.LBB256:
 5394              		.loc 1 269 2 view .LVU2065
 5395              		.loc 1 271 2 view .LVU2066
 5396              		.loc 1 272 2 view .LVU2067
 5397              		.loc 1 273 2 view .LVU2068
 5398              		.loc 1 275 2 view .LVU2069
 5399              		.loc 1 273 35 is_stmt 0 view .LVU2070
 5400 05c0 7F9C4816 		mulhwu 28,28,9
 5401 05c4 55EFC9FE 		srwi 15,15,7
 5402              		.loc 1 275 33 view .LVU2071
 5403 05c8 7D8C7B78 		or 12,12,15
 5404              	.LBE256:
 5405              	.LBE547:
 5406              		.loc 1 300 12 discriminator 1 view .LVU2072
 5407 05cc B18AFFF0 		sth 12,-16(10)
 5408              		.loc 1 301 5 is_stmt 1 view .LVU2073
 5409              	.LVL244:
 5410              	.LBB548:
 5411              		.loc 1 268 10 view .LVU2074
 5412              	.LBB303:
 5413              		.loc 1 269 2 view .LVU2075
 5414              		.loc 1 271 2 view .LVU2076
 5415              		.loc 1 272 2 view .LVU2077
 5416              		.loc 1 273 2 view .LVU2078
 5417              		.loc 1 275 2 view .LVU2079
 5418              		.loc 1 275 2 is_stmt 0 view .LVU2080
 5419              	.LBE303:
 5420              	.LBE548:
 5421              		.loc 1 302 5 is_stmt 1 view .LVU2081
 5422              	.LBB549:
 5423              		.loc 1 268 10 view .LVU2082
 5424              	.LBB355:
 5425              		.loc 1 269 2 view .LVU2083
 5426              		.loc 1 271 2 view .LVU2084
 5427              		.loc 1 272 2 view .LVU2085
 5428              		.loc 1 273 2 view .LVU2086
 5429              		.loc 1 275 2 view .LVU2087
 5430              		.loc 1 275 2 is_stmt 0 view .LVU2088
 5431              	.LBE355:
 5432              	.LBE549:
 5433              		.loc 1 303 5 is_stmt 1 view .LVU2089
 5434              	.LBB550:
 5435              		.loc 1 268 10 view .LVU2090
 5436              	.LBB413:
 5437              		.loc 1 269 2 view .LVU2091
 5438              		.loc 1 271 2 view .LVU2092
 5439              		.loc 1 272 2 view .LVU2093
 5440              		.loc 1 273 2 view .LVU2094
 5441              		.loc 1 275 2 view .LVU2095
 5442              		.loc 1 275 2 is_stmt 0 view .LVU2096
 5443              	.LBE413:
 5444              	.LBE550:
 5445              		.loc 1 299 4 is_stmt 1 discriminator 3 view .LVU2097
 5446              		.loc 1 299 32 discriminator 1 view .LVU2098
 5447              		.loc 1 300 5 view .LVU2099
 5448              	.LBB551:
 5449              		.loc 1 268 10 view .LVU2100
 5450              	.LBB257:
 5451              		.loc 1 269 2 view .LVU2101
 5452              		.loc 1 271 2 view .LVU2102
 5453              		.loc 1 272 2 view .LVU2103
 5454              		.loc 1 273 2 view .LVU2104
 5455              		.loc 1 275 2 view .LVU2105
 5456              		.loc 1 275 2 is_stmt 0 view .LVU2106
 5457              	.LBE257:
 5458              	.LBE551:
 5459              	.LBB552:
 5460              	.LBB414:
 5461              		.loc 1 273 35 view .LVU2107
 5462 05d0 7FBD4816 		mulhwu 29,29,9
 5463              	.LBE414:
 5464              	.LBE552:
 5465              	.LBB553:
 5466              	.LBB258:
 5467 05d4 579CC9FE 		srwi 28,28,7
 5468              		.loc 1 275 33 view .LVU2108
 5469 05d8 7CFCE378 		or 28,7,28
 5470              	.LBE258:
 5471              	.LBE553:
 5472              		.loc 1 300 12 discriminator 1 view .LVU2109
 5473 05dc B38AFFF8 		sth 28,-8(10)
 5474              		.loc 1 301 5 is_stmt 1 view .LVU2110
 5475              	.LVL245:
 5476              	.LBB554:
 5477              		.loc 1 268 10 view .LVU2111
 5478              	.LBB304:
 5479              		.loc 1 269 2 view .LVU2112
 5480              		.loc 1 271 2 view .LVU2113
 5481              		.loc 1 272 2 view .LVU2114
 5482              		.loc 1 273 2 view .LVU2115
 5483              		.loc 1 275 2 view .LVU2116
 5484              		.loc 1 275 2 is_stmt 0 view .LVU2117
 5485              	.LBE304:
 5486              	.LBE554:
 5487              		.loc 1 302 5 is_stmt 1 view .LVU2118
 5488              	.LBB555:
 5489              		.loc 1 268 10 view .LVU2119
 5490              	.LBB356:
 5491              		.loc 1 269 2 view .LVU2120
 5492              		.loc 1 271 2 view .LVU2121
 5493              		.loc 1 272 2 view .LVU2122
 5494              		.loc 1 273 2 view .LVU2123
 5495              		.loc 1 275 2 view .LVU2124
 5496              		.loc 1 275 2 is_stmt 0 view .LVU2125
 5497              	.LBE356:
 5498              	.LBE555:
 5499              		.loc 1 303 5 is_stmt 1 view .LVU2126
 5500              	.LBB556:
 5501              		.loc 1 268 10 view .LVU2127
 5502              	.LBB415:
 5503              		.loc 1 269 2 view .LVU2128
 5504              		.loc 1 271 2 view .LVU2129
 5505              		.loc 1 272 2 view .LVU2130
 5506              		.loc 1 273 2 view .LVU2131
 5507              		.loc 1 275 2 view .LVU2132
 5508              		.loc 1 273 35 is_stmt 0 view .LVU2133
 5509 05e0 57BDC9FE 		srwi 29,29,7
 5510              		.loc 1 275 33 view .LVU2134
 5511 05e4 7D08EB78 		or 8,8,29
 5512              	.LBE415:
 5513              	.LBE556:
 5514              		.loc 1 303 12 discriminator 1 view .LVU2135
 5515 05e8 B10AFFFE 		sth 8,-2(10)
 5516              		.loc 1 299 4 is_stmt 1 discriminator 3 view .LVU2136
 5517              	.LVL246:
 5518              		.loc 1 299 32 discriminator 1 view .LVU2137
 5519              	.LBE561:
 5520              		.loc 1 298 3 discriminator 2 view .LVU2138
 5521              		.loc 1 298 25 discriminator 1 view .LVU2139
 5522 05ec 4180FAE4 		blt+ 0,.L84
 5523              	.LBE562:
 5524              		.loc 1 297 42 is_stmt 0 discriminator 2 view .LVU2140
 5525 05f0 A221000C 		lhz 17,12(1)
 5526 05f4 7D755B78 		mr 21,11
 5527              		.loc 1 297 2 is_stmt 1 discriminator 2 view .LVU2141
 5528              		.loc 1 297 24 is_stmt 0 discriminator 1 view .LVU2142
 5529 05f8 80E10010 		lwz 7,16(1)
 5530              		.loc 1 297 42 discriminator 2 view .LVU2143
 5531 05fc 3A310004 		addi 17,17,4
 5532              		.loc 1 297 24 discriminator 1 view .LVU2144
 5533 0600 5628043E 		rlwinm 8,17,0,0xffff
 5534              	.LVL247:
 5535              		.loc 1 297 24 is_stmt 1 discriminator 1 view .LVU2145
 5536 0604 7C083840 		cmplw 0,8,7
 5537 0608 4180FAA8 		blt+ 0,.L83
 5538 060c 82610014 		lwz 19,20(1)
 5539 0610 82810018 		lwz 20,24(1)
 5540 0614 81C10020 		lwz 14,32(1)
 5541              		.cfi_restore 14
 5542 0618 81E10024 		lwz 15,36(1)
 5543              		.cfi_restore 15
 5544 061c 82010028 		lwz 16,40(1)
 5545              		.cfi_restore 16
 5546              	.LVL248:
 5547              		.loc 1 297 24 is_stmt 0 discriminator 1 view .LVU2146
 5548 0620 8221002C 		lwz 17,44(1)
 5549              		.cfi_restore 17
 5550              	.LVL249:
 5551              		.loc 1 297 24 discriminator 1 view .LVU2147
 5552 0624 82410030 		lwz 18,48(1)
 5553              		.cfi_restore 18
 5554              	.LVL250:
 5555              		.loc 1 297 24 discriminator 1 view .LVU2148
 5556 0628 82C10040 		lwz 22,64(1)
 5557              		.cfi_restore 22
 5558              	.LVL251:
 5559              		.loc 1 297 24 discriminator 1 view .LVU2149
 5560 062c 82E10044 		lwz 23,68(1)
 5561              		.cfi_restore 23
 5562 0630 83010048 		lwz 24,72(1)
 5563              		.cfi_restore 24
 5564 0634 8321004C 		lwz 25,76(1)
 5565              		.cfi_restore 25
 5566 0638 83410050 		lwz 26,80(1)
 5567              		.cfi_restore 26
 5568 063c 83610054 		lwz 27,84(1)
 5569              		.cfi_restore 27
 5570 0640 83810058 		lwz 28,88(1)
 5571              		.cfi_restore 28
 5572 0644 83C10060 		lwz 30,96(1)
 5573              		.cfi_restore 30
 5574              	.LVL252:
 5575              	.L82:
 5576              		.loc 1 297 24 discriminator 1 view .LVU2150
 5577              	.LBE563:
 5578              		.loc 1 307 2 is_stmt 1 view .LVU2151
 5579              		.loc 1 307 14 is_stmt 0 view .LVU2152
 5580 0648 7E83A378 		mr 3,20
 5581 064c 7E649B78 		mr 4,19
 5582 0650 48000001 		bl DCFlushRange
 5583              	.LVL253:
 5584              		.loc 1 309 2 is_stmt 1 view .LVU2153
 5585              		.loc 1 310 1 is_stmt 0 view .LVU2154
 5586 0654 8001006C 		lwz 0,108(1)
 5587 0658 7E83A378 		mr 3,20
 5588 065c 82610034 		lwz 19,52(1)
 5589 0660 82810038 		lwz 20,56(1)
 5590 0664 7C0803A6 		mtlr 0
 5591              		.cfi_restore 65
 5592 0668 82A1003C 		lwz 21,60(1)
 5593 066c 83A1005C 		lwz 29,92(1)
 5594 0670 83E10064 		lwz 31,100(1)
 5595              	.LVL254:
 5596              		.loc 1 310 1 view .LVU2155
 5597 0674 38210068 		addi 1,1,104
 5598              		.cfi_restore 31
 5599              		.cfi_restore 29
 5600              		.cfi_restore 21
 5601              		.cfi_restore 20
 5602              		.cfi_restore 19
 5603              		.cfi_def_cfa_offset 0
 5604 0678 4E800020 		blr
 5605              	.LVL255:
 5606              	.L94:
 5607              		.cfi_def_cfa_offset 104
 5608              		.cfi_offset 17, -60
 5609              		.cfi_offset 19, -52
 5610              		.cfi_offset 20, -48
 5611              		.cfi_offset 21, -44
 5612              		.cfi_offset 29, -12
 5613              		.cfi_offset 31, -4
 5614              		.cfi_offset 65, 4
 5615              		.loc 1 310 1 view .LVU2156
 5616 067c 8221002C 		lwz 17,44(1)
 5617              		.cfi_restore 17
 5618 0680 4BFFFFC8 		b .L82
 5619              		.cfi_endproc
 5620              	.LFE76:
 5621              		.size	_ZN11Metaphrasis21convertBufferToRGB565EPjtt, .-_ZN11Metaphrasis21convertBufferToRGB565EPjtt
 5622              		.section	.text._ZN11Metaphrasis19convertRGBAToRGB5A3Ej,"ax",@progbits
 5623              		.align 2
 5624              		.globl _ZN11Metaphrasis19convertRGBAToRGB5A3Ej
 5625              		.type	_ZN11Metaphrasis19convertRGBAToRGB5A3Ej, @function
 5626              	_ZN11Metaphrasis19convertRGBAToRGB5A3Ej:
 5627              	.LVL256:
 5628              	.LFB77:
 5629              		.loc 1 322 58 is_stmt 1 view -0
 5630              		.cfi_startproc
 5631              		.loc 1 323 2 view .LVU2158
 5632              		.loc 1 324 2 view .LVU2159
 5633              		.loc 1 326 2 view .LVU2160
 5634              		.loc 1 327 2 view .LVU2161
 5635              		.loc 1 329 4 is_stmt 0 view .LVU2162
 5636 0000 5469063E 		rlwinm 9,3,0,24,31
 5637              		.loc 1 327 4 view .LVU2163
 5638 0004 546A863E 		rlwinm 10,3,16,24,31
 5639              	.LVL257:
 5640              		.loc 1 328 2 is_stmt 1 view .LVU2164
 5641              		.loc 1 331 2 is_stmt 0 view .LVU2165
 5642 0008 280900E0 		cmplwi 0,9,224
 5643              		.loc 1 328 4 view .LVU2166
 5644 000c 5468C63E 		rlwinm 8,3,24,24,31
 5645              	.LVL258:
 5646              		.loc 1 329 2 is_stmt 1 view .LVU2167
 5647              		.loc 1 331 2 view .LVU2168
 5648 0010 40810028 		ble- 0,.L96
 5649              		.loc 1 332 3 view .LVU2169
 5650              	.LVL259:
 5651              		.loc 1 333 3 view .LVU2170
 5652              		.loc 1 334 3 view .LVU2171
 5653              		.loc 1 336 3 view .LVU2172
 5654              		.loc 1 336 26 is_stmt 0 view .LVU2173
 5655 0014 554A15B4 		rlwinm 10,10,2,22,26
 5656              	.LVL260:
 5657              		.loc 1 336 14 view .LVU2174
 5658 0018 54637C6A 		rlwinm 3,3,15,17,21
 5659              	.LVL261:
 5660              		.loc 1 336 21 view .LVU2175
 5661 001c 7C635378 		or 3,3,10
 5662              		.loc 1 334 5 view .LVU2176
 5663 0020 5508E8FE 		srwi 8,8,3
 5664              	.LVL262:
 5665              		.loc 1 336 9 view .LVU2177
 5666 0024 7C634378 		or 3,3,8
 5667              	.LVL263:
 5668              		.loc 1 337 3 is_stmt 1 view .LVU2178
 5669              		.loc 1 337 9 is_stmt 0 view .LVU2179
 5670 0028 3920FFFF 		li 9,-1
 5671              	.LVL264:
 5672              		.loc 1 337 9 view .LVU2180
 5673 002c 51237820 		rlwimi 3,9,15,0,16
 5674              	.LVL265:
 5675              		.loc 1 348 2 is_stmt 1 view .LVU2181
 5676              		.loc 1 349 1 is_stmt 0 view .LVU2182
 5677 0030 5463043E 		rlwinm 3,3,0,0xffff
 5678              		.loc 1 349 1 view .LVU2183
 5679 0034 4E800020 		blr
 5680              	.LVL266:
 5681              	.L96:
 5682              		.loc 1 340 3 is_stmt 1 view .LVU2184
 5683              		.loc 1 341 3 view .LVU2185
 5684              		.loc 1 342 3 view .LVU2186
 5685              		.loc 1 343 3 view .LVU2187
 5686              		.loc 1 345 3 view .LVU2188
 5687              		.loc 1 342 5 is_stmt 0 view .LVU2189
 5688 0038 5508E13E 		srwi 8,8,4
 5689              	.LVL267:
 5690              		.loc 1 345 14 view .LVU2190
 5691 003c 55293C66 		rlwinm 9,9,7,17,19
 5692              	.LVL268:
 5693              		.loc 1 345 9 view .LVU2191
 5694 0040 7D294378 		or 9,9,8
 5695              		.loc 1 345 26 view .LVU2192
 5696 0044 5463652E 		rlwinm 3,3,12,20,23
 5697              	.LVL269:
 5698              		.loc 1 345 9 view .LVU2193
 5699 0048 7D231B78 		or 3,9,3
 5700              		.loc 1 345 37 view .LVU2194
 5701 004c 554A0636 		rlwinm 10,10,0,24,27
 5702              	.LVL270:
 5703              		.loc 1 345 9 view .LVU2195
 5704 0050 7C635378 		or 3,3,10
 5705              	.LVL271:
 5706              		.loc 1 348 2 is_stmt 1 view .LVU2196
 5707              		.loc 1 349 1 is_stmt 0 view .LVU2197
 5708 0054 5463043E 		rlwinm 3,3,0,0xffff
 5709              		.loc 1 349 1 view .LVU2198
 5710 0058 4E800020 		blr
 5711              		.cfi_endproc
 5712              	.LFE77:
 5713              		.size	_ZN11Metaphrasis19convertRGBAToRGB5A3Ej, .-_ZN11Metaphrasis19convertRGBAToRGB5A3Ej
 5714              		.section	.text._ZN11Metaphrasis21convertBufferToRGB5A3EPjtt,"ax",@progbits
 5715              		.align 2
 5716              		.globl _ZN11Metaphrasis21convertBufferToRGB5A3EPjtt
 5717              		.type	_ZN11Metaphrasis21convertBufferToRGB5A3EPjtt, @function
 5718              	_ZN11Metaphrasis21convertBufferToRGB5A3EPjtt:
 5719              	.LVL272:
 5720              	.LFB78:
 5721              		.loc 1 362 113 is_stmt 1 view -0
 5722              		.cfi_startproc
 5723              		.loc 1 363 2 view .LVU2200
 5724              		.loc 1 362 113 is_stmt 0 view .LVU2201
 5725 0000 9421FFD0 		stwu 1,-48(1)
 5726              		.cfi_def_cfa_offset 48
 5727 0004 7C0802A6 		mflr 0
 5728 0008 93C10028 		stw 30,40(1)
 5729              		.cfi_register 65, 0
 5730              		.cfi_offset 30, -8
 5731              		.loc 1 363 37 view .LVU2202
 5732 000c 7FC521D6 		mullw 30,5,4
 5733              		.loc 1 362 113 view .LVU2203
 5734 0010 93810020 		stw 28,32(1)
 5735              		.cfi_offset 28, -16
 5736 0014 7C9C2378 		mr 28,4
 5737 0018 93E1002C 		stw 31,44(1)
 5738              		.cfi_offset 31, -4
 5739 001c 7C7F1B78 		mr 31,3
 5740              		.loc 1 364 51 view .LVU2204
 5741 0020 38600020 		li 3,32
 5742              	.LVL273:
 5743              		.loc 1 362 113 view .LVU2205
 5744 0024 90010034 		stw 0,52(1)
 5745              		.loc 1 363 11 view .LVU2206
 5746 0028 57DE083C 		slwi 30,30,1
 5747              	.LVL274:
 5748              		.loc 1 364 2 is_stmt 1 view .LVU2207
 5749              		.loc 1 362 113 is_stmt 0 view .LVU2208
 5750 002c 9361001C 		stw 27,28(1)
 5751              		.loc 1 364 51 view .LVU2209
 5752 0030 7FC4F378 		mr 4,30
 5753              	.LVL275:
 5754              		.cfi_offset 65, 4
 5755              		.cfi_offset 27, -20
 5756              		.loc 1 362 113 view .LVU2210
 5757 0034 7CBB2B78 		mr 27,5
 5758 0038 93A10024 		stw 29,36(1)
 5759              		.cfi_offset 29, -12
 5760              		.loc 1 364 51 view .LVU2211
 5761 003c 48000001 		bl memalign
 5762              	.LVL276:
 5763              		.loc 1 365 8 view .LVU2212
 5764 0040 7FC5F378 		mr 5,30
 5765 0044 38800000 		li 4,0
 5766              		.loc 1 364 51 view .LVU2213
 5767 0048 7C7D1B78 		mr 29,3
 5768              	.LVL277:
 5769              		.loc 1 365 2 is_stmt 1 view .LVU2214
 5770              		.loc 1 365 8 is_stmt 0 view .LVU2215
 5771 004c 48000001 		bl memset
 5772              	.LVL278:
 5773              		.loc 1 367 2 is_stmt 1 view .LVU2216
 5774              		.loc 1 368 2 view .LVU2217
 5775              		.loc 1 370 2 view .LVU2218
 5776              	.LBB575:
 5777              		.loc 1 370 24 discriminator 1 view .LVU2219
 5778 0050 2C1B0000 		cmpwi 0,27,0
 5779 0054 41820480 		beq- 0,.L99
 5780 0058 2C1C0000 		cmpwi 0,28,0
 5781 005c 41820478 		beq- 0,.L99
 5782 0060 92E1000C 		stw 23,12(1)
 5783              		.cfi_offset 23, -36
 5784              	.LBE575:
 5785              		.loc 1 368 12 is_stmt 0 view .LVU2220
 5786 0064 7FA9EB78 		mr 9,29
 5787 0068 93010010 		stw 24,16(1)
 5788              		.cfi_offset 24, -32
 5789              	.LBB725:
 5790              		.loc 1 370 15 view .LVU2221
 5791 006c 39800000 		li 12,0
 5792 0070 93210014 		stw 25,20(1)
 5793              		.cfi_offset 25, -28
 5794 0074 93410018 		stw 26,24(1)
 5795              		.cfi_offset 26, -24
 5796              	.LVL279:
 5797              	.L134:
 5798              	.LBB576:
 5799              		.loc 1 371 25 is_stmt 1 discriminator 1 view .LVU2222
 5800              	.LBB577:
 5801              		.loc 1 373 53 is_stmt 0 view .LVU2223
 5802 0078 5583043E 		rlwinm 3,12,0,0xffff
 5803              	.LBE577:
 5804              		.loc 1 371 16 view .LVU2224
 5805 007c 3B400000 		li 26,0
 5806              	.LBB716:
 5807              		.loc 1 373 63 view .LVU2225
 5808 0080 7C63E1D6 		mullw 3,3,28
 5809 0084 7C9C1A14 		add 4,28,3
 5810 0088 7CBC2214 		add 5,28,4
 5811 008c 7D7C2A14 		add 11,28,5
 5812              	.LVL280:
 5813              	.L133:
 5814              		.loc 1 372 32 is_stmt 1 discriminator 1 view .LVU2226
 5815              		.loc 1 373 5 view .LVU2227
 5816              		.loc 1 373 81 is_stmt 0 view .LVU2228
 5817 0090 574A043E 		rlwinm 10,26,0,0xffff
 5818              		.loc 1 373 87 view .LVU2229
 5819 0094 7D0A1A14 		add 8,10,3
 5820              		.loc 1 373 46 view .LVU2230
 5821 0098 5508103A 		slwi 8,8,2
 5822 009c 7CFF402E 		lwzx 7,31,8
 5823              	.LVL281:
 5824              	.LBB578:
 5825              	.LBI578:
 5826              		.loc 1 322 10 is_stmt 1 view .LVU2231
 5827              	.LBB579:
 5828              		.loc 1 323 2 view .LVU2232
 5829              		.loc 1 324 2 view .LVU2233
 5830              		.loc 1 326 2 view .LVU2234
 5831              		.loc 1 327 2 view .LVU2235
 5832              		.loc 1 329 4 is_stmt 0 view .LVU2236
 5833 00a0 54E8063E 		rlwinm 8,7,0,24,31
 5834              		.loc 1 327 4 view .LVU2237
 5835 00a4 54E6863E 		rlwinm 6,7,16,24,31
 5836              	.LVL282:
 5837              		.loc 1 328 2 is_stmt 1 view .LVU2238
 5838              		.loc 1 331 2 is_stmt 0 view .LVU2239
 5839 00a8 280800E0 		cmplwi 0,8,224
 5840              		.loc 1 328 4 view .LVU2240
 5841 00ac 54E0C63E 		rlwinm 0,7,24,24,31
 5842              	.LVL283:
 5843              		.loc 1 329 2 is_stmt 1 view .LVU2241
 5844              		.loc 1 331 2 view .LVU2242
 5845 00b0 408104AC 		ble- 0,.L100
 5846              	.LVL284:
 5847              	.L144:
 5848              		.loc 1 332 3 view .LVU2243
 5849              		.loc 1 333 3 view .LVU2244
 5850              		.loc 1 334 3 view .LVU2245
 5851              		.loc 1 336 3 view .LVU2246
 5852              		.loc 1 336 14 is_stmt 0 view .LVU2247
 5853 00b4 54E77C6A 		rlwinm 7,7,15,17,21
 5854              	.LVL285:
 5855              		.loc 1 336 26 view .LVU2248
 5856 00b8 54C615B4 		rlwinm 6,6,2,22,26
 5857              	.LVL286:
 5858              		.loc 1 336 21 view .LVU2249
 5859 00bc 7CC63B78 		or 6,6,7
 5860              		.loc 1 334 5 view .LVU2250
 5861 00c0 5400E8FE 		srwi 0,0,3
 5862              	.LVL287:
 5863              		.loc 1 336 9 view .LVU2251
 5864 00c4 7CC80378 		or 8,6,0
 5865              	.LVL288:
 5866              		.loc 1 337 3 is_stmt 1 view .LVU2252
 5867              		.loc 1 337 9 is_stmt 0 view .LVU2253
 5868 00c8 38E0FFFF 		li 7,-1
 5869 00cc 50E87820 		rlwimi 8,7,15,0,16
 5870              	.LVL289:
 5871              		.loc 1 348 2 is_stmt 1 view .LVU2254
 5872              		.loc 1 348 2 is_stmt 0 view .LVU2255
 5873              	.LBE579:
 5874              	.LBE578:
 5875              		.loc 1 374 83 view .LVU2256
 5876 00d0 38CA0001 		addi 6,10,1
 5877              		.loc 1 373 12 discriminator 1 view .LVU2257
 5878 00d4 B1090000 		sth 8,0(9)
 5879              		.loc 1 374 5 is_stmt 1 view .LVU2258
 5880              		.loc 1 374 87 is_stmt 0 view .LVU2259
 5881 00d8 7D061A14 		add 8,6,3
 5882              		.loc 1 374 46 view .LVU2260
 5883 00dc 5508103A 		slwi 8,8,2
 5884 00e0 7CFF402E 		lwzx 7,31,8
 5885              	.LVL290:
 5886              	.LBB595:
 5887              	.LBI595:
 5888              		.loc 1 322 10 is_stmt 1 view .LVU2261
 5889              	.LBB596:
 5890              		.loc 1 323 2 view .LVU2262
 5891              		.loc 1 324 2 view .LVU2263
 5892              		.loc 1 326 2 view .LVU2264
 5893              		.loc 1 327 2 view .LVU2265
 5894              		.loc 1 329 4 is_stmt 0 view .LVU2266
 5895 00e4 54E8063E 		rlwinm 8,7,0,24,31
 5896              		.loc 1 327 4 view .LVU2267
 5897 00e8 54E0863E 		rlwinm 0,7,16,24,31
 5898              	.LVL291:
 5899              		.loc 1 328 2 is_stmt 1 view .LVU2268
 5900              		.loc 1 331 2 is_stmt 0 view .LVU2269
 5901 00ec 280800E0 		cmplwi 0,8,224
 5902              		.loc 1 328 4 view .LVU2270
 5903 00f0 54F9C63E 		rlwinm 25,7,24,24,31
 5904              	.LVL292:
 5905              		.loc 1 329 2 is_stmt 1 view .LVU2271
 5906              		.loc 1 331 2 view .LVU2272
 5907 00f4 408104AC 		ble- 0,.L102
 5908              	.LVL293:
 5909              	.L145:
 5910              		.loc 1 332 3 view .LVU2273
 5911              		.loc 1 333 3 view .LVU2274
 5912              		.loc 1 334 3 view .LVU2275
 5913              		.loc 1 336 3 view .LVU2276
 5914              		.loc 1 336 14 is_stmt 0 view .LVU2277
 5915 00f8 54E77C6A 		rlwinm 7,7,15,17,21
 5916              	.LVL294:
 5917              		.loc 1 336 26 view .LVU2278
 5918 00fc 540015B4 		rlwinm 0,0,2,22,26
 5919              	.LVL295:
 5920              		.loc 1 336 21 view .LVU2279
 5921 0100 7C003B78 		or 0,0,7
 5922              		.loc 1 334 5 view .LVU2280
 5923 0104 5739E8FE 		srwi 25,25,3
 5924              	.LVL296:
 5925              		.loc 1 336 9 view .LVU2281
 5926 0108 7C08CB78 		or 8,0,25
 5927              	.LVL297:
 5928              		.loc 1 337 3 is_stmt 1 view .LVU2282
 5929              		.loc 1 337 9 is_stmt 0 view .LVU2283
 5930 010c 38E0FFFF 		li 7,-1
 5931 0110 50E87820 		rlwimi 8,7,15,0,16
 5932              	.LVL298:
 5933              		.loc 1 348 2 is_stmt 1 view .LVU2284
 5934              		.loc 1 348 2 is_stmt 0 view .LVU2285
 5935              	.LBE596:
 5936              	.LBE595:
 5937              		.loc 1 375 83 view .LVU2286
 5938 0114 38EA0002 		addi 7,10,2
 5939              		.loc 1 374 12 discriminator 1 view .LVU2287
 5940 0118 B1090002 		sth 8,2(9)
 5941              		.loc 1 375 5 is_stmt 1 view .LVU2288
 5942              		.loc 1 375 87 is_stmt 0 view .LVU2289
 5943 011c 7D071A14 		add 8,7,3
 5944              		.loc 1 375 46 view .LVU2290
 5945 0120 5508103A 		slwi 8,8,2
 5946 0124 7F3F402E 		lwzx 25,31,8
 5947              	.LVL299:
 5948              	.LBB614:
 5949              	.LBI614:
 5950              		.loc 1 322 10 is_stmt 1 view .LVU2291
 5951              	.LBB615:
 5952              		.loc 1 323 2 view .LVU2292
 5953              		.loc 1 324 2 view .LVU2293
 5954              		.loc 1 326 2 view .LVU2294
 5955              		.loc 1 327 2 view .LVU2295
 5956              		.loc 1 329 4 is_stmt 0 view .LVU2296
 5957 0128 5720063E 		rlwinm 0,25,0,24,31
 5958              		.loc 1 327 4 view .LVU2297
 5959 012c 5738863E 		rlwinm 24,25,16,24,31
 5960              	.LVL300:
 5961              		.loc 1 328 2 is_stmt 1 view .LVU2298
 5962              		.loc 1 331 2 is_stmt 0 view .LVU2299
 5963 0130 280000E0 		cmplwi 0,0,224
 5964              		.loc 1 328 4 view .LVU2300
 5965 0134 5737C63E 		rlwinm 23,25,24,24,31
 5966              	.LVL301:
 5967              		.loc 1 329 2 is_stmt 1 view .LVU2301
 5968              		.loc 1 331 2 view .LVU2302
 5969 0138 408104AC 		ble- 0,.L104
 5970              	.LVL302:
 5971              	.L146:
 5972              		.loc 1 332 3 view .LVU2303
 5973              		.loc 1 333 3 view .LVU2304
 5974              		.loc 1 334 3 view .LVU2305
 5975              		.loc 1 336 3 view .LVU2306
 5976              		.loc 1 336 14 is_stmt 0 view .LVU2307
 5977 013c 57397C6A 		rlwinm 25,25,15,17,21
 5978              	.LVL303:
 5979              		.loc 1 336 26 view .LVU2308
 5980 0140 571815B4 		rlwinm 24,24,2,22,26
 5981              	.LVL304:
 5982              		.loc 1 336 21 view .LVU2309
 5983 0144 7F18CB78 		or 24,24,25
 5984              		.loc 1 334 5 view .LVU2310
 5985 0148 56F7E8FE 		srwi 23,23,3
 5986              	.LVL305:
 5987              		.loc 1 336 9 view .LVU2311
 5988 014c 7F00BB78 		or 0,24,23
 5989              	.LVL306:
 5990              		.loc 1 337 3 is_stmt 1 view .LVU2312
 5991              		.loc 1 337 9 is_stmt 0 view .LVU2313
 5992 0150 3900FFFF 		li 8,-1
 5993 0154 51007820 		rlwimi 0,8,15,0,16
 5994              	.LVL307:
 5995              		.loc 1 348 2 is_stmt 1 view .LVU2314
 5996              		.loc 1 348 2 is_stmt 0 view .LVU2315
 5997              	.LBE615:
 5998              	.LBE614:
 5999              		.loc 1 376 83 view .LVU2316
 6000 0158 390A0003 		addi 8,10,3
 6001              		.loc 1 375 12 discriminator 1 view .LVU2317
 6002 015c B0090004 		sth 0,4(9)
 6003              		.loc 1 376 5 is_stmt 1 view .LVU2318
 6004              		.loc 1 376 87 is_stmt 0 view .LVU2319
 6005 0160 7C081A14 		add 0,8,3
 6006              		.loc 1 376 46 view .LVU2320
 6007 0164 5400103A 		slwi 0,0,2
 6008 0168 7F3F002E 		lwzx 25,31,0
 6009              	.LVL308:
 6010              	.LBB629:
 6011              	.LBI629:
 6012              		.loc 1 322 10 is_stmt 1 view .LVU2321
 6013              	.LBB630:
 6014              		.loc 1 323 2 view .LVU2322
 6015              		.loc 1 324 2 view .LVU2323
 6016              		.loc 1 326 2 view .LVU2324
 6017              		.loc 1 327 2 view .LVU2325
 6018              		.loc 1 329 4 is_stmt 0 view .LVU2326
 6019 016c 5720063E 		rlwinm 0,25,0,24,31
 6020              		.loc 1 327 4 view .LVU2327
 6021 0170 5738863E 		rlwinm 24,25,16,24,31
 6022              	.LVL309:
 6023              		.loc 1 328 2 is_stmt 1 view .LVU2328
 6024              		.loc 1 331 2 is_stmt 0 view .LVU2329
 6025 0174 280000E0 		cmplwi 0,0,224
 6026              		.loc 1 328 4 view .LVU2330
 6027 0178 5737C63E 		rlwinm 23,25,24,24,31
 6028              	.LVL310:
 6029              		.loc 1 329 2 is_stmt 1 view .LVU2331
 6030              		.loc 1 331 2 view .LVU2332
 6031 017c 408104AC 		ble- 0,.L106
 6032              	.LVL311:
 6033              	.L147:
 6034              		.loc 1 332 3 view .LVU2333
 6035              		.loc 1 333 3 view .LVU2334
 6036              		.loc 1 334 3 view .LVU2335
 6037              		.loc 1 336 3 view .LVU2336
 6038              		.loc 1 336 26 is_stmt 0 view .LVU2337
 6039 0180 571815B4 		rlwinm 24,24,2,22,26
 6040              	.LVL312:
 6041              		.loc 1 336 14 view .LVU2338
 6042 0184 57397C6A 		rlwinm 25,25,15,17,21
 6043              	.LVL313:
 6044              		.loc 1 336 21 view .LVU2339
 6045 0188 7F39C378 		or 25,25,24
 6046              		.loc 1 334 5 view .LVU2340
 6047 018c 56F7E8FE 		srwi 23,23,3
 6048              	.LVL314:
 6049              		.loc 1 336 9 view .LVU2341
 6050 0190 7F20BB78 		or 0,25,23
 6051              	.LVL315:
 6052              		.loc 1 337 3 is_stmt 1 view .LVU2342
 6053              		.loc 1 337 9 is_stmt 0 view .LVU2343
 6054 0194 3B20FFFF 		li 25,-1
 6055 0198 53207820 		rlwimi 0,25,15,0,16
 6056              	.LVL316:
 6057              		.loc 1 348 2 is_stmt 1 view .LVU2344
 6058              		.loc 1 348 2 is_stmt 0 view .LVU2345
 6059              	.LBE630:
 6060              	.LBE629:
 6061              		.loc 1 373 87 view .LVU2346
 6062 019c 7F2A2214 		add 25,10,4
 6063              		.loc 1 373 46 view .LVU2347
 6064 01a0 5739103A 		slwi 25,25,2
 6065              		.loc 1 376 12 discriminator 1 view .LVU2348
 6066 01a4 B0090006 		sth 0,6(9)
 6067              		.loc 1 372 4 is_stmt 1 discriminator 3 view .LVU2349
 6068              	.LVL317:
 6069              		.loc 1 372 32 discriminator 1 view .LVU2350
 6070              		.loc 1 373 5 view .LVU2351
 6071              		.loc 1 373 46 is_stmt 0 view .LVU2352
 6072 01a8 7F3FC82E 		lwzx 25,31,25
 6073              	.LVL318:
 6074              	.LBB651:
 6075              		.loc 1 322 10 is_stmt 1 view .LVU2353
 6076              	.LBB580:
 6077              		.loc 1 323 2 view .LVU2354
 6078              		.loc 1 324 2 view .LVU2355
 6079              		.loc 1 326 2 view .LVU2356
 6080              		.loc 1 327 2 view .LVU2357
 6081              		.loc 1 329 4 is_stmt 0 view .LVU2358
 6082 01ac 5720063E 		rlwinm 0,25,0,24,31
 6083              		.loc 1 327 4 view .LVU2359
 6084 01b0 5738863E 		rlwinm 24,25,16,24,31
 6085              	.LVL319:
 6086              		.loc 1 328 2 is_stmt 1 view .LVU2360
 6087              		.loc 1 331 2 is_stmt 0 view .LVU2361
 6088 01b4 280000E0 		cmplwi 0,0,224
 6089              		.loc 1 328 4 view .LVU2362
 6090 01b8 5737C63E 		rlwinm 23,25,24,24,31
 6091              	.LVL320:
 6092              		.loc 1 329 2 is_stmt 1 view .LVU2363
 6093              		.loc 1 331 2 view .LVU2364
 6094 01bc 408104AC 		ble- 0,.L108
 6095              	.LVL321:
 6096              	.L148:
 6097              		.loc 1 332 3 view .LVU2365
 6098              		.loc 1 333 3 view .LVU2366
 6099              		.loc 1 334 3 view .LVU2367
 6100              		.loc 1 336 3 view .LVU2368
 6101              		.loc 1 336 26 is_stmt 0 view .LVU2369
 6102 01c0 571815B4 		rlwinm 24,24,2,22,26
 6103              	.LVL322:
 6104              		.loc 1 336 14 view .LVU2370
 6105 01c4 57397C6A 		rlwinm 25,25,15,17,21
 6106              	.LVL323:
 6107              		.loc 1 336 21 view .LVU2371
 6108 01c8 7F39C378 		or 25,25,24
 6109              		.loc 1 334 5 view .LVU2372
 6110 01cc 56F7E8FE 		srwi 23,23,3
 6111              	.LVL324:
 6112              		.loc 1 336 9 view .LVU2373
 6113 01d0 7F20BB78 		or 0,25,23
 6114              	.LVL325:
 6115              		.loc 1 337 3 is_stmt 1 view .LVU2374
 6116              		.loc 1 337 9 is_stmt 0 view .LVU2375
 6117 01d4 3B20FFFF 		li 25,-1
 6118 01d8 53207820 		rlwimi 0,25,15,0,16
 6119              	.LVL326:
 6120              		.loc 1 348 2 is_stmt 1 view .LVU2376
 6121              		.loc 1 348 2 is_stmt 0 view .LVU2377
 6122              	.LBE580:
 6123              	.LBE651:
 6124              		.loc 1 374 87 view .LVU2378
 6125 01dc 7F262214 		add 25,6,4
 6126              		.loc 1 374 46 view .LVU2379
 6127 01e0 5739103A 		slwi 25,25,2
 6128              		.loc 1 373 12 discriminator 1 view .LVU2380
 6129 01e4 B0090008 		sth 0,8(9)
 6130              		.loc 1 374 5 is_stmt 1 view .LVU2381
 6131              		.loc 1 374 46 is_stmt 0 view .LVU2382
 6132 01e8 7F3FC82E 		lwzx 25,31,25
 6133              	.LVL327:
 6134              	.LBB652:
 6135              		.loc 1 322 10 is_stmt 1 view .LVU2383
 6136              	.LBB597:
 6137              		.loc 1 323 2 view .LVU2384
 6138              		.loc 1 324 2 view .LVU2385
 6139              		.loc 1 326 2 view .LVU2386
 6140              		.loc 1 327 2 view .LVU2387
 6141              		.loc 1 329 4 is_stmt 0 view .LVU2388
 6142 01ec 5720063E 		rlwinm 0,25,0,24,31
 6143              		.loc 1 327 4 view .LVU2389
 6144 01f0 5738863E 		rlwinm 24,25,16,24,31
 6145              	.LVL328:
 6146              		.loc 1 328 2 is_stmt 1 view .LVU2390
 6147              		.loc 1 331 2 is_stmt 0 view .LVU2391
 6148 01f4 280000E0 		cmplwi 0,0,224
 6149              		.loc 1 328 4 view .LVU2392
 6150 01f8 5737C63E 		rlwinm 23,25,24,24,31
 6151              	.LVL329:
 6152              		.loc 1 329 2 is_stmt 1 view .LVU2393
 6153              		.loc 1 331 2 view .LVU2394
 6154 01fc 408104AC 		ble- 0,.L110
 6155              	.LVL330:
 6156              	.L149:
 6157              		.loc 1 332 3 view .LVU2395
 6158              		.loc 1 333 3 view .LVU2396
 6159              		.loc 1 334 3 view .LVU2397
 6160              		.loc 1 336 3 view .LVU2398
 6161              		.loc 1 336 26 is_stmt 0 view .LVU2399
 6162 0200 571815B4 		rlwinm 24,24,2,22,26
 6163              	.LVL331:
 6164              		.loc 1 336 14 view .LVU2400
 6165 0204 57397C6A 		rlwinm 25,25,15,17,21
 6166              	.LVL332:
 6167              		.loc 1 336 21 view .LVU2401
 6168 0208 7F39C378 		or 25,25,24
 6169              		.loc 1 334 5 view .LVU2402
 6170 020c 56F7E8FE 		srwi 23,23,3
 6171              	.LVL333:
 6172              		.loc 1 336 9 view .LVU2403
 6173 0210 7F20BB78 		or 0,25,23
 6174              	.LVL334:
 6175              		.loc 1 337 3 is_stmt 1 view .LVU2404
 6176              		.loc 1 337 9 is_stmt 0 view .LVU2405
 6177 0214 3B20FFFF 		li 25,-1
 6178 0218 53207820 		rlwimi 0,25,15,0,16
 6179              	.LVL335:
 6180              		.loc 1 348 2 is_stmt 1 view .LVU2406
 6181              		.loc 1 348 2 is_stmt 0 view .LVU2407
 6182              	.LBE597:
 6183              	.LBE652:
 6184              		.loc 1 375 87 view .LVU2408
 6185 021c 7F272214 		add 25,7,4
 6186              		.loc 1 375 46 view .LVU2409
 6187 0220 5739103A 		slwi 25,25,2
 6188              		.loc 1 374 12 discriminator 1 view .LVU2410
 6189 0224 B009000A 		sth 0,10(9)
 6190              		.loc 1 375 5 is_stmt 1 view .LVU2411
 6191              		.loc 1 375 46 is_stmt 0 view .LVU2412
 6192 0228 7F3FC82E 		lwzx 25,31,25
 6193              	.LVL336:
 6194              	.LBB653:
 6195              		.loc 1 322 10 is_stmt 1 view .LVU2413
 6196              	.LBB616:
 6197              		.loc 1 323 2 view .LVU2414
 6198              		.loc 1 324 2 view .LVU2415
 6199              		.loc 1 326 2 view .LVU2416
 6200              		.loc 1 327 2 view .LVU2417
 6201              		.loc 1 329 4 is_stmt 0 view .LVU2418
 6202 022c 5720063E 		rlwinm 0,25,0,24,31
 6203              		.loc 1 327 4 view .LVU2419
 6204 0230 5738863E 		rlwinm 24,25,16,24,31
 6205              	.LVL337:
 6206              		.loc 1 328 2 is_stmt 1 view .LVU2420
 6207              		.loc 1 331 2 is_stmt 0 view .LVU2421
 6208 0234 280000E0 		cmplwi 0,0,224
 6209              		.loc 1 328 4 view .LVU2422
 6210 0238 5737C63E 		rlwinm 23,25,24,24,31
 6211              	.LVL338:
 6212              		.loc 1 329 2 is_stmt 1 view .LVU2423
 6213              		.loc 1 331 2 view .LVU2424
 6214 023c 408104AC 		ble- 0,.L112
 6215              	.LVL339:
 6216              	.L150:
 6217              		.loc 1 332 3 view .LVU2425
 6218              		.loc 1 333 3 view .LVU2426
 6219              		.loc 1 334 3 view .LVU2427
 6220              		.loc 1 336 3 view .LVU2428
 6221              		.loc 1 336 26 is_stmt 0 view .LVU2429
 6222 0240 571815B4 		rlwinm 24,24,2,22,26
 6223              	.LVL340:
 6224              		.loc 1 336 14 view .LVU2430
 6225 0244 57397C6A 		rlwinm 25,25,15,17,21
 6226              	.LVL341:
 6227              		.loc 1 336 21 view .LVU2431
 6228 0248 7F39C378 		or 25,25,24
 6229              		.loc 1 334 5 view .LVU2432
 6230 024c 56F7E8FE 		srwi 23,23,3
 6231              	.LVL342:
 6232              		.loc 1 336 9 view .LVU2433
 6233 0250 7F20BB78 		or 0,25,23
 6234              	.LVL343:
 6235              		.loc 1 337 3 is_stmt 1 view .LVU2434
 6236              		.loc 1 337 9 is_stmt 0 view .LVU2435
 6237 0254 3B20FFFF 		li 25,-1
 6238 0258 53207820 		rlwimi 0,25,15,0,16
 6239              	.LVL344:
 6240              		.loc 1 348 2 is_stmt 1 view .LVU2436
 6241              		.loc 1 348 2 is_stmt 0 view .LVU2437
 6242              	.LBE616:
 6243              	.LBE653:
 6244              		.loc 1 376 87 view .LVU2438
 6245 025c 7F282214 		add 25,8,4
 6246              		.loc 1 376 46 view .LVU2439
 6247 0260 5739103A 		slwi 25,25,2
 6248              		.loc 1 375 12 discriminator 1 view .LVU2440
 6249 0264 B009000C 		sth 0,12(9)
 6250              		.loc 1 376 5 is_stmt 1 view .LVU2441
 6251              		.loc 1 376 46 is_stmt 0 view .LVU2442
 6252 0268 7F3FC82E 		lwzx 25,31,25
 6253              	.LVL345:
 6254              	.LBB654:
 6255              		.loc 1 322 10 is_stmt 1 view .LVU2443
 6256              	.LBB631:
 6257              		.loc 1 323 2 view .LVU2444
 6258              		.loc 1 324 2 view .LVU2445
 6259              		.loc 1 326 2 view .LVU2446
 6260              		.loc 1 327 2 view .LVU2447
 6261              		.loc 1 329 4 is_stmt 0 view .LVU2448
 6262 026c 5720063E 		rlwinm 0,25,0,24,31
 6263              		.loc 1 327 4 view .LVU2449
 6264 0270 5738863E 		rlwinm 24,25,16,24,31
 6265              	.LVL346:
 6266              		.loc 1 328 2 is_stmt 1 view .LVU2450
 6267              		.loc 1 331 2 is_stmt 0 view .LVU2451
 6268 0274 280000E0 		cmplwi 0,0,224
 6269              		.loc 1 328 4 view .LVU2452
 6270 0278 5737C63E 		rlwinm 23,25,24,24,31
 6271              	.LVL347:
 6272              		.loc 1 329 2 is_stmt 1 view .LVU2453
 6273              		.loc 1 331 2 view .LVU2454
 6274 027c 408104AC 		ble- 0,.L114
 6275              	.LVL348:
 6276              	.L151:
 6277              		.loc 1 332 3 view .LVU2455
 6278              		.loc 1 333 3 view .LVU2456
 6279              		.loc 1 334 3 view .LVU2457
 6280              		.loc 1 336 3 view .LVU2458
 6281              		.loc 1 336 26 is_stmt 0 view .LVU2459
 6282 0280 571815B4 		rlwinm 24,24,2,22,26
 6283              	.LVL349:
 6284              		.loc 1 336 14 view .LVU2460
 6285 0284 57397C6A 		rlwinm 25,25,15,17,21
 6286              	.LVL350:
 6287              		.loc 1 336 21 view .LVU2461
 6288 0288 7F39C378 		or 25,25,24
 6289              		.loc 1 334 5 view .LVU2462
 6290 028c 56F7E8FE 		srwi 23,23,3
 6291              	.LVL351:
 6292              		.loc 1 336 9 view .LVU2463
 6293 0290 7F20BB78 		or 0,25,23
 6294              	.LVL352:
 6295              		.loc 1 337 3 is_stmt 1 view .LVU2464
 6296              		.loc 1 337 9 is_stmt 0 view .LVU2465
 6297 0294 3B20FFFF 		li 25,-1
 6298 0298 53207820 		rlwimi 0,25,15,0,16
 6299              	.LVL353:
 6300              		.loc 1 348 2 is_stmt 1 view .LVU2466
 6301              		.loc 1 348 2 is_stmt 0 view .LVU2467
 6302              	.LBE631:
 6303              	.LBE654:
 6304              		.loc 1 373 87 view .LVU2468
 6305 029c 7F2A2A14 		add 25,10,5
 6306              		.loc 1 373 46 view .LVU2469
 6307 02a0 5739103A 		slwi 25,25,2
 6308              		.loc 1 376 12 discriminator 1 view .LVU2470
 6309 02a4 B009000E 		sth 0,14(9)
 6310              		.loc 1 372 4 is_stmt 1 discriminator 3 view .LVU2471
 6311              	.LVL354:
 6312              		.loc 1 372 32 discriminator 1 view .LVU2472
 6313              		.loc 1 373 5 view .LVU2473
 6314              		.loc 1 373 46 is_stmt 0 view .LVU2474
 6315 02a8 7F3FC82E 		lwzx 25,31,25
 6316              	.LVL355:
 6317              	.LBB655:
 6318              		.loc 1 322 10 is_stmt 1 view .LVU2475
 6319              	.LBB581:
 6320              		.loc 1 323 2 view .LVU2476
 6321              		.loc 1 324 2 view .LVU2477
 6322              		.loc 1 326 2 view .LVU2478
 6323              		.loc 1 327 2 view .LVU2479
 6324              		.loc 1 329 4 is_stmt 0 view .LVU2480
 6325 02ac 5720063E 		rlwinm 0,25,0,24,31
 6326              		.loc 1 327 4 view .LVU2481
 6327 02b0 5738863E 		rlwinm 24,25,16,24,31
 6328              	.LVL356:
 6329              		.loc 1 328 2 is_stmt 1 view .LVU2482
 6330              		.loc 1 331 2 is_stmt 0 view .LVU2483
 6331 02b4 280000E0 		cmplwi 0,0,224
 6332              		.loc 1 328 4 view .LVU2484
 6333 02b8 5737C63E 		rlwinm 23,25,24,24,31
 6334              	.LVL357:
 6335              		.loc 1 329 2 is_stmt 1 view .LVU2485
 6336              		.loc 1 331 2 view .LVU2486
 6337 02bc 408104AC 		ble- 0,.L116
 6338              	.LVL358:
 6339              	.L152:
 6340              		.loc 1 332 3 view .LVU2487
 6341              		.loc 1 333 3 view .LVU2488
 6342              		.loc 1 334 3 view .LVU2489
 6343              		.loc 1 336 3 view .LVU2490
 6344              		.loc 1 336 26 is_stmt 0 view .LVU2491
 6345 02c0 571815B4 		rlwinm 24,24,2,22,26
 6346              	.LVL359:
 6347              		.loc 1 336 14 view .LVU2492
 6348 02c4 57397C6A 		rlwinm 25,25,15,17,21
 6349              	.LVL360:
 6350              		.loc 1 336 21 view .LVU2493
 6351 02c8 7F39C378 		or 25,25,24
 6352              		.loc 1 334 5 view .LVU2494
 6353 02cc 56F7E8FE 		srwi 23,23,3
 6354              	.LVL361:
 6355              		.loc 1 336 9 view .LVU2495
 6356 02d0 7F20BB78 		or 0,25,23
 6357              	.LVL362:
 6358              		.loc 1 337 3 is_stmt 1 view .LVU2496
 6359              		.loc 1 337 9 is_stmt 0 view .LVU2497
 6360 02d4 3B20FFFF 		li 25,-1
 6361 02d8 53207820 		rlwimi 0,25,15,0,16
 6362              	.LVL363:
 6363              		.loc 1 348 2 is_stmt 1 view .LVU2498
 6364              		.loc 1 348 2 is_stmt 0 view .LVU2499
 6365              	.LBE581:
 6366              	.LBE655:
 6367              		.loc 1 374 87 view .LVU2500
 6368 02dc 7F262A14 		add 25,6,5
 6369              		.loc 1 374 46 view .LVU2501
 6370 02e0 5739103A 		slwi 25,25,2
 6371              		.loc 1 373 12 discriminator 1 view .LVU2502
 6372 02e4 B0090010 		sth 0,16(9)
 6373              		.loc 1 374 5 is_stmt 1 view .LVU2503
 6374              		.loc 1 374 46 is_stmt 0 view .LVU2504
 6375 02e8 7F3FC82E 		lwzx 25,31,25
 6376              	.LVL364:
 6377              	.LBB656:
 6378              		.loc 1 322 10 is_stmt 1 view .LVU2505
 6379              	.LBB598:
 6380              		.loc 1 323 2 view .LVU2506
 6381              		.loc 1 324 2 view .LVU2507
 6382              		.loc 1 326 2 view .LVU2508
 6383              		.loc 1 327 2 view .LVU2509
 6384              		.loc 1 329 4 is_stmt 0 view .LVU2510
 6385 02ec 5720063E 		rlwinm 0,25,0,24,31
 6386              		.loc 1 327 4 view .LVU2511
 6387 02f0 5738863E 		rlwinm 24,25,16,24,31
 6388              	.LVL365:
 6389              		.loc 1 328 2 is_stmt 1 view .LVU2512
 6390              		.loc 1 331 2 is_stmt 0 view .LVU2513
 6391 02f4 280000E0 		cmplwi 0,0,224
 6392              		.loc 1 328 4 view .LVU2514
 6393 02f8 5737C63E 		rlwinm 23,25,24,24,31
 6394              	.LVL366:
 6395              		.loc 1 329 2 is_stmt 1 view .LVU2515
 6396              		.loc 1 331 2 view .LVU2516
 6397 02fc 408104AC 		ble- 0,.L118
 6398              	.LVL367:
 6399              	.L153:
 6400              		.loc 1 332 3 view .LVU2517
 6401              		.loc 1 333 3 view .LVU2518
 6402              		.loc 1 334 3 view .LVU2519
 6403              		.loc 1 336 3 view .LVU2520
 6404              		.loc 1 336 26 is_stmt 0 view .LVU2521
 6405 0300 571815B4 		rlwinm 24,24,2,22,26
 6406              	.LVL368:
 6407              		.loc 1 336 14 view .LVU2522
 6408 0304 57397C6A 		rlwinm 25,25,15,17,21
 6409              	.LVL369:
 6410              		.loc 1 336 21 view .LVU2523
 6411 0308 7F39C378 		or 25,25,24
 6412              		.loc 1 334 5 view .LVU2524
 6413 030c 56F7E8FE 		srwi 23,23,3
 6414              	.LVL370:
 6415              		.loc 1 336 9 view .LVU2525
 6416 0310 7F20BB78 		or 0,25,23
 6417              	.LVL371:
 6418              		.loc 1 337 3 is_stmt 1 view .LVU2526
 6419              		.loc 1 337 9 is_stmt 0 view .LVU2527
 6420 0314 3B20FFFF 		li 25,-1
 6421 0318 53207820 		rlwimi 0,25,15,0,16
 6422              	.LVL372:
 6423              		.loc 1 348 2 is_stmt 1 view .LVU2528
 6424              		.loc 1 348 2 is_stmt 0 view .LVU2529
 6425              	.LBE598:
 6426              	.LBE656:
 6427              		.loc 1 375 87 view .LVU2530
 6428 031c 7F272A14 		add 25,7,5
 6429              		.loc 1 375 46 view .LVU2531
 6430 0320 5739103A 		slwi 25,25,2
 6431              		.loc 1 374 12 discriminator 1 view .LVU2532
 6432 0324 B0090012 		sth 0,18(9)
 6433              		.loc 1 375 5 is_stmt 1 view .LVU2533
 6434              		.loc 1 375 46 is_stmt 0 view .LVU2534
 6435 0328 7F3FC82E 		lwzx 25,31,25
 6436              	.LVL373:
 6437              	.LBB657:
 6438              		.loc 1 322 10 is_stmt 1 view .LVU2535
 6439              	.LBB617:
 6440              		.loc 1 323 2 view .LVU2536
 6441              		.loc 1 324 2 view .LVU2537
 6442              		.loc 1 326 2 view .LVU2538
 6443              		.loc 1 327 2 view .LVU2539
 6444              		.loc 1 329 4 is_stmt 0 view .LVU2540
 6445 032c 5720063E 		rlwinm 0,25,0,24,31
 6446              		.loc 1 327 4 view .LVU2541
 6447 0330 5738863E 		rlwinm 24,25,16,24,31
 6448              	.LVL374:
 6449              		.loc 1 328 2 is_stmt 1 view .LVU2542
 6450              		.loc 1 331 2 is_stmt 0 view .LVU2543
 6451 0334 280000E0 		cmplwi 0,0,224
 6452              		.loc 1 328 4 view .LVU2544
 6453 0338 5737C63E 		rlwinm 23,25,24,24,31
 6454              	.LVL375:
 6455              		.loc 1 329 2 is_stmt 1 view .LVU2545
 6456              		.loc 1 331 2 view .LVU2546
 6457 033c 408104AC 		ble- 0,.L120
 6458              	.LVL376:
 6459              	.L154:
 6460              		.loc 1 332 3 view .LVU2547
 6461              		.loc 1 333 3 view .LVU2548
 6462              		.loc 1 334 3 view .LVU2549
 6463              		.loc 1 336 3 view .LVU2550
 6464              		.loc 1 336 26 is_stmt 0 view .LVU2551
 6465 0340 571815B4 		rlwinm 24,24,2,22,26
 6466              	.LVL377:
 6467              		.loc 1 336 14 view .LVU2552
 6468 0344 57397C6A 		rlwinm 25,25,15,17,21
 6469              	.LVL378:
 6470              		.loc 1 336 21 view .LVU2553
 6471 0348 7F39C378 		or 25,25,24
 6472              		.loc 1 334 5 view .LVU2554
 6473 034c 56F7E8FE 		srwi 23,23,3
 6474              	.LVL379:
 6475              		.loc 1 336 9 view .LVU2555
 6476 0350 7F20BB78 		or 0,25,23
 6477              	.LVL380:
 6478              		.loc 1 337 3 is_stmt 1 view .LVU2556
 6479              		.loc 1 337 9 is_stmt 0 view .LVU2557
 6480 0354 3B20FFFF 		li 25,-1
 6481 0358 53207820 		rlwimi 0,25,15,0,16
 6482              	.LVL381:
 6483              		.loc 1 348 2 is_stmt 1 view .LVU2558
 6484              		.loc 1 348 2 is_stmt 0 view .LVU2559
 6485              	.LBE617:
 6486              	.LBE657:
 6487              		.loc 1 376 87 view .LVU2560
 6488 035c 7F282A14 		add 25,8,5
 6489              		.loc 1 376 46 view .LVU2561
 6490 0360 5739103A 		slwi 25,25,2
 6491              		.loc 1 375 12 discriminator 1 view .LVU2562
 6492 0364 B0090014 		sth 0,20(9)
 6493              		.loc 1 376 5 is_stmt 1 view .LVU2563
 6494              		.loc 1 376 46 is_stmt 0 view .LVU2564
 6495 0368 7F3FC82E 		lwzx 25,31,25
 6496              	.LVL382:
 6497              	.LBB658:
 6498              		.loc 1 322 10 is_stmt 1 view .LVU2565
 6499              	.LBB632:
 6500              		.loc 1 323 2 view .LVU2566
 6501              		.loc 1 324 2 view .LVU2567
 6502              		.loc 1 326 2 view .LVU2568
 6503              		.loc 1 327 2 view .LVU2569
 6504              		.loc 1 329 4 is_stmt 0 view .LVU2570
 6505 036c 5720063E 		rlwinm 0,25,0,24,31
 6506              		.loc 1 327 4 view .LVU2571
 6507 0370 5738863E 		rlwinm 24,25,16,24,31
 6508              	.LVL383:
 6509              		.loc 1 328 2 is_stmt 1 view .LVU2572
 6510              		.loc 1 331 2 is_stmt 0 view .LVU2573
 6511 0374 280000E0 		cmplwi 0,0,224
 6512              		.loc 1 328 4 view .LVU2574
 6513 0378 5737C63E 		rlwinm 23,25,24,24,31
 6514              	.LVL384:
 6515              		.loc 1 329 2 is_stmt 1 view .LVU2575
 6516              		.loc 1 331 2 view .LVU2576
 6517 037c 408104AC 		ble- 0,.L122
 6518              	.LVL385:
 6519              	.L155:
 6520              		.loc 1 332 3 view .LVU2577
 6521              		.loc 1 333 3 view .LVU2578
 6522              		.loc 1 334 3 view .LVU2579
 6523              		.loc 1 336 3 view .LVU2580
 6524              		.loc 1 336 26 is_stmt 0 view .LVU2581
 6525 0380 571815B4 		rlwinm 24,24,2,22,26
 6526              	.LVL386:
 6527              		.loc 1 336 14 view .LVU2582
 6528 0384 57397C6A 		rlwinm 25,25,15,17,21
 6529              	.LVL387:
 6530              		.loc 1 336 21 view .LVU2583
 6531 0388 7F39C378 		or 25,25,24
 6532              		.loc 1 334 5 view .LVU2584
 6533 038c 56F7E8FE 		srwi 23,23,3
 6534              	.LVL388:
 6535              		.loc 1 336 9 view .LVU2585
 6536 0390 7F20BB78 		or 0,25,23
 6537              	.LVL389:
 6538              		.loc 1 337 3 is_stmt 1 view .LVU2586
 6539              	.LBE632:
 6540              	.LBE658:
 6541              		.loc 1 373 87 is_stmt 0 view .LVU2587
 6542 0394 7D4A5A14 		add 10,10,11
 6543              	.LBB659:
 6544              	.LBB633:
 6545              		.loc 1 337 9 view .LVU2588
 6546 0398 3B20FFFF 		li 25,-1
 6547              	.LBE633:
 6548              	.LBE659:
 6549              		.loc 1 373 46 view .LVU2589
 6550 039c 554A103A 		slwi 10,10,2
 6551              	.LBB660:
 6552              	.LBB634:
 6553              		.loc 1 337 9 view .LVU2590
 6554 03a0 53207820 		rlwimi 0,25,15,0,16
 6555              	.LVL390:
 6556              		.loc 1 348 2 is_stmt 1 view .LVU2591
 6557              		.loc 1 348 2 is_stmt 0 view .LVU2592
 6558              	.LBE634:
 6559              	.LBE660:
 6560              		.loc 1 376 12 discriminator 1 view .LVU2593
 6561 03a4 B0090016 		sth 0,22(9)
 6562              		.loc 1 372 4 is_stmt 1 discriminator 3 view .LVU2594
 6563              	.LVL391:
 6564              		.loc 1 372 32 discriminator 1 view .LVU2595
 6565              		.loc 1 373 5 view .LVU2596
 6566              		.loc 1 373 46 is_stmt 0 view .LVU2597
 6567 03a8 7C1F502E 		lwzx 0,31,10
 6568              	.LVL392:
 6569              	.LBB661:
 6570              		.loc 1 322 10 is_stmt 1 view .LVU2598
 6571              	.LBB582:
 6572              		.loc 1 323 2 view .LVU2599
 6573              		.loc 1 324 2 view .LVU2600
 6574              		.loc 1 326 2 view .LVU2601
 6575              		.loc 1 327 2 view .LVU2602
 6576              		.loc 1 329 4 is_stmt 0 view .LVU2603
 6577 03ac 540A063E 		rlwinm 10,0,0,24,31
 6578              		.loc 1 327 4 view .LVU2604
 6579 03b0 5419863E 		rlwinm 25,0,16,24,31
 6580              	.LVL393:
 6581              		.loc 1 328 2 is_stmt 1 view .LVU2605
 6582              		.loc 1 331 2 is_stmt 0 view .LVU2606
 6583 03b4 280A00E0 		cmplwi 0,10,224
 6584              		.loc 1 328 4 view .LVU2607
 6585 03b8 5418C63E 		rlwinm 24,0,24,24,31
 6586              	.LVL394:
 6587              		.loc 1 329 2 is_stmt 1 view .LVU2608
 6588              		.loc 1 331 2 view .LVU2609
 6589 03bc 408104AC 		ble- 0,.L124
 6590              	.LVL395:
 6591              	.L156:
 6592              		.loc 1 332 3 view .LVU2610
 6593              		.loc 1 333 3 view .LVU2611
 6594              		.loc 1 334 3 view .LVU2612
 6595              		.loc 1 336 3 view .LVU2613
 6596              		.loc 1 336 26 is_stmt 0 view .LVU2614
 6597 03c0 573915B4 		rlwinm 25,25,2,22,26
 6598              	.LVL396:
 6599              		.loc 1 336 14 view .LVU2615
 6600 03c4 54007C6A 		rlwinm 0,0,15,17,21
 6601              	.LVL397:
 6602              		.loc 1 336 14 view .LVU2616
 6603              	.LBE582:
 6604              	.LBE661:
 6605              		.loc 1 374 87 view .LVU2617
 6606 03c8 7CC65A14 		add 6,6,11
 6607              	.LBB662:
 6608              	.LBB583:
 6609              		.loc 1 336 21 view .LVU2618
 6610 03cc 7C00CB78 		or 0,0,25
 6611              		.loc 1 334 5 view .LVU2619
 6612 03d0 5718E8FE 		srwi 24,24,3
 6613              	.LVL398:
 6614              		.loc 1 334 5 view .LVU2620
 6615              	.LBE583:
 6616              	.LBE662:
 6617              		.loc 1 374 46 view .LVU2621
 6618 03d4 54C6103A 		slwi 6,6,2
 6619 03d8 7CDF302E 		lwzx 6,31,6
 6620              	.LBB663:
 6621              	.LBB584:
 6622              		.loc 1 336 9 view .LVU2622
 6623 03dc 7C0AC378 		or 10,0,24
 6624              	.LVL399:
 6625              		.loc 1 337 3 is_stmt 1 view .LVU2623
 6626              		.loc 1 337 9 is_stmt 0 view .LVU2624
 6627 03e0 3800FFFF 		li 0,-1
 6628 03e4 500A7820 		rlwimi 10,0,15,0,16
 6629              	.LVL400:
 6630              		.loc 1 348 2 is_stmt 1 view .LVU2625
 6631              		.loc 1 348 2 is_stmt 0 view .LVU2626
 6632              	.LBE584:
 6633              	.LBE663:
 6634              	.LBB664:
 6635              	.LBB599:
 6636              		.loc 1 328 4 view .LVU2627
 6637 03e8 54D9C63E 		rlwinm 25,6,24,24,31
 6638              	.LBE599:
 6639              	.LBE664:
 6640              		.loc 1 373 12 discriminator 1 view .LVU2628
 6641 03ec B1490018 		sth 10,24(9)
 6642              		.loc 1 374 5 is_stmt 1 view .LVU2629
 6643              	.LVL401:
 6644              	.LBB665:
 6645              		.loc 1 322 10 view .LVU2630
 6646              	.LBB600:
 6647              		.loc 1 323 2 view .LVU2631
 6648              		.loc 1 324 2 view .LVU2632
 6649              		.loc 1 326 2 view .LVU2633
 6650              		.loc 1 327 2 view .LVU2634
 6651              		.loc 1 329 4 is_stmt 0 view .LVU2635
 6652 03f0 54CA063E 		rlwinm 10,6,0,24,31
 6653              		.loc 1 331 2 view .LVU2636
 6654 03f4 280A00E0 		cmplwi 0,10,224
 6655              		.loc 1 327 4 view .LVU2637
 6656 03f8 54C0863E 		rlwinm 0,6,16,24,31
 6657              	.LVL402:
 6658              		.loc 1 328 2 is_stmt 1 view .LVU2638
 6659              		.loc 1 329 2 view .LVU2639
 6660              		.loc 1 331 2 view .LVU2640
 6661 03fc 408104AC 		ble- 0,.L126
 6662              	.LVL403:
 6663              	.L157:
 6664              		.loc 1 332 3 view .LVU2641
 6665              		.loc 1 333 3 view .LVU2642
 6666              		.loc 1 334 3 view .LVU2643
 6667              		.loc 1 336 3 view .LVU2644
 6668              		.loc 1 336 26 is_stmt 0 view .LVU2645
 6669 0400 540015B4 		rlwinm 0,0,2,22,26
 6670              	.LVL404:
 6671              		.loc 1 336 14 view .LVU2646
 6672 0404 54C67C6A 		rlwinm 6,6,15,17,21
 6673              	.LVL405:
 6674              		.loc 1 336 14 view .LVU2647
 6675              	.LBE600:
 6676              	.LBE665:
 6677              		.loc 1 375 87 view .LVU2648
 6678 0408 7CE75A14 		add 7,7,11
 6679              	.LBB666:
 6680              	.LBB601:
 6681              		.loc 1 336 21 view .LVU2649
 6682 040c 7CC60378 		or 6,6,0
 6683              		.loc 1 334 5 view .LVU2650
 6684 0410 5739E8FE 		srwi 25,25,3
 6685              	.LVL406:
 6686              		.loc 1 334 5 view .LVU2651
 6687              	.LBE601:
 6688              	.LBE666:
 6689              		.loc 1 375 46 view .LVU2652
 6690 0414 54E7103A 		slwi 7,7,2
 6691 0418 7CFF382E 		lwzx 7,31,7
 6692              	.LBB667:
 6693              	.LBB602:
 6694              		.loc 1 336 9 view .LVU2653
 6695 041c 7CCACB78 		or 10,6,25
 6696              	.LVL407:
 6697              		.loc 1 337 3 is_stmt 1 view .LVU2654
 6698              		.loc 1 337 9 is_stmt 0 view .LVU2655
 6699 0420 38C0FFFF 		li 6,-1
 6700 0424 50CA7820 		rlwimi 10,6,15,0,16
 6701              	.LVL408:
 6702              		.loc 1 348 2 is_stmt 1 view .LVU2656
 6703              		.loc 1 348 2 is_stmt 0 view .LVU2657
 6704              	.LBE602:
 6705              	.LBE667:
 6706              	.LBB668:
 6707              	.LBB618:
 6708              		.loc 1 328 4 view .LVU2658
 6709 0428 54E0C63E 		rlwinm 0,7,24,24,31
 6710              	.LBE618:
 6711              	.LBE668:
 6712              		.loc 1 374 12 discriminator 1 view .LVU2659
 6713 042c B149001A 		sth 10,26(9)
 6714              		.loc 1 375 5 is_stmt 1 view .LVU2660
 6715              	.LVL409:
 6716              	.LBB669:
 6717              		.loc 1 322 10 view .LVU2661
 6718              	.LBB619:
 6719              		.loc 1 323 2 view .LVU2662
 6720              		.loc 1 324 2 view .LVU2663
 6721              		.loc 1 326 2 view .LVU2664
 6722              		.loc 1 327 2 view .LVU2665
 6723              		.loc 1 329 4 is_stmt 0 view .LVU2666
 6724 0430 54EA063E 		rlwinm 10,7,0,24,31
 6725              		.loc 1 331 2 view .LVU2667
 6726 0434 280A00E0 		cmplwi 0,10,224
 6727              		.loc 1 327 4 view .LVU2668
 6728 0438 54E6863E 		rlwinm 6,7,16,24,31
 6729              	.LVL410:
 6730              		.loc 1 328 2 is_stmt 1 view .LVU2669
 6731              		.loc 1 329 2 view .LVU2670
 6732              		.loc 1 331 2 view .LVU2671
 6733 043c 408104AC 		ble- 0,.L128
 6734              	.LVL411:
 6735              	.L158:
 6736              		.loc 1 332 3 view .LVU2672
 6737              		.loc 1 333 3 view .LVU2673
 6738              		.loc 1 334 3 view .LVU2674
 6739              		.loc 1 336 3 view .LVU2675
 6740              		.loc 1 336 14 is_stmt 0 view .LVU2676
 6741 0440 54E77C6A 		rlwinm 7,7,15,17,21
 6742              	.LVL412:
 6743              		.loc 1 336 26 view .LVU2677
 6744 0444 54C615B4 		rlwinm 6,6,2,22,26
 6745              	.LVL413:
 6746              		.loc 1 336 21 view .LVU2678
 6747 0448 7CE73378 		or 7,7,6
 6748              		.loc 1 334 5 view .LVU2679
 6749 044c 5400E8FE 		srwi 0,0,3
 6750              	.LVL414:
 6751              		.loc 1 336 9 view .LVU2680
 6752 0450 7CEA0378 		or 10,7,0
 6753              	.LVL415:
 6754              		.loc 1 337 3 is_stmt 1 view .LVU2681
 6755              		.loc 1 337 9 is_stmt 0 view .LVU2682
 6756 0454 38E0FFFF 		li 7,-1
 6757 0458 50EA7820 		rlwimi 10,7,15,0,16
 6758              	.LVL416:
 6759              	.L129:
 6760              		.loc 1 348 2 is_stmt 1 view .LVU2683
 6761              		.loc 1 348 2 is_stmt 0 view .LVU2684
 6762              	.LBE619:
 6763              	.LBE669:
 6764              		.loc 1 376 87 view .LVU2685
 6765 045c 7D085A14 		add 8,8,11
 6766              		.loc 1 375 12 discriminator 1 view .LVU2686
 6767 0460 B149001C 		sth 10,28(9)
 6768              		.loc 1 376 5 is_stmt 1 view .LVU2687
 6769              		.loc 1 376 46 is_stmt 0 view .LVU2688
 6770 0464 5508103A 		slwi 8,8,2
 6771              	.LBE716:
 6772              		.loc 1 371 42 discriminator 2 view .LVU2689
 6773 0468 3B5A0004 		addi 26,26,4
 6774              	.LVL417:
 6775              	.LBB717:
 6776              		.loc 1 376 46 view .LVU2690
 6777 046c 7D5F402E 		lwzx 10,31,8
 6778              	.LVL418:
 6779              	.LBB670:
 6780              		.loc 1 322 10 is_stmt 1 view .LVU2691
 6781              	.LBB635:
 6782              		.loc 1 323 2 view .LVU2692
 6783              		.loc 1 324 2 view .LVU2693
 6784              		.loc 1 326 2 view .LVU2694
 6785              		.loc 1 327 2 view .LVU2695
 6786              		.loc 1 329 4 is_stmt 0 view .LVU2696
 6787 0470 5548063E 		rlwinm 8,10,0,24,31
 6788              		.loc 1 327 4 view .LVU2697
 6789 0474 5547863E 		rlwinm 7,10,16,24,31
 6790              	.LVL419:
 6791              		.loc 1 328 2 is_stmt 1 view .LVU2698
 6792              		.loc 1 331 2 is_stmt 0 view .LVU2699
 6793 0478 280800E0 		cmplwi 0,8,224
 6794              		.loc 1 328 4 view .LVU2700
 6795 047c 5546C63E 		rlwinm 6,10,24,24,31
 6796              	.LVL420:
 6797              		.loc 1 329 2 is_stmt 1 view .LVU2701
 6798              		.loc 1 331 2 view .LVU2702
 6799 0480 40810088 		ble- 0,.L130
 6800              		.loc 1 332 3 view .LVU2703
 6801              	.LVL421:
 6802              		.loc 1 333 3 view .LVU2704
 6803              		.loc 1 334 3 view .LVU2705
 6804              		.loc 1 336 3 view .LVU2706
 6805              	.LBE635:
 6806              	.LBE670:
 6807              	.LBE717:
 6808              		.loc 1 371 25 is_stmt 0 discriminator 1 view .LVU2707
 6809 0484 5748043E 		rlwinm 8,26,0,0xffff
 6810              	.LVL422:
 6811              	.LBB718:
 6812              	.LBB671:
 6813              	.LBB636:
 6814              		.loc 1 336 14 view .LVU2708
 6815 0488 554A7C6A 		rlwinm 10,10,15,17,21
 6816              	.LVL423:
 6817              		.loc 1 336 14 view .LVU2709
 6818              	.LBE636:
 6819              	.LBE671:
 6820              	.LBE718:
 6821              		.loc 1 371 25 discriminator 1 view .LVU2710
 6822 048c 7C08E040 		cmplw 0,8,28
 6823              	.LBB719:
 6824              	.LBB672:
 6825              	.LBB637:
 6826              		.loc 1 336 26 view .LVU2711
 6827 0490 54E715B4 		rlwinm 7,7,2,22,26
 6828              	.LVL424:
 6829              		.loc 1 336 21 view .LVU2712
 6830 0494 7D4A3B78 		or 10,10,7
 6831              		.loc 1 334 5 view .LVU2713
 6832 0498 54C6E8FE 		srwi 6,6,3
 6833              	.LVL425:
 6834              		.loc 1 337 9 view .LVU2714
 6835 049c 3900FFFF 		li 8,-1
 6836              		.loc 1 336 9 view .LVU2715
 6837 04a0 7D4A3378 		or 10,10,6
 6838              	.LVL426:
 6839              		.loc 1 337 3 is_stmt 1 view .LVU2716
 6840              		.loc 1 348 2 view .LVU2717
 6841              		.loc 1 348 2 is_stmt 0 view .LVU2718
 6842              	.LBE637:
 6843              	.LBE672:
 6844              		.loc 1 376 9 discriminator 1 view .LVU2719
 6845 04a4 39290020 		addi 9,9,32
 6846              	.LVL427:
 6847              	.LBB673:
 6848              	.LBB638:
 6849              		.loc 1 337 9 view .LVU2720
 6850 04a8 510A7820 		rlwimi 10,8,15,0,16
 6851              	.LBE638:
 6852              	.LBE673:
 6853              		.loc 1 376 12 discriminator 1 view .LVU2721
 6854 04ac B149FFFE 		sth 10,-2(9)
 6855              		.loc 1 372 4 is_stmt 1 discriminator 3 view .LVU2722
 6856              	.LVL428:
 6857              		.loc 1 372 32 discriminator 1 view .LVU2723
 6858              	.LBE719:
 6859              		.loc 1 371 3 discriminator 2 view .LVU2724
 6860              		.loc 1 371 25 discriminator 1 view .LVU2725
 6861 04b0 4180FBE0 		blt+ 0,.L133
 6862              	.LVL429:
 6863              	.L132:
 6864              		.loc 1 371 25 is_stmt 0 discriminator 1 view .LVU2726
 6865              	.LBE576:
 6866              		.loc 1 370 2 is_stmt 1 discriminator 2 view .LVU2727
 6867              		.loc 1 370 42 is_stmt 0 discriminator 2 view .LVU2728
 6868 04b4 398C0004 		addi 12,12,4
 6869              	.LVL430:
 6870              		.loc 1 370 24 discriminator 1 view .LVU2729
 6871 04b8 558A043E 		rlwinm 10,12,0,0xffff
 6872              	.LVL431:
 6873              		.loc 1 370 24 is_stmt 1 discriminator 1 view .LVU2730
 6874 04bc 7C0AD840 		cmplw 0,10,27
 6875 04c0 4180FBB8 		blt+ 0,.L134
 6876              		.loc 1 370 24 is_stmt 0 discriminator 1 view .LVU2731
 6877 04c4 82E1000C 		lwz 23,12(1)
 6878              		.cfi_restore 23
 6879 04c8 83010010 		lwz 24,16(1)
 6880              		.cfi_restore 24
 6881 04cc 83210014 		lwz 25,20(1)
 6882              		.cfi_restore 25
 6883 04d0 83410018 		lwz 26,24(1)
 6884              		.cfi_restore 26
 6885              	.LVL432:
 6886              	.L99:
 6887              		.loc 1 370 24 discriminator 1 view .LVU2732
 6888              	.LBE725:
 6889              		.loc 1 380 2 is_stmt 1 view .LVU2733
 6890              		.loc 1 380 14 is_stmt 0 view .LVU2734
 6891 04d4 7FA3EB78 		mr 3,29
 6892 04d8 7FC4F378 		mr 4,30
 6893 04dc 48000001 		bl DCFlushRange
 6894              	.LVL433:
 6895              		.loc 1 382 2 is_stmt 1 view .LVU2735
 6896              		.loc 1 383 1 is_stmt 0 view .LVU2736
 6897 04e0 80010034 		lwz 0,52(1)
 6898 04e4 7FA3EB78 		mr 3,29
 6899 04e8 8361001C 		lwz 27,28(1)
 6900              	.LVL434:
 6901              		.loc 1 383 1 view .LVU2737
 6902 04ec 83810020 		lwz 28,32(1)
 6903              	.LVL435:
 6904              		.loc 1 383 1 view .LVU2738
 6905 04f0 7C0803A6 		mtlr 0
 6906              		.cfi_restore 65
 6907 04f4 83A10024 		lwz 29,36(1)
 6908              	.LVL436:
 6909              		.loc 1 383 1 view .LVU2739
 6910 04f8 83C10028 		lwz 30,40(1)
 6911              	.LVL437:
 6912              		.loc 1 383 1 view .LVU2740
 6913 04fc 83E1002C 		lwz 31,44(1)
 6914              	.LVL438:
 6915              		.loc 1 383 1 view .LVU2741
 6916 0500 38210030 		addi 1,1,48
 6917              		.cfi_restore 31
 6918              		.cfi_restore 30
 6919              		.cfi_restore 29
 6920              		.cfi_restore 28
 6921              		.cfi_restore 27
 6922              		.cfi_def_cfa_offset 0
 6923 0504 4E800020 		blr
 6924              	.LVL439:
 6925              	.L130:
 6926              		.cfi_def_cfa_offset 48
 6927              		.cfi_offset 23, -36
 6928              		.cfi_offset 24, -32
 6929              		.cfi_offset 25, -28
 6930              		.cfi_offset 26, -24
 6931              		.cfi_offset 27, -20
 6932              		.cfi_offset 28, -16
 6933              		.cfi_offset 29, -12
 6934              		.cfi_offset 30, -8
 6935              		.cfi_offset 31, -4
 6936              		.cfi_offset 65, 4
 6937              	.LBB726:
 6938              	.LBB724:
 6939              	.LBB720:
 6940              	.LBB674:
 6941              	.LBB639:
 6942              		.loc 1 340 3 is_stmt 1 view .LVU2742
 6943              		.loc 1 341 3 view .LVU2743
 6944              		.loc 1 342 3 view .LVU2744
 6945              		.loc 1 343 3 view .LVU2745
 6946              		.loc 1 345 3 view .LVU2746
 6947              		.loc 1 348 2 view .LVU2747
 6948              		.loc 1 348 2 is_stmt 0 view .LVU2748
 6949              	.LBE639:
 6950              	.LBE674:
 6951              	.LBE720:
 6952              		.loc 1 371 25 discriminator 1 view .LVU2749
 6953 0508 5740043E 		rlwinm 0,26,0,0xffff
 6954              	.LBB721:
 6955              	.LBB675:
 6956              	.LBB640:
 6957              		.loc 1 345 14 view .LVU2750
 6958 050c 55083C66 		rlwinm 8,8,7,17,19
 6959              		.loc 1 342 5 view .LVU2751
 6960 0510 54C6E13E 		srwi 6,6,4
 6961              	.LBE640:
 6962              	.LBE675:
 6963              	.LBE721:
 6964              		.loc 1 371 25 discriminator 1 view .LVU2752
 6965 0514 7C00E040 		cmplw 0,0,28
 6966              	.LBB722:
 6967              	.LBB676:
 6968              	.LBB641:
 6969              		.loc 1 345 9 view .LVU2753
 6970 0518 7D083378 		or 8,8,6
 6971              		.loc 1 345 26 view .LVU2754
 6972 051c 554A652E 		rlwinm 10,10,12,20,23
 6973              		.loc 1 345 37 view .LVU2755
 6974 0520 54E70636 		rlwinm 7,7,0,24,27
 6975              		.loc 1 345 9 view .LVU2756
 6976 0524 7D0A5378 		or 10,8,10
 6977              	.LBE641:
 6978              	.LBE676:
 6979              		.loc 1 376 9 discriminator 1 view .LVU2757
 6980 0528 39290020 		addi 9,9,32
 6981              	.LVL440:
 6982              	.LBB677:
 6983              	.LBB642:
 6984              		.loc 1 345 9 view .LVU2758
 6985 052c 7D4A3B78 		or 10,10,7
 6986              	.LBE642:
 6987              	.LBE677:
 6988              		.loc 1 376 12 discriminator 1 view .LVU2759
 6989 0530 B149FFFE 		sth 10,-2(9)
 6990              		.loc 1 372 4 is_stmt 1 discriminator 3 view .LVU2760
 6991              	.LVL441:
 6992              		.loc 1 372 32 discriminator 1 view .LVU2761
 6993              	.LBE722:
 6994              		.loc 1 371 3 discriminator 2 view .LVU2762
 6995              		.loc 1 371 25 discriminator 1 view .LVU2763
 6996 0534 40A0FF80 		bge- 0,.L132
 6997              	.LVL442:
 6998              	.LBB723:
 6999              		.loc 1 372 32 discriminator 1 view .LVU2764
 7000              		.loc 1 373 5 view .LVU2765
 7001              		.loc 1 373 81 is_stmt 0 view .LVU2766
 7002 0538 574A043E 		rlwinm 10,26,0,0xffff
 7003              		.loc 1 373 87 view .LVU2767
 7004 053c 7D0A1A14 		add 8,10,3
 7005              		.loc 1 373 46 view .LVU2768
 7006 0540 5508103A 		slwi 8,8,2
 7007 0544 7CFF402E 		lwzx 7,31,8
 7008              	.LVL443:
 7009              	.LBB678:
 7010              		.loc 1 322 10 is_stmt 1 view .LVU2769
 7011              	.LBB585:
 7012              		.loc 1 323 2 view .LVU2770
 7013              		.loc 1 324 2 view .LVU2771
 7014              		.loc 1 326 2 view .LVU2772
 7015              		.loc 1 327 2 view .LVU2773
 7016              		.loc 1 329 4 is_stmt 0 view .LVU2774
 7017 0548 54E8063E 		rlwinm 8,7,0,24,31
 7018              		.loc 1 327 4 view .LVU2775
 7019 054c 54E6863E 		rlwinm 6,7,16,24,31
 7020              	.LVL444:
 7021              		.loc 1 328 2 is_stmt 1 view .LVU2776
 7022              		.loc 1 331 2 is_stmt 0 view .LVU2777
 7023 0550 280800E0 		cmplwi 0,8,224
 7024              		.loc 1 328 4 view .LVU2778
 7025 0554 54E0C63E 		rlwinm 0,7,24,24,31
 7026              	.LVL445:
 7027              		.loc 1 329 2 is_stmt 1 view .LVU2779
 7028              		.loc 1 331 2 view .LVU2780
 7029 0558 41A1FB5C 		bgt- 0,.L144
 7030              	.LVL446:
 7031              	.L100:
 7032              		.loc 1 340 3 view .LVU2781
 7033              		.loc 1 341 3 view .LVU2782
 7034              		.loc 1 342 3 view .LVU2783
 7035              		.loc 1 343 3 view .LVU2784
 7036              		.loc 1 345 3 view .LVU2785
 7037              		.loc 1 342 5 is_stmt 0 view .LVU2786
 7038 055c 5400E13E 		srwi 0,0,4
 7039              	.LVL447:
 7040              		.loc 1 345 14 view .LVU2787
 7041 0560 55083C66 		rlwinm 8,8,7,17,19
 7042              	.LVL448:
 7043              		.loc 1 345 9 view .LVU2788
 7044 0564 7D080378 		or 8,8,0
 7045              		.loc 1 345 26 view .LVU2789
 7046 0568 54E7652E 		rlwinm 7,7,12,20,23
 7047              	.LVL449:
 7048              		.loc 1 345 9 view .LVU2790
 7049 056c 7D083B78 		or 8,8,7
 7050              		.loc 1 345 37 view .LVU2791
 7051 0570 54C60636 		rlwinm 6,6,0,24,27
 7052              	.LVL450:
 7053              		.loc 1 345 9 view .LVU2792
 7054 0574 7D083378 		or 8,8,6
 7055              	.LVL451:
 7056              		.loc 1 348 2 is_stmt 1 view .LVU2793
 7057              		.loc 1 348 2 is_stmt 0 view .LVU2794
 7058              	.LBE585:
 7059              	.LBE678:
 7060              		.loc 1 374 83 view .LVU2795
 7061 0578 38CA0001 		addi 6,10,1
 7062              		.loc 1 373 12 discriminator 1 view .LVU2796
 7063 057c B1090000 		sth 8,0(9)
 7064              		.loc 1 374 5 is_stmt 1 view .LVU2797
 7065              		.loc 1 374 87 is_stmt 0 view .LVU2798
 7066 0580 7D061A14 		add 8,6,3
 7067              		.loc 1 374 46 view .LVU2799
 7068 0584 5508103A 		slwi 8,8,2
 7069 0588 7CFF402E 		lwzx 7,31,8
 7070              	.LVL452:
 7071              	.LBB679:
 7072              		.loc 1 322 10 is_stmt 1 view .LVU2800
 7073              	.LBB603:
 7074              		.loc 1 323 2 view .LVU2801
 7075              		.loc 1 324 2 view .LVU2802
 7076              		.loc 1 326 2 view .LVU2803
 7077              		.loc 1 327 2 view .LVU2804
 7078              		.loc 1 329 4 is_stmt 0 view .LVU2805
 7079 058c 54E8063E 		rlwinm 8,7,0,24,31
 7080              		.loc 1 327 4 view .LVU2806
 7081 0590 54E0863E 		rlwinm 0,7,16,24,31
 7082              	.LVL453:
 7083              		.loc 1 328 2 is_stmt 1 view .LVU2807
 7084              		.loc 1 331 2 is_stmt 0 view .LVU2808
 7085 0594 280800E0 		cmplwi 0,8,224
 7086              		.loc 1 328 4 view .LVU2809
 7087 0598 54F9C63E 		rlwinm 25,7,24,24,31
 7088              	.LVL454:
 7089              		.loc 1 329 2 is_stmt 1 view .LVU2810
 7090              		.loc 1 331 2 view .LVU2811
 7091 059c 41A1FB5C 		bgt- 0,.L145
 7092              	.LVL455:
 7093              	.L102:
 7094              		.loc 1 340 3 view .LVU2812
 7095              		.loc 1 341 3 view .LVU2813
 7096              		.loc 1 342 3 view .LVU2814
 7097              		.loc 1 343 3 view .LVU2815
 7098              		.loc 1 345 3 view .LVU2816
 7099              		.loc 1 342 5 is_stmt 0 view .LVU2817
 7100 05a0 5739E13E 		srwi 25,25,4
 7101              	.LVL456:
 7102              		.loc 1 345 14 view .LVU2818
 7103 05a4 55083C66 		rlwinm 8,8,7,17,19
 7104              	.LVL457:
 7105              		.loc 1 345 9 view .LVU2819
 7106 05a8 7D08CB78 		or 8,8,25
 7107              		.loc 1 345 26 view .LVU2820
 7108 05ac 54E7652E 		rlwinm 7,7,12,20,23
 7109              	.LVL458:
 7110              		.loc 1 345 9 view .LVU2821
 7111 05b0 7D083B78 		or 8,8,7
 7112              		.loc 1 345 37 view .LVU2822
 7113 05b4 54000636 		rlwinm 0,0,0,24,27
 7114              	.LVL459:
 7115              		.loc 1 345 9 view .LVU2823
 7116 05b8 7D080378 		or 8,8,0
 7117              	.LVL460:
 7118              		.loc 1 348 2 is_stmt 1 view .LVU2824
 7119              		.loc 1 348 2 is_stmt 0 view .LVU2825
 7120              	.LBE603:
 7121              	.LBE679:
 7122              		.loc 1 375 83 view .LVU2826
 7123 05bc 38EA0002 		addi 7,10,2
 7124              		.loc 1 374 12 discriminator 1 view .LVU2827
 7125 05c0 B1090002 		sth 8,2(9)
 7126              		.loc 1 375 5 is_stmt 1 view .LVU2828
 7127              		.loc 1 375 87 is_stmt 0 view .LVU2829
 7128 05c4 7D071A14 		add 8,7,3
 7129              		.loc 1 375 46 view .LVU2830
 7130 05c8 5508103A 		slwi 8,8,2
 7131 05cc 7F3F402E 		lwzx 25,31,8
 7132              	.LVL461:
 7133              	.LBB680:
 7134              		.loc 1 322 10 is_stmt 1 view .LVU2831
 7135              	.LBB620:
 7136              		.loc 1 323 2 view .LVU2832
 7137              		.loc 1 324 2 view .LVU2833
 7138              		.loc 1 326 2 view .LVU2834
 7139              		.loc 1 327 2 view .LVU2835
 7140              		.loc 1 329 4 is_stmt 0 view .LVU2836
 7141 05d0 5720063E 		rlwinm 0,25,0,24,31
 7142              		.loc 1 327 4 view .LVU2837
 7143 05d4 5738863E 		rlwinm 24,25,16,24,31
 7144              	.LVL462:
 7145              		.loc 1 328 2 is_stmt 1 view .LVU2838
 7146              		.loc 1 331 2 is_stmt 0 view .LVU2839
 7147 05d8 280000E0 		cmplwi 0,0,224
 7148              		.loc 1 328 4 view .LVU2840
 7149 05dc 5737C63E 		rlwinm 23,25,24,24,31
 7150              	.LVL463:
 7151              		.loc 1 329 2 is_stmt 1 view .LVU2841
 7152              		.loc 1 331 2 view .LVU2842
 7153 05e0 41A1FB5C 		bgt- 0,.L146
 7154              	.LVL464:
 7155              	.L104:
 7156              		.loc 1 340 3 view .LVU2843
 7157              		.loc 1 341 3 view .LVU2844
 7158              		.loc 1 342 3 view .LVU2845
 7159              		.loc 1 343 3 view .LVU2846
 7160              		.loc 1 345 3 view .LVU2847
 7161              		.loc 1 342 5 is_stmt 0 view .LVU2848
 7162 05e4 56F7E13E 		srwi 23,23,4
 7163              	.LVL465:
 7164              		.loc 1 345 14 view .LVU2849
 7165 05e8 54003C66 		rlwinm 0,0,7,17,19
 7166              	.LVL466:
 7167              		.loc 1 345 9 view .LVU2850
 7168 05ec 7C00BB78 		or 0,0,23
 7169              		.loc 1 345 26 view .LVU2851
 7170 05f0 5739652E 		rlwinm 25,25,12,20,23
 7171              	.LVL467:
 7172              		.loc 1 345 9 view .LVU2852
 7173 05f4 7C00CB78 		or 0,0,25
 7174              		.loc 1 345 37 view .LVU2853
 7175 05f8 57180636 		rlwinm 24,24,0,24,27
 7176              	.LVL468:
 7177              		.loc 1 345 9 view .LVU2854
 7178 05fc 7C00C378 		or 0,0,24
 7179              	.LVL469:
 7180              		.loc 1 348 2 is_stmt 1 view .LVU2855
 7181              		.loc 1 348 2 is_stmt 0 view .LVU2856
 7182              	.LBE620:
 7183              	.LBE680:
 7184              		.loc 1 376 83 view .LVU2857
 7185 0600 390A0003 		addi 8,10,3
 7186              		.loc 1 375 12 discriminator 1 view .LVU2858
 7187 0604 B0090004 		sth 0,4(9)
 7188              		.loc 1 376 5 is_stmt 1 view .LVU2859
 7189              		.loc 1 376 87 is_stmt 0 view .LVU2860
 7190 0608 7C081A14 		add 0,8,3
 7191              		.loc 1 376 46 view .LVU2861
 7192 060c 5400103A 		slwi 0,0,2
 7193 0610 7F3F002E 		lwzx 25,31,0
 7194              	.LVL470:
 7195              	.LBB681:
 7196              		.loc 1 322 10 is_stmt 1 view .LVU2862
 7197              	.LBB643:
 7198              		.loc 1 323 2 view .LVU2863
 7199              		.loc 1 324 2 view .LVU2864
 7200              		.loc 1 326 2 view .LVU2865
 7201              		.loc 1 327 2 view .LVU2866
 7202              		.loc 1 329 4 is_stmt 0 view .LVU2867
 7203 0614 5720063E 		rlwinm 0,25,0,24,31
 7204              		.loc 1 327 4 view .LVU2868
 7205 0618 5738863E 		rlwinm 24,25,16,24,31
 7206              	.LVL471:
 7207              		.loc 1 328 2 is_stmt 1 view .LVU2869
 7208              		.loc 1 331 2 is_stmt 0 view .LVU2870
 7209 061c 280000E0 		cmplwi 0,0,224
 7210              		.loc 1 328 4 view .LVU2871
 7211 0620 5737C63E 		rlwinm 23,25,24,24,31
 7212              	.LVL472:
 7213              		.loc 1 329 2 is_stmt 1 view .LVU2872
 7214              		.loc 1 331 2 view .LVU2873
 7215 0624 41A1FB5C 		bgt- 0,.L147
 7216              	.LVL473:
 7217              	.L106:
 7218              		.loc 1 340 3 view .LVU2874
 7219              		.loc 1 341 3 view .LVU2875
 7220              		.loc 1 342 3 view .LVU2876
 7221              		.loc 1 343 3 view .LVU2877
 7222              		.loc 1 345 3 view .LVU2878
 7223              		.loc 1 342 5 is_stmt 0 view .LVU2879
 7224 0628 56F7E13E 		srwi 23,23,4
 7225              	.LVL474:
 7226              		.loc 1 345 14 view .LVU2880
 7227 062c 54003C66 		rlwinm 0,0,7,17,19
 7228              	.LVL475:
 7229              		.loc 1 345 9 view .LVU2881
 7230 0630 7C00BB78 		or 0,0,23
 7231              		.loc 1 345 26 view .LVU2882
 7232 0634 5739652E 		rlwinm 25,25,12,20,23
 7233              	.LVL476:
 7234              		.loc 1 345 9 view .LVU2883
 7235 0638 7C00CB78 		or 0,0,25
 7236              	.LBE643:
 7237              	.LBE681:
 7238              		.loc 1 373 87 view .LVU2884
 7239 063c 7F2A2214 		add 25,10,4
 7240              		.loc 1 373 46 view .LVU2885
 7241 0640 5739103A 		slwi 25,25,2
 7242              	.LBB682:
 7243              	.LBB644:
 7244              		.loc 1 345 37 view .LVU2886
 7245 0644 57180636 		rlwinm 24,24,0,24,27
 7246              	.LVL477:
 7247              		.loc 1 345 37 view .LVU2887
 7248              	.LBE644:
 7249              	.LBE682:
 7250              		.loc 1 373 46 view .LVU2888
 7251 0648 7F3FC82E 		lwzx 25,31,25
 7252              	.LBB683:
 7253              	.LBB645:
 7254              		.loc 1 345 9 view .LVU2889
 7255 064c 7C00C378 		or 0,0,24
 7256              	.LVL478:
 7257              		.loc 1 348 2 is_stmt 1 view .LVU2890
 7258              		.loc 1 348 2 is_stmt 0 view .LVU2891
 7259              	.LBE645:
 7260              	.LBE683:
 7261              		.loc 1 376 12 discriminator 1 view .LVU2892
 7262 0650 B0090006 		sth 0,6(9)
 7263              		.loc 1 372 4 is_stmt 1 discriminator 3 view .LVU2893
 7264              	.LVL479:
 7265              		.loc 1 372 32 discriminator 1 view .LVU2894
 7266              		.loc 1 373 5 view .LVU2895
 7267              	.LBB684:
 7268              		.loc 1 322 10 view .LVU2896
 7269              	.LBB586:
 7270              		.loc 1 323 2 view .LVU2897
 7271              		.loc 1 324 2 view .LVU2898
 7272              		.loc 1 326 2 view .LVU2899
 7273              		.loc 1 327 2 view .LVU2900
 7274              		.loc 1 329 4 is_stmt 0 view .LVU2901
 7275 0654 5720063E 		rlwinm 0,25,0,24,31
 7276              		.loc 1 327 4 view .LVU2902
 7277 0658 5738863E 		rlwinm 24,25,16,24,31
 7278              	.LVL480:
 7279              		.loc 1 328 2 is_stmt 1 view .LVU2903
 7280              		.loc 1 331 2 is_stmt 0 view .LVU2904
 7281 065c 280000E0 		cmplwi 0,0,224
 7282              		.loc 1 328 4 view .LVU2905
 7283 0660 5737C63E 		rlwinm 23,25,24,24,31
 7284              	.LVL481:
 7285              		.loc 1 329 2 is_stmt 1 view .LVU2906
 7286              		.loc 1 331 2 view .LVU2907
 7287 0664 41A1FB5C 		bgt- 0,.L148
 7288              	.LVL482:
 7289              	.L108:
 7290              		.loc 1 340 3 view .LVU2908
 7291              		.loc 1 341 3 view .LVU2909
 7292              		.loc 1 342 3 view .LVU2910
 7293              		.loc 1 343 3 view .LVU2911
 7294              		.loc 1 345 3 view .LVU2912
 7295              		.loc 1 342 5 is_stmt 0 view .LVU2913
 7296 0668 56F7E13E 		srwi 23,23,4
 7297              	.LVL483:
 7298              		.loc 1 345 14 view .LVU2914
 7299 066c 54003C66 		rlwinm 0,0,7,17,19
 7300              	.LVL484:
 7301              		.loc 1 345 9 view .LVU2915
 7302 0670 7C00BB78 		or 0,0,23
 7303              		.loc 1 345 26 view .LVU2916
 7304 0674 5739652E 		rlwinm 25,25,12,20,23
 7305              	.LVL485:
 7306              		.loc 1 345 9 view .LVU2917
 7307 0678 7C00CB78 		or 0,0,25
 7308              	.LBE586:
 7309              	.LBE684:
 7310              		.loc 1 374 87 view .LVU2918
 7311 067c 7F262214 		add 25,6,4
 7312              		.loc 1 374 46 view .LVU2919
 7313 0680 5739103A 		slwi 25,25,2
 7314              	.LBB685:
 7315              	.LBB587:
 7316              		.loc 1 345 37 view .LVU2920
 7317 0684 57180636 		rlwinm 24,24,0,24,27
 7318              	.LVL486:
 7319              		.loc 1 345 37 view .LVU2921
 7320              	.LBE587:
 7321              	.LBE685:
 7322              		.loc 1 374 46 view .LVU2922
 7323 0688 7F3FC82E 		lwzx 25,31,25
 7324              	.LBB686:
 7325              	.LBB588:
 7326              		.loc 1 345 9 view .LVU2923
 7327 068c 7C00C378 		or 0,0,24
 7328              	.LVL487:
 7329              		.loc 1 348 2 is_stmt 1 view .LVU2924
 7330              		.loc 1 348 2 is_stmt 0 view .LVU2925
 7331              	.LBE588:
 7332              	.LBE686:
 7333              		.loc 1 373 12 discriminator 1 view .LVU2926
 7334 0690 B0090008 		sth 0,8(9)
 7335              		.loc 1 374 5 is_stmt 1 view .LVU2927
 7336              	.LVL488:
 7337              	.LBB687:
 7338              		.loc 1 322 10 view .LVU2928
 7339              	.LBB604:
 7340              		.loc 1 323 2 view .LVU2929
 7341              		.loc 1 324 2 view .LVU2930
 7342              		.loc 1 326 2 view .LVU2931
 7343              		.loc 1 327 2 view .LVU2932
 7344              		.loc 1 329 4 is_stmt 0 view .LVU2933
 7345 0694 5720063E 		rlwinm 0,25,0,24,31
 7346              		.loc 1 327 4 view .LVU2934
 7347 0698 5738863E 		rlwinm 24,25,16,24,31
 7348              	.LVL489:
 7349              		.loc 1 328 2 is_stmt 1 view .LVU2935
 7350              		.loc 1 331 2 is_stmt 0 view .LVU2936
 7351 069c 280000E0 		cmplwi 0,0,224
 7352              		.loc 1 328 4 view .LVU2937
 7353 06a0 5737C63E 		rlwinm 23,25,24,24,31
 7354              	.LVL490:
 7355              		.loc 1 329 2 is_stmt 1 view .LVU2938
 7356              		.loc 1 331 2 view .LVU2939
 7357 06a4 41A1FB5C 		bgt- 0,.L149
 7358              	.LVL491:
 7359              	.L110:
 7360              		.loc 1 340 3 view .LVU2940
 7361              		.loc 1 341 3 view .LVU2941
 7362              		.loc 1 342 3 view .LVU2942
 7363              		.loc 1 343 3 view .LVU2943
 7364              		.loc 1 345 3 view .LVU2944
 7365              		.loc 1 342 5 is_stmt 0 view .LVU2945
 7366 06a8 56F7E13E 		srwi 23,23,4
 7367              	.LVL492:
 7368              		.loc 1 345 14 view .LVU2946
 7369 06ac 54003C66 		rlwinm 0,0,7,17,19
 7370              	.LVL493:
 7371              		.loc 1 345 9 view .LVU2947
 7372 06b0 7C00BB78 		or 0,0,23
 7373              		.loc 1 345 26 view .LVU2948
 7374 06b4 5739652E 		rlwinm 25,25,12,20,23
 7375              	.LVL494:
 7376              		.loc 1 345 9 view .LVU2949
 7377 06b8 7C00CB78 		or 0,0,25
 7378              	.LBE604:
 7379              	.LBE687:
 7380              		.loc 1 375 87 view .LVU2950
 7381 06bc 7F272214 		add 25,7,4
 7382              		.loc 1 375 46 view .LVU2951
 7383 06c0 5739103A 		slwi 25,25,2
 7384              	.LBB688:
 7385              	.LBB605:
 7386              		.loc 1 345 37 view .LVU2952
 7387 06c4 57180636 		rlwinm 24,24,0,24,27
 7388              	.LVL495:
 7389              		.loc 1 345 37 view .LVU2953
 7390              	.LBE605:
 7391              	.LBE688:
 7392              		.loc 1 375 46 view .LVU2954
 7393 06c8 7F3FC82E 		lwzx 25,31,25
 7394              	.LBB689:
 7395              	.LBB606:
 7396              		.loc 1 345 9 view .LVU2955
 7397 06cc 7C00C378 		or 0,0,24
 7398              	.LVL496:
 7399              		.loc 1 348 2 is_stmt 1 view .LVU2956
 7400              		.loc 1 348 2 is_stmt 0 view .LVU2957
 7401              	.LBE606:
 7402              	.LBE689:
 7403              		.loc 1 374 12 discriminator 1 view .LVU2958
 7404 06d0 B009000A 		sth 0,10(9)
 7405              		.loc 1 375 5 is_stmt 1 view .LVU2959
 7406              	.LVL497:
 7407              	.LBB690:
 7408              		.loc 1 322 10 view .LVU2960
 7409              	.LBB621:
 7410              		.loc 1 323 2 view .LVU2961
 7411              		.loc 1 324 2 view .LVU2962
 7412              		.loc 1 326 2 view .LVU2963
 7413              		.loc 1 327 2 view .LVU2964
 7414              		.loc 1 329 4 is_stmt 0 view .LVU2965
 7415 06d4 5720063E 		rlwinm 0,25,0,24,31
 7416              		.loc 1 327 4 view .LVU2966
 7417 06d8 5738863E 		rlwinm 24,25,16,24,31
 7418              	.LVL498:
 7419              		.loc 1 328 2 is_stmt 1 view .LVU2967
 7420              		.loc 1 331 2 is_stmt 0 view .LVU2968
 7421 06dc 280000E0 		cmplwi 0,0,224
 7422              		.loc 1 328 4 view .LVU2969
 7423 06e0 5737C63E 		rlwinm 23,25,24,24,31
 7424              	.LVL499:
 7425              		.loc 1 329 2 is_stmt 1 view .LVU2970
 7426              		.loc 1 331 2 view .LVU2971
 7427 06e4 41A1FB5C 		bgt- 0,.L150
 7428              	.LVL500:
 7429              	.L112:
 7430              		.loc 1 340 3 view .LVU2972
 7431              		.loc 1 341 3 view .LVU2973
 7432              		.loc 1 342 3 view .LVU2974
 7433              		.loc 1 343 3 view .LVU2975
 7434              		.loc 1 345 3 view .LVU2976
 7435              		.loc 1 342 5 is_stmt 0 view .LVU2977
 7436 06e8 56F7E13E 		srwi 23,23,4
 7437              	.LVL501:
 7438              		.loc 1 345 14 view .LVU2978
 7439 06ec 54003C66 		rlwinm 0,0,7,17,19
 7440              	.LVL502:
 7441              		.loc 1 345 9 view .LVU2979
 7442 06f0 7C00BB78 		or 0,0,23
 7443              		.loc 1 345 26 view .LVU2980
 7444 06f4 5739652E 		rlwinm 25,25,12,20,23
 7445              	.LVL503:
 7446              		.loc 1 345 9 view .LVU2981
 7447 06f8 7C00CB78 		or 0,0,25
 7448              	.LBE621:
 7449              	.LBE690:
 7450              		.loc 1 376 87 view .LVU2982
 7451 06fc 7F282214 		add 25,8,4
 7452              		.loc 1 376 46 view .LVU2983
 7453 0700 5739103A 		slwi 25,25,2
 7454              	.LBB691:
 7455              	.LBB622:
 7456              		.loc 1 345 37 view .LVU2984
 7457 0704 57180636 		rlwinm 24,24,0,24,27
 7458              	.LVL504:
 7459              		.loc 1 345 37 view .LVU2985
 7460              	.LBE622:
 7461              	.LBE691:
 7462              		.loc 1 376 46 view .LVU2986
 7463 0708 7F3FC82E 		lwzx 25,31,25
 7464              	.LBB692:
 7465              	.LBB623:
 7466              		.loc 1 345 9 view .LVU2987
 7467 070c 7C00C378 		or 0,0,24
 7468              	.LVL505:
 7469              		.loc 1 348 2 is_stmt 1 view .LVU2988
 7470              		.loc 1 348 2 is_stmt 0 view .LVU2989
 7471              	.LBE623:
 7472              	.LBE692:
 7473              		.loc 1 375 12 discriminator 1 view .LVU2990
 7474 0710 B009000C 		sth 0,12(9)
 7475              		.loc 1 376 5 is_stmt 1 view .LVU2991
 7476              	.LVL506:
 7477              	.LBB693:
 7478              		.loc 1 322 10 view .LVU2992
 7479              	.LBB646:
 7480              		.loc 1 323 2 view .LVU2993
 7481              		.loc 1 324 2 view .LVU2994
 7482              		.loc 1 326 2 view .LVU2995
 7483              		.loc 1 327 2 view .LVU2996
 7484              		.loc 1 329 4 is_stmt 0 view .LVU2997
 7485 0714 5720063E 		rlwinm 0,25,0,24,31
 7486              		.loc 1 327 4 view .LVU2998
 7487 0718 5738863E 		rlwinm 24,25,16,24,31
 7488              	.LVL507:
 7489              		.loc 1 328 2 is_stmt 1 view .LVU2999
 7490              		.loc 1 331 2 is_stmt 0 view .LVU3000
 7491 071c 280000E0 		cmplwi 0,0,224
 7492              		.loc 1 328 4 view .LVU3001
 7493 0720 5737C63E 		rlwinm 23,25,24,24,31
 7494              	.LVL508:
 7495              		.loc 1 329 2 is_stmt 1 view .LVU3002
 7496              		.loc 1 331 2 view .LVU3003
 7497 0724 41A1FB5C 		bgt- 0,.L151
 7498              	.LVL509:
 7499              	.L114:
 7500              		.loc 1 340 3 view .LVU3004
 7501              		.loc 1 341 3 view .LVU3005
 7502              		.loc 1 342 3 view .LVU3006
 7503              		.loc 1 343 3 view .LVU3007
 7504              		.loc 1 345 3 view .LVU3008
 7505              		.loc 1 342 5 is_stmt 0 view .LVU3009
 7506 0728 56F7E13E 		srwi 23,23,4
 7507              	.LVL510:
 7508              		.loc 1 345 14 view .LVU3010
 7509 072c 54003C66 		rlwinm 0,0,7,17,19
 7510              	.LVL511:
 7511              		.loc 1 345 9 view .LVU3011
 7512 0730 7C00BB78 		or 0,0,23
 7513              		.loc 1 345 26 view .LVU3012
 7514 0734 5739652E 		rlwinm 25,25,12,20,23
 7515              	.LVL512:
 7516              		.loc 1 345 9 view .LVU3013
 7517 0738 7C00CB78 		or 0,0,25
 7518              	.LBE646:
 7519              	.LBE693:
 7520              		.loc 1 373 87 view .LVU3014
 7521 073c 7F2A2A14 		add 25,10,5
 7522              		.loc 1 373 46 view .LVU3015
 7523 0740 5739103A 		slwi 25,25,2
 7524              	.LBB694:
 7525              	.LBB647:
 7526              		.loc 1 345 37 view .LVU3016
 7527 0744 57180636 		rlwinm 24,24,0,24,27
 7528              	.LVL513:
 7529              		.loc 1 345 37 view .LVU3017
 7530              	.LBE647:
 7531              	.LBE694:
 7532              		.loc 1 373 46 view .LVU3018
 7533 0748 7F3FC82E 		lwzx 25,31,25
 7534              	.LBB695:
 7535              	.LBB648:
 7536              		.loc 1 345 9 view .LVU3019
 7537 074c 7C00C378 		or 0,0,24
 7538              	.LVL514:
 7539              		.loc 1 348 2 is_stmt 1 view .LVU3020
 7540              		.loc 1 348 2 is_stmt 0 view .LVU3021
 7541              	.LBE648:
 7542              	.LBE695:
 7543              		.loc 1 376 12 discriminator 1 view .LVU3022
 7544 0750 B009000E 		sth 0,14(9)
 7545              		.loc 1 372 4 is_stmt 1 discriminator 3 view .LVU3023
 7546              	.LVL515:
 7547              		.loc 1 372 32 discriminator 1 view .LVU3024
 7548              		.loc 1 373 5 view .LVU3025
 7549              	.LBB696:
 7550              		.loc 1 322 10 view .LVU3026
 7551              	.LBB589:
 7552              		.loc 1 323 2 view .LVU3027
 7553              		.loc 1 324 2 view .LVU3028
 7554              		.loc 1 326 2 view .LVU3029
 7555              		.loc 1 327 2 view .LVU3030
 7556              		.loc 1 329 4 is_stmt 0 view .LVU3031
 7557 0754 5720063E 		rlwinm 0,25,0,24,31
 7558              		.loc 1 327 4 view .LVU3032
 7559 0758 5738863E 		rlwinm 24,25,16,24,31
 7560              	.LVL516:
 7561              		.loc 1 328 2 is_stmt 1 view .LVU3033
 7562              		.loc 1 331 2 is_stmt 0 view .LVU3034
 7563 075c 280000E0 		cmplwi 0,0,224
 7564              		.loc 1 328 4 view .LVU3035
 7565 0760 5737C63E 		rlwinm 23,25,24,24,31
 7566              	.LVL517:
 7567              		.loc 1 329 2 is_stmt 1 view .LVU3036
 7568              		.loc 1 331 2 view .LVU3037
 7569 0764 41A1FB5C 		bgt- 0,.L152
 7570              	.LVL518:
 7571              	.L116:
 7572              		.loc 1 340 3 view .LVU3038
 7573              		.loc 1 341 3 view .LVU3039
 7574              		.loc 1 342 3 view .LVU3040
 7575              		.loc 1 343 3 view .LVU3041
 7576              		.loc 1 345 3 view .LVU3042
 7577              		.loc 1 342 5 is_stmt 0 view .LVU3043
 7578 0768 56F7E13E 		srwi 23,23,4
 7579              	.LVL519:
 7580              		.loc 1 345 14 view .LVU3044
 7581 076c 54003C66 		rlwinm 0,0,7,17,19
 7582              	.LVL520:
 7583              		.loc 1 345 9 view .LVU3045
 7584 0770 7C00BB78 		or 0,0,23
 7585              		.loc 1 345 26 view .LVU3046
 7586 0774 5739652E 		rlwinm 25,25,12,20,23
 7587              	.LVL521:
 7588              		.loc 1 345 9 view .LVU3047
 7589 0778 7C00CB78 		or 0,0,25
 7590              	.LBE589:
 7591              	.LBE696:
 7592              		.loc 1 374 87 view .LVU3048
 7593 077c 7F262A14 		add 25,6,5
 7594              		.loc 1 374 46 view .LVU3049
 7595 0780 5739103A 		slwi 25,25,2
 7596              	.LBB697:
 7597              	.LBB590:
 7598              		.loc 1 345 37 view .LVU3050
 7599 0784 57180636 		rlwinm 24,24,0,24,27
 7600              	.LVL522:
 7601              		.loc 1 345 37 view .LVU3051
 7602              	.LBE590:
 7603              	.LBE697:
 7604              		.loc 1 374 46 view .LVU3052
 7605 0788 7F3FC82E 		lwzx 25,31,25
 7606              	.LBB698:
 7607              	.LBB591:
 7608              		.loc 1 345 9 view .LVU3053
 7609 078c 7C00C378 		or 0,0,24
 7610              	.LVL523:
 7611              		.loc 1 348 2 is_stmt 1 view .LVU3054
 7612              		.loc 1 348 2 is_stmt 0 view .LVU3055
 7613              	.LBE591:
 7614              	.LBE698:
 7615              		.loc 1 373 12 discriminator 1 view .LVU3056
 7616 0790 B0090010 		sth 0,16(9)
 7617              		.loc 1 374 5 is_stmt 1 view .LVU3057
 7618              	.LVL524:
 7619              	.LBB699:
 7620              		.loc 1 322 10 view .LVU3058
 7621              	.LBB607:
 7622              		.loc 1 323 2 view .LVU3059
 7623              		.loc 1 324 2 view .LVU3060
 7624              		.loc 1 326 2 view .LVU3061
 7625              		.loc 1 327 2 view .LVU3062
 7626              		.loc 1 329 4 is_stmt 0 view .LVU3063
 7627 0794 5720063E 		rlwinm 0,25,0,24,31
 7628              		.loc 1 327 4 view .LVU3064
 7629 0798 5738863E 		rlwinm 24,25,16,24,31
 7630              	.LVL525:
 7631              		.loc 1 328 2 is_stmt 1 view .LVU3065
 7632              		.loc 1 331 2 is_stmt 0 view .LVU3066
 7633 079c 280000E0 		cmplwi 0,0,224
 7634              		.loc 1 328 4 view .LVU3067
 7635 07a0 5737C63E 		rlwinm 23,25,24,24,31
 7636              	.LVL526:
 7637              		.loc 1 329 2 is_stmt 1 view .LVU3068
 7638              		.loc 1 331 2 view .LVU3069
 7639 07a4 41A1FB5C 		bgt- 0,.L153
 7640              	.LVL527:
 7641              	.L118:
 7642              		.loc 1 340 3 view .LVU3070
 7643              		.loc 1 341 3 view .LVU3071
 7644              		.loc 1 342 3 view .LVU3072
 7645              		.loc 1 343 3 view .LVU3073
 7646              		.loc 1 345 3 view .LVU3074
 7647              		.loc 1 342 5 is_stmt 0 view .LVU3075
 7648 07a8 56F7E13E 		srwi 23,23,4
 7649              	.LVL528:
 7650              		.loc 1 345 14 view .LVU3076
 7651 07ac 54003C66 		rlwinm 0,0,7,17,19
 7652              	.LVL529:
 7653              		.loc 1 345 9 view .LVU3077
 7654 07b0 7C00BB78 		or 0,0,23
 7655              		.loc 1 345 26 view .LVU3078
 7656 07b4 5739652E 		rlwinm 25,25,12,20,23
 7657              	.LVL530:
 7658              		.loc 1 345 9 view .LVU3079
 7659 07b8 7C00CB78 		or 0,0,25
 7660              	.LBE607:
 7661              	.LBE699:
 7662              		.loc 1 375 87 view .LVU3080
 7663 07bc 7F272A14 		add 25,7,5
 7664              		.loc 1 375 46 view .LVU3081
 7665 07c0 5739103A 		slwi 25,25,2
 7666              	.LBB700:
 7667              	.LBB608:
 7668              		.loc 1 345 37 view .LVU3082
 7669 07c4 57180636 		rlwinm 24,24,0,24,27
 7670              	.LVL531:
 7671              		.loc 1 345 37 view .LVU3083
 7672              	.LBE608:
 7673              	.LBE700:
 7674              		.loc 1 375 46 view .LVU3084
 7675 07c8 7F3FC82E 		lwzx 25,31,25
 7676              	.LBB701:
 7677              	.LBB609:
 7678              		.loc 1 345 9 view .LVU3085
 7679 07cc 7C00C378 		or 0,0,24
 7680              	.LVL532:
 7681              		.loc 1 348 2 is_stmt 1 view .LVU3086
 7682              		.loc 1 348 2 is_stmt 0 view .LVU3087
 7683              	.LBE609:
 7684              	.LBE701:
 7685              		.loc 1 374 12 discriminator 1 view .LVU3088
 7686 07d0 B0090012 		sth 0,18(9)
 7687              		.loc 1 375 5 is_stmt 1 view .LVU3089
 7688              	.LVL533:
 7689              	.LBB702:
 7690              		.loc 1 322 10 view .LVU3090
 7691              	.LBB624:
 7692              		.loc 1 323 2 view .LVU3091
 7693              		.loc 1 324 2 view .LVU3092
 7694              		.loc 1 326 2 view .LVU3093
 7695              		.loc 1 327 2 view .LVU3094
 7696              		.loc 1 329 4 is_stmt 0 view .LVU3095
 7697 07d4 5720063E 		rlwinm 0,25,0,24,31
 7698              		.loc 1 327 4 view .LVU3096
 7699 07d8 5738863E 		rlwinm 24,25,16,24,31
 7700              	.LVL534:
 7701              		.loc 1 328 2 is_stmt 1 view .LVU3097
 7702              		.loc 1 331 2 is_stmt 0 view .LVU3098
 7703 07dc 280000E0 		cmplwi 0,0,224
 7704              		.loc 1 328 4 view .LVU3099
 7705 07e0 5737C63E 		rlwinm 23,25,24,24,31
 7706              	.LVL535:
 7707              		.loc 1 329 2 is_stmt 1 view .LVU3100
 7708              		.loc 1 331 2 view .LVU3101
 7709 07e4 41A1FB5C 		bgt- 0,.L154
 7710              	.LVL536:
 7711              	.L120:
 7712              		.loc 1 340 3 view .LVU3102
 7713              		.loc 1 341 3 view .LVU3103
 7714              		.loc 1 342 3 view .LVU3104
 7715              		.loc 1 343 3 view .LVU3105
 7716              		.loc 1 345 3 view .LVU3106
 7717              		.loc 1 342 5 is_stmt 0 view .LVU3107
 7718 07e8 56F7E13E 		srwi 23,23,4
 7719              	.LVL537:
 7720              		.loc 1 345 14 view .LVU3108
 7721 07ec 54003C66 		rlwinm 0,0,7,17,19
 7722              	.LVL538:
 7723              		.loc 1 345 9 view .LVU3109
 7724 07f0 7C00BB78 		or 0,0,23
 7725              		.loc 1 345 26 view .LVU3110
 7726 07f4 5739652E 		rlwinm 25,25,12,20,23
 7727              	.LVL539:
 7728              		.loc 1 345 9 view .LVU3111
 7729 07f8 7C00CB78 		or 0,0,25
 7730              	.LBE624:
 7731              	.LBE702:
 7732              		.loc 1 376 87 view .LVU3112
 7733 07fc 7F282A14 		add 25,8,5
 7734              		.loc 1 376 46 view .LVU3113
 7735 0800 5739103A 		slwi 25,25,2
 7736              	.LBB703:
 7737              	.LBB625:
 7738              		.loc 1 345 37 view .LVU3114
 7739 0804 57180636 		rlwinm 24,24,0,24,27
 7740              	.LVL540:
 7741              		.loc 1 345 37 view .LVU3115
 7742              	.LBE625:
 7743              	.LBE703:
 7744              		.loc 1 376 46 view .LVU3116
 7745 0808 7F3FC82E 		lwzx 25,31,25
 7746              	.LBB704:
 7747              	.LBB626:
 7748              		.loc 1 345 9 view .LVU3117
 7749 080c 7C00C378 		or 0,0,24
 7750              	.LVL541:
 7751              		.loc 1 348 2 is_stmt 1 view .LVU3118
 7752              		.loc 1 348 2 is_stmt 0 view .LVU3119
 7753              	.LBE626:
 7754              	.LBE704:
 7755              		.loc 1 375 12 discriminator 1 view .LVU3120
 7756 0810 B0090014 		sth 0,20(9)
 7757              		.loc 1 376 5 is_stmt 1 view .LVU3121
 7758              	.LVL542:
 7759              	.LBB705:
 7760              		.loc 1 322 10 view .LVU3122
 7761              	.LBB649:
 7762              		.loc 1 323 2 view .LVU3123
 7763              		.loc 1 324 2 view .LVU3124
 7764              		.loc 1 326 2 view .LVU3125
 7765              		.loc 1 327 2 view .LVU3126
 7766              		.loc 1 329 4 is_stmt 0 view .LVU3127
 7767 0814 5720063E 		rlwinm 0,25,0,24,31
 7768              		.loc 1 327 4 view .LVU3128
 7769 0818 5738863E 		rlwinm 24,25,16,24,31
 7770              	.LVL543:
 7771              		.loc 1 328 2 is_stmt 1 view .LVU3129
 7772              		.loc 1 331 2 is_stmt 0 view .LVU3130
 7773 081c 280000E0 		cmplwi 0,0,224
 7774              		.loc 1 328 4 view .LVU3131
 7775 0820 5737C63E 		rlwinm 23,25,24,24,31
 7776              	.LVL544:
 7777              		.loc 1 329 2 is_stmt 1 view .LVU3132
 7778              		.loc 1 331 2 view .LVU3133
 7779 0824 41A1FB5C 		bgt- 0,.L155
 7780              	.LVL545:
 7781              	.L122:
 7782              		.loc 1 340 3 view .LVU3134
 7783              		.loc 1 341 3 view .LVU3135
 7784              		.loc 1 342 3 view .LVU3136
 7785              		.loc 1 343 3 view .LVU3137
 7786              		.loc 1 345 3 view .LVU3138
 7787              		.loc 1 345 14 is_stmt 0 view .LVU3139
 7788 0828 54003C66 		rlwinm 0,0,7,17,19
 7789              	.LVL546:
 7790              		.loc 1 342 5 view .LVU3140
 7791 082c 56F7E13E 		srwi 23,23,4
 7792              	.LVL547:
 7793              		.loc 1 345 26 view .LVU3141
 7794 0830 5739652E 		rlwinm 25,25,12,20,23
 7795              	.LVL548:
 7796              		.loc 1 345 9 view .LVU3142
 7797 0834 7C00BB78 		or 0,0,23
 7798 0838 7C00CB78 		or 0,0,25
 7799              		.loc 1 345 37 view .LVU3143
 7800 083c 57180636 		rlwinm 24,24,0,24,27
 7801              	.LVL549:
 7802              		.loc 1 345 37 view .LVU3144
 7803              	.LBE649:
 7804              	.LBE705:
 7805              		.loc 1 373 87 view .LVU3145
 7806 0840 7D4A5A14 		add 10,10,11
 7807              	.LBB706:
 7808              	.LBB650:
 7809              		.loc 1 345 9 view .LVU3146
 7810 0844 7C00C378 		or 0,0,24
 7811              	.LVL550:
 7812              		.loc 1 348 2 is_stmt 1 view .LVU3147
 7813              		.loc 1 348 2 is_stmt 0 view .LVU3148
 7814              	.LBE650:
 7815              	.LBE706:
 7816              		.loc 1 373 46 view .LVU3149
 7817 0848 554A103A 		slwi 10,10,2
 7818              		.loc 1 376 12 discriminator 1 view .LVU3150
 7819 084c B0090016 		sth 0,22(9)
 7820              		.loc 1 372 4 is_stmt 1 discriminator 3 view .LVU3151
 7821              	.LVL551:
 7822              		.loc 1 372 32 discriminator 1 view .LVU3152
 7823              		.loc 1 373 5 view .LVU3153
 7824              		.loc 1 373 46 is_stmt 0 view .LVU3154
 7825 0850 7C1F502E 		lwzx 0,31,10
 7826              	.LVL552:
 7827              	.LBB707:
 7828              		.loc 1 322 10 is_stmt 1 view .LVU3155
 7829              	.LBB592:
 7830              		.loc 1 323 2 view .LVU3156
 7831              		.loc 1 324 2 view .LVU3157
 7832              		.loc 1 326 2 view .LVU3158
 7833              		.loc 1 327 2 view .LVU3159
 7834              		.loc 1 329 4 is_stmt 0 view .LVU3160
 7835 0854 540A063E 		rlwinm 10,0,0,24,31
 7836              		.loc 1 327 4 view .LVU3161
 7837 0858 5419863E 		rlwinm 25,0,16,24,31
 7838              	.LVL553:
 7839              		.loc 1 328 2 is_stmt 1 view .LVU3162
 7840              		.loc 1 331 2 is_stmt 0 view .LVU3163
 7841 085c 280A00E0 		cmplwi 0,10,224
 7842              		.loc 1 328 4 view .LVU3164
 7843 0860 5418C63E 		rlwinm 24,0,24,24,31
 7844              	.LVL554:
 7845              		.loc 1 329 2 is_stmt 1 view .LVU3165
 7846              		.loc 1 331 2 view .LVU3166
 7847 0864 41A1FB5C 		bgt- 0,.L156
 7848              	.LVL555:
 7849              	.L124:
 7850              		.loc 1 340 3 view .LVU3167
 7851              		.loc 1 341 3 view .LVU3168
 7852              		.loc 1 342 3 view .LVU3169
 7853              		.loc 1 343 3 view .LVU3170
 7854              		.loc 1 345 3 view .LVU3171
 7855              		.loc 1 345 14 is_stmt 0 view .LVU3172
 7856 0868 554A3C66 		rlwinm 10,10,7,17,19
 7857              	.LVL556:
 7858              		.loc 1 342 5 view .LVU3173
 7859 086c 5718E13E 		srwi 24,24,4
 7860              	.LVL557:
 7861              		.loc 1 342 5 view .LVU3174
 7862              	.LBE592:
 7863              	.LBE707:
 7864              		.loc 1 374 87 view .LVU3175
 7865 0870 7CC65A14 		add 6,6,11
 7866              	.LBB708:
 7867              	.LBB593:
 7868              		.loc 1 345 26 view .LVU3176
 7869 0874 5400652E 		rlwinm 0,0,12,20,23
 7870              	.LVL558:
 7871              		.loc 1 345 9 view .LVU3177
 7872 0878 7D4AC378 		or 10,10,24
 7873              	.LBE593:
 7874              	.LBE708:
 7875              		.loc 1 374 46 view .LVU3178
 7876 087c 54C6103A 		slwi 6,6,2
 7877 0880 7CDF302E 		lwzx 6,31,6
 7878              	.LBB709:
 7879              	.LBB594:
 7880              		.loc 1 345 9 view .LVU3179
 7881 0884 7D4A0378 		or 10,10,0
 7882              		.loc 1 345 37 view .LVU3180
 7883 0888 57390636 		rlwinm 25,25,0,24,27
 7884              	.LVL559:
 7885              		.loc 1 345 9 view .LVU3181
 7886 088c 7D4ACB78 		or 10,10,25
 7887              	.LVL560:
 7888              		.loc 1 348 2 is_stmt 1 view .LVU3182
 7889              		.loc 1 348 2 is_stmt 0 view .LVU3183
 7890              	.LBE594:
 7891              	.LBE709:
 7892              	.LBB710:
 7893              	.LBB610:
 7894              		.loc 1 327 4 view .LVU3184
 7895 0890 54C0863E 		rlwinm 0,6,16,24,31
 7896              	.LBE610:
 7897              	.LBE710:
 7898              		.loc 1 373 12 discriminator 1 view .LVU3185
 7899 0894 B1490018 		sth 10,24(9)
 7900              		.loc 1 374 5 is_stmt 1 view .LVU3186
 7901              	.LVL561:
 7902              	.LBB711:
 7903              		.loc 1 322 10 view .LVU3187
 7904              	.LBB611:
 7905              		.loc 1 323 2 view .LVU3188
 7906              		.loc 1 324 2 view .LVU3189
 7907              		.loc 1 326 2 view .LVU3190
 7908              		.loc 1 327 2 view .LVU3191
 7909              		.loc 1 328 2 view .LVU3192
 7910              		.loc 1 329 4 is_stmt 0 view .LVU3193
 7911 0898 54CA063E 		rlwinm 10,6,0,24,31
 7912              		.loc 1 331 2 view .LVU3194
 7913 089c 280A00E0 		cmplwi 0,10,224
 7914              		.loc 1 328 4 view .LVU3195
 7915 08a0 54D9C63E 		rlwinm 25,6,24,24,31
 7916              	.LVL562:
 7917              		.loc 1 329 2 is_stmt 1 view .LVU3196
 7918              		.loc 1 331 2 view .LVU3197
 7919 08a4 41A1FB5C 		bgt- 0,.L157
 7920              	.LVL563:
 7921              	.L126:
 7922              		.loc 1 340 3 view .LVU3198
 7923              		.loc 1 341 3 view .LVU3199
 7924              		.loc 1 342 3 view .LVU3200
 7925              		.loc 1 343 3 view .LVU3201
 7926              		.loc 1 345 3 view .LVU3202
 7927              		.loc 1 345 14 is_stmt 0 view .LVU3203
 7928 08a8 554A3C66 		rlwinm 10,10,7,17,19
 7929              	.LVL564:
 7930              		.loc 1 342 5 view .LVU3204
 7931 08ac 5739E13E 		srwi 25,25,4
 7932              	.LVL565:
 7933              		.loc 1 342 5 view .LVU3205
 7934              	.LBE611:
 7935              	.LBE711:
 7936              		.loc 1 375 87 view .LVU3206
 7937 08b0 7CE75A14 		add 7,7,11
 7938              	.LBB712:
 7939              	.LBB612:
 7940              		.loc 1 345 26 view .LVU3207
 7941 08b4 54C6652E 		rlwinm 6,6,12,20,23
 7942              	.LVL566:
 7943              		.loc 1 345 9 view .LVU3208
 7944 08b8 7D4ACB78 		or 10,10,25
 7945              	.LBE612:
 7946              	.LBE712:
 7947              		.loc 1 375 46 view .LVU3209
 7948 08bc 54E7103A 		slwi 7,7,2
 7949 08c0 7CFF382E 		lwzx 7,31,7
 7950              	.LBB713:
 7951              	.LBB613:
 7952              		.loc 1 345 9 view .LVU3210
 7953 08c4 7D4A3378 		or 10,10,6
 7954              		.loc 1 345 37 view .LVU3211
 7955 08c8 54000636 		rlwinm 0,0,0,24,27
 7956              	.LVL567:
 7957              		.loc 1 345 9 view .LVU3212
 7958 08cc 7D4A0378 		or 10,10,0
 7959              	.LVL568:
 7960              		.loc 1 348 2 is_stmt 1 view .LVU3213
 7961              		.loc 1 348 2 is_stmt 0 view .LVU3214
 7962              	.LBE613:
 7963              	.LBE713:
 7964              	.LBB714:
 7965              	.LBB627:
 7966              		.loc 1 327 4 view .LVU3215
 7967 08d0 54E6863E 		rlwinm 6,7,16,24,31
 7968              	.LBE627:
 7969              	.LBE714:
 7970              		.loc 1 374 12 discriminator 1 view .LVU3216
 7971 08d4 B149001A 		sth 10,26(9)
 7972              		.loc 1 375 5 is_stmt 1 view .LVU3217
 7973              	.LVL569:
 7974              	.LBB715:
 7975              		.loc 1 322 10 view .LVU3218
 7976              	.LBB628:
 7977              		.loc 1 323 2 view .LVU3219
 7978              		.loc 1 324 2 view .LVU3220
 7979              		.loc 1 326 2 view .LVU3221
 7980              		.loc 1 327 2 view .LVU3222
 7981              		.loc 1 328 2 view .LVU3223
 7982              		.loc 1 329 4 is_stmt 0 view .LVU3224
 7983 08d8 54EA063E 		rlwinm 10,7,0,24,31
 7984              		.loc 1 331 2 view .LVU3225
 7985 08dc 280A00E0 		cmplwi 0,10,224
 7986              		.loc 1 328 4 view .LVU3226
 7987 08e0 54E0C63E 		rlwinm 0,7,24,24,31
 7988              	.LVL570:
 7989              		.loc 1 329 2 is_stmt 1 view .LVU3227
 7990              		.loc 1 331 2 view .LVU3228
 7991 08e4 41A1FB5C 		bgt- 0,.L158
 7992              	.LVL571:
 7993              	.L128:
 7994              		.loc 1 340 3 view .LVU3229
 7995              		.loc 1 341 3 view .LVU3230
 7996              		.loc 1 342 3 view .LVU3231
 7997              		.loc 1 343 3 view .LVU3232
 7998              		.loc 1 345 3 view .LVU3233
 7999              		.loc 1 345 14 is_stmt 0 view .LVU3234
 8000 08e8 554A3C66 		rlwinm 10,10,7,17,19
 8001              	.LVL572:
 8002              		.loc 1 342 5 view .LVU3235
 8003 08ec 5400E13E 		srwi 0,0,4
 8004              	.LVL573:
 8005              		.loc 1 345 9 view .LVU3236
 8006 08f0 7D4A0378 		or 10,10,0
 8007              		.loc 1 345 26 view .LVU3237
 8008 08f4 54E7652E 		rlwinm 7,7,12,20,23
 8009              	.LVL574:
 8010              		.loc 1 345 9 view .LVU3238
 8011 08f8 7D4A3B78 		or 10,10,7
 8012              		.loc 1 345 37 view .LVU3239
 8013 08fc 54C60636 		rlwinm 6,6,0,24,27
 8014              	.LVL575:
 8015              		.loc 1 345 9 view .LVU3240
 8016 0900 7D4A3378 		or 10,10,6
 8017              	.LVL576:
 8018              		.loc 1 345 9 view .LVU3241
 8019 0904 4BFFFB58 		b .L129
 8020              	.LBE628:
 8021              	.LBE715:
 8022              	.LBE723:
 8023              	.LBE724:
 8024              	.LBE726:
 8025              		.cfi_endproc
 8026              	.LFE78:
 8027              		.size	_ZN11Metaphrasis21convertBufferToRGB5A3EPjtt, .-_ZN11Metaphrasis21convertBufferToRGB5A3EPjtt
 8028              		.weak	_ZTS11Metaphrasis
 8029              		.section	.rodata._ZTS11Metaphrasis,"aG",@progbits,_ZTS11Metaphrasis,comdat
 8030              		.align 2
 8031              		.type	_ZTS11Metaphrasis, @object
 8032              		.size	_ZTS11Metaphrasis, 14
 8033              	_ZTS11Metaphrasis:
 8034 0000 31314D65 		.string	"11Metaphrasis"
 8034      74617068 
 8034      72617369 
 8034      7300
 8035              		.weak	_ZTI11Metaphrasis
 8036              		.section	.sdata._ZTI11Metaphrasis,"awG",@progbits,_ZTI11Metaphrasis,comdat
 8037              		.align 2
 8038              		.type	_ZTI11Metaphrasis, @object
 8039              		.size	_ZTI11Metaphrasis, 8
 8040              	_ZTI11Metaphrasis:
 8041 0000 00000000 		.long	_ZTVN10__cxxabiv117__class_type_infoE+8
 8042 0004 00000000 		.long	_ZTS11Metaphrasis
 8043              		.weak	_ZTV11Metaphrasis
 8044              		.section	.rodata._ZTV11Metaphrasis,"aG",@progbits,_ZTV11Metaphrasis,comdat
 8045              		.align 2
 8046              		.type	_ZTV11Metaphrasis, @object
 8047              		.size	_ZTV11Metaphrasis, 16
 8048              	_ZTV11Metaphrasis:
 8049 0000 00000000 		.long	0
 8050 0004 00000000 		.long	_ZTI11Metaphrasis
 8051 0008 00000000 		.long	_ZN11MetaphrasisD1Ev
 8052 000c 00000000 		.long	_ZN11MetaphrasisD0Ev
 8053              		.section	".text"
 8054              	.Letext0:
 8055              		.file 2 "C:/devkitPro/devkitPPC/powerpc-eabi/include/machine/_default_types.h"
 8056              		.file 3 "C:/devkitPro/devkitPPC/powerpc-eabi/include/sys/_stdint.h"
 8057              		.file 4 "C:/devkitPro/devkitPPC/lib/gcc/powerpc-eabi/13.1.0/include/stddef.h"
 8058              		.file 5 "C:/devkitPro/devkitPPC/powerpc-eabi/include/string.h"
 8059              		.file 6 "C:/devkitPro/devkitPPC/powerpc-eabi/include/malloc.h"
 8060              		.file 7 "C:/devkitPro/libogc/include/gctypes.h"
 8061              		.file 8 "F:/GameModding/MarioKartWii/Mods/Distro/RetroRewind6/dev/Launcher/RRLauncher/launcher/lib
 8062              		.file 9 "C:/devkitPro/libogc/include/ogc/cache.h"
 8063              		.section	.debug_info,"",@progbits
 8064              	.Ldebug_info0:
 8065 0000 0000151C 		.4byte	0x151c
 8066 0004 0005     		.2byte	0x5
 8067 0006 01       		.byte	0x1
 8068 0007 04       		.byte	0x4
 8069 0008 00000000 		.4byte	.Ldebug_abbrev0
 8070 000c 28       		.uleb128 0x28
 8071 000d 00000000 		.4byte	.LASF69
 8072 0011 21       		.byte	0x21
 8073 0012 00000000 		.4byte	.LASF70
 8074 0016 00000000 		.4byte	.LASF71
 8075 001a 00000000 		.4byte	.LLRL206
 8076 001e 00000000 		.4byte	0
 8077 0022 00000000 		.4byte	.Ldebug_line0
 8078 0026 09       		.uleb128 0x9
 8079 0027 04       		.byte	0x4
 8080 0028 07       		.byte	0x7
 8081 0029 00000000 		.4byte	.LASF0
 8082 002d 09       		.uleb128 0x9
 8083 002e 08       		.byte	0x8
 8084 002f 07       		.byte	0x7
 8085 0030 00000000 		.4byte	.LASF1
 8086 0034 09       		.uleb128 0x9
 8087 0035 02       		.byte	0x2
 8088 0036 07       		.byte	0x7
 8089 0037 00000000 		.4byte	.LASF2
 8090 003b 09       		.uleb128 0x9
 8091 003c 01       		.byte	0x1
 8092 003d 08       		.byte	0x8
 8093 003e 00000000 		.4byte	.LASF3
 8094 0042 09       		.uleb128 0x9
 8095 0043 01       		.byte	0x1
 8096 0044 06       		.byte	0x6
 8097 0045 00000000 		.4byte	.LASF4
 8098 0049 0E       		.uleb128 0xe
 8099 004a 00000000 		.4byte	.LASF6
 8100 004e 02       		.byte	0x2
 8101 004f 2B       		.byte	0x2b
 8102 0050 18       		.byte	0x18
 8103 0051 0000003B 		.4byte	0x3b
 8104 0055 09       		.uleb128 0x9
 8105 0056 02       		.byte	0x2
 8106 0057 05       		.byte	0x5
 8107 0058 00000000 		.4byte	.LASF5
 8108 005c 0E       		.uleb128 0xe
 8109 005d 00000000 		.4byte	.LASF7
 8110 0061 02       		.byte	0x2
 8111 0062 39       		.byte	0x39
 8112 0063 19       		.byte	0x19
 8113 0064 00000034 		.4byte	0x34
 8114 0068 29       		.uleb128 0x29
 8115 0069 04       		.byte	0x4
 8116 006a 05       		.byte	0x5
 8117 006b 696E7400 		.string	"int"
 8118 006f 1C       		.uleb128 0x1c
 8119 0070 00000068 		.4byte	0x68
 8120 0074 0E       		.uleb128 0xe
 8121 0075 00000000 		.4byte	.LASF8
 8122 0079 02       		.byte	0x2
 8123 007a 4F       		.byte	0x4f
 8124 007b 19       		.byte	0x19
 8125 007c 00000026 		.4byte	0x26
 8126 0080 09       		.uleb128 0x9
 8127 0081 08       		.byte	0x8
 8128 0082 05       		.byte	0x5
 8129 0083 00000000 		.4byte	.LASF9
 8130 0087 0E       		.uleb128 0xe
 8131 0088 00000000 		.4byte	.LASF10
 8132 008c 03       		.byte	0x3
 8133 008d 18       		.byte	0x18
 8134 008e 13       		.byte	0x13
 8135 008f 00000049 		.4byte	0x49
 8136 0093 0E       		.uleb128 0xe
 8137 0094 00000000 		.4byte	.LASF11
 8138 0098 03       		.byte	0x3
 8139 0099 24       		.byte	0x24
 8140 009a 14       		.byte	0x14
 8141 009b 0000005C 		.4byte	0x5c
 8142 009f 0E       		.uleb128 0xe
 8143 00a0 00000000 		.4byte	.LASF12
 8144 00a4 03       		.byte	0x3
 8145 00a5 30       		.byte	0x30
 8146 00a6 14       		.byte	0x14
 8147 00a7 00000074 		.4byte	0x74
 8148 00ab 2A       		.uleb128 0x2a
 8149 00ac 75333200 		.string	"u32"
 8150 00b0 07       		.byte	0x7
 8151 00b1 13       		.byte	0x13
 8152 00b2 12       		.byte	0x12
 8153 00b3 0000009F 		.4byte	0x9f
 8154 00b7 09       		.uleb128 0x9
 8155 00b8 04       		.byte	0x4
 8156 00b9 04       		.byte	0x4
 8157 00ba 00000000 		.4byte	.LASF13
 8158 00be 09       		.uleb128 0x9
 8159 00bf 08       		.byte	0x8
 8160 00c0 04       		.byte	0x4
 8161 00c1 00000000 		.4byte	.LASF14
 8162 00c5 09       		.uleb128 0x9
 8163 00c6 01       		.byte	0x1
 8164 00c7 08       		.byte	0x8
 8165 00c8 00000000 		.4byte	.LASF15
 8166 00cc 2B       		.uleb128 0x2b
 8167 00cd 04       		.byte	0x4
 8168 00ce 09       		.uleb128 0x9
 8169 00cf 01       		.byte	0x1
 8170 00d0 02       		.byte	0x2
 8171 00d1 00000000 		.4byte	.LASF16
 8172 00d5 09       		.uleb128 0x9
 8173 00d6 04       		.byte	0x4
 8174 00d7 07       		.byte	0x7
 8175 00d8 00000000 		.4byte	.LASF17
 8176 00dc 0E       		.uleb128 0xe
 8177 00dd 00000000 		.4byte	.LASF18
 8178 00e1 04       		.byte	0x4
 8179 00e2 D6       		.byte	0xd6
 8180 00e3 17       		.byte	0x17
 8181 00e4 00000026 		.4byte	0x26
 8182 00e8 09       		.uleb128 0x9
 8183 00e9 08       		.byte	0x8
 8184 00ea 04       		.byte	0x4
 8185 00eb 00000000 		.4byte	.LASF19
 8186 00ef 2C       		.uleb128 0x2c
 8187 00f0 00000000 		.4byte	.LASF72
 8188 00f4 09       		.uleb128 0x9
 8189 00f5 04       		.byte	0x4
 8190 00f6 05       		.byte	0x5
 8191 00f7 00000000 		.4byte	.LASF20
 8192 00fb 2D       		.uleb128 0x2d
 8193 00fc 00000000 		.4byte	.LASF21
 8194 0100 04       		.byte	0x4
 8195 0101 08       		.byte	0x8
 8196 0102 60       		.byte	0x60
 8197 0103 07       		.byte	0x7
 8198 0104 000000FB 		.4byte	0xfb
 8199 0108 000002D0 		.4byte	0x2d0
 8200 010c 2E       		.uleb128 0x2e
 8201 010d 00000000 		.4byte	.LASF21
 8202 0111 00000000 		.4byte	.LASF73
 8203 0115 01       		.byte	0x1
 8204 0116 0000011E 		.4byte	0x11e
 8205 011a 00000129 		.4byte	0x129
 8206 011e 18       		.uleb128 0x18
 8207 011f 000002D5 		.4byte	0x2d5
 8208 0123 03       		.uleb128 0x3
 8209 0124 000002DF 		.4byte	0x2df
 8210 0128 00       		.byte	0
 8211 0129 2F       		.uleb128 0x2f
 8212 012a 00000000 		.4byte	.LASF74
 8213 012e 000002F0 		.4byte	0x2f0
 8214 0132 00       		.byte	0
 8215 0133 01       		.byte	0x1
 8216 0134 30       		.uleb128 0x30
 8217 0135 00000000 		.4byte	.LASF21
 8218 0139 01       		.byte	0x1
 8219 013a 1C       		.byte	0x1c
 8220 013b 01       		.byte	0x1
 8221 013c 00000000 		.4byte	.LASF23
 8222 0140 01       		.byte	0x1
 8223 0141 00000149 		.4byte	0x149
 8224 0145 0000014F 		.4byte	0x14f
 8225 0149 18       		.uleb128 0x18
 8226 014a 000002D5 		.4byte	0x2d5
 8227 014e 00       		.byte	0
 8228 014f 31       		.uleb128 0x31
 8229 0150 00000000 		.4byte	.LASF75
 8230 0154 01       		.byte	0x1
 8231 0155 23       		.byte	0x23
 8232 0156 01       		.byte	0x1
 8233 0157 00000000 		.4byte	.LASF76
 8234 015b 01       		.byte	0x1
 8235 015c 000000FB 		.4byte	0xfb
 8236 0160 01       		.byte	0x1
 8237 0161 00000169 		.4byte	0x169
 8238 0165 00000174 		.4byte	0x174
 8239 0169 18       		.uleb128 0x18
 8240 016a 000002D5 		.4byte	0x2d5
 8241 016e 18       		.uleb128 0x18
 8242 016f 00000068 		.4byte	0x68
 8243 0173 00       		.byte	0
 8244 0174 0F       		.uleb128 0xf
 8245 0175 00000000 		.4byte	.LASF22
 8246 0179 31       		.byte	0x31
 8247 017a 0B       		.byte	0xb
 8248 017b 00000000 		.4byte	.LASF24
 8249 017f 000002FF 		.4byte	0x2ff
 8250 0183 00000197 		.4byte	0x197
 8251 0187 03       		.uleb128 0x3
 8252 0188 000002FF 		.4byte	0x2ff
 8253 018c 03       		.uleb128 0x3
 8254 018d 00000093 		.4byte	0x93
 8255 0191 03       		.uleb128 0x3
 8256 0192 00000093 		.4byte	0x93
 8257 0196 00       		.byte	0
 8258 0197 0F       		.uleb128 0xf
 8259 0198 00000000 		.4byte	.LASF25
 8260 019c 53       		.byte	0x53
 8261 019d 0B       		.byte	0xb
 8262 019e 00000000 		.4byte	.LASF26
 8263 01a2 000002FF 		.4byte	0x2ff
 8264 01a6 000001BA 		.4byte	0x1ba
 8265 01aa 03       		.uleb128 0x3
 8266 01ab 000002FF 		.4byte	0x2ff
 8267 01af 03       		.uleb128 0x3
 8268 01b0 00000093 		.4byte	0x93
 8269 01b4 03       		.uleb128 0x3
 8270 01b5 00000093 		.4byte	0x93
 8271 01b9 00       		.byte	0
 8272 01ba 0F       		.uleb128 0xf
 8273 01bb 00000000 		.4byte	.LASF27
 8274 01bf 8B       		.byte	0x8b
 8275 01c0 0B       		.byte	0xb
 8276 01c1 00000000 		.4byte	.LASF28
 8277 01c5 000002FF 		.4byte	0x2ff
 8278 01c9 000001DD 		.4byte	0x1dd
 8279 01cd 03       		.uleb128 0x3
 8280 01ce 000002FF 		.4byte	0x2ff
 8281 01d2 03       		.uleb128 0x3
 8282 01d3 00000093 		.4byte	0x93
 8283 01d7 03       		.uleb128 0x3
 8284 01d8 00000093 		.4byte	0x93
 8285 01dc 00       		.byte	0
 8286 01dd 0F       		.uleb128 0xf
 8287 01de 00000000 		.4byte	.LASF29
 8288 01e2 C3       		.byte	0xc3
 8289 01e3 0B       		.byte	0xb
 8290 01e4 00000000 		.4byte	.LASF30
 8291 01e8 000002FF 		.4byte	0x2ff
 8292 01ec 00000200 		.4byte	0x200
 8293 01f0 03       		.uleb128 0x3
 8294 01f1 000002FF 		.4byte	0x2ff
 8295 01f5 03       		.uleb128 0x3
 8296 01f6 00000093 		.4byte	0x93
 8297 01fa 03       		.uleb128 0x3
 8298 01fb 00000093 		.4byte	0x93
 8299 01ff 00       		.byte	0
 8300 0200 0F       		.uleb128 0xf
 8301 0201 00000000 		.4byte	.LASF31
 8302 0205 E5       		.byte	0xe5
 8303 0206 0B       		.byte	0xb
 8304 0207 00000000 		.4byte	.LASF32
 8305 020b 000002FF 		.4byte	0x2ff
 8306 020f 00000223 		.4byte	0x223
 8307 0213 03       		.uleb128 0x3
 8308 0214 000002FF 		.4byte	0x2ff
 8309 0218 03       		.uleb128 0x3
 8310 0219 00000093 		.4byte	0x93
 8311 021d 03       		.uleb128 0x3
 8312 021e 00000093 		.4byte	0x93
 8313 0222 00       		.byte	0
 8314 0223 1D       		.uleb128 0x1d
 8315 0224 00000000 		.4byte	.LASF33
 8316 0228 0121     		.2byte	0x121
 8317 022a 0B       		.byte	0xb
 8318 022b 00000000 		.4byte	.LASF35
 8319 022f 000002FF 		.4byte	0x2ff
 8320 0233 00000247 		.4byte	0x247
 8321 0237 03       		.uleb128 0x3
 8322 0238 000002FF 		.4byte	0x2ff
 8323 023c 03       		.uleb128 0x3
 8324 023d 00000093 		.4byte	0x93
 8325 0241 03       		.uleb128 0x3
 8326 0242 00000093 		.4byte	0x93
 8327 0246 00       		.byte	0
 8328 0247 1D       		.uleb128 0x1d
 8329 0248 00000000 		.4byte	.LASF34
 8330 024c 016A     		.2byte	0x16a
 8331 024e 0B       		.byte	0xb
 8332 024f 00000000 		.4byte	.LASF36
 8333 0253 000002FF 		.4byte	0x2ff
 8334 0257 0000026B 		.4byte	0x26b
 8335 025b 03       		.uleb128 0x3
 8336 025c 000002FF 		.4byte	0x2ff
 8337 0260 03       		.uleb128 0x3
 8338 0261 00000093 		.4byte	0x93
 8339 0265 03       		.uleb128 0x3
 8340 0266 00000093 		.4byte	0x93
 8341 026a 00       		.byte	0
 8342 026b 0F       		.uleb128 0xf
 8343 026c 00000000 		.4byte	.LASF37
 8344 0270 77       		.byte	0x77
 8345 0271 09       		.byte	0x9
 8346 0272 00000000 		.4byte	.LASF38
 8347 0276 00000087 		.4byte	0x87
 8348 027a 00000284 		.4byte	0x284
 8349 027e 03       		.uleb128 0x3
 8350 027f 0000009F 		.4byte	0x9f
 8351 0283 00       		.byte	0
 8352 0284 0F       		.uleb128 0xf
 8353 0285 00000000 		.4byte	.LASF39
 8354 0289 AF       		.byte	0xaf
 8355 028a 0A       		.byte	0xa
 8356 028b 00000000 		.4byte	.LASF40
 8357 028f 00000093 		.4byte	0x93
 8358 0293 0000029D 		.4byte	0x29d
 8359 0297 03       		.uleb128 0x3
 8360 0298 0000009F 		.4byte	0x9f
 8361 029c 00       		.byte	0
 8362 029d 1D       		.uleb128 0x1d
 8363 029e 00000000 		.4byte	.LASF41
 8364 02a2 010C     		.2byte	0x10c
 8365 02a4 0A       		.byte	0xa
 8366 02a5 00000000 		.4byte	.LASF42
 8367 02a9 00000093 		.4byte	0x93
 8368 02ad 000002B7 		.4byte	0x2b7
 8369 02b1 03       		.uleb128 0x3
 8370 02b2 0000009F 		.4byte	0x9f
 8371 02b6 00       		.byte	0
 8372 02b7 32       		.uleb128 0x32
 8373 02b8 00000000 		.4byte	.LASF77
 8374 02bc 01       		.byte	0x1
 8375 02bd 0142     		.2byte	0x142
 8376 02bf 0A       		.byte	0xa
 8377 02c0 00000000 		.4byte	.LASF65
 8378 02c4 00000093 		.4byte	0x93
 8379 02c8 01       		.byte	0x1
 8380 02c9 03       		.uleb128 0x3
 8381 02ca 0000009F 		.4byte	0x9f
 8382 02ce 00       		.byte	0
 8383 02cf 00       		.byte	0
 8384 02d0 1C       		.uleb128 0x1c
 8385 02d1 000000FB 		.4byte	0xfb
 8386 02d5 16       		.uleb128 0x16
 8387 02d6 000000FB 		.4byte	0xfb
 8388 02da 1C       		.uleb128 0x1c
 8389 02db 000002D5 		.4byte	0x2d5
 8390 02df 33       		.uleb128 0x33
 8391 02e0 04       		.byte	0x4
 8392 02e1 000002D0 		.4byte	0x2d0
 8393 02e5 34       		.uleb128 0x34
 8394 02e6 00000068 		.4byte	0x68
 8395 02ea 000002F0 		.4byte	0x2f0
 8396 02ee 35       		.uleb128 0x35
 8397 02ef 00       		.byte	0
 8398 02f0 16       		.uleb128 0x16
 8399 02f1 000002F5 		.4byte	0x2f5
 8400 02f5 36       		.uleb128 0x36
 8401 02f6 04       		.byte	0x4
 8402 02f7 00000000 		.4byte	.LASF78
 8403 02fb 000002E5 		.4byte	0x2e5
 8404 02ff 16       		.uleb128 0x16
 8405 0300 0000009F 		.4byte	0x9f
 8406 0304 37       		.uleb128 0x37
 8407 0305 00000000 		.4byte	.LASF79
 8408 0309 09       		.byte	0x9
 8409 030a 84       		.byte	0x84
 8410 030b 06       		.byte	0x6
 8411 030c 0000031B 		.4byte	0x31b
 8412 0310 03       		.uleb128 0x3
 8413 0311 000000CC 		.4byte	0xcc
 8414 0315 03       		.uleb128 0x3
 8415 0316 000000AB 		.4byte	0xab
 8416 031a 00       		.byte	0
 8417 031b 20       		.uleb128 0x20
 8418 031c 00000000 		.4byte	.LASF43
 8419 0320 05       		.byte	0x5
 8420 0321 21       		.byte	0x21
 8421 0322 09       		.byte	0x9
 8422 0323 000000CC 		.4byte	0xcc
 8423 0327 0000033B 		.4byte	0x33b
 8424 032b 03       		.uleb128 0x3
 8425 032c 000000CC 		.4byte	0xcc
 8426 0330 03       		.uleb128 0x3
 8427 0331 00000068 		.4byte	0x68
 8428 0335 03       		.uleb128 0x3
 8429 0336 000000DC 		.4byte	0xdc
 8430 033a 00       		.byte	0
 8431 033b 20       		.uleb128 0x20
 8432 033c 00000000 		.4byte	.LASF44
 8433 0340 06       		.byte	0x6
 8434 0341 45       		.byte	0x45
 8435 0342 0E       		.byte	0xe
 8436 0343 000000CC 		.4byte	0xcc
 8437 0347 00000356 		.4byte	0x356
 8438 034b 03       		.uleb128 0x3
 8439 034c 000000DC 		.4byte	0xdc
 8440 0350 03       		.uleb128 0x3
 8441 0351 000000DC 		.4byte	0xdc
 8442 0355 00       		.byte	0
 8443 0356 10       		.uleb128 0x10
 8444 0357 00000247 		.4byte	0x247
 8445 035b 00000000 		.4byte	.LFB78
 8446 035f 00000908 		.4byte	.LFE78-.LFB78
 8447 0363 01       		.uleb128 0x1
 8448 0364 9C       		.byte	0x9c
 8449 0365 00000637 		.4byte	0x637
 8450 0369 13       		.uleb128 0x13
 8451 036a 00000000 		.4byte	.LASF45
 8452 036e 016A     		.2byte	0x16a
 8453 0370 38       		.byte	0x38
 8454 0371 000002FF 		.4byte	0x2ff
 8455 0375 00000000 		.4byte	.LLST165
 8456 0379 00000000 		.4byte	.LVUS165
 8457 037d 13       		.uleb128 0x13
 8458 037e 00000000 		.4byte	.LASF46
 8459 0382 016A     		.2byte	0x16a
 8460 0384 4D       		.byte	0x4d
 8461 0385 00000093 		.4byte	0x93
 8462 0389 00000000 		.4byte	.LLST166
 8463 038d 00000000 		.4byte	.LVUS166
 8464 0391 13       		.uleb128 0x13
 8465 0392 00000000 		.4byte	.LASF47
 8466 0396 016A     		.2byte	0x16a
 8467 0398 63       		.byte	0x63
 8468 0399 00000093 		.4byte	0x93
 8469 039d 00000000 		.4byte	.LLST167
 8470 03a1 00000000 		.4byte	.LVUS167
 8471 03a5 14       		.uleb128 0x14
 8472 03a6 00000000 		.4byte	.LASF48
 8473 03aa 016B     		.2byte	0x16b
 8474 03ac 0B       		.byte	0xb
 8475 03ad 0000009F 		.4byte	0x9f
 8476 03b1 00000000 		.4byte	.LLST168
 8477 03b5 00000000 		.4byte	.LVUS168
 8478 03b9 14       		.uleb128 0x14
 8479 03ba 00000000 		.4byte	.LASF49
 8480 03be 016C     		.2byte	0x16c
 8481 03c0 0C       		.byte	0xc
 8482 03c1 000002FF 		.4byte	0x2ff
 8483 03c5 00000000 		.4byte	.LLST169
 8484 03c9 00000000 		.4byte	.LVUS169
 8485 03cd 0C       		.uleb128 0xc
 8486 03ce 73726300 		.string	"src"
 8487 03d2 016F     		.2byte	0x16f
 8488 03d4 0C       		.byte	0xc
 8489 03d5 000002FF 		.4byte	0x2ff
 8490 03d9 00000000 		.4byte	.LLST170
 8491 03dd 00000000 		.4byte	.LVUS170
 8492 03e1 0C       		.uleb128 0xc
 8493 03e2 64737400 		.string	"dst"
 8494 03e6 0170     		.2byte	0x170
 8495 03e8 0C       		.byte	0xc
 8496 03e9 00000637 		.4byte	0x637
 8497 03ed 00000000 		.4byte	.LLST171
 8498 03f1 00000000 		.4byte	.LVUS171
 8499 03f5 0D       		.uleb128 0xd
 8500 03f6 00000000 		.4byte	.LLRL172
 8501 03fa 000005E7 		.4byte	0x5e7
 8502 03fe 0C       		.uleb128 0xc
 8503 03ff 7900     		.string	"y"
 8504 0401 0172     		.2byte	0x172
 8505 0403 0F       		.byte	0xf
 8506 0404 00000093 		.4byte	0x93
 8507 0408 00000000 		.4byte	.LLST173
 8508 040c 00000000 		.4byte	.LVUS173
 8509 0410 04       		.uleb128 0x4
 8510 0411 00000000 		.4byte	.LLRL174
 8511 0415 0C       		.uleb128 0xc
 8512 0416 7800     		.string	"x"
 8513 0418 0173     		.2byte	0x173
 8514 041a 10       		.byte	0x10
 8515 041b 00000093 		.4byte	0x93
 8516 041f 00000000 		.4byte	.LLST175
 8517 0423 00000000 		.4byte	.LVUS175
 8518 0427 04       		.uleb128 0x4
 8519 0428 00000000 		.4byte	.LLRL176
 8520 042c 14       		.uleb128 0x14
 8521 042d 00000000 		.4byte	.LASF50
 8522 0431 0174     		.2byte	0x174
 8523 0433 11       		.byte	0x11
 8524 0434 00000093 		.4byte	0x93
 8525 0438 00000000 		.4byte	.LLST177
 8526 043c 00000000 		.4byte	.LVUS177
 8527 0440 15       		.uleb128 0x15
 8528 0441 0000063C 		.4byte	0x63c
 8529 0445 00000000 		.4byte	.LBI578
 8530 0449 0000     		.2byte	.LVU2231
 8531 044b 00000000 		.4byte	.LLRL178
 8532 044f 0175     		.2byte	0x175
 8533 0451 000004AA 		.4byte	0x4aa
 8534 0455 05       		.uleb128 0x5
 8535 0456 00000645 		.4byte	0x645
 8536 045a 00000000 		.4byte	.LLST179
 8537 045e 00000000 		.4byte	.LVUS179
 8538 0462 04       		.uleb128 0x4
 8539 0463 00000000 		.4byte	.LLRL178
 8540 0467 01       		.uleb128 0x1
 8541 0468 00000650 		.4byte	0x650
 8542 046c 00000000 		.4byte	.LLST180
 8543 0470 00000000 		.4byte	.LVUS180
 8544 0474 01       		.uleb128 0x1
 8545 0475 0000065A 		.4byte	0x65a
 8546 0479 00000000 		.4byte	.LLST181
 8547 047d 00000000 		.4byte	.LVUS181
 8548 0481 01       		.uleb128 0x1
 8549 0482 00000664 		.4byte	0x664
 8550 0486 00000000 		.4byte	.LLST182
 8551 048a 00000000 		.4byte	.LVUS182
 8552 048e 01       		.uleb128 0x1
 8553 048f 0000066E 		.4byte	0x66e
 8554 0493 00000000 		.4byte	.LLST183
 8555 0497 00000000 		.4byte	.LVUS183
 8556 049b 01       		.uleb128 0x1
 8557 049c 00000678 		.4byte	0x678
 8558 04a0 00000000 		.4byte	.LLST184
 8559 04a4 00000000 		.4byte	.LVUS184
 8560 04a8 00       		.byte	0
 8561 04a9 00       		.byte	0
 8562 04aa 15       		.uleb128 0x15
 8563 04ab 0000063C 		.4byte	0x63c
 8564 04af 00000000 		.4byte	.LBI595
 8565 04b3 0000     		.2byte	.LVU2261
 8566 04b5 00000000 		.4byte	.LLRL185
 8567 04b9 0176     		.2byte	0x176
 8568 04bb 00000514 		.4byte	0x514
 8569 04bf 05       		.uleb128 0x5
 8570 04c0 00000645 		.4byte	0x645
 8571 04c4 00000000 		.4byte	.LLST186
 8572 04c8 00000000 		.4byte	.LVUS186
 8573 04cc 04       		.uleb128 0x4
 8574 04cd 00000000 		.4byte	.LLRL185
 8575 04d1 01       		.uleb128 0x1
 8576 04d2 00000650 		.4byte	0x650
 8577 04d6 00000000 		.4byte	.LLST187
 8578 04da 00000000 		.4byte	.LVUS187
 8579 04de 01       		.uleb128 0x1
 8580 04df 0000065A 		.4byte	0x65a
 8581 04e3 00000000 		.4byte	.LLST188
 8582 04e7 00000000 		.4byte	.LVUS188
 8583 04eb 01       		.uleb128 0x1
 8584 04ec 00000664 		.4byte	0x664
 8585 04f0 00000000 		.4byte	.LLST189
 8586 04f4 00000000 		.4byte	.LVUS189
 8587 04f8 01       		.uleb128 0x1
 8588 04f9 0000066E 		.4byte	0x66e
 8589 04fd 00000000 		.4byte	.LLST190
 8590 0501 00000000 		.4byte	.LVUS190
 8591 0505 01       		.uleb128 0x1
 8592 0506 00000678 		.4byte	0x678
 8593 050a 00000000 		.4byte	.LLST191
 8594 050e 00000000 		.4byte	.LVUS191
 8595 0512 00       		.byte	0
 8596 0513 00       		.byte	0
 8597 0514 15       		.uleb128 0x15
 8598 0515 0000063C 		.4byte	0x63c
 8599 0519 00000000 		.4byte	.LBI614
 8600 051d 0000     		.2byte	.LVU2291
 8601 051f 00000000 		.4byte	.LLRL192
 8602 0523 0177     		.2byte	0x177
 8603 0525 0000057E 		.4byte	0x57e
 8604 0529 05       		.uleb128 0x5
 8605 052a 00000645 		.4byte	0x645
 8606 052e 00000000 		.4byte	.LLST193
 8607 0532 00000000 		.4byte	.LVUS193
 8608 0536 04       		.uleb128 0x4
 8609 0537 00000000 		.4byte	.LLRL192
 8610 053b 01       		.uleb128 0x1
 8611 053c 00000650 		.4byte	0x650
 8612 0540 00000000 		.4byte	.LLST194
 8613 0544 00000000 		.4byte	.LVUS194
 8614 0548 01       		.uleb128 0x1
 8615 0549 0000065A 		.4byte	0x65a
 8616 054d 00000000 		.4byte	.LLST195
 8617 0551 00000000 		.4byte	.LVUS195
 8618 0555 01       		.uleb128 0x1
 8619 0556 00000664 		.4byte	0x664
 8620 055a 00000000 		.4byte	.LLST196
 8621 055e 00000000 		.4byte	.LVUS196
 8622 0562 01       		.uleb128 0x1
 8623 0563 0000066E 		.4byte	0x66e
 8624 0567 00000000 		.4byte	.LLST197
 8625 056b 00000000 		.4byte	.LVUS197
 8626 056f 01       		.uleb128 0x1
 8627 0570 00000678 		.4byte	0x678
 8628 0574 00000000 		.4byte	.LLST198
 8629 0578 00000000 		.4byte	.LVUS198
 8630 057c 00       		.byte	0
 8631 057d 00       		.byte	0
 8632 057e 21       		.uleb128 0x21
 8633 057f 0000063C 		.4byte	0x63c
 8634 0583 00000000 		.4byte	.LBI629
 8635 0587 0000     		.2byte	.LVU2321
 8636 0589 00000000 		.4byte	.LLRL199
 8637 058d 0178     		.2byte	0x178
 8638 058f 05       		.uleb128 0x5
 8639 0590 00000645 		.4byte	0x645
 8640 0594 00000000 		.4byte	.LLST200
 8641 0598 00000000 		.4byte	.LVUS200
 8642 059c 04       		.uleb128 0x4
 8643 059d 00000000 		.4byte	.LLRL199
 8644 05a1 01       		.uleb128 0x1
 8645 05a2 00000650 		.4byte	0x650
 8646 05a6 00000000 		.4byte	.LLST201
 8647 05aa 00000000 		.4byte	.LVUS201
 8648 05ae 01       		.uleb128 0x1
 8649 05af 0000065A 		.4byte	0x65a
 8650 05b3 00000000 		.4byte	.LLST202
 8651 05b7 00000000 		.4byte	.LVUS202
 8652 05bb 01       		.uleb128 0x1
 8653 05bc 00000664 		.4byte	0x664
 8654 05c0 00000000 		.4byte	.LLST203
 8655 05c4 00000000 		.4byte	.LVUS203
 8656 05c8 01       		.uleb128 0x1
 8657 05c9 0000066E 		.4byte	0x66e
 8658 05cd 00000000 		.4byte	.LLST204
 8659 05d1 00000000 		.4byte	.LVUS204
 8660 05d5 01       		.uleb128 0x1
 8661 05d6 00000678 		.4byte	0x678
 8662 05da 00000000 		.4byte	.LLST205
 8663 05de 00000000 		.4byte	.LVUS205
 8664 05e2 00       		.byte	0
 8665 05e3 00       		.byte	0
 8666 05e4 00       		.byte	0
 8667 05e5 00       		.byte	0
 8668 05e6 00       		.byte	0
 8669 05e7 0A       		.uleb128 0xa
 8670 05e8 00000000 		.4byte	.LVL276
 8671 05ec 0000033B 		.4byte	0x33b
 8672 05f0 00000601 		.4byte	0x601
 8673 05f4 02       		.uleb128 0x2
 8674 05f5 01       		.uleb128 0x1
 8675 05f6 53       		.byte	0x53
 8676 05f7 02       		.uleb128 0x2
 8677 05f8 08       		.byte	0x8
 8678 05f9 20       		.byte	0x20
 8679 05fa 02       		.uleb128 0x2
 8680 05fb 01       		.uleb128 0x1
 8681 05fc 54       		.byte	0x54
 8682 05fd 02       		.uleb128 0x2
 8683 05fe 8E       		.byte	0x8e
 8684 05ff 00       		.sleb128 0
 8685 0600 00       		.byte	0
 8686 0601 0A       		.uleb128 0xa
 8687 0602 00000000 		.4byte	.LVL278
 8688 0606 0000150D 		.4byte	0x150d
 8689 060a 00000620 		.4byte	0x620
 8690 060e 02       		.uleb128 0x2
 8691 060f 01       		.uleb128 0x1
 8692 0610 53       		.byte	0x53
 8693 0611 02       		.uleb128 0x2
 8694 0612 8D       		.byte	0x8d
 8695 0613 00       		.sleb128 0
 8696 0614 02       		.uleb128 0x2
 8697 0615 01       		.uleb128 0x1
 8698 0616 54       		.byte	0x54
 8699 0617 01       		.uleb128 0x1
 8700 0618 30       		.byte	0x30
 8701 0619 02       		.uleb128 0x2
 8702 061a 01       		.uleb128 0x1
 8703 061b 55       		.byte	0x55
 8704 061c 02       		.uleb128 0x2
 8705 061d 8E       		.byte	0x8e
 8706 061e 00       		.sleb128 0
 8707 061f 00       		.byte	0
 8708 0620 11       		.uleb128 0x11
 8709 0621 00000000 		.4byte	.LVL433
 8710 0625 00000304 		.4byte	0x304
 8711 0629 02       		.uleb128 0x2
 8712 062a 01       		.uleb128 0x1
 8713 062b 53       		.byte	0x53
 8714 062c 02       		.uleb128 0x2
 8715 062d 8D       		.byte	0x8d
 8716 062e 00       		.sleb128 0
 8717 062f 02       		.uleb128 0x2
 8718 0630 01       		.uleb128 0x1
 8719 0631 54       		.byte	0x54
 8720 0632 02       		.uleb128 0x2
 8721 0633 8E       		.byte	0x8e
 8722 0634 00       		.sleb128 0
 8723 0635 00       		.byte	0
 8724 0636 00       		.byte	0
 8725 0637 16       		.uleb128 0x16
 8726 0638 00000093 		.4byte	0x93
 8727 063c 19       		.uleb128 0x19
 8728 063d 000002B7 		.4byte	0x2b7
 8729 0641 00000686 		.4byte	0x686
 8730 0645 22       		.uleb128 0x22
 8731 0646 00000000 		.4byte	.LASF53
 8732 064a 0142     		.2byte	0x142
 8733 064c 0000009F 		.4byte	0x9f
 8734 0650 12       		.uleb128 0x12
 8735 0651 7200     		.string	"r"
 8736 0653 0143     		.2byte	0x143
 8737 0655 0B       		.byte	0xb
 8738 0656 0000009F 		.4byte	0x9f
 8739 065a 12       		.uleb128 0x12
 8740 065b 6700     		.string	"g"
 8741 065d 0143     		.2byte	0x143
 8742 065f 0E       		.byte	0xe
 8743 0660 0000009F 		.4byte	0x9f
 8744 0664 12       		.uleb128 0x12
 8745 0665 6200     		.string	"b"
 8746 0667 0143     		.2byte	0x143
 8747 0669 11       		.byte	0x11
 8748 066a 0000009F 		.4byte	0x9f
 8749 066e 12       		.uleb128 0x12
 8750 066f 6100     		.string	"a"
 8751 0671 0143     		.2byte	0x143
 8752 0673 14       		.byte	0x14
 8753 0674 0000009F 		.4byte	0x9f
 8754 0678 38       		.uleb128 0x38
 8755 0679 00000000 		.4byte	.LASF51
 8756 067d 01       		.byte	0x1
 8757 067e 0144     		.2byte	0x144
 8758 0680 0B       		.byte	0xb
 8759 0681 00000093 		.4byte	0x93
 8760 0685 00       		.byte	0
 8761 0686 10       		.uleb128 0x10
 8762 0687 00000223 		.4byte	0x223
 8763 068b 00000000 		.4byte	.LFB76
 8764 068f 00000684 		.4byte	.LFE76-.LFB76
 8765 0693 01       		.uleb128 0x1
 8766 0694 9C       		.byte	0x9c
 8767 0695 000008FF 		.4byte	0x8ff
 8768 0699 13       		.uleb128 0x13
 8769 069a 00000000 		.4byte	.LASF45
 8770 069e 0121     		.2byte	0x121
 8771 06a0 38       		.byte	0x38
 8772 06a1 000002FF 		.4byte	0x2ff
 8773 06a5 00000000 		.4byte	.LLST126
 8774 06a9 00000000 		.4byte	.LVUS126
 8775 06ad 13       		.uleb128 0x13
 8776 06ae 00000000 		.4byte	.LASF46
 8777 06b2 0121     		.2byte	0x121
 8778 06b4 4D       		.byte	0x4d
 8779 06b5 00000093 		.4byte	0x93
 8780 06b9 00000000 		.4byte	.LLST127
 8781 06bd 00000000 		.4byte	.LVUS127
 8782 06c1 13       		.uleb128 0x13
 8783 06c2 00000000 		.4byte	.LASF47
 8784 06c6 0121     		.2byte	0x121
 8785 06c8 63       		.byte	0x63
 8786 06c9 00000093 		.4byte	0x93
 8787 06cd 00000000 		.4byte	.LLST128
 8788 06d1 00000000 		.4byte	.LVUS128
 8789 06d5 14       		.uleb128 0x14
 8790 06d6 00000000 		.4byte	.LASF48
 8791 06da 0122     		.2byte	0x122
 8792 06dc 0B       		.byte	0xb
 8793 06dd 0000009F 		.4byte	0x9f
 8794 06e1 00000000 		.4byte	.LLST129
 8795 06e5 00000000 		.4byte	.LVUS129
 8796 06e9 14       		.uleb128 0x14
 8797 06ea 00000000 		.4byte	.LASF52
 8798 06ee 0123     		.2byte	0x123
 8799 06f0 0C       		.byte	0xc
 8800 06f1 000002FF 		.4byte	0x2ff
 8801 06f5 00000000 		.4byte	.LLST130
 8802 06f9 00000000 		.4byte	.LVUS130
 8803 06fd 0C       		.uleb128 0xc
 8804 06fe 73726300 		.string	"src"
 8805 0702 0126     		.2byte	0x126
 8806 0704 0C       		.byte	0xc
 8807 0705 000002FF 		.4byte	0x2ff
 8808 0709 00000000 		.4byte	.LLST131
 8809 070d 00000000 		.4byte	.LVUS131
 8810 0711 0C       		.uleb128 0xc
 8811 0712 64737400 		.string	"dst"
 8812 0716 0127     		.2byte	0x127
 8813 0718 0C       		.byte	0xc
 8814 0719 00000637 		.4byte	0x637
 8815 071d 00000000 		.4byte	.LLST132
 8816 0721 00000000 		.4byte	.LVUS132
 8817 0725 0D       		.uleb128 0xd
 8818 0726 00000000 		.4byte	.LLRL133
 8819 072a 000008AF 		.4byte	0x8af
 8820 072e 0C       		.uleb128 0xc
 8821 072f 7900     		.string	"y"
 8822 0731 0129     		.2byte	0x129
 8823 0733 0F       		.byte	0xf
 8824 0734 00000093 		.4byte	0x93
 8825 0738 00000000 		.4byte	.LLST134
 8826 073c 00000000 		.4byte	.LVUS134
 8827 0740 04       		.uleb128 0x4
 8828 0741 00000000 		.4byte	.LLRL135
 8829 0745 0C       		.uleb128 0xc
 8830 0746 7800     		.string	"x"
 8831 0748 012A     		.2byte	0x12a
 8832 074a 10       		.byte	0x10
 8833 074b 00000093 		.4byte	0x93
 8834 074f 00000000 		.4byte	.LLST136
 8835 0753 00000000 		.4byte	.LVUS136
 8836 0757 04       		.uleb128 0x4
 8837 0758 00000000 		.4byte	.LLRL137
 8838 075c 14       		.uleb128 0x14
 8839 075d 00000000 		.4byte	.LASF50
 8840 0761 012B     		.2byte	0x12b
 8841 0763 11       		.byte	0x11
 8842 0764 00000093 		.4byte	0x93
 8843 0768 00000000 		.4byte	.LLST138
 8844 076c 00000000 		.4byte	.LVUS138
 8845 0770 15       		.uleb128 0x15
 8846 0771 000008FF 		.4byte	0x8ff
 8847 0775 00000000 		.4byte	.LBI227
 8848 0779 0000     		.2byte	.LVU1722
 8849 077b 00000000 		.4byte	.LLRL139
 8850 077f 012C     		.2byte	0x12c
 8851 0781 000007C0 		.4byte	0x7c0
 8852 0785 05       		.uleb128 0x5
 8853 0786 00000908 		.4byte	0x908
 8854 078a 00000000 		.4byte	.LLST140
 8855 078e 00000000 		.4byte	.LVUS140
 8856 0792 04       		.uleb128 0x4
 8857 0793 00000000 		.4byte	.LLRL139
 8858 0797 01       		.uleb128 0x1
 8859 0798 00000913 		.4byte	0x913
 8860 079c 00000000 		.4byte	.LLST141
 8861 07a0 00000000 		.4byte	.LVUS141
 8862 07a4 01       		.uleb128 0x1
 8863 07a5 0000091D 		.4byte	0x91d
 8864 07a9 00000000 		.4byte	.LLST142
 8865 07ad 00000000 		.4byte	.LVUS142
 8866 07b1 01       		.uleb128 0x1
 8867 07b2 00000927 		.4byte	0x927
 8868 07b6 00000000 		.4byte	.LLST143
 8869 07ba 00000000 		.4byte	.LVUS143
 8870 07be 00       		.byte	0
 8871 07bf 00       		.byte	0
 8872 07c0 15       		.uleb128 0x15
 8873 07c1 000008FF 		.4byte	0x8ff
 8874 07c5 00000000 		.4byte	.LBI259
 8875 07c9 0001     		.2byte	.LVU2002
 8876 07cb 00000000 		.4byte	.LLRL144
 8877 07cf 012D     		.2byte	0x12d
 8878 07d1 00000810 		.4byte	0x810
 8879 07d5 05       		.uleb128 0x5
 8880 07d6 00000908 		.4byte	0x908
 8881 07da 00000000 		.4byte	.LLST145
 8882 07de 00000000 		.4byte	.LVUS145
 8883 07e2 04       		.uleb128 0x4
 8884 07e3 00000000 		.4byte	.LLRL144
 8885 07e7 01       		.uleb128 0x1
 8886 07e8 00000913 		.4byte	0x913
 8887 07ec 00000000 		.4byte	.LLST146
 8888 07f0 00000000 		.4byte	.LVUS146
 8889 07f4 01       		.uleb128 0x1
 8890 07f5 0000091D 		.4byte	0x91d
 8891 07f9 00000000 		.4byte	.LLST147
 8892 07fd 00000000 		.4byte	.LVUS147
 8893 0801 01       		.uleb128 0x1
 8894 0802 00000927 		.4byte	0x927
 8895 0806 00000000 		.4byte	.LLST148
 8896 080a 00000000 		.4byte	.LVUS148
 8897 080e 00       		.byte	0
 8898 080f 00       		.byte	0
 8899 0810 15       		.uleb128 0x15
 8900 0811 000008FF 		.4byte	0x8ff
 8901 0815 00000000 		.4byte	.LBI313
 8902 0819 0009     		.2byte	.LVU2010
 8903 081b 00000000 		.4byte	.LLRL149
 8904 081f 012E     		.2byte	0x12e
 8905 0821 00000860 		.4byte	0x860
 8906 0825 05       		.uleb128 0x5
 8907 0826 00000908 		.4byte	0x908
 8908 082a 00000000 		.4byte	.LLST150
 8909 082e 00000000 		.4byte	.LVUS150
 8910 0832 04       		.uleb128 0x4
 8911 0833 00000000 		.4byte	.LLRL149
 8912 0837 01       		.uleb128 0x1
 8913 0838 00000913 		.4byte	0x913
 8914 083c 00000000 		.4byte	.LLST151
 8915 0840 00000000 		.4byte	.LVUS151
 8916 0844 01       		.uleb128 0x1
 8917 0845 0000091D 		.4byte	0x91d
 8918 0849 00000000 		.4byte	.LLST152
 8919 084d 00000000 		.4byte	.LVUS152
 8920 0851 01       		.uleb128 0x1
 8921 0852 00000927 		.4byte	0x927
 8922 0856 00000000 		.4byte	.LLST153
 8923 085a 00000000 		.4byte	.LVUS153
 8924 085e 00       		.byte	0
 8925 085f 00       		.byte	0
 8926 0860 21       		.uleb128 0x21
 8927 0861 000008FF 		.4byte	0x8ff
 8928 0865 00000000 		.4byte	.LBI369
 8929 0869 0011     		.2byte	.LVU2018
 8930 086b 00000000 		.4byte	.LLRL154
 8931 086f 012F     		.2byte	0x12f
 8932 0871 05       		.uleb128 0x5
 8933 0872 00000908 		.4byte	0x908
 8934 0876 00000000 		.4byte	.LLST155
 8935 087a 00000000 		.4byte	.LVUS155
 8936 087e 04       		.uleb128 0x4
 8937 087f 00000000 		.4byte	.LLRL154
 8938 0883 01       		.uleb128 0x1
 8939 0884 00000913 		.4byte	0x913
 8940 0888 00000000 		.4byte	.LLST156
 8941 088c 00000000 		.4byte	.LVUS156
 8942 0890 01       		.uleb128 0x1
 8943 0891 0000091D 		.4byte	0x91d
 8944 0895 00000000 		.4byte	.LLST157
 8945 0899 00000000 		.4byte	.LVUS157
 8946 089d 01       		.uleb128 0x1
 8947 089e 00000927 		.4byte	0x927
 8948 08a2 00000000 		.4byte	.LLST158
 8949 08a6 00000000 		.4byte	.LVUS158
 8950 08aa 00       		.byte	0
 8951 08ab 00       		.byte	0
 8952 08ac 00       		.byte	0
 8953 08ad 00       		.byte	0
 8954 08ae 00       		.byte	0
 8955 08af 0A       		.uleb128 0xa
 8956 08b0 00000000 		.4byte	.LVL233
 8957 08b4 0000033B 		.4byte	0x33b
 8958 08b8 000008C9 		.4byte	0x8c9
 8959 08bc 02       		.uleb128 0x2
 8960 08bd 01       		.uleb128 0x1
 8961 08be 53       		.byte	0x53
 8962 08bf 02       		.uleb128 0x2
 8963 08c0 08       		.byte	0x8
 8964 08c1 20       		.byte	0x20
 8965 08c2 02       		.uleb128 0x2
 8966 08c3 01       		.uleb128 0x1
 8967 08c4 54       		.byte	0x54
 8968 08c5 02       		.uleb128 0x2
 8969 08c6 83       		.byte	0x83
 8970 08c7 00       		.sleb128 0
 8971 08c8 00       		.byte	0
 8972 08c9 0A       		.uleb128 0xa
 8973 08ca 00000000 		.4byte	.LVL235
 8974 08ce 0000150D 		.4byte	0x150d
 8975 08d2 000008E8 		.4byte	0x8e8
 8976 08d6 02       		.uleb128 0x2
 8977 08d7 01       		.uleb128 0x1
 8978 08d8 53       		.byte	0x53
 8979 08d9 02       		.uleb128 0x2
 8980 08da 84       		.byte	0x84
 8981 08db 00       		.sleb128 0
 8982 08dc 02       		.uleb128 0x2
 8983 08dd 01       		.uleb128 0x1
 8984 08de 54       		.byte	0x54
 8985 08df 01       		.uleb128 0x1
 8986 08e0 30       		.byte	0x30
 8987 08e1 02       		.uleb128 0x2
 8988 08e2 01       		.uleb128 0x1
 8989 08e3 55       		.byte	0x55
 8990 08e4 02       		.uleb128 0x2
 8991 08e5 83       		.byte	0x83
 8992 08e6 00       		.sleb128 0
 8993 08e7 00       		.byte	0
 8994 08e8 11       		.uleb128 0x11
 8995 08e9 00000000 		.4byte	.LVL253
 8996 08ed 00000304 		.4byte	0x304
 8997 08f1 02       		.uleb128 0x2
 8998 08f2 01       		.uleb128 0x1
 8999 08f3 53       		.byte	0x53
 9000 08f4 02       		.uleb128 0x2
 9001 08f5 84       		.byte	0x84
 9002 08f6 00       		.sleb128 0
 9003 08f7 02       		.uleb128 0x2
 9004 08f8 01       		.uleb128 0x1
 9005 08f9 54       		.byte	0x54
 9006 08fa 02       		.uleb128 0x2
 9007 08fb 83       		.byte	0x83
 9008 08fc 00       		.sleb128 0
 9009 08fd 00       		.byte	0
 9010 08fe 00       		.byte	0
 9011 08ff 19       		.uleb128 0x19
 9012 0900 0000029D 		.4byte	0x29d
 9013 0904 00000932 		.4byte	0x932
 9014 0908 22       		.uleb128 0x22
 9015 0909 00000000 		.4byte	.LASF53
 9016 090d 010C     		.2byte	0x10c
 9017 090f 0000009F 		.4byte	0x9f
 9018 0913 12       		.uleb128 0x12
 9019 0914 7200     		.string	"r"
 9020 0916 010D     		.2byte	0x10d
 9021 0918 0A       		.byte	0xa
 9022 0919 00000087 		.4byte	0x87
 9023 091d 12       		.uleb128 0x12
 9024 091e 6700     		.string	"g"
 9025 0920 010D     		.2byte	0x10d
 9026 0922 0D       		.byte	0xd
 9027 0923 00000087 		.4byte	0x87
 9028 0927 12       		.uleb128 0x12
 9029 0928 6200     		.string	"b"
 9030 092a 010D     		.2byte	0x10d
 9031 092c 10       		.byte	0x10
 9032 092d 00000087 		.4byte	0x87
 9033 0931 00       		.byte	0
 9034 0932 10       		.uleb128 0x10
 9035 0933 00000200 		.4byte	0x200
 9036 0937 00000000 		.4byte	.LFB74
 9037 093b 00000438 		.4byte	.LFE74-.LFB74
 9038 093f 01       		.uleb128 0x1
 9039 0940 9C       		.byte	0x9c
 9040 0941 00000AB4 		.4byte	0xab4
 9041 0945 07       		.uleb128 0x7
 9042 0946 00000000 		.4byte	.LASF45
 9043 094a E5       		.byte	0xe5
 9044 094b 37       		.byte	0x37
 9045 094c 000002FF 		.4byte	0x2ff
 9046 0950 00000000 		.4byte	.LLST104
 9047 0954 00000000 		.4byte	.LVUS104
 9048 0958 07       		.uleb128 0x7
 9049 0959 00000000 		.4byte	.LASF46
 9050 095d E5       		.byte	0xe5
 9051 095e 4C       		.byte	0x4c
 9052 095f 00000093 		.4byte	0x93
 9053 0963 00000000 		.4byte	.LLST105
 9054 0967 00000000 		.4byte	.LVUS105
 9055 096b 07       		.uleb128 0x7
 9056 096c 00000000 		.4byte	.LASF47
 9057 0970 E5       		.byte	0xe5
 9058 0971 62       		.byte	0x62
 9059 0972 00000093 		.4byte	0x93
 9060 0976 00000000 		.4byte	.LLST106
 9061 097a 00000000 		.4byte	.LVUS106
 9062 097e 08       		.uleb128 0x8
 9063 097f 00000000 		.4byte	.LASF48
 9064 0983 E6       		.byte	0xe6
 9065 0984 0B       		.byte	0xb
 9066 0985 0000009F 		.4byte	0x9f
 9067 0989 00000000 		.4byte	.LLST107
 9068 098d 00000000 		.4byte	.LVUS107
 9069 0991 08       		.uleb128 0x8
 9070 0992 00000000 		.4byte	.LASF54
 9071 0996 E7       		.byte	0xe7
 9072 0997 0C       		.byte	0xc
 9073 0998 000002FF 		.4byte	0x2ff
 9074 099c 00000000 		.4byte	.LLST108
 9075 09a0 00000000 		.4byte	.LVUS108
 9076 09a4 06       		.uleb128 0x6
 9077 09a5 73726300 		.string	"src"
 9078 09a9 EA       		.byte	0xea
 9079 09aa 0B       		.byte	0xb
 9080 09ab 00000AB4 		.4byte	0xab4
 9081 09af 00000000 		.4byte	.LLST109
 9082 09b3 00000000 		.4byte	.LVUS109
 9083 09b7 06       		.uleb128 0x6
 9084 09b8 64737400 		.string	"dst"
 9085 09bc EB       		.byte	0xeb
 9086 09bd 0B       		.byte	0xb
 9087 09be 00000AB4 		.4byte	0xab4
 9088 09c2 00000000 		.4byte	.LLST110
 9089 09c6 00000000 		.4byte	.LVUS110
 9090 09ca 0D       		.uleb128 0xd
 9091 09cb 00000000 		.4byte	.LLRL111
 9092 09cf 00000A64 		.4byte	0xa64
 9093 09d3 08       		.uleb128 0x8
 9094 09d4 00000000 		.4byte	.LASF55
 9095 09d8 ED       		.byte	0xed
 9096 09d9 0F       		.byte	0xf
 9097 09da 00000093 		.4byte	0x93
 9098 09de 00000000 		.4byte	.LLST112
 9099 09e2 00000000 		.4byte	.LVUS112
 9100 09e6 17       		.uleb128 0x17
 9101 09e7 00000000 		.4byte	.LBB201
 9102 09eb 00000304 		.4byte	.LBE201-.LBB201
 9103 09ef 06       		.uleb128 0x6
 9104 09f0 6900     		.string	"i"
 9105 09f2 EE       		.byte	0xee
 9106 09f3 10       		.byte	0x10
 9107 09f4 00000093 		.4byte	0x93
 9108 09f8 00000000 		.4byte	.LLST113
 9109 09fc 00000000 		.4byte	.LVUS113
 9110 0a00 0D       		.uleb128 0xd
 9111 0a01 00000000 		.4byte	.LLRL114
 9112 0a05 00000A33 		.4byte	0xa33
 9113 0a09 06       		.uleb128 0x6
 9114 0a0a 6300     		.string	"c"
 9115 0a0c EF       		.byte	0xef
 9116 0a0d 12       		.byte	0x12
 9117 0a0e 00000093 		.4byte	0x93
 9118 0a12 00000000 		.4byte	.LLST115
 9119 0a16 00000000 		.4byte	.LVUS115
 9120 0a1a 04       		.uleb128 0x4
 9121 0a1b 00000000 		.4byte	.LLRL116
 9122 0a1f 06       		.uleb128 0x6
 9123 0a20 617200   		.string	"ar"
 9124 0a23 F0       		.byte	0xf0
 9125 0a24 13       		.byte	0x13
 9126 0a25 00000093 		.4byte	0x93
 9127 0a29 00000000 		.4byte	.LLST117
 9128 0a2d 00000000 		.4byte	.LVUS117
 9129 0a31 00       		.byte	0
 9130 0a32 00       		.byte	0
 9131 0a33 04       		.uleb128 0x4
 9132 0a34 00000000 		.4byte	.LLRL118
 9133 0a38 06       		.uleb128 0x6
 9134 0a39 6300     		.string	"c"
 9135 0a3b F5       		.byte	0xf5
 9136 0a3c 12       		.byte	0x12
 9137 0a3d 00000093 		.4byte	0x93
 9138 0a41 00000000 		.4byte	.LLST119
 9139 0a45 00000000 		.4byte	.LVUS119
 9140 0a49 04       		.uleb128 0x4
 9141 0a4a 00000000 		.4byte	.LLRL120
 9142 0a4e 06       		.uleb128 0x6
 9143 0a4f 676200   		.string	"gb"
 9144 0a52 F6       		.byte	0xf6
 9145 0a53 13       		.byte	0x13
 9146 0a54 00000093 		.4byte	0x93
 9147 0a58 00000000 		.4byte	.LLST121
 9148 0a5c 00000000 		.4byte	.LVUS121
 9149 0a60 00       		.byte	0
 9150 0a61 00       		.byte	0
 9151 0a62 00       		.byte	0
 9152 0a63 00       		.byte	0
 9153 0a64 0A       		.uleb128 0xa
 9154 0a65 00000000 		.4byte	.LVL171
 9155 0a69 0000033B 		.4byte	0x33b
 9156 0a6d 00000A7E 		.4byte	0xa7e
 9157 0a71 02       		.uleb128 0x2
 9158 0a72 01       		.uleb128 0x1
 9159 0a73 53       		.byte	0x53
 9160 0a74 02       		.uleb128 0x2
 9161 0a75 08       		.byte	0x8
 9162 0a76 20       		.byte	0x20
 9163 0a77 02       		.uleb128 0x2
 9164 0a78 01       		.uleb128 0x1
 9165 0a79 54       		.byte	0x54
 9166 0a7a 02       		.uleb128 0x2
 9167 0a7b 8D       		.byte	0x8d
 9168 0a7c 00       		.sleb128 0
 9169 0a7d 00       		.byte	0
 9170 0a7e 0A       		.uleb128 0xa
 9171 0a7f 00000000 		.4byte	.LVL173
 9172 0a83 0000150D 		.4byte	0x150d
 9173 0a87 00000A9D 		.4byte	0xa9d
 9174 0a8b 02       		.uleb128 0x2
 9175 0a8c 01       		.uleb128 0x1
 9176 0a8d 53       		.byte	0x53
 9177 0a8e 02       		.uleb128 0x2
 9178 0a8f 8E       		.byte	0x8e
 9179 0a90 00       		.sleb128 0
 9180 0a91 02       		.uleb128 0x2
 9181 0a92 01       		.uleb128 0x1
 9182 0a93 54       		.byte	0x54
 9183 0a94 01       		.uleb128 0x1
 9184 0a95 30       		.byte	0x30
 9185 0a96 02       		.uleb128 0x2
 9186 0a97 01       		.uleb128 0x1
 9187 0a98 55       		.byte	0x55
 9188 0a99 02       		.uleb128 0x2
 9189 0a9a 8D       		.byte	0x8d
 9190 0a9b 00       		.sleb128 0
 9191 0a9c 00       		.byte	0
 9192 0a9d 11       		.uleb128 0x11
 9193 0a9e 00000000 		.4byte	.LVL221
 9194 0aa2 00000304 		.4byte	0x304
 9195 0aa6 02       		.uleb128 0x2
 9196 0aa7 01       		.uleb128 0x1
 9197 0aa8 53       		.byte	0x53
 9198 0aa9 02       		.uleb128 0x2
 9199 0aaa 8E       		.byte	0x8e
 9200 0aab 00       		.sleb128 0
 9201 0aac 02       		.uleb128 0x2
 9202 0aad 01       		.uleb128 0x1
 9203 0aae 54       		.byte	0x54
 9204 0aaf 02       		.uleb128 0x2
 9205 0ab0 8D       		.byte	0x8d
 9206 0ab1 00       		.sleb128 0
 9207 0ab2 00       		.byte	0
 9208 0ab3 00       		.byte	0
 9209 0ab4 16       		.uleb128 0x16
 9210 0ab5 00000087 		.4byte	0x87
 9211 0ab9 10       		.uleb128 0x10
 9212 0aba 000001DD 		.4byte	0x1dd
 9213 0abe 00000000 		.4byte	.LFB73
 9214 0ac2 00000258 		.4byte	.LFE73-.LFB73
 9215 0ac6 01       		.uleb128 0x1
 9216 0ac7 9C       		.byte	0x9c
 9217 0ac8 00000CF4 		.4byte	0xcf4
 9218 0acc 07       		.uleb128 0x7
 9219 0acd 00000000 		.4byte	.LASF45
 9220 0ad1 C3       		.byte	0xc3
 9221 0ad2 35       		.byte	0x35
 9222 0ad3 000002FF 		.4byte	0x2ff
 9223 0ad7 00000000 		.4byte	.LLST76
 9224 0adb 00000000 		.4byte	.LVUS76
 9225 0adf 07       		.uleb128 0x7
 9226 0ae0 00000000 		.4byte	.LASF46
 9227 0ae4 C3       		.byte	0xc3
 9228 0ae5 4A       		.byte	0x4a
 9229 0ae6 00000093 		.4byte	0x93
 9230 0aea 00000000 		.4byte	.LLST77
 9231 0aee 00000000 		.4byte	.LVUS77
 9232 0af2 07       		.uleb128 0x7
 9233 0af3 00000000 		.4byte	.LASF47
 9234 0af7 C3       		.byte	0xc3
 9235 0af8 60       		.byte	0x60
 9236 0af9 00000093 		.4byte	0x93
 9237 0afd 00000000 		.4byte	.LLST78
 9238 0b01 00000000 		.4byte	.LVUS78
 9239 0b05 08       		.uleb128 0x8
 9240 0b06 00000000 		.4byte	.LASF48
 9241 0b0a C4       		.byte	0xc4
 9242 0b0b 0B       		.byte	0xb
 9243 0b0c 0000009F 		.4byte	0x9f
 9244 0b10 00000000 		.4byte	.LLST79
 9245 0b14 00000000 		.4byte	.LVUS79
 9246 0b18 08       		.uleb128 0x8
 9247 0b19 00000000 		.4byte	.LASF56
 9248 0b1d C5       		.byte	0xc5
 9249 0b1e 0C       		.byte	0xc
 9250 0b1f 000002FF 		.4byte	0x2ff
 9251 0b23 00000000 		.4byte	.LLST80
 9252 0b27 00000000 		.4byte	.LVUS80
 9253 0b2b 06       		.uleb128 0x6
 9254 0b2c 73726300 		.string	"src"
 9255 0b30 C8       		.byte	0xc8
 9256 0b31 0C       		.byte	0xc
 9257 0b32 000002FF 		.4byte	0x2ff
 9258 0b36 00000000 		.4byte	.LLST81
 9259 0b3a 00000000 		.4byte	.LVUS81
 9260 0b3e 06       		.uleb128 0x6
 9261 0b3f 64737400 		.string	"dst"
 9262 0b43 C9       		.byte	0xc9
 9263 0b44 0C       		.byte	0xc
 9264 0b45 00000637 		.4byte	0x637
 9265 0b49 00000000 		.4byte	.LLST82
 9266 0b4d 00000000 		.4byte	.LVUS82
 9267 0b51 0D       		.uleb128 0xd
 9268 0b52 00000000 		.4byte	.LLRL83
 9269 0b56 00000CA4 		.4byte	0xca4
 9270 0b5a 06       		.uleb128 0x6
 9271 0b5b 7900     		.string	"y"
 9272 0b5d CB       		.byte	0xcb
 9273 0b5e 0F       		.byte	0xf
 9274 0b5f 00000093 		.4byte	0x93
 9275 0b63 00000000 		.4byte	.LLST84
 9276 0b67 00000000 		.4byte	.LVUS84
 9277 0b6b 17       		.uleb128 0x17
 9278 0b6c 00000000 		.4byte	.LBB161
 9279 0b70 0000013C 		.4byte	.LBE161-.LBB161
 9280 0b74 06       		.uleb128 0x6
 9281 0b75 7800     		.string	"x"
 9282 0b77 CC       		.byte	0xcc
 9283 0b78 10       		.byte	0x10
 9284 0b79 00000093 		.4byte	0x93
 9285 0b7d 00000000 		.4byte	.LLST85
 9286 0b81 00000000 		.4byte	.LVUS85
 9287 0b85 04       		.uleb128 0x4
 9288 0b86 00000000 		.4byte	.LLRL86
 9289 0b8a 08       		.uleb128 0x8
 9290 0b8b 00000000 		.4byte	.LASF50
 9291 0b8f CD       		.byte	0xcd
 9292 0b90 11       		.byte	0x11
 9293 0b91 00000093 		.4byte	0x93
 9294 0b95 00000000 		.4byte	.LLST87
 9295 0b99 00000000 		.4byte	.LVUS87
 9296 0b9d 0B       		.uleb128 0xb
 9297 0b9e 00000CF4 		.4byte	0xcf4
 9298 0ba2 00000000 		.4byte	.LBI163
 9299 0ba6 0000     		.2byte	.LVU1094
 9300 0ba8 00000000 		.4byte	.LLRL88
 9301 0bac CE       		.byte	0xce
 9302 0bad 00000BDF 		.4byte	0xbdf
 9303 0bb1 05       		.uleb128 0x5
 9304 0bb2 00000CFD 		.4byte	0xcfd
 9305 0bb6 00000000 		.4byte	.LLST89
 9306 0bba 00000000 		.4byte	.LVUS89
 9307 0bbe 04       		.uleb128 0x4
 9308 0bbf 00000000 		.4byte	.LLRL88
 9309 0bc3 01       		.uleb128 0x1
 9310 0bc4 00000D08 		.4byte	0xd08
 9311 0bc8 00000000 		.4byte	.LLST90
 9312 0bcc 00000000 		.4byte	.LVUS90
 9313 0bd0 01       		.uleb128 0x1
 9314 0bd1 00000D11 		.4byte	0xd11
 9315 0bd5 00000000 		.4byte	.LLST91
 9316 0bd9 00000000 		.4byte	.LVUS91
 9317 0bdd 00       		.byte	0
 9318 0bde 00       		.byte	0
 9319 0bdf 0B       		.uleb128 0xb
 9320 0be0 00000CF4 		.4byte	0xcf4
 9321 0be4 00000000 		.4byte	.LBI168
 9322 0be8 0001     		.2byte	.LVU1114
 9323 0bea 00000000 		.4byte	.LLRL92
 9324 0bee CF       		.byte	0xcf
 9325 0bef 00000C21 		.4byte	0xc21
 9326 0bf3 05       		.uleb128 0x5
 9327 0bf4 00000CFD 		.4byte	0xcfd
 9328 0bf8 00000000 		.4byte	.LLST93
 9329 0bfc 00000000 		.4byte	.LVUS93
 9330 0c00 04       		.uleb128 0x4
 9331 0c01 00000000 		.4byte	.LLRL92
 9332 0c05 01       		.uleb128 0x1
 9333 0c06 00000D08 		.4byte	0xd08
 9334 0c0a 00000000 		.4byte	.LLST94
 9335 0c0e 00000000 		.4byte	.LVUS94
 9336 0c12 01       		.uleb128 0x1
 9337 0c13 00000D11 		.4byte	0xd11
 9338 0c17 00000000 		.4byte	.LLST95
 9339 0c1b 00000000 		.4byte	.LVUS95
 9340 0c1f 00       		.byte	0
 9341 0c20 00       		.byte	0
 9342 0c21 0B       		.uleb128 0xb
 9343 0c22 00000CF4 		.4byte	0xcf4
 9344 0c26 00000000 		.4byte	.LBI173
 9345 0c2a 0008     		.2byte	.LVU1121
 9346 0c2c 00000000 		.4byte	.LLRL96
 9347 0c30 D0       		.byte	0xd0
 9348 0c31 00000C63 		.4byte	0xc63
 9349 0c35 05       		.uleb128 0x5
 9350 0c36 00000CFD 		.4byte	0xcfd
 9351 0c3a 00000000 		.4byte	.LLST97
 9352 0c3e 00000000 		.4byte	.LVUS97
 9353 0c42 04       		.uleb128 0x4
 9354 0c43 00000000 		.4byte	.LLRL96
 9355 0c47 01       		.uleb128 0x1
 9356 0c48 00000D08 		.4byte	0xd08
 9357 0c4c 00000000 		.4byte	.LLST98
 9358 0c50 00000000 		.4byte	.LVUS98
 9359 0c54 01       		.uleb128 0x1
 9360 0c55 00000D11 		.4byte	0xd11
 9361 0c59 00000000 		.4byte	.LLST99
 9362 0c5d 00000000 		.4byte	.LVUS99
 9363 0c61 00       		.byte	0
 9364 0c62 00       		.byte	0
 9365 0c63 23       		.uleb128 0x23
 9366 0c64 00000CF4 		.4byte	0xcf4
 9367 0c68 00000000 		.4byte	.LBI178
 9368 0c6c 0001     		.2byte	.LVU1129
 9369 0c6e 00000000 		.4byte	.LLRL100
 9370 0c72 D1       		.byte	0xd1
 9371 0c73 05       		.uleb128 0x5
 9372 0c74 00000CFD 		.4byte	0xcfd
 9373 0c78 00000000 		.4byte	.LLST101
 9374 0c7c 00000000 		.4byte	.LVUS101
 9375 0c80 04       		.uleb128 0x4
 9376 0c81 00000000 		.4byte	.LLRL100
 9377 0c85 01       		.uleb128 0x1
 9378 0c86 00000D08 		.4byte	0xd08
 9379 0c8a 00000000 		.4byte	.LLST102
 9380 0c8e 00000000 		.4byte	.LVUS102
 9381 0c92 01       		.uleb128 0x1
 9382 0c93 00000D11 		.4byte	0xd11
 9383 0c97 00000000 		.4byte	.LLST103
 9384 0c9b 00000000 		.4byte	.LVUS103
 9385 0c9f 00       		.byte	0
 9386 0ca0 00       		.byte	0
 9387 0ca1 00       		.byte	0
 9388 0ca2 00       		.byte	0
 9389 0ca3 00       		.byte	0
 9390 0ca4 0A       		.uleb128 0xa
 9391 0ca5 00000000 		.4byte	.LVL137
 9392 0ca9 0000033B 		.4byte	0x33b
 9393 0cad 00000CBE 		.4byte	0xcbe
 9394 0cb1 02       		.uleb128 0x2
 9395 0cb2 01       		.uleb128 0x1
 9396 0cb3 53       		.byte	0x53
 9397 0cb4 02       		.uleb128 0x2
 9398 0cb5 08       		.byte	0x8
 9399 0cb6 20       		.byte	0x20
 9400 0cb7 02       		.uleb128 0x2
 9401 0cb8 01       		.uleb128 0x1
 9402 0cb9 54       		.byte	0x54
 9403 0cba 02       		.uleb128 0x2
 9404 0cbb 8E       		.byte	0x8e
 9405 0cbc 00       		.sleb128 0
 9406 0cbd 00       		.byte	0
 9407 0cbe 0A       		.uleb128 0xa
 9408 0cbf 00000000 		.4byte	.LVL139
 9409 0cc3 0000150D 		.4byte	0x150d
 9410 0cc7 00000CDD 		.4byte	0xcdd
 9411 0ccb 02       		.uleb128 0x2
 9412 0ccc 01       		.uleb128 0x1
 9413 0ccd 53       		.byte	0x53
 9414 0cce 02       		.uleb128 0x2
 9415 0ccf 8D       		.byte	0x8d
 9416 0cd0 00       		.sleb128 0
 9417 0cd1 02       		.uleb128 0x2
 9418 0cd2 01       		.uleb128 0x1
 9419 0cd3 54       		.byte	0x54
 9420 0cd4 01       		.uleb128 0x1
 9421 0cd5 30       		.byte	0x30
 9422 0cd6 02       		.uleb128 0x2
 9423 0cd7 01       		.uleb128 0x1
 9424 0cd8 55       		.byte	0x55
 9425 0cd9 02       		.uleb128 0x2
 9426 0cda 8E       		.byte	0x8e
 9427 0cdb 00       		.sleb128 0
 9428 0cdc 00       		.byte	0
 9429 0cdd 11       		.uleb128 0x11
 9430 0cde 00000000 		.4byte	.LVL160
 9431 0ce2 00000304 		.4byte	0x304
 9432 0ce6 02       		.uleb128 0x2
 9433 0ce7 01       		.uleb128 0x1
 9434 0ce8 53       		.byte	0x53
 9435 0ce9 02       		.uleb128 0x2
 9436 0cea 8D       		.byte	0x8d
 9437 0ceb 00       		.sleb128 0
 9438 0cec 02       		.uleb128 0x2
 9439 0ced 01       		.uleb128 0x1
 9440 0cee 54       		.byte	0x54
 9441 0cef 02       		.uleb128 0x2
 9442 0cf0 8E       		.byte	0x8e
 9443 0cf1 00       		.sleb128 0
 9444 0cf2 00       		.byte	0
 9445 0cf3 00       		.byte	0
 9446 0cf4 19       		.uleb128 0x19
 9447 0cf5 00000284 		.4byte	0x284
 9448 0cf9 00000D1B 		.4byte	0xd1b
 9449 0cfd 24       		.uleb128 0x24
 9450 0cfe 00000000 		.4byte	.LASF53
 9451 0d02 AF       		.byte	0xaf
 9452 0d03 31       		.byte	0x31
 9453 0d04 0000009F 		.4byte	0x9f
 9454 0d08 1A       		.uleb128 0x1a
 9455 0d09 6900     		.string	"i"
 9456 0d0b B0       		.byte	0xb0
 9457 0d0c 0A       		.byte	0xa
 9458 0d0d 00000087 		.4byte	0x87
 9459 0d11 1A       		.uleb128 0x1a
 9460 0d12 6100     		.string	"a"
 9461 0d14 B0       		.byte	0xb0
 9462 0d15 0D       		.byte	0xd
 9463 0d16 00000087 		.4byte	0x87
 9464 0d1a 00       		.byte	0
 9465 0d1b 10       		.uleb128 0x10
 9466 0d1c 000001BA 		.4byte	0x1ba
 9467 0d20 00000000 		.4byte	.LFB71
 9468 0d24 000004E4 		.4byte	.LFE71-.LFB71
 9469 0d28 01       		.uleb128 0x1
 9470 0d29 9C       		.byte	0x9c
 9471 0d2a 0000105E 		.4byte	0x105e
 9472 0d2e 07       		.uleb128 0x7
 9473 0d2f 00000000 		.4byte	.LASF45
 9474 0d33 8B       		.byte	0x8b
 9475 0d34 35       		.byte	0x35
 9476 0d35 000002FF 		.4byte	0x2ff
 9477 0d39 00000000 		.4byte	.LLST29
 9478 0d3d 00000000 		.4byte	.LVUS29
 9479 0d41 07       		.uleb128 0x7
 9480 0d42 00000000 		.4byte	.LASF46
 9481 0d46 8B       		.byte	0x8b
 9482 0d47 4A       		.byte	0x4a
 9483 0d48 00000093 		.4byte	0x93
 9484 0d4c 00000000 		.4byte	.LLST30
 9485 0d50 00000000 		.4byte	.LVUS30
 9486 0d54 07       		.uleb128 0x7
 9487 0d55 00000000 		.4byte	.LASF47
 9488 0d59 8B       		.byte	0x8b
 9489 0d5a 60       		.byte	0x60
 9490 0d5b 00000093 		.4byte	0x93
 9491 0d5f 00000000 		.4byte	.LLST31
 9492 0d63 00000000 		.4byte	.LVUS31
 9493 0d67 08       		.uleb128 0x8
 9494 0d68 00000000 		.4byte	.LASF48
 9495 0d6c 8C       		.byte	0x8c
 9496 0d6d 0B       		.byte	0xb
 9497 0d6e 0000009F 		.4byte	0x9f
 9498 0d72 00000000 		.4byte	.LLST32
 9499 0d76 00000000 		.4byte	.LVUS32
 9500 0d7a 08       		.uleb128 0x8
 9501 0d7b 00000000 		.4byte	.LASF57
 9502 0d7f 8D       		.byte	0x8d
 9503 0d80 0C       		.byte	0xc
 9504 0d81 000002FF 		.4byte	0x2ff
 9505 0d85 00000000 		.4byte	.LLST33
 9506 0d89 00000000 		.4byte	.LVUS33
 9507 0d8d 06       		.uleb128 0x6
 9508 0d8e 73726300 		.string	"src"
 9509 0d92 90       		.byte	0x90
 9510 0d93 0C       		.byte	0xc
 9511 0d94 000002FF 		.4byte	0x2ff
 9512 0d98 00000000 		.4byte	.LLST34
 9513 0d9c 00000000 		.4byte	.LVUS34
 9514 0da0 06       		.uleb128 0x6
 9515 0da1 64737400 		.string	"dst"
 9516 0da5 91       		.byte	0x91
 9517 0da6 0B       		.byte	0xb
 9518 0da7 00000AB4 		.4byte	0xab4
 9519 0dab 00000000 		.4byte	.LLST35
 9520 0daf 00000000 		.4byte	.LVUS35
 9521 0db3 0D       		.uleb128 0xd
 9522 0db4 00000000 		.4byte	.LLRL36
 9523 0db8 0000100E 		.4byte	0x100e
 9524 0dbc 06       		.uleb128 0x6
 9525 0dbd 7900     		.string	"y"
 9526 0dbf 93       		.byte	0x93
 9527 0dc0 0F       		.byte	0xf
 9528 0dc1 00000093 		.4byte	0x93
 9529 0dc5 00000000 		.4byte	.LLST37
 9530 0dc9 00000000 		.4byte	.LVUS37
 9531 0dcd 17       		.uleb128 0x17
 9532 0dce 00000000 		.4byte	.LBB64
 9533 0dd2 000003D0 		.4byte	.LBE64-.LBB64
 9534 0dd6 06       		.uleb128 0x6
 9535 0dd7 7800     		.string	"x"
 9536 0dd9 94       		.byte	0x94
 9537 0dda 10       		.byte	0x10
 9538 0ddb 00000093 		.4byte	0x93
 9539 0ddf 00000000 		.4byte	.LLST38
 9540 0de3 00000000 		.4byte	.LVUS38
 9541 0de7 04       		.uleb128 0x4
 9542 0de8 00000000 		.4byte	.LLRL39
 9543 0dec 08       		.uleb128 0x8
 9544 0ded 00000000 		.4byte	.LASF50
 9545 0df1 95       		.byte	0x95
 9546 0df2 11       		.byte	0x11
 9547 0df3 00000093 		.4byte	0x93
 9548 0df7 00000000 		.4byte	.LLST40
 9549 0dfb 00000000 		.4byte	.LVUS40
 9550 0dff 0B       		.uleb128 0xb
 9551 0e00 0000105E 		.4byte	0x105e
 9552 0e04 00000000 		.4byte	.LBI66
 9553 0e08 0000     		.2byte	.LVU565
 9554 0e0a 00000000 		.4byte	.LLRL41
 9555 0e0e 96       		.byte	0x96
 9556 0e0f 00000E41 		.4byte	0xe41
 9557 0e13 05       		.uleb128 0x5
 9558 0e14 00001067 		.4byte	0x1067
 9559 0e18 00000000 		.4byte	.LLST42
 9560 0e1c 00000000 		.4byte	.LVUS42
 9561 0e20 04       		.uleb128 0x4
 9562 0e21 00000000 		.4byte	.LLRL41
 9563 0e25 01       		.uleb128 0x1
 9564 0e26 00001072 		.4byte	0x1072
 9565 0e2a 00000000 		.4byte	.LLST43
 9566 0e2e 00000000 		.4byte	.LVUS43
 9567 0e32 01       		.uleb128 0x1
 9568 0e33 0000107B 		.4byte	0x107b
 9569 0e37 00000000 		.4byte	.LLST44
 9570 0e3b 00000000 		.4byte	.LVUS44
 9571 0e3f 00       		.byte	0
 9572 0e40 00       		.byte	0
 9573 0e41 0B       		.uleb128 0xb
 9574 0e42 0000105E 		.4byte	0x105e
 9575 0e46 00000000 		.4byte	.LBI74
 9576 0e4a 0000     		.2byte	.LVU584
 9577 0e4c 00000000 		.4byte	.LLRL45
 9578 0e50 97       		.byte	0x97
 9579 0e51 00000E83 		.4byte	0xe83
 9580 0e55 05       		.uleb128 0x5
 9581 0e56 00001067 		.4byte	0x1067
 9582 0e5a 00000000 		.4byte	.LLST46
 9583 0e5e 00000000 		.4byte	.LVUS46
 9584 0e62 04       		.uleb128 0x4
 9585 0e63 00000000 		.4byte	.LLRL45
 9586 0e67 01       		.uleb128 0x1
 9587 0e68 00001072 		.4byte	0x1072
 9588 0e6c 00000000 		.4byte	.LLST47
 9589 0e70 00000000 		.4byte	.LVUS47
 9590 0e74 01       		.uleb128 0x1
 9591 0e75 0000107B 		.4byte	0x107b
 9592 0e79 00000000 		.4byte	.LLST48
 9593 0e7d 00000000 		.4byte	.LVUS48
 9594 0e81 00       		.byte	0
 9595 0e82 00       		.byte	0
 9596 0e83 0B       		.uleb128 0xb
 9597 0e84 0000105E 		.4byte	0x105e
 9598 0e88 00000000 		.4byte	.LBI82
 9599 0e8c 0000     		.2byte	.LVU603
 9600 0e8e 00000000 		.4byte	.LLRL49
 9601 0e92 98       		.byte	0x98
 9602 0e93 00000EC5 		.4byte	0xec5
 9603 0e97 05       		.uleb128 0x5
 9604 0e98 00001067 		.4byte	0x1067
 9605 0e9c 00000000 		.4byte	.LLST50
 9606 0ea0 00000000 		.4byte	.LVUS50
 9607 0ea4 04       		.uleb128 0x4
 9608 0ea5 00000000 		.4byte	.LLRL49
 9609 0ea9 01       		.uleb128 0x1
 9610 0eaa 00001072 		.4byte	0x1072
 9611 0eae 00000000 		.4byte	.LLST51
 9612 0eb2 00000000 		.4byte	.LVUS51
 9613 0eb6 01       		.uleb128 0x1
 9614 0eb7 0000107B 		.4byte	0x107b
 9615 0ebb 00000000 		.4byte	.LLST52
 9616 0ebf 00000000 		.4byte	.LVUS52
 9617 0ec3 00       		.byte	0
 9618 0ec4 00       		.byte	0
 9619 0ec5 0B       		.uleb128 0xb
 9620 0ec6 0000105E 		.4byte	0x105e
 9621 0eca 00000000 		.4byte	.LBI90
 9622 0ece 0000     		.2byte	.LVU622
 9623 0ed0 00000000 		.4byte	.LLRL53
 9624 0ed4 99       		.byte	0x99
 9625 0ed5 00000F07 		.4byte	0xf07
 9626 0ed9 05       		.uleb128 0x5
 9627 0eda 00001067 		.4byte	0x1067
 9628 0ede 00000000 		.4byte	.LLST54
 9629 0ee2 00000000 		.4byte	.LVUS54
 9630 0ee6 04       		.uleb128 0x4
 9631 0ee7 00000000 		.4byte	.LLRL53
 9632 0eeb 01       		.uleb128 0x1
 9633 0eec 00001072 		.4byte	0x1072
 9634 0ef0 00000000 		.4byte	.LLST55
 9635 0ef4 00000000 		.4byte	.LVUS55
 9636 0ef8 01       		.uleb128 0x1
 9637 0ef9 0000107B 		.4byte	0x107b
 9638 0efd 00000000 		.4byte	.LLST56
 9639 0f01 00000000 		.4byte	.LVUS56
 9640 0f05 00       		.byte	0
 9641 0f06 00       		.byte	0
 9642 0f07 0B       		.uleb128 0xb
 9643 0f08 0000105E 		.4byte	0x105e
 9644 0f0c 00000000 		.4byte	.LBI98
 9645 0f10 0000     		.2byte	.LVU641
 9646 0f12 00000000 		.4byte	.LLRL57
 9647 0f16 9A       		.byte	0x9a
 9648 0f17 00000F49 		.4byte	0xf49
 9649 0f1b 05       		.uleb128 0x5
 9650 0f1c 00001067 		.4byte	0x1067
 9651 0f20 00000000 		.4byte	.LLST58
 9652 0f24 00000000 		.4byte	.LVUS58
 9653 0f28 04       		.uleb128 0x4
 9654 0f29 00000000 		.4byte	.LLRL57
 9655 0f2d 01       		.uleb128 0x1
 9656 0f2e 00001072 		.4byte	0x1072
 9657 0f32 00000000 		.4byte	.LLST59
 9658 0f36 00000000 		.4byte	.LVUS59
 9659 0f3a 01       		.uleb128 0x1
 9660 0f3b 0000107B 		.4byte	0x107b
 9661 0f3f 00000000 		.4byte	.LLST60
 9662 0f43 00000000 		.4byte	.LVUS60
 9663 0f47 00       		.byte	0
 9664 0f48 00       		.byte	0
 9665 0f49 0B       		.uleb128 0xb
 9666 0f4a 0000105E 		.4byte	0x105e
 9667 0f4e 00000000 		.4byte	.LBI106
 9668 0f52 0000     		.2byte	.LVU656
 9669 0f54 00000000 		.4byte	.LLRL61
 9670 0f58 9B       		.byte	0x9b
 9671 0f59 00000F8B 		.4byte	0xf8b
 9672 0f5d 05       		.uleb128 0x5
 9673 0f5e 00001067 		.4byte	0x1067
 9674 0f62 00000000 		.4byte	.LLST62
 9675 0f66 00000000 		.4byte	.LVUS62
 9676 0f6a 04       		.uleb128 0x4
 9677 0f6b 00000000 		.4byte	.LLRL61
 9678 0f6f 01       		.uleb128 0x1
 9679 0f70 00001072 		.4byte	0x1072
 9680 0f74 00000000 		.4byte	.LLST63
 9681 0f78 00000000 		.4byte	.LVUS63
 9682 0f7c 01       		.uleb128 0x1
 9683 0f7d 0000107B 		.4byte	0x107b
 9684 0f81 00000000 		.4byte	.LLST64
 9685 0f85 00000000 		.4byte	.LVUS64
 9686 0f89 00       		.byte	0
 9687 0f8a 00       		.byte	0
 9688 0f8b 0B       		.uleb128 0xb
 9689 0f8c 0000105E 		.4byte	0x105e
 9690 0f90 00000000 		.4byte	.LBI112
 9691 0f94 0000     		.2byte	.LVU668
 9692 0f96 00000000 		.4byte	.LLRL65
 9693 0f9a 9C       		.byte	0x9c
 9694 0f9b 00000FCD 		.4byte	0xfcd
 9695 0f9f 05       		.uleb128 0x5
 9696 0fa0 00001067 		.4byte	0x1067
 9697 0fa4 00000000 		.4byte	.LLST66
 9698 0fa8 00000000 		.4byte	.LVUS66
 9699 0fac 04       		.uleb128 0x4
 9700 0fad 00000000 		.4byte	.LLRL65
 9701 0fb1 01       		.uleb128 0x1
 9702 0fb2 00001072 		.4byte	0x1072
 9703 0fb6 00000000 		.4byte	.LLST67
 9704 0fba 00000000 		.4byte	.LVUS67
 9705 0fbe 01       		.uleb128 0x1
 9706 0fbf 0000107B 		.4byte	0x107b
 9707 0fc3 00000000 		.4byte	.LLST68
 9708 0fc7 00000000 		.4byte	.LVUS68
 9709 0fcb 00       		.byte	0
 9710 0fcc 00       		.byte	0
 9711 0fcd 23       		.uleb128 0x23
 9712 0fce 0000105E 		.4byte	0x105e
 9713 0fd2 00000000 		.4byte	.LBI118
 9714 0fd6 0000     		.2byte	.LVU680
 9715 0fd8 00000000 		.4byte	.LLRL69
 9716 0fdc 9D       		.byte	0x9d
 9717 0fdd 05       		.uleb128 0x5
 9718 0fde 00001067 		.4byte	0x1067
 9719 0fe2 00000000 		.4byte	.LLST70
 9720 0fe6 00000000 		.4byte	.LVUS70
 9721 0fea 04       		.uleb128 0x4
 9722 0feb 00000000 		.4byte	.LLRL69
 9723 0fef 01       		.uleb128 0x1
 9724 0ff0 00001072 		.4byte	0x1072
 9725 0ff4 00000000 		.4byte	.LLST71
 9726 0ff8 00000000 		.4byte	.LVUS71
 9727 0ffc 01       		.uleb128 0x1
 9728 0ffd 0000107B 		.4byte	0x107b
 9729 1001 00000000 		.4byte	.LLST72
 9730 1005 00000000 		.4byte	.LVUS72
 9731 1009 00       		.byte	0
 9732 100a 00       		.byte	0
 9733 100b 00       		.byte	0
 9734 100c 00       		.byte	0
 9735 100d 00       		.byte	0
 9736 100e 0A       		.uleb128 0xa
 9737 100f 00000000 		.4byte	.LVL79
 9738 1013 0000033B 		.4byte	0x33b
 9739 1017 00001028 		.4byte	0x1028
 9740 101b 02       		.uleb128 0x2
 9741 101c 01       		.uleb128 0x1
 9742 101d 53       		.byte	0x53
 9743 101e 02       		.uleb128 0x2
 9744 101f 08       		.byte	0x8
 9745 1020 20       		.byte	0x20
 9746 1021 02       		.uleb128 0x2
 9747 1022 01       		.uleb128 0x1
 9748 1023 54       		.byte	0x54
 9749 1024 02       		.uleb128 0x2
 9750 1025 8D       		.byte	0x8d
 9751 1026 00       		.sleb128 0
 9752 1027 00       		.byte	0
 9753 1028 0A       		.uleb128 0xa
 9754 1029 00000000 		.4byte	.LVL81
 9755 102d 0000150D 		.4byte	0x150d
 9756 1031 00001047 		.4byte	0x1047
 9757 1035 02       		.uleb128 0x2
 9758 1036 01       		.uleb128 0x1
 9759 1037 53       		.byte	0x53
 9760 1038 02       		.uleb128 0x2
 9761 1039 8E       		.byte	0x8e
 9762 103a 00       		.sleb128 0
 9763 103b 02       		.uleb128 0x2
 9764 103c 01       		.uleb128 0x1
 9765 103d 54       		.byte	0x54
 9766 103e 01       		.uleb128 0x1
 9767 103f 30       		.byte	0x30
 9768 1040 02       		.uleb128 0x2
 9769 1041 01       		.uleb128 0x1
 9770 1042 55       		.byte	0x55
 9771 1043 02       		.uleb128 0x2
 9772 1044 8D       		.byte	0x8d
 9773 1045 00       		.sleb128 0
 9774 1046 00       		.byte	0
 9775 1047 11       		.uleb128 0x11
 9776 1048 00000000 		.4byte	.LVL125
 9777 104c 00000304 		.4byte	0x304
 9778 1050 02       		.uleb128 0x2
 9779 1051 01       		.uleb128 0x1
 9780 1052 53       		.byte	0x53
 9781 1053 02       		.uleb128 0x2
 9782 1054 8E       		.byte	0x8e
 9783 1055 00       		.sleb128 0
 9784 1056 02       		.uleb128 0x2
 9785 1057 01       		.uleb128 0x1
 9786 1058 54       		.byte	0x54
 9787 1059 02       		.uleb128 0x2
 9788 105a 8D       		.byte	0x8d
 9789 105b 00       		.sleb128 0
 9790 105c 00       		.byte	0
 9791 105d 00       		.byte	0
 9792 105e 19       		.uleb128 0x19
 9793 105f 0000026B 		.4byte	0x26b
 9794 1063 00001085 		.4byte	0x1085
 9795 1067 24       		.uleb128 0x24
 9796 1068 00000000 		.4byte	.LASF53
 9797 106c 77       		.byte	0x77
 9798 106d 30       		.byte	0x30
 9799 106e 0000009F 		.4byte	0x9f
 9800 1072 1A       		.uleb128 0x1a
 9801 1073 6900     		.string	"i"
 9802 1075 78       		.byte	0x78
 9803 1076 0A       		.byte	0xa
 9804 1077 00000087 		.4byte	0x87
 9805 107b 1A       		.uleb128 0x1a
 9806 107c 6100     		.string	"a"
 9807 107e 78       		.byte	0x78
 9808 107f 0D       		.byte	0xd
 9809 1080 00000087 		.4byte	0x87
 9810 1084 00       		.byte	0
 9811 1085 10       		.uleb128 0x10
 9812 1086 00000197 		.4byte	0x197
 9813 108a 00000000 		.4byte	.LFB69
 9814 108e 00000364 		.4byte	.LFE69-.LFB69
 9815 1092 01       		.uleb128 0x1
 9816 1093 9C       		.byte	0x9c
 9817 1094 000011BC 		.4byte	0x11bc
 9818 1098 07       		.uleb128 0x7
 9819 1099 00000000 		.4byte	.LASF45
 9820 109d 53       		.byte	0x53
 9821 109e 34       		.byte	0x34
 9822 109f 000002FF 		.4byte	0x2ff
 9823 10a3 00000000 		.4byte	.LLST14
 9824 10a7 00000000 		.4byte	.LVUS14
 9825 10ab 07       		.uleb128 0x7
 9826 10ac 00000000 		.4byte	.LASF46
 9827 10b0 53       		.byte	0x53
 9828 10b1 49       		.byte	0x49
 9829 10b2 00000093 		.4byte	0x93
 9830 10b6 00000000 		.4byte	.LLST15
 9831 10ba 00000000 		.4byte	.LVUS15
 9832 10be 07       		.uleb128 0x7
 9833 10bf 00000000 		.4byte	.LASF47
 9834 10c3 53       		.byte	0x53
 9835 10c4 5F       		.byte	0x5f
 9836 10c5 00000093 		.4byte	0x93
 9837 10c9 00000000 		.4byte	.LLST16
 9838 10cd 00000000 		.4byte	.LVUS16
 9839 10d1 08       		.uleb128 0x8
 9840 10d2 00000000 		.4byte	.LASF48
 9841 10d6 54       		.byte	0x54
 9842 10d7 0B       		.byte	0xb
 9843 10d8 0000009F 		.4byte	0x9f
 9844 10dc 00000000 		.4byte	.LLST17
 9845 10e0 00000000 		.4byte	.LVUS17
 9846 10e4 08       		.uleb128 0x8
 9847 10e5 00000000 		.4byte	.LASF58
 9848 10e9 55       		.byte	0x55
 9849 10ea 0C       		.byte	0xc
 9850 10eb 000002FF 		.4byte	0x2ff
 9851 10ef 00000000 		.4byte	.LLST18
 9852 10f3 00000000 		.4byte	.LVUS18
 9853 10f7 06       		.uleb128 0x6
 9854 10f8 73726300 		.string	"src"
 9855 10fc 58       		.byte	0x58
 9856 10fd 0C       		.byte	0xc
 9857 10fe 000002FF 		.4byte	0x2ff
 9858 1102 00000000 		.4byte	.LLST19
 9859 1106 00000000 		.4byte	.LVUS19
 9860 110a 06       		.uleb128 0x6
 9861 110b 64737400 		.string	"dst"
 9862 110f 59       		.byte	0x59
 9863 1110 0B       		.byte	0xb
 9864 1111 00000AB4 		.4byte	0xab4
 9865 1115 00000000 		.4byte	.LLST20
 9866 1119 00000000 		.4byte	.LVUS20
 9867 111d 0D       		.uleb128 0xd
 9868 111e 00000000 		.4byte	.LLRL21
 9869 1122 0000116C 		.4byte	0x116c
 9870 1126 06       		.uleb128 0x6
 9871 1127 7900     		.string	"y"
 9872 1129 5B       		.byte	0x5b
 9873 112a 0F       		.byte	0xf
 9874 112b 00000093 		.4byte	0x93
 9875 112f 00000000 		.4byte	.LLST22
 9876 1133 00000000 		.4byte	.LVUS22
 9877 1137 17       		.uleb128 0x17
 9878 1138 00000000 		.4byte	.LBB57
 9879 113c 00000250 		.4byte	.LBE57-.LBB57
 9880 1140 06       		.uleb128 0x6
 9881 1141 7800     		.string	"x"
 9882 1143 5C       		.byte	0x5c
 9883 1144 10       		.byte	0x10
 9884 1145 00000093 		.4byte	0x93
 9885 1149 00000000 		.4byte	.LLST23
 9886 114d 00000000 		.4byte	.LVUS23
 9887 1151 04       		.uleb128 0x4
 9888 1152 00000000 		.4byte	.LLRL24
 9889 1156 08       		.uleb128 0x8
 9890 1157 00000000 		.4byte	.LASF50
 9891 115b 5D       		.byte	0x5d
 9892 115c 11       		.byte	0x11
 9893 115d 00000093 		.4byte	0x93
 9894 1161 00000000 		.4byte	.LLST25
 9895 1165 00000000 		.4byte	.LVUS25
 9896 1169 00       		.byte	0
 9897 116a 00       		.byte	0
 9898 116b 00       		.byte	0
 9899 116c 0A       		.uleb128 0xa
 9900 116d 00000000 		.4byte	.LVL44
 9901 1171 0000033B 		.4byte	0x33b
 9902 1175 00001186 		.4byte	0x1186
 9903 1179 02       		.uleb128 0x2
 9904 117a 01       		.uleb128 0x1
 9905 117b 53       		.byte	0x53
 9906 117c 02       		.uleb128 0x2
 9907 117d 08       		.byte	0x8
 9908 117e 20       		.byte	0x20
 9909 117f 02       		.uleb128 0x2
 9910 1180 01       		.uleb128 0x1
 9911 1181 54       		.byte	0x54
 9912 1182 02       		.uleb128 0x2
 9913 1183 8D       		.byte	0x8d
 9914 1184 00       		.sleb128 0
 9915 1185 00       		.byte	0
 9916 1186 0A       		.uleb128 0xa
 9917 1187 00000000 		.4byte	.LVL46
 9918 118b 0000150D 		.4byte	0x150d
 9919 118f 000011A5 		.4byte	0x11a5
 9920 1193 02       		.uleb128 0x2
 9921 1194 01       		.uleb128 0x1
 9922 1195 53       		.byte	0x53
 9923 1196 02       		.uleb128 0x2
 9924 1197 8E       		.byte	0x8e
 9925 1198 00       		.sleb128 0
 9926 1199 02       		.uleb128 0x2
 9927 119a 01       		.uleb128 0x1
 9928 119b 54       		.byte	0x54
 9929 119c 01       		.uleb128 0x1
 9930 119d 30       		.byte	0x30
 9931 119e 02       		.uleb128 0x2
 9932 119f 01       		.uleb128 0x1
 9933 11a0 55       		.byte	0x55
 9934 11a1 02       		.uleb128 0x2
 9935 11a2 8D       		.byte	0x8d
 9936 11a3 00       		.sleb128 0
 9937 11a4 00       		.byte	0
 9938 11a5 11       		.uleb128 0x11
 9939 11a6 00000000 		.4byte	.LVL67
 9940 11aa 00000304 		.4byte	0x304
 9941 11ae 02       		.uleb128 0x2
 9942 11af 01       		.uleb128 0x1
 9943 11b0 53       		.byte	0x53
 9944 11b1 02       		.uleb128 0x2
 9945 11b2 8E       		.byte	0x8e
 9946 11b3 00       		.sleb128 0
 9947 11b4 02       		.uleb128 0x2
 9948 11b5 01       		.uleb128 0x1
 9949 11b6 54       		.byte	0x54
 9950 11b7 02       		.uleb128 0x2
 9951 11b8 8D       		.byte	0x8d
 9952 11b9 00       		.sleb128 0
 9953 11ba 00       		.byte	0
 9954 11bb 00       		.byte	0
 9955 11bc 10       		.uleb128 0x10
 9956 11bd 00000174 		.4byte	0x174
 9957 11c1 00000000 		.4byte	.LFB68
 9958 11c5 00000534 		.4byte	.LFE68-.LFB68
 9959 11c9 01       		.uleb128 0x1
 9960 11ca 9C       		.byte	0x9c
 9961 11cb 000012F3 		.4byte	0x12f3
 9962 11cf 07       		.uleb128 0x7
 9963 11d0 00000000 		.4byte	.LASF45
 9964 11d4 31       		.byte	0x31
 9965 11d5 34       		.byte	0x34
 9966 11d6 000002FF 		.4byte	0x2ff
 9967 11da 00000000 		.4byte	.LLST2
 9968 11de 00000000 		.4byte	.LVUS2
 9969 11e2 07       		.uleb128 0x7
 9970 11e3 00000000 		.4byte	.LASF46
 9971 11e7 31       		.byte	0x31
 9972 11e8 49       		.byte	0x49
 9973 11e9 00000093 		.4byte	0x93
 9974 11ed 00000000 		.4byte	.LLST3
 9975 11f1 00000000 		.4byte	.LVUS3
 9976 11f5 07       		.uleb128 0x7
 9977 11f6 00000000 		.4byte	.LASF47
 9978 11fa 31       		.byte	0x31
 9979 11fb 5F       		.byte	0x5f
 9980 11fc 00000093 		.4byte	0x93
 9981 1200 00000000 		.4byte	.LLST4
 9982 1204 00000000 		.4byte	.LVUS4
 9983 1208 08       		.uleb128 0x8
 9984 1209 00000000 		.4byte	.LASF48
 9985 120d 32       		.byte	0x32
 9986 120e 0B       		.byte	0xb
 9987 120f 0000009F 		.4byte	0x9f
 9988 1213 00000000 		.4byte	.LLST5
 9989 1217 00000000 		.4byte	.LVUS5
 9990 121b 08       		.uleb128 0x8
 9991 121c 00000000 		.4byte	.LASF59
 9992 1220 33       		.byte	0x33
 9993 1221 0C       		.byte	0xc
 9994 1222 000002FF 		.4byte	0x2ff
 9995 1226 00000000 		.4byte	.LLST6
 9996 122a 00000000 		.4byte	.LVUS6
 9997 122e 06       		.uleb128 0x6
 9998 122f 73726300 		.string	"src"
 9999 1233 36       		.byte	0x36
 10000 1234 0C       		.byte	0xc
 10001 1235 000002FF 		.4byte	0x2ff
 10002 1239 00000000 		.4byte	.LLST7
 10003 123d 00000000 		.4byte	.LVUS7
 10004 1241 06       		.uleb128 0x6
 10005 1242 64737400 		.string	"dst"
 10006 1246 37       		.byte	0x37
 10007 1247 0B       		.byte	0xb
 10008 1248 00000AB4 		.4byte	0xab4
 10009 124c 00000000 		.4byte	.LLST8
 10010 1250 00000000 		.4byte	.LVUS8
 10011 1254 0D       		.uleb128 0xd
 10012 1255 00000000 		.4byte	.LLRL9
 10013 1259 000012A3 		.4byte	0x12a3
 10014 125d 06       		.uleb128 0x6
 10015 125e 7900     		.string	"y"
 10016 1260 39       		.byte	0x39
 10017 1261 0F       		.byte	0xf
 10018 1262 00000093 		.4byte	0x93
 10019 1266 00000000 		.4byte	.LLST10
 10020 126a 00000000 		.4byte	.LVUS10
 10021 126e 17       		.uleb128 0x17
 10022 126f 00000000 		.4byte	.LBB49
 10023 1273 0000041C 		.4byte	.LBE49-.LBB49
 10024 1277 06       		.uleb128 0x6
 10025 1278 7800     		.string	"x"
 10026 127a 3A       		.byte	0x3a
 10027 127b 10       		.byte	0x10
 10028 127c 00000093 		.4byte	0x93
 10029 1280 00000000 		.4byte	.LLST11
 10030 1284 00000000 		.4byte	.LVUS11
 10031 1288 04       		.uleb128 0x4
 10032 1289 00000000 		.4byte	.LLRL12
 10033 128d 08       		.uleb128 0x8
 10034 128e 00000000 		.4byte	.LASF50
 10035 1292 3B       		.byte	0x3b
 10036 1293 11       		.byte	0x11
 10037 1294 00000093 		.4byte	0x93
 10038 1298 00000000 		.4byte	.LLST13
 10039 129c 00000000 		.4byte	.LVUS13
 10040 12a0 00       		.byte	0
 10041 12a1 00       		.byte	0
 10042 12a2 00       		.byte	0
 10043 12a3 0A       		.uleb128 0xa
 10044 12a4 00000000 		.4byte	.LVL8
 10045 12a8 0000033B 		.4byte	0x33b
 10046 12ac 000012BD 		.4byte	0x12bd
 10047 12b0 02       		.uleb128 0x2
 10048 12b1 01       		.uleb128 0x1
 10049 12b2 53       		.byte	0x53
 10050 12b3 02       		.uleb128 0x2
 10051 12b4 08       		.byte	0x8
 10052 12b5 20       		.byte	0x20
 10053 12b6 02       		.uleb128 0x2
 10054 12b7 01       		.uleb128 0x1
 10055 12b8 54       		.byte	0x54
 10056 12b9 02       		.uleb128 0x2
 10057 12ba 8D       		.byte	0x8d
 10058 12bb 00       		.sleb128 0
 10059 12bc 00       		.byte	0
 10060 12bd 0A       		.uleb128 0xa
 10061 12be 00000000 		.4byte	.LVL10
 10062 12c2 0000150D 		.4byte	0x150d
 10063 12c6 000012DC 		.4byte	0x12dc
 10064 12ca 02       		.uleb128 0x2
 10065 12cb 01       		.uleb128 0x1
 10066 12cc 53       		.byte	0x53
 10067 12cd 02       		.uleb128 0x2
 10068 12ce 8E       		.byte	0x8e
 10069 12cf 00       		.sleb128 0
 10070 12d0 02       		.uleb128 0x2
 10071 12d1 01       		.uleb128 0x1
 10072 12d2 54       		.byte	0x54
 10073 12d3 01       		.uleb128 0x1
 10074 12d4 30       		.byte	0x30
 10075 12d5 02       		.uleb128 0x2
 10076 12d6 01       		.uleb128 0x1
 10077 12d7 55       		.byte	0x55
 10078 12d8 02       		.uleb128 0x2
 10079 12d9 8D       		.byte	0x8d
 10080 12da 00       		.sleb128 0
 10081 12db 00       		.byte	0
 10082 12dc 11       		.uleb128 0x11
 10083 12dd 00000000 		.4byte	.LVL34
 10084 12e1 00000304 		.4byte	0x304
 10085 12e5 02       		.uleb128 0x2
 10086 12e6 01       		.uleb128 0x1
 10087 12e7 53       		.byte	0x53
 10088 12e8 02       		.uleb128 0x2
 10089 12e9 8E       		.byte	0x8e
 10090 12ea 00       		.sleb128 0
 10091 12eb 02       		.uleb128 0x2
 10092 12ec 01       		.uleb128 0x1
 10093 12ed 54       		.byte	0x54
 10094 12ee 02       		.uleb128 0x2
 10095 12ef 8D       		.byte	0x8d
 10096 12f0 00       		.sleb128 0
 10097 12f1 00       		.byte	0
 10098 12f2 00       		.byte	0
 10099 12f3 25       		.uleb128 0x25
 10100 12f4 0000014F 		.4byte	0x14f
 10101 12f8 00001300 		.4byte	0x1300
 10102 12fc 00001313 		.4byte	0x1313
 10103 1300 1E       		.uleb128 0x1e
 10104 1301 00000000 		.4byte	.LASF60
 10105 1305 000002DA 		.4byte	0x2da
 10106 1309 1E       		.uleb128 0x1e
 10107 130a 00000000 		.4byte	.LASF61
 10108 130e 0000006F 		.4byte	0x6f
 10109 1312 00       		.byte	0
 10110 1313 1F       		.uleb128 0x1f
 10111 1314 000012F3 		.4byte	0x12f3
 10112 1318 00000000 		.4byte	.LASF62
 10113 131c 0000132E 		.4byte	0x132e
 10114 1320 00000000 		.4byte	.LFB67
 10115 1324 00000008 		.4byte	.LFE67-.LFB67
 10116 1328 01       		.uleb128 0x1
 10117 1329 9C       		.byte	0x9c
 10118 132a 00001380 		.4byte	0x1380
 10119 132e 05       		.uleb128 0x5
 10120 132f 00001300 		.4byte	0x1300
 10121 1333 00000000 		.4byte	.LLST0
 10122 1337 00000000 		.4byte	.LVUS0
 10123 133b 39       		.uleb128 0x39
 10124 133c 000012F3 		.4byte	0x12f3
 10125 1340 00000000 		.4byte	.LBI46
 10126 1344 0001     		.2byte	.LVU3
 10127 1346 00000000 		.4byte	.LBB46
 10128 134a 00000000 		.4byte	.LBE46-.LBB46
 10129 134e 01       		.byte	0x1
 10130 134f 24       		.byte	0x24
 10131 1350 01       		.byte	0x1
 10132 1351 00001363 		.4byte	0x1363
 10133 1355 05       		.uleb128 0x5
 10134 1356 00001300 		.4byte	0x1300
 10135 135a 00000000 		.4byte	.LLST1
 10136 135e 00000000 		.4byte	.LVUS1
 10137 1362 00       		.byte	0
 10138 1363 3A       		.uleb128 0x3a
 10139 1364 00000000 		.4byte	.LVL2
 10140 1368 00001516 		.4byte	0x1516
 10141 136c 02       		.uleb128 0x2
 10142 136d 01       		.uleb128 0x1
 10143 136e 53       		.byte	0x53
 10144 136f 09       		.uleb128 0x9
 10145 1370 A3       		.byte	0xa3
 10146 1371 03       		.uleb128 0x3
 10147 1372 A5       		.byte	0xa5
 10148 1373 03       		.uleb128 0x3
 10149 1374 2D       		.uleb128 0x2d
 10150 1375 A8       		.byte	0xa8
 10151 1376 26       		.uleb128 0x26
 10152 1377 A8       		.byte	0xa8
 10153 1378 00       		.uleb128 0
 10154 1379 02       		.uleb128 0x2
 10155 137a 01       		.uleb128 0x1
 10156 137b 54       		.byte	0x54
 10157 137c 01       		.uleb128 0x1
 10158 137d 34       		.byte	0x34
 10159 137e 00       		.byte	0
 10160 137f 00       		.byte	0
 10161 1380 1F       		.uleb128 0x1f
 10162 1381 000012F3 		.4byte	0x12f3
 10163 1385 00000000 		.4byte	.LASF63
 10164 1389 0000139B 		.4byte	0x139b
 10165 138d 00000000 		.4byte	.LFB65
 10166 1391 00000004 		.4byte	.LFE65-.LFB65
 10167 1395 01       		.uleb128 0x1
 10168 1396 9C       		.byte	0x9c
 10169 1397 000013A3 		.4byte	0x13a3
 10170 139b 26       		.uleb128 0x26
 10171 139c 00001300 		.4byte	0x1300
 10172 13a0 01       		.uleb128 0x1
 10173 13a1 53       		.byte	0x53
 10174 13a2 00       		.byte	0
 10175 13a3 25       		.uleb128 0x25
 10176 13a4 00000134 		.4byte	0x134
 10177 13a8 000013B0 		.4byte	0x13b0
 10178 13ac 000013BA 		.4byte	0x13ba
 10179 13b0 1E       		.uleb128 0x1e
 10180 13b1 00000000 		.4byte	.LASF60
 10181 13b5 000002DA 		.4byte	0x2da
 10182 13b9 00       		.byte	0
 10183 13ba 1F       		.uleb128 0x1f
 10184 13bb 000013A3 		.4byte	0x13a3
 10185 13bf 00000000 		.4byte	.LASF64
 10186 13c3 000013D5 		.4byte	0x13d5
 10187 13c7 00000000 		.4byte	.LFB62
 10188 13cb 00000010 		.4byte	.LFE62-.LFB62
 10189 13cf 01       		.uleb128 0x1
 10190 13d0 9C       		.byte	0x9c
 10191 13d1 000013DD 		.4byte	0x13dd
 10192 13d5 26       		.uleb128 0x26
 10193 13d6 000013B0 		.4byte	0x13b0
 10194 13da 01       		.uleb128 0x1
 10195 13db 53       		.byte	0x53
 10196 13dc 00       		.byte	0
 10197 13dd 1B       		.uleb128 0x1b
 10198 13de 0000105E 		.4byte	0x105e
 10199 13e2 00000000 		.4byte	.LASF38
 10200 13e6 00000000 		.4byte	.LFB70
 10201 13ea 00000010 		.4byte	.LFE70-.LFB70
 10202 13ee 01       		.uleb128 0x1
 10203 13ef 9C       		.byte	0x9c
 10204 13f0 0000141C 		.4byte	0x141c
 10205 13f4 05       		.uleb128 0x5
 10206 13f5 00001067 		.4byte	0x1067
 10207 13f9 00000000 		.4byte	.LLST26
 10208 13fd 00000000 		.4byte	.LVUS26
 10209 1401 01       		.uleb128 0x1
 10210 1402 00001072 		.4byte	0x1072
 10211 1406 00000000 		.4byte	.LLST27
 10212 140a 00000000 		.4byte	.LVUS27
 10213 140e 01       		.uleb128 0x1
 10214 140f 0000107B 		.4byte	0x107b
 10215 1413 00000000 		.4byte	.LLST28
 10216 1417 00000000 		.4byte	.LVUS28
 10217 141b 00       		.byte	0
 10218 141c 1B       		.uleb128 0x1b
 10219 141d 00000CF4 		.4byte	0xcf4
 10220 1421 00000000 		.4byte	.LASF40
 10221 1425 00000000 		.4byte	.LFB72
 10222 1429 00000008 		.4byte	.LFE72-.LFB72
 10223 142d 01       		.uleb128 0x1
 10224 142e 9C       		.byte	0x9c
 10225 142f 0000145B 		.4byte	0x145b
 10226 1433 05       		.uleb128 0x5
 10227 1434 00000CFD 		.4byte	0xcfd
 10228 1438 00000000 		.4byte	.LLST73
 10229 143c 00000000 		.4byte	.LVUS73
 10230 1440 01       		.uleb128 0x1
 10231 1441 00000D08 		.4byte	0xd08
 10232 1445 00000000 		.4byte	.LLST74
 10233 1449 00000000 		.4byte	.LVUS74
 10234 144d 01       		.uleb128 0x1
 10235 144e 00000D11 		.4byte	0xd11
 10236 1452 00000000 		.4byte	.LLST75
 10237 1456 00000000 		.4byte	.LVUS75
 10238 145a 00       		.byte	0
 10239 145b 1B       		.uleb128 0x1b
 10240 145c 000008FF 		.4byte	0x8ff
 10241 1460 00000000 		.4byte	.LASF42
 10242 1464 00000000 		.4byte	.LFB75
 10243 1468 0000004C 		.4byte	.LFE75-.LFB75
 10244 146c 01       		.uleb128 0x1
 10245 146d 9C       		.byte	0x9c
 10246 146e 000014A7 		.4byte	0x14a7
 10247 1472 05       		.uleb128 0x5
 10248 1473 00000908 		.4byte	0x908
 10249 1477 00000000 		.4byte	.LLST122
 10250 147b 00000000 		.4byte	.LVUS122
 10251 147f 01       		.uleb128 0x1
 10252 1480 00000913 		.4byte	0x913
 10253 1484 00000000 		.4byte	.LLST123
 10254 1488 00000000 		.4byte	.LVUS123
 10255 148c 01       		.uleb128 0x1
 10256 148d 0000091D 		.4byte	0x91d
 10257 1491 00000000 		.4byte	.LLST124
 10258 1495 00000000 		.4byte	.LVUS124
 10259 1499 01       		.uleb128 0x1
 10260 149a 00000927 		.4byte	0x927
 10261 149e 00000000 		.4byte	.LLST125
 10262 14a2 00000000 		.4byte	.LVUS125
 10263 14a6 00       		.byte	0
 10264 14a7 1B       		.uleb128 0x1b
 10265 14a8 0000063C 		.4byte	0x63c
 10266 14ac 00000000 		.4byte	.LASF65
 10267 14b0 00000000 		.4byte	.LFB77
 10268 14b4 0000005C 		.4byte	.LFE77-.LFB77
 10269 14b8 01       		.uleb128 0x1
 10270 14b9 9C       		.byte	0x9c
 10271 14ba 0000150D 		.4byte	0x150d
 10272 14be 05       		.uleb128 0x5
 10273 14bf 00000645 		.4byte	0x645
 10274 14c3 00000000 		.4byte	.LLST159
 10275 14c7 00000000 		.4byte	.LVUS159
 10276 14cb 01       		.uleb128 0x1
 10277 14cc 00000650 		.4byte	0x650
 10278 14d0 00000000 		.4byte	.LLST160
 10279 14d4 00000000 		.4byte	.LVUS160
 10280 14d8 01       		.uleb128 0x1
 10281 14d9 0000065A 		.4byte	0x65a
 10282 14dd 00000000 		.4byte	.LLST161
 10283 14e1 00000000 		.4byte	.LVUS161
 10284 14e5 01       		.uleb128 0x1
 10285 14e6 00000664 		.4byte	0x664
 10286 14ea 00000000 		.4byte	.LLST162
 10287 14ee 00000000 		.4byte	.LVUS162
 10288 14f2 01       		.uleb128 0x1
 10289 14f3 0000066E 		.4byte	0x66e
 10290 14f7 00000000 		.4byte	.LLST163
 10291 14fb 00000000 		.4byte	.LVUS163
 10292 14ff 01       		.uleb128 0x1
 10293 1500 00000678 		.4byte	0x678
 10294 1504 00000000 		.4byte	.LLST164
 10295 1508 00000000 		.4byte	.LVUS164
 10296 150c 00       		.byte	0
 10297 150d 27       		.uleb128 0x27
 10298 150e 00000000 		.4byte	.LASF43
 10299 1512 00000000 		.4byte	.LASF67
 10300 1516 27       		.uleb128 0x27
 10301 1517 00000000 		.4byte	.LASF66
 10302 151b 00000000 		.4byte	.LASF68
 10303 151f 00       		.byte	0
 10304              		.section	.debug_abbrev,"",@progbits
 10305              	.Ldebug_abbrev0:
 10306 0000 01       		.uleb128 0x1
 10307 0001 34       		.uleb128 0x34
 10308 0002 00       		.byte	0
 10309 0003 31       		.uleb128 0x31
 10310 0004 13       		.uleb128 0x13
 10311 0005 02       		.uleb128 0x2
 10312 0006 17       		.uleb128 0x17
 10313 0007 B742     		.uleb128 0x2137
 10314 0009 17       		.uleb128 0x17
 10315 000a 00       		.byte	0
 10316 000b 00       		.byte	0
 10317 000c 02       		.uleb128 0x2
 10318 000d 49       		.uleb128 0x49
 10319 000e 00       		.byte	0
 10320 000f 02       		.uleb128 0x2
 10321 0010 18       		.uleb128 0x18
 10322 0011 7E       		.uleb128 0x7e
 10323 0012 18       		.uleb128 0x18
 10324 0013 00       		.byte	0
 10325 0014 00       		.byte	0
 10326 0015 03       		.uleb128 0x3
 10327 0016 05       		.uleb128 0x5
 10328 0017 00       		.byte	0
 10329 0018 49       		.uleb128 0x49
 10330 0019 13       		.uleb128 0x13
 10331 001a 00       		.byte	0
 10332 001b 00       		.byte	0
 10333 001c 04       		.uleb128 0x4
 10334 001d 0B       		.uleb128 0xb
 10335 001e 01       		.byte	0x1
 10336 001f 55       		.uleb128 0x55
 10337 0020 17       		.uleb128 0x17
 10338 0021 00       		.byte	0
 10339 0022 00       		.byte	0
 10340 0023 05       		.uleb128 0x5
 10341 0024 05       		.uleb128 0x5
 10342 0025 00       		.byte	0
 10343 0026 31       		.uleb128 0x31
 10344 0027 13       		.uleb128 0x13
 10345 0028 02       		.uleb128 0x2
 10346 0029 17       		.uleb128 0x17
 10347 002a B742     		.uleb128 0x2137
 10348 002c 17       		.uleb128 0x17
 10349 002d 00       		.byte	0
 10350 002e 00       		.byte	0
 10351 002f 06       		.uleb128 0x6
 10352 0030 34       		.uleb128 0x34
 10353 0031 00       		.byte	0
 10354 0032 03       		.uleb128 0x3
 10355 0033 08       		.uleb128 0x8
 10356 0034 3A       		.uleb128 0x3a
 10357 0035 21       		.uleb128 0x21
 10358 0036 01       		.sleb128 1
 10359 0037 3B       		.uleb128 0x3b
 10360 0038 0B       		.uleb128 0xb
 10361 0039 39       		.uleb128 0x39
 10362 003a 0B       		.uleb128 0xb
 10363 003b 49       		.uleb128 0x49
 10364 003c 13       		.uleb128 0x13
 10365 003d 02       		.uleb128 0x2
 10366 003e 17       		.uleb128 0x17
 10367 003f B742     		.uleb128 0x2137
 10368 0041 17       		.uleb128 0x17
 10369 0042 00       		.byte	0
 10370 0043 00       		.byte	0
 10371 0044 07       		.uleb128 0x7
 10372 0045 05       		.uleb128 0x5
 10373 0046 00       		.byte	0
 10374 0047 03       		.uleb128 0x3
 10375 0048 0E       		.uleb128 0xe
 10376 0049 3A       		.uleb128 0x3a
 10377 004a 21       		.uleb128 0x21
 10378 004b 01       		.sleb128 1
 10379 004c 3B       		.uleb128 0x3b
 10380 004d 0B       		.uleb128 0xb
 10381 004e 39       		.uleb128 0x39
 10382 004f 0B       		.uleb128 0xb
 10383 0050 49       		.uleb128 0x49
 10384 0051 13       		.uleb128 0x13
 10385 0052 02       		.uleb128 0x2
 10386 0053 17       		.uleb128 0x17
 10387 0054 B742     		.uleb128 0x2137
 10388 0056 17       		.uleb128 0x17
 10389 0057 00       		.byte	0
 10390 0058 00       		.byte	0
 10391 0059 08       		.uleb128 0x8
 10392 005a 34       		.uleb128 0x34
 10393 005b 00       		.byte	0
 10394 005c 03       		.uleb128 0x3
 10395 005d 0E       		.uleb128 0xe
 10396 005e 3A       		.uleb128 0x3a
 10397 005f 21       		.uleb128 0x21
 10398 0060 01       		.sleb128 1
 10399 0061 3B       		.uleb128 0x3b
 10400 0062 0B       		.uleb128 0xb
 10401 0063 39       		.uleb128 0x39
 10402 0064 0B       		.uleb128 0xb
 10403 0065 49       		.uleb128 0x49
 10404 0066 13       		.uleb128 0x13
 10405 0067 02       		.uleb128 0x2
 10406 0068 17       		.uleb128 0x17
 10407 0069 B742     		.uleb128 0x2137
 10408 006b 17       		.uleb128 0x17
 10409 006c 00       		.byte	0
 10410 006d 00       		.byte	0
 10411 006e 09       		.uleb128 0x9
 10412 006f 24       		.uleb128 0x24
 10413 0070 00       		.byte	0
 10414 0071 0B       		.uleb128 0xb
 10415 0072 0B       		.uleb128 0xb
 10416 0073 3E       		.uleb128 0x3e
 10417 0074 0B       		.uleb128 0xb
 10418 0075 03       		.uleb128 0x3
 10419 0076 0E       		.uleb128 0xe
 10420 0077 00       		.byte	0
 10421 0078 00       		.byte	0
 10422 0079 0A       		.uleb128 0xa
 10423 007a 48       		.uleb128 0x48
 10424 007b 01       		.byte	0x1
 10425 007c 7D       		.uleb128 0x7d
 10426 007d 01       		.uleb128 0x1
 10427 007e 7F       		.uleb128 0x7f
 10428 007f 13       		.uleb128 0x13
 10429 0080 01       		.uleb128 0x1
 10430 0081 13       		.uleb128 0x13
 10431 0082 00       		.byte	0
 10432 0083 00       		.byte	0
 10433 0084 0B       		.uleb128 0xb
 10434 0085 1D       		.uleb128 0x1d
 10435 0086 01       		.byte	0x1
 10436 0087 31       		.uleb128 0x31
 10437 0088 13       		.uleb128 0x13
 10438 0089 52       		.uleb128 0x52
 10439 008a 01       		.uleb128 0x1
 10440 008b B842     		.uleb128 0x2138
 10441 008d 05       		.uleb128 0x5
 10442 008e 55       		.uleb128 0x55
 10443 008f 17       		.uleb128 0x17
 10444 0090 58       		.uleb128 0x58
 10445 0091 21       		.uleb128 0x21
 10446 0092 01       		.sleb128 1
 10447 0093 59       		.uleb128 0x59
 10448 0094 0B       		.uleb128 0xb
 10449 0095 57       		.uleb128 0x57
 10450 0096 21       		.uleb128 0x21
 10451 0097 2B       		.sleb128 43
 10452 0098 01       		.uleb128 0x1
 10453 0099 13       		.uleb128 0x13
 10454 009a 00       		.byte	0
 10455 009b 00       		.byte	0
 10456 009c 0C       		.uleb128 0xc
 10457 009d 34       		.uleb128 0x34
 10458 009e 00       		.byte	0
 10459 009f 03       		.uleb128 0x3
 10460 00a0 08       		.uleb128 0x8
 10461 00a1 3A       		.uleb128 0x3a
 10462 00a2 21       		.uleb128 0x21
 10463 00a3 01       		.sleb128 1
 10464 00a4 3B       		.uleb128 0x3b
 10465 00a5 05       		.uleb128 0x5
 10466 00a6 39       		.uleb128 0x39
 10467 00a7 0B       		.uleb128 0xb
 10468 00a8 49       		.uleb128 0x49
 10469 00a9 13       		.uleb128 0x13
 10470 00aa 02       		.uleb128 0x2
 10471 00ab 17       		.uleb128 0x17
 10472 00ac B742     		.uleb128 0x2137
 10473 00ae 17       		.uleb128 0x17
 10474 00af 00       		.byte	0
 10475 00b0 00       		.byte	0
 10476 00b1 0D       		.uleb128 0xd
 10477 00b2 0B       		.uleb128 0xb
 10478 00b3 01       		.byte	0x1
 10479 00b4 55       		.uleb128 0x55
 10480 00b5 17       		.uleb128 0x17
 10481 00b6 01       		.uleb128 0x1
 10482 00b7 13       		.uleb128 0x13
 10483 00b8 00       		.byte	0
 10484 00b9 00       		.byte	0
 10485 00ba 0E       		.uleb128 0xe
 10486 00bb 16       		.uleb128 0x16
 10487 00bc 00       		.byte	0
 10488 00bd 03       		.uleb128 0x3
 10489 00be 0E       		.uleb128 0xe
 10490 00bf 3A       		.uleb128 0x3a
 10491 00c0 0B       		.uleb128 0xb
 10492 00c1 3B       		.uleb128 0x3b
 10493 00c2 0B       		.uleb128 0xb
 10494 00c3 39       		.uleb128 0x39
 10495 00c4 0B       		.uleb128 0xb
 10496 00c5 49       		.uleb128 0x49
 10497 00c6 13       		.uleb128 0x13
 10498 00c7 00       		.byte	0
 10499 00c8 00       		.byte	0
 10500 00c9 0F       		.uleb128 0xf
 10501 00ca 2E       		.uleb128 0x2e
 10502 00cb 01       		.byte	0x1
 10503 00cc 3F       		.uleb128 0x3f
 10504 00cd 19       		.uleb128 0x19
 10505 00ce 03       		.uleb128 0x3
 10506 00cf 0E       		.uleb128 0xe
 10507 00d0 3A       		.uleb128 0x3a
 10508 00d1 21       		.uleb128 0x21
 10509 00d2 01       		.sleb128 1
 10510 00d3 3B       		.uleb128 0x3b
 10511 00d4 0B       		.uleb128 0xb
 10512 00d5 39       		.uleb128 0x39
 10513 00d6 0B       		.uleb128 0xb
 10514 00d7 6E       		.uleb128 0x6e
 10515 00d8 0E       		.uleb128 0xe
 10516 00d9 49       		.uleb128 0x49
 10517 00da 13       		.uleb128 0x13
 10518 00db 32       		.uleb128 0x32
 10519 00dc 21       		.uleb128 0x21
 10520 00dd 01       		.sleb128 1
 10521 00de 3C       		.uleb128 0x3c
 10522 00df 19       		.uleb128 0x19
 10523 00e0 01       		.uleb128 0x1
 10524 00e1 13       		.uleb128 0x13
 10525 00e2 00       		.byte	0
 10526 00e3 00       		.byte	0
 10527 00e4 10       		.uleb128 0x10
 10528 00e5 2E       		.uleb128 0x2e
 10529 00e6 01       		.byte	0x1
 10530 00e7 47       		.uleb128 0x47
 10531 00e8 13       		.uleb128 0x13
 10532 00e9 11       		.uleb128 0x11
 10533 00ea 01       		.uleb128 0x1
 10534 00eb 12       		.uleb128 0x12
 10535 00ec 06       		.uleb128 0x6
 10536 00ed 40       		.uleb128 0x40
 10537 00ee 18       		.uleb128 0x18
 10538 00ef 7A       		.uleb128 0x7a
 10539 00f0 19       		.uleb128 0x19
 10540 00f1 01       		.uleb128 0x1
 10541 00f2 13       		.uleb128 0x13
 10542 00f3 00       		.byte	0
 10543 00f4 00       		.byte	0
 10544 00f5 11       		.uleb128 0x11
 10545 00f6 48       		.uleb128 0x48
 10546 00f7 01       		.byte	0x1
 10547 00f8 7D       		.uleb128 0x7d
 10548 00f9 01       		.uleb128 0x1
 10549 00fa 7F       		.uleb128 0x7f
 10550 00fb 13       		.uleb128 0x13
 10551 00fc 00       		.byte	0
 10552 00fd 00       		.byte	0
 10553 00fe 12       		.uleb128 0x12
 10554 00ff 34       		.uleb128 0x34
 10555 0100 00       		.byte	0
 10556 0101 03       		.uleb128 0x3
 10557 0102 08       		.uleb128 0x8
 10558 0103 3A       		.uleb128 0x3a
 10559 0104 21       		.uleb128 0x21
 10560 0105 01       		.sleb128 1
 10561 0106 3B       		.uleb128 0x3b
 10562 0107 05       		.uleb128 0x5
 10563 0108 39       		.uleb128 0x39
 10564 0109 0B       		.uleb128 0xb
 10565 010a 49       		.uleb128 0x49
 10566 010b 13       		.uleb128 0x13
 10567 010c 00       		.byte	0
 10568 010d 00       		.byte	0
 10569 010e 13       		.uleb128 0x13
 10570 010f 05       		.uleb128 0x5
 10571 0110 00       		.byte	0
 10572 0111 03       		.uleb128 0x3
 10573 0112 0E       		.uleb128 0xe
 10574 0113 3A       		.uleb128 0x3a
 10575 0114 21       		.uleb128 0x21
 10576 0115 01       		.sleb128 1
 10577 0116 3B       		.uleb128 0x3b
 10578 0117 05       		.uleb128 0x5
 10579 0118 39       		.uleb128 0x39
 10580 0119 0B       		.uleb128 0xb
 10581 011a 49       		.uleb128 0x49
 10582 011b 13       		.uleb128 0x13
 10583 011c 02       		.uleb128 0x2
 10584 011d 17       		.uleb128 0x17
 10585 011e B742     		.uleb128 0x2137
 10586 0120 17       		.uleb128 0x17
 10587 0121 00       		.byte	0
 10588 0122 00       		.byte	0
 10589 0123 14       		.uleb128 0x14
 10590 0124 34       		.uleb128 0x34
 10591 0125 00       		.byte	0
 10592 0126 03       		.uleb128 0x3
 10593 0127 0E       		.uleb128 0xe
 10594 0128 3A       		.uleb128 0x3a
 10595 0129 21       		.uleb128 0x21
 10596 012a 01       		.sleb128 1
 10597 012b 3B       		.uleb128 0x3b
 10598 012c 05       		.uleb128 0x5
 10599 012d 39       		.uleb128 0x39
 10600 012e 0B       		.uleb128 0xb
 10601 012f 49       		.uleb128 0x49
 10602 0130 13       		.uleb128 0x13
 10603 0131 02       		.uleb128 0x2
 10604 0132 17       		.uleb128 0x17
 10605 0133 B742     		.uleb128 0x2137
 10606 0135 17       		.uleb128 0x17
 10607 0136 00       		.byte	0
 10608 0137 00       		.byte	0
 10609 0138 15       		.uleb128 0x15
 10610 0139 1D       		.uleb128 0x1d
 10611 013a 01       		.byte	0x1
 10612 013b 31       		.uleb128 0x31
 10613 013c 13       		.uleb128 0x13
 10614 013d 52       		.uleb128 0x52
 10615 013e 01       		.uleb128 0x1
 10616 013f B842     		.uleb128 0x2138
 10617 0141 05       		.uleb128 0x5
 10618 0142 55       		.uleb128 0x55
 10619 0143 17       		.uleb128 0x17
 10620 0144 58       		.uleb128 0x58
 10621 0145 21       		.uleb128 0x21
 10622 0146 01       		.sleb128 1
 10623 0147 59       		.uleb128 0x59
 10624 0148 05       		.uleb128 0x5
 10625 0149 57       		.uleb128 0x57
 10626 014a 21       		.uleb128 0x21
 10627 014b 2E       		.sleb128 46
 10628 014c 01       		.uleb128 0x1
 10629 014d 13       		.uleb128 0x13
 10630 014e 00       		.byte	0
 10631 014f 00       		.byte	0
 10632 0150 16       		.uleb128 0x16
 10633 0151 0F       		.uleb128 0xf
 10634 0152 00       		.byte	0
 10635 0153 0B       		.uleb128 0xb
 10636 0154 21       		.uleb128 0x21
 10637 0155 04       		.sleb128 4
 10638 0156 49       		.uleb128 0x49
 10639 0157 13       		.uleb128 0x13
 10640 0158 00       		.byte	0
 10641 0159 00       		.byte	0
 10642 015a 17       		.uleb128 0x17
 10643 015b 0B       		.uleb128 0xb
 10644 015c 01       		.byte	0x1
 10645 015d 11       		.uleb128 0x11
 10646 015e 01       		.uleb128 0x1
 10647 015f 12       		.uleb128 0x12
 10648 0160 06       		.uleb128 0x6
 10649 0161 00       		.byte	0
 10650 0162 00       		.byte	0
 10651 0163 18       		.uleb128 0x18
 10652 0164 05       		.uleb128 0x5
 10653 0165 00       		.byte	0
 10654 0166 49       		.uleb128 0x49
 10655 0167 13       		.uleb128 0x13
 10656 0168 34       		.uleb128 0x34
 10657 0169 19       		.uleb128 0x19
 10658 016a 00       		.byte	0
 10659 016b 00       		.byte	0
 10660 016c 19       		.uleb128 0x19
 10661 016d 2E       		.uleb128 0x2e
 10662 016e 01       		.byte	0x1
 10663 016f 47       		.uleb128 0x47
 10664 0170 13       		.uleb128 0x13
 10665 0171 20       		.uleb128 0x20
 10666 0172 21       		.uleb128 0x21
 10667 0173 01       		.sleb128 1
 10668 0174 01       		.uleb128 0x1
 10669 0175 13       		.uleb128 0x13
 10670 0176 00       		.byte	0
 10671 0177 00       		.byte	0
 10672 0178 1A       		.uleb128 0x1a
 10673 0179 34       		.uleb128 0x34
 10674 017a 00       		.byte	0
 10675 017b 03       		.uleb128 0x3
 10676 017c 08       		.uleb128 0x8
 10677 017d 3A       		.uleb128 0x3a
 10678 017e 21       		.uleb128 0x21
 10679 017f 01       		.sleb128 1
 10680 0180 3B       		.uleb128 0x3b
 10681 0181 0B       		.uleb128 0xb
 10682 0182 39       		.uleb128 0x39
 10683 0183 0B       		.uleb128 0xb
 10684 0184 49       		.uleb128 0x49
 10685 0185 13       		.uleb128 0x13
 10686 0186 00       		.byte	0
 10687 0187 00       		.byte	0
 10688 0188 1B       		.uleb128 0x1b
 10689 0189 2E       		.uleb128 0x2e
 10690 018a 01       		.byte	0x1
 10691 018b 31       		.uleb128 0x31
 10692 018c 13       		.uleb128 0x13
 10693 018d 6E       		.uleb128 0x6e
 10694 018e 0E       		.uleb128 0xe
 10695 018f 11       		.uleb128 0x11
 10696 0190 01       		.uleb128 0x1
 10697 0191 12       		.uleb128 0x12
 10698 0192 06       		.uleb128 0x6
 10699 0193 40       		.uleb128 0x40
 10700 0194 18       		.uleb128 0x18
 10701 0195 7A       		.uleb128 0x7a
 10702 0196 19       		.uleb128 0x19
 10703 0197 01       		.uleb128 0x1
 10704 0198 13       		.uleb128 0x13
 10705 0199 00       		.byte	0
 10706 019a 00       		.byte	0
 10707 019b 1C       		.uleb128 0x1c
 10708 019c 26       		.uleb128 0x26
 10709 019d 00       		.byte	0
 10710 019e 49       		.uleb128 0x49
 10711 019f 13       		.uleb128 0x13
 10712 01a0 00       		.byte	0
 10713 01a1 00       		.byte	0
 10714 01a2 1D       		.uleb128 0x1d
 10715 01a3 2E       		.uleb128 0x2e
 10716 01a4 01       		.byte	0x1
 10717 01a5 3F       		.uleb128 0x3f
 10718 01a6 19       		.uleb128 0x19
 10719 01a7 03       		.uleb128 0x3
 10720 01a8 0E       		.uleb128 0xe
 10721 01a9 3A       		.uleb128 0x3a
 10722 01aa 21       		.uleb128 0x21
 10723 01ab 01       		.sleb128 1
 10724 01ac 3B       		.uleb128 0x3b
 10725 01ad 05       		.uleb128 0x5
 10726 01ae 39       		.uleb128 0x39
 10727 01af 0B       		.uleb128 0xb
 10728 01b0 6E       		.uleb128 0x6e
 10729 01b1 0E       		.uleb128 0xe
 10730 01b2 49       		.uleb128 0x49
 10731 01b3 13       		.uleb128 0x13
 10732 01b4 32       		.uleb128 0x32
 10733 01b5 21       		.uleb128 0x21
 10734 01b6 01       		.sleb128 1
 10735 01b7 3C       		.uleb128 0x3c
 10736 01b8 19       		.uleb128 0x19
 10737 01b9 01       		.uleb128 0x1
 10738 01ba 13       		.uleb128 0x13
 10739 01bb 00       		.byte	0
 10740 01bc 00       		.byte	0
 10741 01bd 1E       		.uleb128 0x1e
 10742 01be 05       		.uleb128 0x5
 10743 01bf 00       		.byte	0
 10744 01c0 03       		.uleb128 0x3
 10745 01c1 0E       		.uleb128 0xe
 10746 01c2 49       		.uleb128 0x49
 10747 01c3 13       		.uleb128 0x13
 10748 01c4 34       		.uleb128 0x34
 10749 01c5 19       		.uleb128 0x19
 10750 01c6 00       		.byte	0
 10751 01c7 00       		.byte	0
 10752 01c8 1F       		.uleb128 0x1f
 10753 01c9 2E       		.uleb128 0x2e
 10754 01ca 01       		.byte	0x1
 10755 01cb 31       		.uleb128 0x31
 10756 01cc 13       		.uleb128 0x13
 10757 01cd 6E       		.uleb128 0x6e
 10758 01ce 0E       		.uleb128 0xe
 10759 01cf 64       		.uleb128 0x64
 10760 01d0 13       		.uleb128 0x13
 10761 01d1 11       		.uleb128 0x11
 10762 01d2 01       		.uleb128 0x1
 10763 01d3 12       		.uleb128 0x12
 10764 01d4 06       		.uleb128 0x6
 10765 01d5 40       		.uleb128 0x40
 10766 01d6 18       		.uleb128 0x18
 10767 01d7 7A       		.uleb128 0x7a
 10768 01d8 19       		.uleb128 0x19
 10769 01d9 01       		.uleb128 0x1
 10770 01da 13       		.uleb128 0x13
 10771 01db 00       		.byte	0
 10772 01dc 00       		.byte	0
 10773 01dd 20       		.uleb128 0x20
 10774 01de 2E       		.uleb128 0x2e
 10775 01df 01       		.byte	0x1
 10776 01e0 3F       		.uleb128 0x3f
 10777 01e1 19       		.uleb128 0x19
 10778 01e2 03       		.uleb128 0x3
 10779 01e3 0E       		.uleb128 0xe
 10780 01e4 3A       		.uleb128 0x3a
 10781 01e5 0B       		.uleb128 0xb
 10782 01e6 3B       		.uleb128 0x3b
 10783 01e7 0B       		.uleb128 0xb
 10784 01e8 39       		.uleb128 0x39
 10785 01e9 0B       		.uleb128 0xb
 10786 01ea 49       		.uleb128 0x49
 10787 01eb 13       		.uleb128 0x13
 10788 01ec 3C       		.uleb128 0x3c
 10789 01ed 19       		.uleb128 0x19
 10790 01ee 01       		.uleb128 0x1
 10791 01ef 13       		.uleb128 0x13
 10792 01f0 00       		.byte	0
 10793 01f1 00       		.byte	0
 10794 01f2 21       		.uleb128 0x21
 10795 01f3 1D       		.uleb128 0x1d
 10796 01f4 01       		.byte	0x1
 10797 01f5 31       		.uleb128 0x31
 10798 01f6 13       		.uleb128 0x13
 10799 01f7 52       		.uleb128 0x52
 10800 01f8 01       		.uleb128 0x1
 10801 01f9 B842     		.uleb128 0x2138
 10802 01fb 05       		.uleb128 0x5
 10803 01fc 55       		.uleb128 0x55
 10804 01fd 17       		.uleb128 0x17
 10805 01fe 58       		.uleb128 0x58
 10806 01ff 21       		.uleb128 0x21
 10807 0200 01       		.sleb128 1
 10808 0201 59       		.uleb128 0x59
 10809 0202 05       		.uleb128 0x5
 10810 0203 57       		.uleb128 0x57
 10811 0204 21       		.uleb128 0x21
 10812 0205 2E       		.sleb128 46
 10813 0206 00       		.byte	0
 10814 0207 00       		.byte	0
 10815 0208 22       		.uleb128 0x22
 10816 0209 05       		.uleb128 0x5
 10817 020a 00       		.byte	0
 10818 020b 03       		.uleb128 0x3
 10819 020c 0E       		.uleb128 0xe
 10820 020d 3A       		.uleb128 0x3a
 10821 020e 21       		.uleb128 0x21
 10822 020f 01       		.sleb128 1
 10823 0210 3B       		.uleb128 0x3b
 10824 0211 05       		.uleb128 0x5
 10825 0212 39       		.uleb128 0x39
 10826 0213 21       		.uleb128 0x21
 10827 0214 34       		.sleb128 52
 10828 0215 49       		.uleb128 0x49
 10829 0216 13       		.uleb128 0x13
 10830 0217 00       		.byte	0
 10831 0218 00       		.byte	0
 10832 0219 23       		.uleb128 0x23
 10833 021a 1D       		.uleb128 0x1d
 10834 021b 01       		.byte	0x1
 10835 021c 31       		.uleb128 0x31
 10836 021d 13       		.uleb128 0x13
 10837 021e 52       		.uleb128 0x52
 10838 021f 01       		.uleb128 0x1
 10839 0220 B842     		.uleb128 0x2138
 10840 0222 05       		.uleb128 0x5
 10841 0223 55       		.uleb128 0x55
 10842 0224 17       		.uleb128 0x17
 10843 0225 58       		.uleb128 0x58
 10844 0226 21       		.uleb128 0x21
 10845 0227 01       		.sleb128 1
 10846 0228 59       		.uleb128 0x59
 10847 0229 0B       		.uleb128 0xb
 10848 022a 57       		.uleb128 0x57
 10849 022b 21       		.uleb128 0x21
 10850 022c 2B       		.sleb128 43
 10851 022d 00       		.byte	0
 10852 022e 00       		.byte	0
 10853 022f 24       		.uleb128 0x24
 10854 0230 05       		.uleb128 0x5
 10855 0231 00       		.byte	0
 10856 0232 03       		.uleb128 0x3
 10857 0233 0E       		.uleb128 0xe
 10858 0234 3A       		.uleb128 0x3a
 10859 0235 21       		.uleb128 0x21
 10860 0236 01       		.sleb128 1
 10861 0237 3B       		.uleb128 0x3b
 10862 0238 0B       		.uleb128 0xb
 10863 0239 39       		.uleb128 0x39
 10864 023a 0B       		.uleb128 0xb
 10865 023b 49       		.uleb128 0x49
 10866 023c 13       		.uleb128 0x13
 10867 023d 00       		.byte	0
 10868 023e 00       		.byte	0
 10869 023f 25       		.uleb128 0x25
 10870 0240 2E       		.uleb128 0x2e
 10871 0241 01       		.byte	0x1
 10872 0242 47       		.uleb128 0x47
 10873 0243 13       		.uleb128 0x13
 10874 0244 64       		.uleb128 0x64
 10875 0245 13       		.uleb128 0x13
 10876 0246 20       		.uleb128 0x20
 10877 0247 21       		.uleb128 0x21
 10878 0248 00       		.sleb128 0
 10879 0249 01       		.uleb128 0x1
 10880 024a 13       		.uleb128 0x13
 10881 024b 00       		.byte	0
 10882 024c 00       		.byte	0
 10883 024d 26       		.uleb128 0x26
 10884 024e 05       		.uleb128 0x5
 10885 024f 00       		.byte	0
 10886 0250 31       		.uleb128 0x31
 10887 0251 13       		.uleb128 0x13
 10888 0252 02       		.uleb128 0x2
 10889 0253 18       		.uleb128 0x18
 10890 0254 00       		.byte	0
 10891 0255 00       		.byte	0
 10892 0256 27       		.uleb128 0x27
 10893 0257 2E       		.uleb128 0x2e
 10894 0258 00       		.byte	0
 10895 0259 3F       		.uleb128 0x3f
 10896 025a 19       		.uleb128 0x19
 10897 025b 3C       		.uleb128 0x3c
 10898 025c 19       		.uleb128 0x19
 10899 025d 6E       		.uleb128 0x6e
 10900 025e 0E       		.uleb128 0xe
 10901 025f 03       		.uleb128 0x3
 10902 0260 0E       		.uleb128 0xe
 10903 0261 00       		.byte	0
 10904 0262 00       		.byte	0
 10905 0263 28       		.uleb128 0x28
 10906 0264 11       		.uleb128 0x11
 10907 0265 01       		.byte	0x1
 10908 0266 25       		.uleb128 0x25
 10909 0267 0E       		.uleb128 0xe
 10910 0268 13       		.uleb128 0x13
 10911 0269 0B       		.uleb128 0xb
 10912 026a 03       		.uleb128 0x3
 10913 026b 0E       		.uleb128 0xe
 10914 026c 1B       		.uleb128 0x1b
 10915 026d 0E       		.uleb128 0xe
 10916 026e 55       		.uleb128 0x55
 10917 026f 17       		.uleb128 0x17
 10918 0270 11       		.uleb128 0x11
 10919 0271 01       		.uleb128 0x1
 10920 0272 10       		.uleb128 0x10
 10921 0273 17       		.uleb128 0x17
 10922 0274 00       		.byte	0
 10923 0275 00       		.byte	0
 10924 0276 29       		.uleb128 0x29
 10925 0277 24       		.uleb128 0x24
 10926 0278 00       		.byte	0
 10927 0279 0B       		.uleb128 0xb
 10928 027a 0B       		.uleb128 0xb
 10929 027b 3E       		.uleb128 0x3e
 10930 027c 0B       		.uleb128 0xb
 10931 027d 03       		.uleb128 0x3
 10932 027e 08       		.uleb128 0x8
 10933 027f 00       		.byte	0
 10934 0280 00       		.byte	0
 10935 0281 2A       		.uleb128 0x2a
 10936 0282 16       		.uleb128 0x16
 10937 0283 00       		.byte	0
 10938 0284 03       		.uleb128 0x3
 10939 0285 08       		.uleb128 0x8
 10940 0286 3A       		.uleb128 0x3a
 10941 0287 0B       		.uleb128 0xb
 10942 0288 3B       		.uleb128 0x3b
 10943 0289 0B       		.uleb128 0xb
 10944 028a 39       		.uleb128 0x39
 10945 028b 0B       		.uleb128 0xb
 10946 028c 49       		.uleb128 0x49
 10947 028d 13       		.uleb128 0x13
 10948 028e 00       		.byte	0
 10949 028f 00       		.byte	0
 10950 0290 2B       		.uleb128 0x2b
 10951 0291 0F       		.uleb128 0xf
 10952 0292 00       		.byte	0
 10953 0293 0B       		.uleb128 0xb
 10954 0294 0B       		.uleb128 0xb
 10955 0295 00       		.byte	0
 10956 0296 00       		.byte	0
 10957 0297 2C       		.uleb128 0x2c
 10958 0298 3B       		.uleb128 0x3b
 10959 0299 00       		.byte	0
 10960 029a 03       		.uleb128 0x3
 10961 029b 0E       		.uleb128 0xe
 10962 029c 00       		.byte	0
 10963 029d 00       		.byte	0
 10964 029e 2D       		.uleb128 0x2d
 10965 029f 02       		.uleb128 0x2
 10966 02a0 01       		.byte	0x1
 10967 02a1 03       		.uleb128 0x3
 10968 02a2 0E       		.uleb128 0xe
 10969 02a3 0B       		.uleb128 0xb
 10970 02a4 0B       		.uleb128 0xb
 10971 02a5 3A       		.uleb128 0x3a
 10972 02a6 0B       		.uleb128 0xb
 10973 02a7 3B       		.uleb128 0x3b
 10974 02a8 0B       		.uleb128 0xb
 10975 02a9 39       		.uleb128 0x39
 10976 02aa 0B       		.uleb128 0xb
 10977 02ab 1D       		.uleb128 0x1d
 10978 02ac 13       		.uleb128 0x13
 10979 02ad 01       		.uleb128 0x1
 10980 02ae 13       		.uleb128 0x13
 10981 02af 00       		.byte	0
 10982 02b0 00       		.byte	0
 10983 02b1 2E       		.uleb128 0x2e
 10984 02b2 2E       		.uleb128 0x2e
 10985 02b3 01       		.byte	0x1
 10986 02b4 3F       		.uleb128 0x3f
 10987 02b5 19       		.uleb128 0x19
 10988 02b6 03       		.uleb128 0x3
 10989 02b7 0E       		.uleb128 0xe
 10990 02b8 6E       		.uleb128 0x6e
 10991 02b9 0E       		.uleb128 0xe
 10992 02ba 34       		.uleb128 0x34
 10993 02bb 19       		.uleb128 0x19
 10994 02bc 32       		.uleb128 0x32
 10995 02bd 0B       		.uleb128 0xb
 10996 02be 3C       		.uleb128 0x3c
 10997 02bf 19       		.uleb128 0x19
 10998 02c0 64       		.uleb128 0x64
 10999 02c1 13       		.uleb128 0x13
 11000 02c2 01       		.uleb128 0x1
 11001 02c3 13       		.uleb128 0x13
 11002 02c4 00       		.byte	0
 11003 02c5 00       		.byte	0
 11004 02c6 2F       		.uleb128 0x2f
 11005 02c7 0D       		.uleb128 0xd
 11006 02c8 00       		.byte	0
 11007 02c9 03       		.uleb128 0x3
 11008 02ca 0E       		.uleb128 0xe
 11009 02cb 49       		.uleb128 0x49
 11010 02cc 13       		.uleb128 0x13
 11011 02cd 38       		.uleb128 0x38
 11012 02ce 0B       		.uleb128 0xb
 11013 02cf 34       		.uleb128 0x34
 11014 02d0 19       		.uleb128 0x19
 11015 02d1 32       		.uleb128 0x32
 11016 02d2 0B       		.uleb128 0xb
 11017 02d3 00       		.byte	0
 11018 02d4 00       		.byte	0
 11019 02d5 30       		.uleb128 0x30
 11020 02d6 2E       		.uleb128 0x2e
 11021 02d7 01       		.byte	0x1
 11022 02d8 3F       		.uleb128 0x3f
 11023 02d9 19       		.uleb128 0x19
 11024 02da 03       		.uleb128 0x3
 11025 02db 0E       		.uleb128 0xe
 11026 02dc 3A       		.uleb128 0x3a
 11027 02dd 0B       		.uleb128 0xb
 11028 02de 3B       		.uleb128 0x3b
 11029 02df 0B       		.uleb128 0xb
 11030 02e0 39       		.uleb128 0x39
 11031 02e1 0B       		.uleb128 0xb
 11032 02e2 6E       		.uleb128 0x6e
 11033 02e3 0E       		.uleb128 0xe
 11034 02e4 32       		.uleb128 0x32
 11035 02e5 0B       		.uleb128 0xb
 11036 02e6 3C       		.uleb128 0x3c
 11037 02e7 19       		.uleb128 0x19
 11038 02e8 64       		.uleb128 0x64
 11039 02e9 13       		.uleb128 0x13
 11040 02ea 01       		.uleb128 0x1
 11041 02eb 13       		.uleb128 0x13
 11042 02ec 00       		.byte	0
 11043 02ed 00       		.byte	0
 11044 02ee 31       		.uleb128 0x31
 11045 02ef 2E       		.uleb128 0x2e
 11046 02f0 01       		.byte	0x1
 11047 02f1 3F       		.uleb128 0x3f
 11048 02f2 19       		.uleb128 0x19
 11049 02f3 03       		.uleb128 0x3
 11050 02f4 0E       		.uleb128 0xe
 11051 02f5 3A       		.uleb128 0x3a
 11052 02f6 0B       		.uleb128 0xb
 11053 02f7 3B       		.uleb128 0x3b
 11054 02f8 0B       		.uleb128 0xb
 11055 02f9 39       		.uleb128 0x39
 11056 02fa 0B       		.uleb128 0xb
 11057 02fb 6E       		.uleb128 0x6e
 11058 02fc 0E       		.uleb128 0xe
 11059 02fd 4C       		.uleb128 0x4c
 11060 02fe 0B       		.uleb128 0xb
 11061 02ff 1D       		.uleb128 0x1d
 11062 0300 13       		.uleb128 0x13
 11063 0301 32       		.uleb128 0x32
 11064 0302 0B       		.uleb128 0xb
 11065 0303 3C       		.uleb128 0x3c
 11066 0304 19       		.uleb128 0x19
 11067 0305 64       		.uleb128 0x64
 11068 0306 13       		.uleb128 0x13
 11069 0307 01       		.uleb128 0x1
 11070 0308 13       		.uleb128 0x13
 11071 0309 00       		.byte	0
 11072 030a 00       		.byte	0
 11073 030b 32       		.uleb128 0x32
 11074 030c 2E       		.uleb128 0x2e
 11075 030d 01       		.byte	0x1
 11076 030e 3F       		.uleb128 0x3f
 11077 030f 19       		.uleb128 0x19
 11078 0310 03       		.uleb128 0x3
 11079 0311 0E       		.uleb128 0xe
 11080 0312 3A       		.uleb128 0x3a
 11081 0313 0B       		.uleb128 0xb
 11082 0314 3B       		.uleb128 0x3b
 11083 0315 05       		.uleb128 0x5
 11084 0316 39       		.uleb128 0x39
 11085 0317 0B       		.uleb128 0xb
 11086 0318 6E       		.uleb128 0x6e
 11087 0319 0E       		.uleb128 0xe
 11088 031a 49       		.uleb128 0x49
 11089 031b 13       		.uleb128 0x13
 11090 031c 32       		.uleb128 0x32
 11091 031d 0B       		.uleb128 0xb
 11092 031e 3C       		.uleb128 0x3c
 11093 031f 19       		.uleb128 0x19
 11094 0320 00       		.byte	0
 11095 0321 00       		.byte	0
 11096 0322 33       		.uleb128 0x33
 11097 0323 10       		.uleb128 0x10
 11098 0324 00       		.byte	0
 11099 0325 0B       		.uleb128 0xb
 11100 0326 0B       		.uleb128 0xb
 11101 0327 49       		.uleb128 0x49
 11102 0328 13       		.uleb128 0x13
 11103 0329 00       		.byte	0
 11104 032a 00       		.byte	0
 11105 032b 34       		.uleb128 0x34
 11106 032c 15       		.uleb128 0x15
 11107 032d 01       		.byte	0x1
 11108 032e 49       		.uleb128 0x49
 11109 032f 13       		.uleb128 0x13
 11110 0330 01       		.uleb128 0x1
 11111 0331 13       		.uleb128 0x13
 11112 0332 00       		.byte	0
 11113 0333 00       		.byte	0
 11114 0334 35       		.uleb128 0x35
 11115 0335 18       		.uleb128 0x18
 11116 0336 00       		.byte	0
 11117 0337 00       		.byte	0
 11118 0338 00       		.byte	0
 11119 0339 36       		.uleb128 0x36
 11120 033a 0F       		.uleb128 0xf
 11121 033b 00       		.byte	0
 11122 033c 0B       		.uleb128 0xb
 11123 033d 0B       		.uleb128 0xb
 11124 033e 03       		.uleb128 0x3
 11125 033f 0E       		.uleb128 0xe
 11126 0340 49       		.uleb128 0x49
 11127 0341 13       		.uleb128 0x13
 11128 0342 00       		.byte	0
 11129 0343 00       		.byte	0
 11130 0344 37       		.uleb128 0x37
 11131 0345 2E       		.uleb128 0x2e
 11132 0346 01       		.byte	0x1
 11133 0347 3F       		.uleb128 0x3f
 11134 0348 19       		.uleb128 0x19
 11135 0349 03       		.uleb128 0x3
 11136 034a 0E       		.uleb128 0xe
 11137 034b 3A       		.uleb128 0x3a
 11138 034c 0B       		.uleb128 0xb
 11139 034d 3B       		.uleb128 0x3b
 11140 034e 0B       		.uleb128 0xb
 11141 034f 39       		.uleb128 0x39
 11142 0350 0B       		.uleb128 0xb
 11143 0351 3C       		.uleb128 0x3c
 11144 0352 19       		.uleb128 0x19
 11145 0353 01       		.uleb128 0x1
 11146 0354 13       		.uleb128 0x13
 11147 0355 00       		.byte	0
 11148 0356 00       		.byte	0
 11149 0357 38       		.uleb128 0x38
 11150 0358 34       		.uleb128 0x34
 11151 0359 00       		.byte	0
 11152 035a 03       		.uleb128 0x3
 11153 035b 0E       		.uleb128 0xe
 11154 035c 3A       		.uleb128 0x3a
 11155 035d 0B       		.uleb128 0xb
 11156 035e 3B       		.uleb128 0x3b
 11157 035f 05       		.uleb128 0x5
 11158 0360 39       		.uleb128 0x39
 11159 0361 0B       		.uleb128 0xb
 11160 0362 49       		.uleb128 0x49
 11161 0363 13       		.uleb128 0x13
 11162 0364 00       		.byte	0
 11163 0365 00       		.byte	0
 11164 0366 39       		.uleb128 0x39
 11165 0367 1D       		.uleb128 0x1d
 11166 0368 01       		.byte	0x1
 11167 0369 31       		.uleb128 0x31
 11168 036a 13       		.uleb128 0x13
 11169 036b 52       		.uleb128 0x52
 11170 036c 01       		.uleb128 0x1
 11171 036d B842     		.uleb128 0x2138
 11172 036f 05       		.uleb128 0x5
 11173 0370 11       		.uleb128 0x11
 11174 0371 01       		.uleb128 0x1
 11175 0372 12       		.uleb128 0x12
 11176 0373 06       		.uleb128 0x6
 11177 0374 58       		.uleb128 0x58
 11178 0375 0B       		.uleb128 0xb
 11179 0376 59       		.uleb128 0x59
 11180 0377 0B       		.uleb128 0xb
 11181 0378 57       		.uleb128 0x57
 11182 0379 0B       		.uleb128 0xb
 11183 037a 01       		.uleb128 0x1
 11184 037b 13       		.uleb128 0x13
 11185 037c 00       		.byte	0
 11186 037d 00       		.byte	0
 11187 037e 3A       		.uleb128 0x3a
 11188 037f 48       		.uleb128 0x48
 11189 0380 01       		.byte	0x1
 11190 0381 7D       		.uleb128 0x7d
 11191 0382 01       		.uleb128 0x1
 11192 0383 8201     		.uleb128 0x82
 11193 0385 19       		.uleb128 0x19
 11194 0386 7F       		.uleb128 0x7f
 11195 0387 13       		.uleb128 0x13
 11196 0388 00       		.byte	0
 11197 0389 00       		.byte	0
 11198 038a 00       		.byte	0
 11199              		.section	.debug_loclists,"",@progbits
 11200 0000 000036AA 		.4byte	.Ldebug_loc3-.Ldebug_loc2
 11201              	.Ldebug_loc2:
 11202 0004 0005     		.2byte	0x5
 11203 0006 04       		.byte	0x4
 11204 0007 00       		.byte	0
 11205 0008 00000000 		.4byte	0
 11206              	.Ldebug_loc0:
 11207              	.LVUS165:
 11208 000c 00       		.uleb128 0
 11209 000d 00       		.uleb128 .LVU2205
 11210 000e 00       		.uleb128 .LVU2205
 11211 000f 00       		.uleb128 .LVU2741
 11212 0010 00       		.uleb128 .LVU2741
 11213 0011 00       		.uleb128 .LVU2742
 11214 0012 00       		.uleb128 .LVU2742
 11215 0013 00       		.uleb128 0
 11216              	.LLST165:
 11217 0014 06       		.byte	0x6
 11218 0015 00000000 		.4byte	.LVL272
 11219 0019 04       		.byte	0x4
 11220 001a 00       		.uleb128 .LVL272-.LVL272
 11221 001b 24       		.uleb128 .LVL273-.LVL272
 11222 001c 01       		.uleb128 0x1
 11223 001d 53       		.byte	0x53
 11224 001e 04       		.byte	0x4
 11225 001f 24       		.uleb128 .LVL273-.LVL272
 11226 0020 800A     		.uleb128 .LVL438-.LVL272
 11227 0022 01       		.uleb128 0x1
 11228 0023 6F       		.byte	0x6f
 11229 0024 04       		.byte	0x4
 11230 0025 800A     		.uleb128 .LVL438-.LVL272
 11231 0027 880A     		.uleb128 .LVL439-.LVL272
 11232 0029 0A       		.uleb128 0xa
 11233 002a A3       		.byte	0xa3
 11234 002b 03       		.uleb128 0x3
 11235 002c A5       		.byte	0xa5
 11236 002d 03       		.uleb128 0x3
 11237 002e 2D       		.uleb128 0x2d
 11238 002f A8       		.byte	0xa8
 11239 0030 26       		.uleb128 0x26
 11240 0031 A8       		.byte	0xa8
 11241 0032 00       		.uleb128 0
 11242 0033 9F       		.byte	0x9f
 11243 0034 04       		.byte	0x4
 11244 0035 880A     		.uleb128 .LVL439-.LVL272
 11245 0037 8812     		.uleb128 .LFE78-.LVL272
 11246 0039 01       		.uleb128 0x1
 11247 003a 6F       		.byte	0x6f
 11248 003b 00       		.byte	0
 11249              	.LVUS166:
 11250 003c 00       		.uleb128 0
 11251 003d 00       		.uleb128 .LVU2210
 11252 003e 00       		.uleb128 .LVU2210
 11253 003f 00       		.uleb128 .LVU2738
 11254 0040 00       		.uleb128 .LVU2738
 11255 0041 00       		.uleb128 0
 11256              	.LLST166:
 11257 0042 06       		.byte	0x6
 11258 0043 00000000 		.4byte	.LVL272
 11259 0047 04       		.byte	0x4
 11260 0048 00       		.uleb128 .LVL272-.LVL272
 11261 0049 34       		.uleb128 .LVL275-.LVL272
 11262 004a 01       		.uleb128 0x1
 11263 004b 54       		.byte	0x54
 11264 004c 04       		.byte	0x4
 11265 004d 34       		.uleb128 .LVL275-.LVL272
 11266 004e F009     		.uleb128 .LVL435-.LVL272
 11267 0050 01       		.uleb128 0x1
 11268 0051 6C       		.byte	0x6c
 11269 0052 04       		.byte	0x4
 11270 0053 F009     		.uleb128 .LVL435-.LVL272
 11271 0055 8812     		.uleb128 .LFE78-.LVL272
 11272 0057 0A       		.uleb128 0xa
 11273 0058 A3       		.byte	0xa3
 11274 0059 03       		.uleb128 0x3
 11275 005a A5       		.byte	0xa5
 11276 005b 04       		.uleb128 0x4
 11277 005c 2D       		.uleb128 0x2d
 11278 005d A8       		.byte	0xa8
 11279 005e 34       		.uleb128 0x34
 11280 005f A8       		.byte	0xa8
 11281 0060 00       		.uleb128 0
 11282 0061 9F       		.byte	0x9f
 11283 0062 00       		.byte	0
 11284              	.LVUS167:
 11285 0063 00       		.uleb128 0
 11286 0064 00       		.uleb128 .LVU2212
 11287 0065 00       		.uleb128 .LVU2212
 11288 0066 00       		.uleb128 .LVU2737
 11289 0067 00       		.uleb128 .LVU2737
 11290 0068 00       		.uleb128 0
 11291              	.LLST167:
 11292 0069 06       		.byte	0x6
 11293 006a 00000000 		.4byte	.LVL272
 11294 006e 04       		.byte	0x4
 11295 006f 00       		.uleb128 .LVL272-.LVL272
 11296 0070 3F       		.uleb128 .LVL276-1-.LVL272
 11297 0071 01       		.uleb128 0x1
 11298 0072 55       		.byte	0x55
 11299 0073 04       		.byte	0x4
 11300 0074 3F       		.uleb128 .LVL276-1-.LVL272
 11301 0075 EC09     		.uleb128 .LVL434-.LVL272
 11302 0077 01       		.uleb128 0x1
 11303 0078 6B       		.byte	0x6b
 11304 0079 04       		.byte	0x4
 11305 007a EC09     		.uleb128 .LVL434-.LVL272
 11306 007c 8812     		.uleb128 .LFE78-.LVL272
 11307 007e 0A       		.uleb128 0xa
 11308 007f A3       		.byte	0xa3
 11309 0080 03       		.uleb128 0x3
 11310 0081 A5       		.byte	0xa5
 11311 0082 05       		.uleb128 0x5
 11312 0083 2D       		.uleb128 0x2d
 11313 0084 A8       		.byte	0xa8
 11314 0085 34       		.uleb128 0x34
 11315 0086 A8       		.byte	0xa8
 11316 0087 00       		.uleb128 0
 11317 0088 9F       		.byte	0x9f
 11318 0089 00       		.byte	0
 11319              	.LVUS168:
 11320 008a 00       		.uleb128 .LVU2207
 11321 008b 00       		.uleb128 .LVU2740
 11322 008c 00       		.uleb128 .LVU2740
 11323 008d 00       		.uleb128 .LVU2742
 11324 008e 00       		.uleb128 .LVU2742
 11325 008f 00       		.uleb128 0
 11326              	.LLST168:
 11327 0090 06       		.byte	0x6
 11328 0091 00000000 		.4byte	.LVL274
 11329 0095 04       		.byte	0x4
 11330 0096 00       		.uleb128 .LVL274-.LVL274
 11331 0097 D009     		.uleb128 .LVL437-.LVL274
 11332 0099 01       		.uleb128 0x1
 11333 009a 6E       		.byte	0x6e
 11334 009b 04       		.byte	0x4
 11335 009c D009     		.uleb128 .LVL437-.LVL274
 11336 009e DC09     		.uleb128 .LVL439-.LVL274
 11337 00a0 16       		.uleb128 0x16
 11338 00a1 A3       		.byte	0xa3
 11339 00a2 03       		.uleb128 0x3
 11340 00a3 A5       		.byte	0xa5
 11341 00a4 05       		.uleb128 0x5
 11342 00a5 2D       		.uleb128 0x2d
 11343 00a6 A8       		.byte	0xa8
 11344 00a7 26       		.uleb128 0x26
 11345 00a8 A8       		.byte	0xa8
 11346 00a9 00       		.uleb128 0
 11347 00aa A3       		.byte	0xa3
 11348 00ab 03       		.uleb128 0x3
 11349 00ac A5       		.byte	0xa5
 11350 00ad 04       		.uleb128 0x4
 11351 00ae 2D       		.uleb128 0x2d
 11352 00af A8       		.byte	0xa8
 11353 00b0 26       		.uleb128 0x26
 11354 00b1 A8       		.byte	0xa8
 11355 00b2 00       		.uleb128 0
 11356 00b3 1E       		.byte	0x1e
 11357 00b4 31       		.byte	0x31
 11358 00b5 24       		.byte	0x24
 11359 00b6 9F       		.byte	0x9f
 11360 00b7 04       		.byte	0x4
 11361 00b8 DC09     		.uleb128 .LVL439-.LVL274
 11362 00ba DC11     		.uleb128 .LFE78-.LVL274
 11363 00bc 01       		.uleb128 0x1
 11364 00bd 6E       		.byte	0x6e
 11365 00be 00       		.byte	0
 11366              	.LVUS169:
 11367 00bf 00       		.uleb128 .LVU2214
 11368 00c0 00       		.uleb128 .LVU2216
 11369 00c1 00       		.uleb128 .LVU2216
 11370 00c2 00       		.uleb128 .LVU2739
 11371 00c3 00       		.uleb128 .LVU2739
 11372 00c4 00       		.uleb128 .LVU2742
 11373 00c5 00       		.uleb128 .LVU2742
 11374 00c6 00       		.uleb128 0
 11375              	.LLST169:
 11376 00c7 06       		.byte	0x6
 11377 00c8 00000000 		.4byte	.LVL277
 11378 00cc 04       		.byte	0x4
 11379 00cd 00       		.uleb128 .LVL277-.LVL277
 11380 00ce 03       		.uleb128 .LVL278-1-.LVL277
 11381 00cf 01       		.uleb128 0x1
 11382 00d0 53       		.byte	0x53
 11383 00d1 04       		.byte	0x4
 11384 00d2 03       		.uleb128 .LVL278-1-.LVL277
 11385 00d3 AC09     		.uleb128 .LVL436-.LVL277
 11386 00d5 01       		.uleb128 0x1
 11387 00d6 6D       		.byte	0x6d
 11388 00d7 04       		.byte	0x4
 11389 00d8 AC09     		.uleb128 .LVL436-.LVL277
 11390 00da BC09     		.uleb128 .LVL439-.LVL277
 11391 00dc 01       		.uleb128 0x1
 11392 00dd 53       		.byte	0x53
 11393 00de 04       		.byte	0x4
 11394 00df BC09     		.uleb128 .LVL439-.LVL277
 11395 00e1 BC11     		.uleb128 .LFE78-.LVL277
 11396 00e3 01       		.uleb128 0x1
 11397 00e4 6D       		.byte	0x6d
 11398 00e5 00       		.byte	0
 11399              	.LVUS170:
 11400 00e6 01       		.uleb128 .LVU2217
 11401 00e7 00       		.uleb128 .LVU2741
 11402 00e8 00       		.uleb128 .LVU2741
 11403 00e9 00       		.uleb128 .LVU2742
 11404 00ea 00       		.uleb128 .LVU2742
 11405 00eb 00       		.uleb128 0
 11406              	.LLST170:
 11407 00ec 06       		.byte	0x6
 11408 00ed 00000000 		.4byte	.LVL278
 11409 00f1 04       		.byte	0x4
 11410 00f2 00       		.uleb128 .LVL278-.LVL278
 11411 00f3 B009     		.uleb128 .LVL438-.LVL278
 11412 00f5 01       		.uleb128 0x1
 11413 00f6 6F       		.byte	0x6f
 11414 00f7 04       		.byte	0x4
 11415 00f8 B009     		.uleb128 .LVL438-.LVL278
 11416 00fa B809     		.uleb128 .LVL439-.LVL278
 11417 00fc 0A       		.uleb128 0xa
 11418 00fd A3       		.byte	0xa3
 11419 00fe 03       		.uleb128 0x3
 11420 00ff A5       		.byte	0xa5
 11421 0100 03       		.uleb128 0x3
 11422 0101 2D       		.uleb128 0x2d
 11423 0102 A8       		.byte	0xa8
 11424 0103 26       		.uleb128 0x26
 11425 0104 A8       		.byte	0xa8
 11426 0105 00       		.uleb128 0
 11427 0106 9F       		.byte	0x9f
 11428 0107 04       		.byte	0x4
 11429 0108 B809     		.uleb128 .LVL439-.LVL278
 11430 010a B811     		.uleb128 .LFE78-.LVL278
 11431 010c 01       		.uleb128 0x1
 11432 010d 6F       		.byte	0x6f
 11433 010e 00       		.byte	0
 11434              	.LVUS171:
 11435 010f 02       		.uleb128 .LVU2218
 11436 0110 00       		.uleb128 .LVU2222
 11437 0111 00       		.uleb128 .LVU2222
 11438 0112 01       		.uleb128 .LVU2255
 11439 0113 01       		.uleb128 .LVU2255
 11440 0114 00       		.uleb128 .LVU2273
 11441 0115 01       		.uleb128 .LVU2285
 11442 0116 00       		.uleb128 .LVU2303
 11443 0117 01       		.uleb128 .LVU2315
 11444 0118 00       		.uleb128 .LVU2333
 11445 0119 01       		.uleb128 .LVU2345
 11446 011a 00       		.uleb128 .LVU2365
 11447 011b 01       		.uleb128 .LVU2467
 11448 011c 00       		.uleb128 .LVU2487
 11449 011d 01       		.uleb128 .LVU2592
 11450 011e 00       		.uleb128 .LVU2610
 11451 011f 00       		.uleb128 .LVU2720
 11452 0120 00       		.uleb128 .LVU2732
 11453 0121 00       		.uleb128 .LVU2758
 11454 0122 01       		.uleb128 .LVU2794
 11455 0123 01       		.uleb128 .LVU2794
 11456 0124 00       		.uleb128 .LVU2812
 11457 0125 01       		.uleb128 .LVU2825
 11458 0126 00       		.uleb128 .LVU2843
 11459 0127 01       		.uleb128 .LVU2856
 11460 0128 00       		.uleb128 .LVU2874
 11461 0129 01       		.uleb128 .LVU2891
 11462 012a 00       		.uleb128 .LVU2908
 11463 012b 01       		.uleb128 .LVU3021
 11464 012c 00       		.uleb128 .LVU3038
 11465 012d 01       		.uleb128 .LVU3148
 11466 012e 00       		.uleb128 .LVU3167
 11467              	.LLST171:
 11468 012f 06       		.byte	0x6
 11469 0130 00000000 		.4byte	.LVL278
 11470 0134 04       		.byte	0x4
 11471 0135 00       		.uleb128 .LVL278-.LVL278
 11472 0136 28       		.uleb128 .LVL279-.LVL278
 11473 0137 01       		.uleb128 0x1
 11474 0138 6D       		.byte	0x6d
 11475 0139 04       		.byte	0x4
 11476 013a 28       		.uleb128 .LVL279-.LVL278
 11477 013b 8001     		.uleb128 .LVL289-.LVL278
 11478 013d 01       		.uleb128 0x1
 11479 013e 59       		.byte	0x59
 11480 013f 04       		.byte	0x4
 11481 0140 8001     		.uleb128 .LVL289-.LVL278
 11482 0142 A801     		.uleb128 .LVL293-.LVL278
 11483 0144 03       		.uleb128 0x3
 11484 0145 79       		.byte	0x79
 11485 0146 02       		.sleb128 2
 11486 0147 9F       		.byte	0x9f
 11487 0148 04       		.byte	0x4
 11488 0149 C401     		.uleb128 .LVL298-.LVL278
 11489 014b EC01     		.uleb128 .LVL302-.LVL278
 11490 014d 03       		.uleb128 0x3
 11491 014e 79       		.byte	0x79
 11492 014f 04       		.sleb128 4
 11493 0150 9F       		.byte	0x9f
 11494 0151 04       		.byte	0x4
 11495 0152 8802     		.uleb128 .LVL307-.LVL278
 11496 0154 B002     		.uleb128 .LVL311-.LVL278
 11497 0156 03       		.uleb128 0x3
 11498 0157 79       		.byte	0x79
 11499 0158 06       		.sleb128 6
 11500 0159 9F       		.byte	0x9f
 11501 015a 04       		.byte	0x4
 11502 015b CC02     		.uleb128 .LVL316-.LVL278
 11503 015d F002     		.uleb128 .LVL321-.LVL278
 11504 015f 03       		.uleb128 0x3
 11505 0160 79       		.byte	0x79
 11506 0161 08       		.sleb128 8
 11507 0162 9F       		.byte	0x9f
 11508 0163 04       		.byte	0x4
 11509 0164 CC04     		.uleb128 .LVL353-.LVL278
 11510 0166 F004     		.uleb128 .LVL358-.LVL278
 11511 0168 03       		.uleb128 0x3
 11512 0169 79       		.byte	0x79
 11513 016a 10       		.sleb128 16
 11514 016b 9F       		.byte	0x9f
 11515 016c 04       		.byte	0x4
 11516 016d D406     		.uleb128 .LVL390-.LVL278
 11517 016f F006     		.uleb128 .LVL395-.LVL278
 11518 0171 03       		.uleb128 0x3
 11519 0172 79       		.byte	0x79
 11520 0173 18       		.sleb128 24
 11521 0174 9F       		.byte	0x9f
 11522 0175 04       		.byte	0x4
 11523 0176 D808     		.uleb128 .LVL427-.LVL278
 11524 0178 8409     		.uleb128 .LVL432-.LVL278
 11525 017a 01       		.uleb128 0x1
 11526 017b 59       		.byte	0x59
 11527 017c 04       		.byte	0x4
 11528 017d DC09     		.uleb128 .LVL440-.LVL278
 11529 017f A80A     		.uleb128 .LVL451-.LVL278
 11530 0181 01       		.uleb128 0x1
 11531 0182 59       		.byte	0x59
 11532 0183 04       		.byte	0x4
 11533 0184 A80A     		.uleb128 .LVL451-.LVL278
 11534 0186 D00A     		.uleb128 .LVL455-.LVL278
 11535 0188 03       		.uleb128 0x3
 11536 0189 79       		.byte	0x79
 11537 018a 02       		.sleb128 2
 11538 018b 9F       		.byte	0x9f
 11539 018c 04       		.byte	0x4
 11540 018d EC0A     		.uleb128 .LVL460-.LVL278
 11541 018f 940B     		.uleb128 .LVL464-.LVL278
 11542 0191 03       		.uleb128 0x3
 11543 0192 79       		.byte	0x79
 11544 0193 04       		.sleb128 4
 11545 0194 9F       		.byte	0x9f
 11546 0195 04       		.byte	0x4
 11547 0196 B00B     		.uleb128 .LVL469-.LVL278
 11548 0198 D80B     		.uleb128 .LVL473-.LVL278
 11549 019a 03       		.uleb128 0x3
 11550 019b 79       		.byte	0x79
 11551 019c 06       		.sleb128 6
 11552 019d 9F       		.byte	0x9f
 11553 019e 04       		.byte	0x4
 11554 019f 800C     		.uleb128 .LVL478-.LVL278
 11555 01a1 980C     		.uleb128 .LVL482-.LVL278
 11556 01a3 03       		.uleb128 0x3
 11557 01a4 79       		.byte	0x79
 11558 01a5 08       		.sleb128 8
 11559 01a6 9F       		.byte	0x9f
 11560 01a7 04       		.byte	0x4
 11561 01a8 800E     		.uleb128 .LVL514-.LVL278
 11562 01aa 980E     		.uleb128 .LVL518-.LVL278
 11563 01ac 03       		.uleb128 0x3
 11564 01ad 79       		.byte	0x79
 11565 01ae 10       		.sleb128 16
 11566 01af 9F       		.byte	0x9f
 11567 01b0 04       		.byte	0x4
 11568 01b1 F80F     		.uleb128 .LVL550-.LVL278
 11569 01b3 9810     		.uleb128 .LVL555-.LVL278
 11570 01b5 03       		.uleb128 0x3
 11571 01b6 79       		.byte	0x79
 11572 01b7 18       		.sleb128 24
 11573 01b8 9F       		.byte	0x9f
 11574 01b9 00       		.byte	0
 11575              	.LVUS173:
 11576 01ba 03       		.uleb128 .LVU2219
 11577 01bb 00       		.uleb128 .LVU2222
 11578 01bc 00       		.uleb128 .LVU2222
 11579 01bd 00       		.uleb128 .LVU2729
 11580 01be 00       		.uleb128 .LVU2730
 11581 01bf 00       		.uleb128 .LVU2732
 11582 01c0 00       		.uleb128 .LVU2742
 11583 01c1 00       		.uleb128 0
 11584              	.LLST173:
 11585 01c2 06       		.byte	0x6
 11586 01c3 00000000 		.4byte	.LVL278
 11587 01c7 04       		.byte	0x4
 11588 01c8 00       		.uleb128 .LVL278-.LVL278
 11589 01c9 28       		.uleb128 .LVL279-.LVL278
 11590 01ca 02       		.uleb128 0x2
 11591 01cb 30       		.byte	0x30
 11592 01cc 9F       		.byte	0x9f
 11593 01cd 04       		.byte	0x4
 11594 01ce 28       		.uleb128 .LVL279-.LVL278
 11595 01cf E808     		.uleb128 .LVL430-.LVL278
 11596 01d1 01       		.uleb128 0x1
 11597 01d2 5C       		.byte	0x5c
 11598 01d3 04       		.byte	0x4
 11599 01d4 EC08     		.uleb128 .LVL431-.LVL278
 11600 01d6 8409     		.uleb128 .LVL432-.LVL278
 11601 01d8 01       		.uleb128 0x1
 11602 01d9 5C       		.byte	0x5c
 11603 01da 04       		.byte	0x4
 11604 01db B809     		.uleb128 .LVL439-.LVL278
 11605 01dd B811     		.uleb128 .LFE78-.LVL278
 11606 01df 01       		.uleb128 0x1
 11607 01e0 5C       		.byte	0x5c
 11608 01e1 00       		.byte	0
 11609              	.LVUS175:
 11610 01e2 00       		.uleb128 .LVU2222
 11611 01e3 00       		.uleb128 .LVU2226
 11612 01e4 00       		.uleb128 .LVU2226
 11613 01e5 00       		.uleb128 .LVU2690
 11614 01e6 03       		.uleb128 .LVU2725
 11615 01e7 00       		.uleb128 .LVU2726
 11616 01e8 03       		.uleb128 .LVU2763
 11617 01e9 00       		.uleb128 0
 11618              	.LLST175:
 11619 01ea 06       		.byte	0x6
 11620 01eb 00000000 		.4byte	.LVL279
 11621 01ef 04       		.byte	0x4
 11622 01f0 00       		.uleb128 .LVL279-.LVL279
 11623 01f1 18       		.uleb128 .LVL280-.LVL279
 11624 01f2 02       		.uleb128 0x2
 11625 01f3 30       		.byte	0x30
 11626 01f4 9F       		.byte	0x9f
 11627 01f5 04       		.byte	0x4
 11628 01f6 18       		.uleb128 .LVL280-.LVL279
 11629 01f7 F407     		.uleb128 .LVL417-.LVL279
 11630 01f9 01       		.uleb128 0x1
 11631 01fa 6A       		.byte	0x6a
 11632 01fb 04       		.byte	0x4
 11633 01fc B808     		.uleb128 .LVL428-.LVL279
 11634 01fe BC08     		.uleb128 .LVL429-.LVL279
 11635 0200 01       		.uleb128 0x1
 11636 0201 6A       		.byte	0x6a
 11637 0202 04       		.byte	0x4
 11638 0203 BC09     		.uleb128 .LVL441-.LVL279
 11639 0205 9011     		.uleb128 .LFE78-.LVL279
 11640 0207 01       		.uleb128 0x1
 11641 0208 6A       		.byte	0x6a
 11642 0209 00       		.byte	0
 11643              	.LVUS177:
 11644 020a 00       		.uleb128 .LVU2226
 11645 020b 01       		.uleb128 .LVU2350
 11646 020c 01       		.uleb128 .LVU2350
 11647 020d 01       		.uleb128 .LVU2472
 11648 020e 01       		.uleb128 .LVU2472
 11649 020f 01       		.uleb128 .LVU2595
 11650 0210 01       		.uleb128 .LVU2595
 11651 0211 01       		.uleb128 .LVU2723
 11652 0212 01       		.uleb128 .LVU2723
 11653 0213 00       		.uleb128 .LVU2732
 11654 0214 00       		.uleb128 .LVU2742
 11655 0215 01       		.uleb128 .LVU2761
 11656 0216 01       		.uleb128 .LVU2761
 11657 0217 00       		.uleb128 .LVU2764
 11658 0218 00       		.uleb128 .LVU2764
 11659 0219 01       		.uleb128 .LVU2894
 11660 021a 01       		.uleb128 .LVU2894
 11661 021b 01       		.uleb128 .LVU3024
 11662 021c 01       		.uleb128 .LVU3024
 11663 021d 01       		.uleb128 .LVU3152
 11664 021e 01       		.uleb128 .LVU3152
 11665 021f 00       		.uleb128 0
 11666              	.LLST177:
 11667 0220 06       		.byte	0x6
 11668 0221 00000000 		.4byte	.LVL280
 11669 0225 04       		.byte	0x4
 11670 0226 00       		.uleb128 .LVL280-.LVL280
 11671 0227 9802     		.uleb128 .LVL317-.LVL280
 11672 0229 02       		.uleb128 0x2
 11673 022a 30       		.byte	0x30
 11674 022b 9F       		.byte	0x9f
 11675 022c 04       		.byte	0x4
 11676 022d 9802     		.uleb128 .LVL317-.LVL280
 11677 022f 9804     		.uleb128 .LVL354-.LVL280
 11678 0231 02       		.uleb128 0x2
 11679 0232 31       		.byte	0x31
 11680 0233 9F       		.byte	0x9f
 11681 0234 04       		.byte	0x4
 11682 0235 9804     		.uleb128 .LVL354-.LVL280
 11683 0237 9806     		.uleb128 .LVL391-.LVL280
 11684 0239 02       		.uleb128 0x2
 11685 023a 32       		.byte	0x32
 11686 023b 9F       		.byte	0x9f
 11687 023c 04       		.byte	0x4
 11688 023d 9806     		.uleb128 .LVL391-.LVL280
 11689 023f A008     		.uleb128 .LVL428-.LVL280
 11690 0241 02       		.uleb128 0x2
 11691 0242 33       		.byte	0x33
 11692 0243 9F       		.byte	0x9f
 11693 0244 04       		.byte	0x4
 11694 0245 A008     		.uleb128 .LVL428-.LVL280
 11695 0247 C408     		.uleb128 .LVL432-.LVL280
 11696 0249 02       		.uleb128 0x2
 11697 024a 34       		.byte	0x34
 11698 024b 9F       		.byte	0x9f
 11699 024c 04       		.byte	0x4
 11700 024d F808     		.uleb128 .LVL439-.LVL280
 11701 024f A409     		.uleb128 .LVL441-.LVL280
 11702 0251 02       		.uleb128 0x2
 11703 0252 33       		.byte	0x33
 11704 0253 9F       		.byte	0x9f
 11705 0254 04       		.byte	0x4
 11706 0255 A409     		.uleb128 .LVL441-.LVL280
 11707 0257 A809     		.uleb128 .LVL442-.LVL280
 11708 0259 02       		.uleb128 0x2
 11709 025a 34       		.byte	0x34
 11710 025b 9F       		.byte	0x9f
 11711 025c 04       		.byte	0x4
 11712 025d A809     		.uleb128 .LVL442-.LVL280
 11713 025f C40B     		.uleb128 .LVL479-.LVL280
 11714 0261 02       		.uleb128 0x2
 11715 0262 30       		.byte	0x30
 11716 0263 9F       		.byte	0x9f
 11717 0264 04       		.byte	0x4
 11718 0265 C40B     		.uleb128 .LVL479-.LVL280
 11719 0267 C40D     		.uleb128 .LVL515-.LVL280
 11720 0269 02       		.uleb128 0x2
 11721 026a 31       		.byte	0x31
 11722 026b 9F       		.byte	0x9f
 11723 026c 04       		.byte	0x4
 11724 026d C40D     		.uleb128 .LVL515-.LVL280
 11725 026f C00F     		.uleb128 .LVL551-.LVL280
 11726 0271 02       		.uleb128 0x2
 11727 0272 32       		.byte	0x32
 11728 0273 9F       		.byte	0x9f
 11729 0274 04       		.byte	0x4
 11730 0275 C00F     		.uleb128 .LVL551-.LVL280
 11731 0277 F810     		.uleb128 .LFE78-.LVL280
 11732 0279 02       		.uleb128 0x2
 11733 027a 33       		.byte	0x33
 11734 027b 9F       		.byte	0x9f
 11735 027c 00       		.byte	0
 11736              	.LVUS179:
 11737 027d 00       		.uleb128 .LVU2231
 11738 027e 00       		.uleb128 .LVU2248
 11739 027f 00       		.uleb128 .LVU2353
 11740 0280 00       		.uleb128 .LVU2371
 11741 0281 00       		.uleb128 .LVU2475
 11742 0282 00       		.uleb128 .LVU2493
 11743 0283 00       		.uleb128 .LVU2598
 11744 0284 00       		.uleb128 .LVU2616
 11745 0285 00       		.uleb128 .LVU2769
 11746 0286 00       		.uleb128 .LVU2790
 11747 0287 03       		.uleb128 .LVU2896
 11748 0288 00       		.uleb128 .LVU2917
 11749 0289 03       		.uleb128 .LVU3026
 11750 028a 00       		.uleb128 .LVU3047
 11751 028b 00       		.uleb128 .LVU3155
 11752 028c 00       		.uleb128 .LVU3177
 11753              	.LLST179:
 11754 028d 06       		.byte	0x6
 11755 028e 00000000 		.4byte	.LVL281
 11756 0292 04       		.byte	0x4
 11757 0293 00       		.uleb128 .LVL281-.LVL281
 11758 0294 18       		.uleb128 .LVL285-.LVL281
 11759 0295 01       		.uleb128 0x1
 11760 0296 57       		.byte	0x57
 11761 0297 04       		.byte	0x4
 11762 0298 8C02     		.uleb128 .LVL318-.LVL281
 11763 029a A802     		.uleb128 .LVL323-.LVL281
 11764 029c 01       		.uleb128 0x1
 11765 029d 69       		.byte	0x69
 11766 029e 04       		.byte	0x4
 11767 029f 8C04     		.uleb128 .LVL355-.LVL281
 11768 02a1 A804     		.uleb128 .LVL360-.LVL281
 11769 02a3 01       		.uleb128 0x1
 11770 02a4 69       		.byte	0x69
 11771 02a5 04       		.byte	0x4
 11772 02a6 8C06     		.uleb128 .LVL392-.LVL281
 11773 02a8 A806     		.uleb128 .LVL397-.LVL281
 11774 02aa 01       		.uleb128 0x1
 11775 02ab 50       		.byte	0x50
 11776 02ac 04       		.byte	0x4
 11777 02ad A809     		.uleb128 .LVL443-.LVL281
 11778 02af CC09     		.uleb128 .LVL449-.LVL281
 11779 02b1 01       		.uleb128 0x1
 11780 02b2 57       		.byte	0x57
 11781 02b3 04       		.byte	0x4
 11782 02b4 B40B     		.uleb128 .LVL479-.LVL281
 11783 02b6 D80B     		.uleb128 .LVL485-.LVL281
 11784 02b8 01       		.uleb128 0x1
 11785 02b9 69       		.byte	0x69
 11786 02ba 04       		.byte	0x4
 11787 02bb B40D     		.uleb128 .LVL515-.LVL281
 11788 02bd D80D     		.uleb128 .LVL521-.LVL281
 11789 02bf 01       		.uleb128 0x1
 11790 02c0 69       		.byte	0x69
 11791 02c1 04       		.byte	0x4
 11792 02c2 B40F     		.uleb128 .LVL552-.LVL281
 11793 02c4 D80F     		.uleb128 .LVL558-.LVL281
 11794 02c6 01       		.uleb128 0x1
 11795 02c7 50       		.byte	0x50
 11796 02c8 00       		.byte	0
 11797              	.LVUS180:
 11798 02c9 04       		.uleb128 .LVU2235
 11799 02ca 00       		.uleb128 .LVU2243
 11800 02cb 01       		.uleb128 .LVU2244
 11801 02cc 00       		.uleb128 .LVU2248
 11802 02cd 04       		.uleb128 .LVU2357
 11803 02ce 00       		.uleb128 .LVU2365
 11804 02cf 01       		.uleb128 .LVU2366
 11805 02d0 00       		.uleb128 .LVU2371
 11806 02d1 04       		.uleb128 .LVU2479
 11807 02d2 00       		.uleb128 .LVU2487
 11808 02d3 01       		.uleb128 .LVU2488
 11809 02d4 00       		.uleb128 .LVU2493
 11810 02d5 04       		.uleb128 .LVU2602
 11811 02d6 00       		.uleb128 .LVU2610
 11812 02d7 01       		.uleb128 .LVU2611
 11813 02d8 00       		.uleb128 .LVU2616
 11814 02d9 04       		.uleb128 .LVU2773
 11815 02da 00       		.uleb128 .LVU2781
 11816 02db 01       		.uleb128 .LVU2782
 11817 02dc 00       		.uleb128 .LVU2790
 11818 02dd 07       		.uleb128 .LVU2900
 11819 02de 00       		.uleb128 .LVU2908
 11820 02df 01       		.uleb128 .LVU2909
 11821 02e0 00       		.uleb128 .LVU2917
 11822 02e1 07       		.uleb128 .LVU3030
 11823 02e2 00       		.uleb128 .LVU3038
 11824 02e3 01       		.uleb128 .LVU3039
 11825 02e4 00       		.uleb128 .LVU3047
 11826 02e5 04       		.uleb128 .LVU3159
 11827 02e6 00       		.uleb128 .LVU3167
 11828 02e7 01       		.uleb128 .LVU3168
 11829 02e8 00       		.uleb128 .LVU3177
 11830              	.LLST180:
 11831 02e9 06       		.byte	0x6
 11832 02ea 00000000 		.4byte	.LVL281
 11833 02ee 04       		.byte	0x4
 11834 02ef 00       		.uleb128 .LVL281-.LVL281
 11835 02f0 14       		.uleb128 .LVL284-.LVL281
 11836 02f1 05       		.uleb128 0x5
 11837 02f2 77       		.byte	0x77
 11838 02f3 00       		.sleb128 0
 11839 02f4 48       		.byte	0x48
 11840 02f5 25       		.byte	0x25
 11841 02f6 9F       		.byte	0x9f
 11842 02f7 04       		.byte	0x4
 11843 02f8 14       		.uleb128 .LVL284-.LVL281
 11844 02f9 18       		.uleb128 .LVL285-.LVL281
 11845 02fa 05       		.uleb128 0x5
 11846 02fb 77       		.byte	0x77
 11847 02fc 00       		.sleb128 0
 11848 02fd 4B       		.byte	0x4b
 11849 02fe 25       		.byte	0x25
 11850 02ff 9F       		.byte	0x9f
 11851 0300 04       		.byte	0x4
 11852 0301 8C02     		.uleb128 .LVL318-.LVL281
 11853 0303 A002     		.uleb128 .LVL321-.LVL281
 11854 0305 05       		.uleb128 0x5
 11855 0306 89       		.byte	0x89
 11856 0307 00       		.sleb128 0
 11857 0308 48       		.byte	0x48
 11858 0309 25       		.byte	0x25
 11859 030a 9F       		.byte	0x9f
 11860 030b 04       		.byte	0x4
 11861 030c A002     		.uleb128 .LVL321-.LVL281
 11862 030e A802     		.uleb128 .LVL323-.LVL281
 11863 0310 05       		.uleb128 0x5
 11864 0311 89       		.byte	0x89
 11865 0312 00       		.sleb128 0
 11866 0313 4B       		.byte	0x4b
 11867 0314 25       		.byte	0x25
 11868 0315 9F       		.byte	0x9f
 11869 0316 04       		.byte	0x4
 11870 0317 8C04     		.uleb128 .LVL355-.LVL281
 11871 0319 A004     		.uleb128 .LVL358-.LVL281
 11872 031b 05       		.uleb128 0x5
 11873 031c 89       		.byte	0x89
 11874 031d 00       		.sleb128 0
 11875 031e 48       		.byte	0x48
 11876 031f 25       		.byte	0x25
 11877 0320 9F       		.byte	0x9f
 11878 0321 04       		.byte	0x4
 11879 0322 A004     		.uleb128 .LVL358-.LVL281
 11880 0324 A804     		.uleb128 .LVL360-.LVL281
 11881 0326 05       		.uleb128 0x5
 11882 0327 89       		.byte	0x89
 11883 0328 00       		.sleb128 0
 11884 0329 4B       		.byte	0x4b
 11885 032a 25       		.byte	0x25
 11886 032b 9F       		.byte	0x9f
 11887 032c 04       		.byte	0x4
 11888 032d 8C06     		.uleb128 .LVL392-.LVL281
 11889 032f A006     		.uleb128 .LVL395-.LVL281
 11890 0331 05       		.uleb128 0x5
 11891 0332 70       		.byte	0x70
 11892 0333 00       		.sleb128 0
 11893 0334 48       		.byte	0x48
 11894 0335 25       		.byte	0x25
 11895 0336 9F       		.byte	0x9f
 11896 0337 04       		.byte	0x4
 11897 0338 A006     		.uleb128 .LVL395-.LVL281
 11898 033a A806     		.uleb128 .LVL397-.LVL281
 11899 033c 05       		.uleb128 0x5
 11900 033d 70       		.byte	0x70
 11901 033e 00       		.sleb128 0
 11902 033f 4B       		.byte	0x4b
 11903 0340 25       		.byte	0x25
 11904 0341 9F       		.byte	0x9f
 11905 0342 04       		.byte	0x4
 11906 0343 A809     		.uleb128 .LVL443-.LVL281
 11907 0345 BC09     		.uleb128 .LVL446-.LVL281
 11908 0347 05       		.uleb128 0x5
 11909 0348 77       		.byte	0x77
 11910 0349 00       		.sleb128 0
 11911 034a 48       		.byte	0x48
 11912 034b 25       		.byte	0x25
 11913 034c 9F       		.byte	0x9f
 11914 034d 04       		.byte	0x4
 11915 034e BC09     		.uleb128 .LVL446-.LVL281
 11916 0350 CC09     		.uleb128 .LVL449-.LVL281
 11917 0352 05       		.uleb128 0x5
 11918 0353 77       		.byte	0x77
 11919 0354 00       		.sleb128 0
 11920 0355 4C       		.byte	0x4c
 11921 0356 25       		.byte	0x25
 11922 0357 9F       		.byte	0x9f
 11923 0358 04       		.byte	0x4
 11924 0359 B40B     		.uleb128 .LVL479-.LVL281
 11925 035b C80B     		.uleb128 .LVL482-.LVL281
 11926 035d 05       		.uleb128 0x5
 11927 035e 89       		.byte	0x89
 11928 035f 00       		.sleb128 0
 11929 0360 48       		.byte	0x48
 11930 0361 25       		.byte	0x25
 11931 0362 9F       		.byte	0x9f
 11932 0363 04       		.byte	0x4
 11933 0364 C80B     		.uleb128 .LVL482-.LVL281
 11934 0366 D80B     		.uleb128 .LVL485-.LVL281
 11935 0368 05       		.uleb128 0x5
 11936 0369 89       		.byte	0x89
 11937 036a 00       		.sleb128 0
 11938 036b 4C       		.byte	0x4c
 11939 036c 25       		.byte	0x25
 11940 036d 9F       		.byte	0x9f
 11941 036e 04       		.byte	0x4
 11942 036f B40D     		.uleb128 .LVL515-.LVL281
 11943 0371 C80D     		.uleb128 .LVL518-.LVL281
 11944 0373 05       		.uleb128 0x5
 11945 0374 89       		.byte	0x89
 11946 0375 00       		.sleb128 0
 11947 0376 48       		.byte	0x48
 11948 0377 25       		.byte	0x25
 11949 0378 9F       		.byte	0x9f
 11950 0379 04       		.byte	0x4
 11951 037a C80D     		.uleb128 .LVL518-.LVL281
 11952 037c D80D     		.uleb128 .LVL521-.LVL281
 11953 037e 05       		.uleb128 0x5
 11954 037f 89       		.byte	0x89
 11955 0380 00       		.sleb128 0
 11956 0381 4C       		.byte	0x4c
 11957 0382 25       		.byte	0x25
 11958 0383 9F       		.byte	0x9f
 11959 0384 04       		.byte	0x4
 11960 0385 B40F     		.uleb128 .LVL552-.LVL281
 11961 0387 C80F     		.uleb128 .LVL555-.LVL281
 11962 0389 05       		.uleb128 0x5
 11963 038a 70       		.byte	0x70
 11964 038b 00       		.sleb128 0
 11965 038c 48       		.byte	0x48
 11966 038d 25       		.byte	0x25
 11967 038e 9F       		.byte	0x9f
 11968 038f 04       		.byte	0x4
 11969 0390 C80F     		.uleb128 .LVL555-.LVL281
 11970 0392 D80F     		.uleb128 .LVL558-.LVL281
 11971 0394 05       		.uleb128 0x5
 11972 0395 70       		.byte	0x70
 11973 0396 00       		.sleb128 0
 11974 0397 4C       		.byte	0x4c
 11975 0398 25       		.byte	0x25
 11976 0399 9F       		.byte	0x9f
 11977 039a 00       		.byte	0
 11978              	.LVUS181:
 11979 039b 00       		.uleb128 .LVU2238
 11980 039c 02       		.uleb128 .LVU2245
 11981 039d 02       		.uleb128 .LVU2245
 11982 039e 00       		.uleb128 .LVU2249
 11983 039f 00       		.uleb128 .LVU2360
 11984 03a0 02       		.uleb128 .LVU2367
 11985 03a1 02       		.uleb128 .LVU2367
 11986 03a2 00       		.uleb128 .LVU2370
 11987 03a3 00       		.uleb128 .LVU2482
 11988 03a4 02       		.uleb128 .LVU2489
 11989 03a5 02       		.uleb128 .LVU2489
 11990 03a6 00       		.uleb128 .LVU2492
 11991 03a7 00       		.uleb128 .LVU2605
 11992 03a8 02       		.uleb128 .LVU2612
 11993 03a9 02       		.uleb128 .LVU2612
 11994 03aa 00       		.uleb128 .LVU2615
 11995 03ab 00       		.uleb128 .LVU2776
 11996 03ac 02       		.uleb128 .LVU2783
 11997 03ad 02       		.uleb128 .LVU2783
 11998 03ae 00       		.uleb128 .LVU2792
 11999 03af 00       		.uleb128 .LVU2903
 12000 03b0 02       		.uleb128 .LVU2910
 12001 03b1 02       		.uleb128 .LVU2910
 12002 03b2 00       		.uleb128 .LVU2921
 12003 03b3 00       		.uleb128 .LVU3033
 12004 03b4 02       		.uleb128 .LVU3040
 12005 03b5 02       		.uleb128 .LVU3040
 12006 03b6 00       		.uleb128 .LVU3051
 12007 03b7 00       		.uleb128 .LVU3162
 12008 03b8 02       		.uleb128 .LVU3169
 12009 03b9 02       		.uleb128 .LVU3169
 12010 03ba 00       		.uleb128 .LVU3181
 12011              	.LLST181:
 12012 03bb 06       		.byte	0x6
 12013 03bc 00000000 		.4byte	.LVL282
 12014 03c0 04       		.byte	0x4
 12015 03c1 00       		.uleb128 .LVL282-.LVL282
 12016 03c2 0C       		.uleb128 .LVL284-.LVL282
 12017 03c3 01       		.uleb128 0x1
 12018 03c4 56       		.byte	0x56
 12019 03c5 04       		.byte	0x4
 12020 03c6 0C       		.uleb128 .LVL284-.LVL282
 12021 03c7 14       		.uleb128 .LVL286-.LVL282
 12022 03c8 05       		.uleb128 0x5
 12023 03c9 76       		.byte	0x76
 12024 03ca 00       		.sleb128 0
 12025 03cb 33       		.byte	0x33
 12026 03cc 25       		.byte	0x25
 12027 03cd 9F       		.byte	0x9f
 12028 03ce 04       		.byte	0x4
 12029 03cf 8C02     		.uleb128 .LVL319-.LVL282
 12030 03d1 9802     		.uleb128 .LVL321-.LVL282
 12031 03d3 01       		.uleb128 0x1
 12032 03d4 68       		.byte	0x68
 12033 03d5 04       		.byte	0x4
 12034 03d6 9802     		.uleb128 .LVL321-.LVL282
 12035 03d8 9C02     		.uleb128 .LVL322-.LVL282
 12036 03da 05       		.uleb128 0x5
 12037 03db 88       		.byte	0x88
 12038 03dc 00       		.sleb128 0
 12039 03dd 33       		.byte	0x33
 12040 03de 25       		.byte	0x25
 12041 03df 9F       		.byte	0x9f
 12042 03e0 04       		.byte	0x4
 12043 03e1 8C04     		.uleb128 .LVL356-.LVL282
 12044 03e3 9804     		.uleb128 .LVL358-.LVL282
 12045 03e5 01       		.uleb128 0x1
 12046 03e6 68       		.byte	0x68
 12047 03e7 04       		.byte	0x4
 12048 03e8 9804     		.uleb128 .LVL358-.LVL282
 12049 03ea 9C04     		.uleb128 .LVL359-.LVL282
 12050 03ec 05       		.uleb128 0x5
 12051 03ed 88       		.byte	0x88
 12052 03ee 00       		.sleb128 0
 12053 03ef 33       		.byte	0x33
 12054 03f0 25       		.byte	0x25
 12055 03f1 9F       		.byte	0x9f
 12056 03f2 04       		.byte	0x4
 12057 03f3 8C06     		.uleb128 .LVL393-.LVL282
 12058 03f5 9806     		.uleb128 .LVL395-.LVL282
 12059 03f7 01       		.uleb128 0x1
 12060 03f8 69       		.byte	0x69
 12061 03f9 04       		.byte	0x4
 12062 03fa 9806     		.uleb128 .LVL395-.LVL282
 12063 03fc 9C06     		.uleb128 .LVL396-.LVL282
 12064 03fe 05       		.uleb128 0x5
 12065 03ff 89       		.byte	0x89
 12066 0400 00       		.sleb128 0
 12067 0401 33       		.byte	0x33
 12068 0402 25       		.byte	0x25
 12069 0403 9F       		.byte	0x9f
 12070 0404 04       		.byte	0x4
 12071 0405 A809     		.uleb128 .LVL444-.LVL282
 12072 0407 B409     		.uleb128 .LVL446-.LVL282
 12073 0409 01       		.uleb128 0x1
 12074 040a 56       		.byte	0x56
 12075 040b 04       		.byte	0x4
 12076 040c B409     		.uleb128 .LVL446-.LVL282
 12077 040e CC09     		.uleb128 .LVL450-.LVL282
 12078 0410 05       		.uleb128 0x5
 12079 0411 76       		.byte	0x76
 12080 0412 00       		.sleb128 0
 12081 0413 34       		.byte	0x34
 12082 0414 25       		.byte	0x25
 12083 0415 9F       		.byte	0x9f
 12084 0416 04       		.byte	0x4
 12085 0417 B40B     		.uleb128 .LVL480-.LVL282
 12086 0419 C00B     		.uleb128 .LVL482-.LVL282
 12087 041b 01       		.uleb128 0x1
 12088 041c 68       		.byte	0x68
 12089 041d 04       		.byte	0x4
 12090 041e C00B     		.uleb128 .LVL482-.LVL282
 12091 0420 E00B     		.uleb128 .LVL486-.LVL282
 12092 0422 05       		.uleb128 0x5
 12093 0423 88       		.byte	0x88
 12094 0424 00       		.sleb128 0
 12095 0425 34       		.byte	0x34
 12096 0426 25       		.byte	0x25
 12097 0427 9F       		.byte	0x9f
 12098 0428 04       		.byte	0x4
 12099 0429 B40D     		.uleb128 .LVL516-.LVL282
 12100 042b C00D     		.uleb128 .LVL518-.LVL282
 12101 042d 01       		.uleb128 0x1
 12102 042e 68       		.byte	0x68
 12103 042f 04       		.byte	0x4
 12104 0430 C00D     		.uleb128 .LVL518-.LVL282
 12105 0432 E00D     		.uleb128 .LVL522-.LVL282
 12106 0434 05       		.uleb128 0x5
 12107 0435 88       		.byte	0x88
 12108 0436 00       		.sleb128 0
 12109 0437 34       		.byte	0x34
 12110 0438 25       		.byte	0x25
 12111 0439 9F       		.byte	0x9f
 12112 043a 04       		.byte	0x4
 12113 043b B40F     		.uleb128 .LVL553-.LVL282
 12114 043d C00F     		.uleb128 .LVL555-.LVL282
 12115 043f 01       		.uleb128 0x1
 12116 0440 69       		.byte	0x69
 12117 0441 04       		.byte	0x4
 12118 0442 C00F     		.uleb128 .LVL555-.LVL282
 12119 0444 E40F     		.uleb128 .LVL559-.LVL282
 12120 0446 05       		.uleb128 0x5
 12121 0447 89       		.byte	0x89
 12122 0448 00       		.sleb128 0
 12123 0449 34       		.byte	0x34
 12124 044a 25       		.byte	0x25
 12125 044b 9F       		.byte	0x9f
 12126 044c 00       		.byte	0
 12127              	.LVUS182:
 12128 044d 00       		.uleb128 .LVU2241
 12129 044e 03       		.uleb128 .LVU2246
 12130 044f 03       		.uleb128 .LVU2246
 12131 0450 00       		.uleb128 .LVU2251
 12132 0451 00       		.uleb128 .LVU2251
 12133 0452 01       		.uleb128 .LVU2255
 12134 0453 00       		.uleb128 .LVU2363
 12135 0454 03       		.uleb128 .LVU2368
 12136 0455 03       		.uleb128 .LVU2368
 12137 0456 00       		.uleb128 .LVU2373
 12138 0457 00       		.uleb128 .LVU2373
 12139 0458 01       		.uleb128 .LVU2377
 12140 0459 00       		.uleb128 .LVU2485
 12141 045a 03       		.uleb128 .LVU2490
 12142 045b 03       		.uleb128 .LVU2490
 12143 045c 00       		.uleb128 .LVU2495
 12144 045d 00       		.uleb128 .LVU2495
 12145 045e 01       		.uleb128 .LVU2499
 12146 045f 00       		.uleb128 .LVU2608
 12147 0460 03       		.uleb128 .LVU2613
 12148 0461 03       		.uleb128 .LVU2613
 12149 0462 00       		.uleb128 .LVU2620
 12150 0463 00       		.uleb128 .LVU2620
 12151 0464 01       		.uleb128 .LVU2626
 12152 0465 00       		.uleb128 .LVU2779
 12153 0466 03       		.uleb128 .LVU2784
 12154 0467 03       		.uleb128 .LVU2784
 12155 0468 00       		.uleb128 .LVU2787
 12156 0469 00       		.uleb128 .LVU2787
 12157 046a 01       		.uleb128 .LVU2794
 12158 046b 00       		.uleb128 .LVU2906
 12159 046c 03       		.uleb128 .LVU2911
 12160 046d 03       		.uleb128 .LVU2911
 12161 046e 00       		.uleb128 .LVU2914
 12162 046f 00       		.uleb128 .LVU2914
 12163 0470 01       		.uleb128 .LVU2925
 12164 0471 00       		.uleb128 .LVU3036
 12165 0472 03       		.uleb128 .LVU3041
 12166 0473 03       		.uleb128 .LVU3041
 12167 0474 00       		.uleb128 .LVU3044
 12168 0475 00       		.uleb128 .LVU3044
 12169 0476 01       		.uleb128 .LVU3055
 12170 0477 00       		.uleb128 .LVU3165
 12171 0478 03       		.uleb128 .LVU3170
 12172 0479 03       		.uleb128 .LVU3170
 12173 047a 00       		.uleb128 .LVU3174
 12174 047b 00       		.uleb128 .LVU3174
 12175 047c 01       		.uleb128 .LVU3183
 12176              	.LLST182:
 12177 047d 06       		.byte	0x6
 12178 047e 00000000 		.4byte	.LVL283
 12179 0482 04       		.byte	0x4
 12180 0483 00       		.uleb128 .LVL283-.LVL283
 12181 0484 04       		.uleb128 .LVL284-.LVL283
 12182 0485 01       		.uleb128 0x1
 12183 0486 50       		.byte	0x50
 12184 0487 04       		.byte	0x4
 12185 0488 04       		.uleb128 .LVL284-.LVL283
 12186 0489 14       		.uleb128 .LVL287-.LVL283
 12187 048a 05       		.uleb128 0x5
 12188 048b 70       		.byte	0x70
 12189 048c 00       		.sleb128 0
 12190 048d 33       		.byte	0x33
 12191 048e 25       		.byte	0x25
 12192 048f 9F       		.byte	0x9f
 12193 0490 04       		.byte	0x4
 12194 0491 14       		.uleb128 .LVL287-.LVL283
 12195 0492 20       		.uleb128 .LVL289-.LVL283
 12196 0493 01       		.uleb128 0x1
 12197 0494 50       		.byte	0x50
 12198 0495 04       		.byte	0x4
 12199 0496 8C02     		.uleb128 .LVL320-.LVL283
 12200 0498 9002     		.uleb128 .LVL321-.LVL283
 12201 049a 01       		.uleb128 0x1
 12202 049b 67       		.byte	0x67
 12203 049c 04       		.byte	0x4
 12204 049d 9002     		.uleb128 .LVL321-.LVL283
 12205 049f A002     		.uleb128 .LVL324-.LVL283
 12206 04a1 05       		.uleb128 0x5
 12207 04a2 87       		.byte	0x87
 12208 04a3 00       		.sleb128 0
 12209 04a4 33       		.byte	0x33
 12210 04a5 25       		.byte	0x25
 12211 04a6 9F       		.byte	0x9f
 12212 04a7 04       		.byte	0x4
 12213 04a8 A002     		.uleb128 .LVL324-.LVL283
 12214 04aa AC02     		.uleb128 .LVL326-.LVL283
 12215 04ac 01       		.uleb128 0x1
 12216 04ad 67       		.byte	0x67
 12217 04ae 04       		.byte	0x4
 12218 04af 8C04     		.uleb128 .LVL357-.LVL283
 12219 04b1 9004     		.uleb128 .LVL358-.LVL283
 12220 04b3 01       		.uleb128 0x1
 12221 04b4 67       		.byte	0x67
 12222 04b5 04       		.byte	0x4
 12223 04b6 9004     		.uleb128 .LVL358-.LVL283
 12224 04b8 A004     		.uleb128 .LVL361-.LVL283
 12225 04ba 05       		.uleb128 0x5
 12226 04bb 87       		.byte	0x87
 12227 04bc 00       		.sleb128 0
 12228 04bd 33       		.byte	0x33
 12229 04be 25       		.byte	0x25
 12230 04bf 9F       		.byte	0x9f
 12231 04c0 04       		.byte	0x4
 12232 04c1 A004     		.uleb128 .LVL361-.LVL283
 12233 04c3 AC04     		.uleb128 .LVL363-.LVL283
 12234 04c5 01       		.uleb128 0x1
 12235 04c6 67       		.byte	0x67
 12236 04c7 04       		.byte	0x4
 12237 04c8 8C06     		.uleb128 .LVL394-.LVL283
 12238 04ca 9006     		.uleb128 .LVL395-.LVL283
 12239 04cc 01       		.uleb128 0x1
 12240 04cd 68       		.byte	0x68
 12241 04ce 04       		.byte	0x4
 12242 04cf 9006     		.uleb128 .LVL395-.LVL283
 12243 04d1 A406     		.uleb128 .LVL398-.LVL283
 12244 04d3 05       		.uleb128 0x5
 12245 04d4 88       		.byte	0x88
 12246 04d5 00       		.sleb128 0
 12247 04d6 33       		.byte	0x33
 12248 04d7 25       		.byte	0x25
 12249 04d8 9F       		.byte	0x9f
 12250 04d9 04       		.byte	0x4
 12251 04da A406     		.uleb128 .LVL398-.LVL283
 12252 04dc B806     		.uleb128 .LVL400-.LVL283
 12253 04de 01       		.uleb128 0x1
 12254 04df 68       		.byte	0x68
 12255 04e0 04       		.byte	0x4
 12256 04e1 A809     		.uleb128 .LVL445-.LVL283
 12257 04e3 AC09     		.uleb128 .LVL446-.LVL283
 12258 04e5 01       		.uleb128 0x1
 12259 04e6 50       		.byte	0x50
 12260 04e7 04       		.byte	0x4
 12261 04e8 AC09     		.uleb128 .LVL446-.LVL283
 12262 04ea B009     		.uleb128 .LVL447-.LVL283
 12263 04ec 05       		.uleb128 0x5
 12264 04ed 70       		.byte	0x70
 12265 04ee 00       		.sleb128 0
 12266 04ef 34       		.byte	0x34
 12267 04f0 25       		.byte	0x25
 12268 04f1 9F       		.byte	0x9f
 12269 04f2 04       		.byte	0x4
 12270 04f3 B009     		.uleb128 .LVL447-.LVL283
 12271 04f5 C809     		.uleb128 .LVL451-.LVL283
 12272 04f7 01       		.uleb128 0x1
 12273 04f8 50       		.byte	0x50
 12274 04f9 04       		.byte	0x4
 12275 04fa B40B     		.uleb128 .LVL481-.LVL283
 12276 04fc B80B     		.uleb128 .LVL482-.LVL283
 12277 04fe 01       		.uleb128 0x1
 12278 04ff 67       		.byte	0x67
 12279 0500 04       		.byte	0x4
 12280 0501 B80B     		.uleb128 .LVL482-.LVL283
 12281 0503 BC0B     		.uleb128 .LVL483-.LVL283
 12282 0505 05       		.uleb128 0x5
 12283 0506 87       		.byte	0x87
 12284 0507 00       		.sleb128 0
 12285 0508 34       		.byte	0x34
 12286 0509 25       		.byte	0x25
 12287 050a 9F       		.byte	0x9f
 12288 050b 04       		.byte	0x4
 12289 050c BC0B     		.uleb128 .LVL483-.LVL283
 12290 050e E00B     		.uleb128 .LVL487-.LVL283
 12291 0510 01       		.uleb128 0x1
 12292 0511 67       		.byte	0x67
 12293 0512 04       		.byte	0x4
 12294 0513 B40D     		.uleb128 .LVL517-.LVL283
 12295 0515 B80D     		.uleb128 .LVL518-.LVL283
 12296 0517 01       		.uleb128 0x1
 12297 0518 67       		.byte	0x67
 12298 0519 04       		.byte	0x4
 12299 051a B80D     		.uleb128 .LVL518-.LVL283
 12300 051c BC0D     		.uleb128 .LVL519-.LVL283
 12301 051e 05       		.uleb128 0x5
 12302 051f 87       		.byte	0x87
 12303 0520 00       		.sleb128 0
 12304 0521 34       		.byte	0x34
 12305 0522 25       		.byte	0x25
 12306 0523 9F       		.byte	0x9f
 12307 0524 04       		.byte	0x4
 12308 0525 BC0D     		.uleb128 .LVL519-.LVL283
 12309 0527 E00D     		.uleb128 .LVL523-.LVL283
 12310 0529 01       		.uleb128 0x1
 12311 052a 67       		.byte	0x67
 12312 052b 04       		.byte	0x4
 12313 052c B40F     		.uleb128 .LVL554-.LVL283
 12314 052e B80F     		.uleb128 .LVL555-.LVL283
 12315 0530 01       		.uleb128 0x1
 12316 0531 68       		.byte	0x68
 12317 0532 04       		.byte	0x4
 12318 0533 B80F     		.uleb128 .LVL555-.LVL283
 12319 0535 C00F     		.uleb128 .LVL557-.LVL283
 12320 0537 05       		.uleb128 0x5
 12321 0538 88       		.byte	0x88
 12322 0539 00       		.sleb128 0
 12323 053a 34       		.byte	0x34
 12324 053b 25       		.byte	0x25
 12325 053c 9F       		.byte	0x9f
 12326 053d 04       		.byte	0x4
 12327 053e C00F     		.uleb128 .LVL557-.LVL283
 12328 0540 E00F     		.uleb128 .LVL560-.LVL283
 12329 0542 01       		.uleb128 0x1
 12330 0543 68       		.byte	0x68
 12331 0544 00       		.byte	0
 12332              	.LVUS183:
 12333 0545 01       		.uleb128 .LVU2242
 12334 0546 00       		.uleb128 .LVU2252
 12335 0547 01       		.uleb128 .LVU2364
 12336 0548 00       		.uleb128 .LVU2374
 12337 0549 01       		.uleb128 .LVU2486
 12338 054a 00       		.uleb128 .LVU2496
 12339 054b 01       		.uleb128 .LVU2609
 12340 054c 00       		.uleb128 .LVU2623
 12341 054d 01       		.uleb128 .LVU2780
 12342 054e 04       		.uleb128 .LVU2785
 12343 054f 04       		.uleb128 .LVU2785
 12344 0550 00       		.uleb128 .LVU2788
 12345 0551 01       		.uleb128 .LVU2907
 12346 0552 04       		.uleb128 .LVU2912
 12347 0553 04       		.uleb128 .LVU2912
 12348 0554 00       		.uleb128 .LVU2915
 12349 0555 01       		.uleb128 .LVU3037
 12350 0556 04       		.uleb128 .LVU3042
 12351 0557 04       		.uleb128 .LVU3042
 12352 0558 00       		.uleb128 .LVU3045
 12353 0559 01       		.uleb128 .LVU3166
 12354 055a 04       		.uleb128 .LVU3171
 12355 055b 04       		.uleb128 .LVU3171
 12356 055c 00       		.uleb128 .LVU3173
 12357              	.LLST183:
 12358 055d 06       		.byte	0x6
 12359 055e 00000000 		.4byte	.LVL283
 12360 0562 04       		.byte	0x4
 12361 0563 00       		.uleb128 .LVL283-.LVL283
 12362 0564 18       		.uleb128 .LVL288-.LVL283
 12363 0565 01       		.uleb128 0x1
 12364 0566 58       		.byte	0x58
 12365 0567 04       		.byte	0x4
 12366 0568 8C02     		.uleb128 .LVL320-.LVL283
 12367 056a A402     		.uleb128 .LVL325-.LVL283
 12368 056c 01       		.uleb128 0x1
 12369 056d 50       		.byte	0x50
 12370 056e 04       		.byte	0x4
 12371 056f 8C04     		.uleb128 .LVL357-.LVL283
 12372 0571 A404     		.uleb128 .LVL362-.LVL283
 12373 0573 01       		.uleb128 0x1
 12374 0574 50       		.byte	0x50
 12375 0575 04       		.byte	0x4
 12376 0576 8C06     		.uleb128 .LVL394-.LVL283
 12377 0578 B006     		.uleb128 .LVL399-.LVL283
 12378 057a 01       		.uleb128 0x1
 12379 057b 5A       		.byte	0x5a
 12380 057c 04       		.byte	0x4
 12381 057d A809     		.uleb128 .LVL445-.LVL283
 12382 057f AC09     		.uleb128 .LVL446-.LVL283
 12383 0581 01       		.uleb128 0x1
 12384 0582 58       		.byte	0x58
 12385 0583 04       		.byte	0x4
 12386 0584 AC09     		.uleb128 .LVL446-.LVL283
 12387 0586 B409     		.uleb128 .LVL448-.LVL283
 12388 0588 05       		.uleb128 0x5
 12389 0589 78       		.byte	0x78
 12390 058a 00       		.sleb128 0
 12391 058b 35       		.byte	0x35
 12392 058c 25       		.byte	0x25
 12393 058d 9F       		.byte	0x9f
 12394 058e 04       		.byte	0x4
 12395 058f B40B     		.uleb128 .LVL481-.LVL283
 12396 0591 B80B     		.uleb128 .LVL482-.LVL283
 12397 0593 01       		.uleb128 0x1
 12398 0594 50       		.byte	0x50
 12399 0595 04       		.byte	0x4
 12400 0596 B80B     		.uleb128 .LVL482-.LVL283
 12401 0598 C00B     		.uleb128 .LVL484-.LVL283
 12402 059a 05       		.uleb128 0x5
 12403 059b 70       		.byte	0x70
 12404 059c 00       		.sleb128 0
 12405 059d 35       		.byte	0x35
 12406 059e 25       		.byte	0x25
 12407 059f 9F       		.byte	0x9f
 12408 05a0 04       		.byte	0x4
 12409 05a1 B40D     		.uleb128 .LVL517-.LVL283
 12410 05a3 B80D     		.uleb128 .LVL518-.LVL283
 12411 05a5 01       		.uleb128 0x1
 12412 05a6 50       		.byte	0x50
 12413 05a7 04       		.byte	0x4
 12414 05a8 B80D     		.uleb128 .LVL518-.LVL283
 12415 05aa C00D     		.uleb128 .LVL520-.LVL283
 12416 05ac 05       		.uleb128 0x5
 12417 05ad 70       		.byte	0x70
 12418 05ae 00       		.sleb128 0
 12419 05af 35       		.byte	0x35
 12420 05b0 25       		.byte	0x25
 12421 05b1 9F       		.byte	0x9f
 12422 05b2 04       		.byte	0x4
 12423 05b3 B40F     		.uleb128 .LVL554-.LVL283
 12424 05b5 B80F     		.uleb128 .LVL555-.LVL283
 12425 05b7 01       		.uleb128 0x1
 12426 05b8 5A       		.byte	0x5a
 12427 05b9 04       		.byte	0x4
 12428 05ba B80F     		.uleb128 .LVL555-.LVL283
 12429 05bc BC0F     		.uleb128 .LVL556-.LVL283
 12430 05be 05       		.uleb128 0x5
 12431 05bf 7A       		.byte	0x7a
 12432 05c0 00       		.sleb128 0
 12433 05c1 35       		.byte	0x35
 12434 05c2 25       		.byte	0x25
 12435 05c3 9F       		.byte	0x9f
 12436 05c4 00       		.byte	0
 12437              	.LVUS184:
 12438 05c5 00       		.uleb128 .LVU2252
 12439 05c6 01       		.uleb128 .LVU2255
 12440 05c7 00       		.uleb128 .LVU2374
 12441 05c8 01       		.uleb128 .LVU2377
 12442 05c9 00       		.uleb128 .LVU2496
 12443 05ca 01       		.uleb128 .LVU2499
 12444 05cb 00       		.uleb128 .LVU2623
 12445 05cc 01       		.uleb128 .LVU2626
 12446 05cd 00       		.uleb128 .LVU2793
 12447 05ce 01       		.uleb128 .LVU2794
 12448 05cf 00       		.uleb128 .LVU2924
 12449 05d0 01       		.uleb128 .LVU2925
 12450 05d1 00       		.uleb128 .LVU3054
 12451 05d2 01       		.uleb128 .LVU3055
 12452 05d3 00       		.uleb128 .LVU3182
 12453 05d4 01       		.uleb128 .LVU3183
 12454              	.LLST184:
 12455 05d5 06       		.byte	0x6
 12456 05d6 00000000 		.4byte	.LVL288
 12457 05da 04       		.byte	0x4
 12458 05db 00       		.uleb128 .LVL288-.LVL288
 12459 05dc 08       		.uleb128 .LVL289-.LVL288
 12460 05dd 01       		.uleb128 0x1
 12461 05de 58       		.byte	0x58
 12462 05df 04       		.byte	0x4
 12463 05e0 8C02     		.uleb128 .LVL325-.LVL288
 12464 05e2 9402     		.uleb128 .LVL326-.LVL288
 12465 05e4 01       		.uleb128 0x1
 12466 05e5 50       		.byte	0x50
 12467 05e6 04       		.byte	0x4
 12468 05e7 8C04     		.uleb128 .LVL362-.LVL288
 12469 05e9 9404     		.uleb128 .LVL363-.LVL288
 12470 05eb 01       		.uleb128 0x1
 12471 05ec 50       		.byte	0x50
 12472 05ed 04       		.byte	0x4
 12473 05ee 9806     		.uleb128 .LVL399-.LVL288
 12474 05f0 A006     		.uleb128 .LVL400-.LVL288
 12475 05f2 01       		.uleb128 0x1
 12476 05f3 5A       		.byte	0x5a
 12477 05f4 04       		.byte	0x4
 12478 05f5 B009     		.uleb128 .LVL451-.LVL288
 12479 05f7 B009     		.uleb128 .LVL451-.LVL288
 12480 05f9 01       		.uleb128 0x1
 12481 05fa 58       		.byte	0x58
 12482 05fb 04       		.byte	0x4
 12483 05fc C80B     		.uleb128 .LVL487-.LVL288
 12484 05fe C80B     		.uleb128 .LVL487-.LVL288
 12485 0600 01       		.uleb128 0x1
 12486 0601 50       		.byte	0x50
 12487 0602 04       		.byte	0x4
 12488 0603 C80D     		.uleb128 .LVL523-.LVL288
 12489 0605 C80D     		.uleb128 .LVL523-.LVL288
 12490 0607 01       		.uleb128 0x1
 12491 0608 50       		.byte	0x50
 12492 0609 04       		.byte	0x4
 12493 060a C80F     		.uleb128 .LVL560-.LVL288
 12494 060c C80F     		.uleb128 .LVL560-.LVL288
 12495 060e 01       		.uleb128 0x1
 12496 060f 5A       		.byte	0x5a
 12497 0610 00       		.byte	0
 12498              	.LVUS186:
 12499 0611 00       		.uleb128 .LVU2261
 12500 0612 00       		.uleb128 .LVU2278
 12501 0613 00       		.uleb128 .LVU2383
 12502 0614 00       		.uleb128 .LVU2401
 12503 0615 00       		.uleb128 .LVU2505
 12504 0616 00       		.uleb128 .LVU2523
 12505 0617 01       		.uleb128 .LVU2630
 12506 0618 00       		.uleb128 .LVU2647
 12507 0619 00       		.uleb128 .LVU2800
 12508 061a 00       		.uleb128 .LVU2821
 12509 061b 01       		.uleb128 .LVU2928
 12510 061c 00       		.uleb128 .LVU2949
 12511 061d 01       		.uleb128 .LVU3058
 12512 061e 00       		.uleb128 .LVU3079
 12513 061f 01       		.uleb128 .LVU3187
 12514 0620 00       		.uleb128 .LVU3208
 12515              	.LLST186:
 12516 0621 06       		.byte	0x6
 12517 0622 00000000 		.4byte	.LVL290
 12518 0626 04       		.byte	0x4
 12519 0627 00       		.uleb128 .LVL290-.LVL290
 12520 0628 18       		.uleb128 .LVL294-.LVL290
 12521 0629 01       		.uleb128 0x1
 12522 062a 57       		.byte	0x57
 12523 062b 04       		.byte	0x4
 12524 062c 8802     		.uleb128 .LVL327-.LVL290
 12525 062e A402     		.uleb128 .LVL332-.LVL290
 12526 0630 01       		.uleb128 0x1
 12527 0631 69       		.byte	0x69
 12528 0632 04       		.byte	0x4
 12529 0633 8804     		.uleb128 .LVL364-.LVL290
 12530 0635 A404     		.uleb128 .LVL369-.LVL290
 12531 0637 01       		.uleb128 0x1
 12532 0638 69       		.byte	0x69
 12533 0639 04       		.byte	0x4
 12534 063a 8C06     		.uleb128 .LVL401-.LVL290
 12535 063c A406     		.uleb128 .LVL405-.LVL290
 12536 063e 01       		.uleb128 0x1
 12537 063f 56       		.byte	0x56
 12538 0640 04       		.byte	0x4
 12539 0641 A809     		.uleb128 .LVL452-.LVL290
 12540 0643 CC09     		.uleb128 .LVL458-.LVL290
 12541 0645 01       		.uleb128 0x1
 12542 0646 57       		.byte	0x57
 12543 0647 04       		.byte	0x4
 12544 0648 B00B     		.uleb128 .LVL488-.LVL290
 12545 064a D40B     		.uleb128 .LVL494-.LVL290
 12546 064c 01       		.uleb128 0x1
 12547 064d 69       		.byte	0x69
 12548 064e 04       		.byte	0x4
 12549 064f B00D     		.uleb128 .LVL524-.LVL290
 12550 0651 D40D     		.uleb128 .LVL530-.LVL290
 12551 0653 01       		.uleb128 0x1
 12552 0654 69       		.byte	0x69
 12553 0655 04       		.byte	0x4
 12554 0656 B40F     		.uleb128 .LVL561-.LVL290
 12555 0658 D40F     		.uleb128 .LVL566-.LVL290
 12556 065a 01       		.uleb128 0x1
 12557 065b 56       		.byte	0x56
 12558 065c 00       		.byte	0
 12559              	.LVUS187:
 12560 065d 04       		.uleb128 .LVU2265
 12561 065e 00       		.uleb128 .LVU2273
 12562 065f 01       		.uleb128 .LVU2274
 12563 0660 00       		.uleb128 .LVU2278
 12564 0661 04       		.uleb128 .LVU2387
 12565 0662 00       		.uleb128 .LVU2395
 12566 0663 01       		.uleb128 .LVU2396
 12567 0664 00       		.uleb128 .LVU2401
 12568 0665 04       		.uleb128 .LVU2509
 12569 0666 00       		.uleb128 .LVU2517
 12570 0667 01       		.uleb128 .LVU2518
 12571 0668 00       		.uleb128 .LVU2523
 12572 0669 05       		.uleb128 .LVU2634
 12573 066a 00       		.uleb128 .LVU2641
 12574 066b 01       		.uleb128 .LVU2642
 12575 066c 00       		.uleb128 .LVU2647
 12576 066d 04       		.uleb128 .LVU2804
 12577 066e 00       		.uleb128 .LVU2812
 12578 066f 01       		.uleb128 .LVU2813
 12579 0670 00       		.uleb128 .LVU2821
 12580 0671 05       		.uleb128 .LVU2932
 12581 0672 00       		.uleb128 .LVU2940
 12582 0673 01       		.uleb128 .LVU2941
 12583 0674 00       		.uleb128 .LVU2949
 12584 0675 05       		.uleb128 .LVU3062
 12585 0676 00       		.uleb128 .LVU3070
 12586 0677 01       		.uleb128 .LVU3071
 12587 0678 00       		.uleb128 .LVU3079
 12588 0679 05       		.uleb128 .LVU3191
 12589 067a 00       		.uleb128 .LVU3198
 12590 067b 01       		.uleb128 .LVU3199
 12591 067c 00       		.uleb128 .LVU3208
 12592              	.LLST187:
 12593 067d 06       		.byte	0x6
 12594 067e 00000000 		.4byte	.LVL290
 12595 0682 04       		.byte	0x4
 12596 0683 00       		.uleb128 .LVL290-.LVL290
 12597 0684 14       		.uleb128 .LVL293-.LVL290
 12598 0685 05       		.uleb128 0x5
 12599 0686 77       		.byte	0x77
 12600 0687 00       		.sleb128 0
 12601 0688 48       		.byte	0x48
 12602 0689 25       		.byte	0x25
 12603 068a 9F       		.byte	0x9f
 12604 068b 04       		.byte	0x4
 12605 068c 14       		.uleb128 .LVL293-.LVL290
 12606 068d 18       		.uleb128 .LVL294-.LVL290
 12607 068e 05       		.uleb128 0x5
 12608 068f 77       		.byte	0x77
 12609 0690 00       		.sleb128 0
 12610 0691 4B       		.byte	0x4b
 12611 0692 25       		.byte	0x25
 12612 0693 9F       		.byte	0x9f
 12613 0694 04       		.byte	0x4
 12614 0695 8802     		.uleb128 .LVL327-.LVL290
 12615 0697 9C02     		.uleb128 .LVL330-.LVL290
 12616 0699 05       		.uleb128 0x5
 12617 069a 89       		.byte	0x89
 12618 069b 00       		.sleb128 0
 12619 069c 48       		.byte	0x48
 12620 069d 25       		.byte	0x25
 12621 069e 9F       		.byte	0x9f
 12622 069f 04       		.byte	0x4
 12623 06a0 9C02     		.uleb128 .LVL330-.LVL290
 12624 06a2 A402     		.uleb128 .LVL332-.LVL290
 12625 06a4 05       		.uleb128 0x5
 12626 06a5 89       		.byte	0x89
 12627 06a6 00       		.sleb128 0
 12628 06a7 4B       		.byte	0x4b
 12629 06a8 25       		.byte	0x25
 12630 06a9 9F       		.byte	0x9f
 12631 06aa 04       		.byte	0x4
 12632 06ab 8804     		.uleb128 .LVL364-.LVL290
 12633 06ad 9C04     		.uleb128 .LVL367-.LVL290
 12634 06af 05       		.uleb128 0x5
 12635 06b0 89       		.byte	0x89
 12636 06b1 00       		.sleb128 0
 12637 06b2 48       		.byte	0x48
 12638 06b3 25       		.byte	0x25
 12639 06b4 9F       		.byte	0x9f
 12640 06b5 04       		.byte	0x4
 12641 06b6 9C04     		.uleb128 .LVL367-.LVL290
 12642 06b8 A404     		.uleb128 .LVL369-.LVL290
 12643 06ba 05       		.uleb128 0x5
 12644 06bb 89       		.byte	0x89
 12645 06bc 00       		.sleb128 0
 12646 06bd 4B       		.byte	0x4b
 12647 06be 25       		.byte	0x25
 12648 06bf 9F       		.byte	0x9f
 12649 06c0 04       		.byte	0x4
 12650 06c1 8C06     		.uleb128 .LVL401-.LVL290
 12651 06c3 9C06     		.uleb128 .LVL403-.LVL290
 12652 06c5 05       		.uleb128 0x5
 12653 06c6 76       		.byte	0x76
 12654 06c7 00       		.sleb128 0
 12655 06c8 48       		.byte	0x48
 12656 06c9 25       		.byte	0x25
 12657 06ca 9F       		.byte	0x9f
 12658 06cb 04       		.byte	0x4
 12659 06cc 9C06     		.uleb128 .LVL403-.LVL290
 12660 06ce A406     		.uleb128 .LVL405-.LVL290
 12661 06d0 05       		.uleb128 0x5
 12662 06d1 76       		.byte	0x76
 12663 06d2 00       		.sleb128 0
 12664 06d3 4B       		.byte	0x4b
 12665 06d4 25       		.byte	0x25
 12666 06d5 9F       		.byte	0x9f
 12667 06d6 04       		.byte	0x4
 12668 06d7 A809     		.uleb128 .LVL452-.LVL290
 12669 06d9 BC09     		.uleb128 .LVL455-.LVL290
 12670 06db 05       		.uleb128 0x5
 12671 06dc 77       		.byte	0x77
 12672 06dd 00       		.sleb128 0
 12673 06de 48       		.byte	0x48
 12674 06df 25       		.byte	0x25
 12675 06e0 9F       		.byte	0x9f
 12676 06e1 04       		.byte	0x4
 12677 06e2 BC09     		.uleb128 .LVL455-.LVL290
 12678 06e4 CC09     		.uleb128 .LVL458-.LVL290
 12679 06e6 05       		.uleb128 0x5
 12680 06e7 77       		.byte	0x77
 12681 06e8 00       		.sleb128 0
 12682 06e9 4C       		.byte	0x4c
 12683 06ea 25       		.byte	0x25
 12684 06eb 9F       		.byte	0x9f
 12685 06ec 04       		.byte	0x4
 12686 06ed B00B     		.uleb128 .LVL488-.LVL290
 12687 06ef C40B     		.uleb128 .LVL491-.LVL290
 12688 06f1 05       		.uleb128 0x5
 12689 06f2 89       		.byte	0x89
 12690 06f3 00       		.sleb128 0
 12691 06f4 48       		.byte	0x48
 12692 06f5 25       		.byte	0x25
 12693 06f6 9F       		.byte	0x9f
 12694 06f7 04       		.byte	0x4
 12695 06f8 C40B     		.uleb128 .LVL491-.LVL290
 12696 06fa D40B     		.uleb128 .LVL494-.LVL290
 12697 06fc 05       		.uleb128 0x5
 12698 06fd 89       		.byte	0x89
 12699 06fe 00       		.sleb128 0
 12700 06ff 4C       		.byte	0x4c
 12701 0700 25       		.byte	0x25
 12702 0701 9F       		.byte	0x9f
 12703 0702 04       		.byte	0x4
 12704 0703 B00D     		.uleb128 .LVL524-.LVL290
 12705 0705 C40D     		.uleb128 .LVL527-.LVL290
 12706 0707 05       		.uleb128 0x5
 12707 0708 89       		.byte	0x89
 12708 0709 00       		.sleb128 0
 12709 070a 48       		.byte	0x48
 12710 070b 25       		.byte	0x25
 12711 070c 9F       		.byte	0x9f
 12712 070d 04       		.byte	0x4
 12713 070e C40D     		.uleb128 .LVL527-.LVL290
 12714 0710 D40D     		.uleb128 .LVL530-.LVL290
 12715 0712 05       		.uleb128 0x5
 12716 0713 89       		.byte	0x89
 12717 0714 00       		.sleb128 0
 12718 0715 4C       		.byte	0x4c
 12719 0716 25       		.byte	0x25
 12720 0717 9F       		.byte	0x9f
 12721 0718 04       		.byte	0x4
 12722 0719 B40F     		.uleb128 .LVL561-.LVL290
 12723 071b C40F     		.uleb128 .LVL563-.LVL290
 12724 071d 05       		.uleb128 0x5
 12725 071e 76       		.byte	0x76
 12726 071f 00       		.sleb128 0
 12727 0720 48       		.byte	0x48
 12728 0721 25       		.byte	0x25
 12729 0722 9F       		.byte	0x9f
 12730 0723 04       		.byte	0x4
 12731 0724 C40F     		.uleb128 .LVL563-.LVL290
 12732 0726 D40F     		.uleb128 .LVL566-.LVL290
 12733 0728 05       		.uleb128 0x5
 12734 0729 76       		.byte	0x76
 12735 072a 00       		.sleb128 0
 12736 072b 4C       		.byte	0x4c
 12737 072c 25       		.byte	0x25
 12738 072d 9F       		.byte	0x9f
 12739 072e 00       		.byte	0
 12740              	.LVUS188:
 12741 072f 00       		.uleb128 .LVU2268
 12742 0730 02       		.uleb128 .LVU2275
 12743 0731 02       		.uleb128 .LVU2275
 12744 0732 00       		.uleb128 .LVU2279
 12745 0733 00       		.uleb128 .LVU2390
 12746 0734 02       		.uleb128 .LVU2397
 12747 0735 02       		.uleb128 .LVU2397
 12748 0736 00       		.uleb128 .LVU2400
 12749 0737 00       		.uleb128 .LVU2512
 12750 0738 02       		.uleb128 .LVU2519
 12751 0739 02       		.uleb128 .LVU2519
 12752 073a 00       		.uleb128 .LVU2522
 12753 073b 00       		.uleb128 .LVU2638
 12754 073c 02       		.uleb128 .LVU2643
 12755 073d 02       		.uleb128 .LVU2643
 12756 073e 00       		.uleb128 .LVU2646
 12757 073f 00       		.uleb128 .LVU2807
 12758 0740 02       		.uleb128 .LVU2814
 12759 0741 02       		.uleb128 .LVU2814
 12760 0742 00       		.uleb128 .LVU2823
 12761 0743 00       		.uleb128 .LVU2935
 12762 0744 02       		.uleb128 .LVU2942
 12763 0745 02       		.uleb128 .LVU2942
 12764 0746 00       		.uleb128 .LVU2953
 12765 0747 00       		.uleb128 .LVU3065
 12766 0748 02       		.uleb128 .LVU3072
 12767 0749 02       		.uleb128 .LVU3072
 12768 074a 00       		.uleb128 .LVU3083
 12769 074b 06       		.uleb128 .LVU3192
 12770 074c 02       		.uleb128 .LVU3200
 12771 074d 02       		.uleb128 .LVU3200
 12772 074e 00       		.uleb128 .LVU3212
 12773              	.LLST188:
 12774 074f 06       		.byte	0x6
 12775 0750 00000000 		.4byte	.LVL291
 12776 0754 04       		.byte	0x4
 12777 0755 00       		.uleb128 .LVL291-.LVL291
 12778 0756 0C       		.uleb128 .LVL293-.LVL291
 12779 0757 01       		.uleb128 0x1
 12780 0758 50       		.byte	0x50
 12781 0759 04       		.byte	0x4
 12782 075a 0C       		.uleb128 .LVL293-.LVL291
 12783 075b 14       		.uleb128 .LVL295-.LVL291
 12784 075c 05       		.uleb128 0x5
 12785 075d 70       		.byte	0x70
 12786 075e 00       		.sleb128 0
 12787 075f 33       		.byte	0x33
 12788 0760 25       		.byte	0x25
 12789 0761 9F       		.byte	0x9f
 12790 0762 04       		.byte	0x4
 12791 0763 8802     		.uleb128 .LVL328-.LVL291
 12792 0765 9402     		.uleb128 .LVL330-.LVL291
 12793 0767 01       		.uleb128 0x1
 12794 0768 68       		.byte	0x68
 12795 0769 04       		.byte	0x4
 12796 076a 9402     		.uleb128 .LVL330-.LVL291
 12797 076c 9802     		.uleb128 .LVL331-.LVL291
 12798 076e 05       		.uleb128 0x5
 12799 076f 88       		.byte	0x88
 12800 0770 00       		.sleb128 0
 12801 0771 33       		.byte	0x33
 12802 0772 25       		.byte	0x25
 12803 0773 9F       		.byte	0x9f
 12804 0774 04       		.byte	0x4
 12805 0775 8804     		.uleb128 .LVL365-.LVL291
 12806 0777 9404     		.uleb128 .LVL367-.LVL291
 12807 0779 01       		.uleb128 0x1
 12808 077a 68       		.byte	0x68
 12809 077b 04       		.byte	0x4
 12810 077c 9404     		.uleb128 .LVL367-.LVL291
 12811 077e 9804     		.uleb128 .LVL368-.LVL291
 12812 0780 05       		.uleb128 0x5
 12813 0781 88       		.byte	0x88
 12814 0782 00       		.sleb128 0
 12815 0783 33       		.byte	0x33
 12816 0784 25       		.byte	0x25
 12817 0785 9F       		.byte	0x9f
 12818 0786 04       		.byte	0x4
 12819 0787 9006     		.uleb128 .LVL402-.LVL291
 12820 0789 9406     		.uleb128 .LVL403-.LVL291
 12821 078b 01       		.uleb128 0x1
 12822 078c 50       		.byte	0x50
 12823 078d 04       		.byte	0x4
 12824 078e 9406     		.uleb128 .LVL403-.LVL291
 12825 0790 9806     		.uleb128 .LVL404-.LVL291
 12826 0792 05       		.uleb128 0x5
 12827 0793 70       		.byte	0x70
 12828 0794 00       		.sleb128 0
 12829 0795 33       		.byte	0x33
 12830 0796 25       		.byte	0x25
 12831 0797 9F       		.byte	0x9f
 12832 0798 04       		.byte	0x4
 12833 0799 A809     		.uleb128 .LVL453-.LVL291
 12834 079b B409     		.uleb128 .LVL455-.LVL291
 12835 079d 01       		.uleb128 0x1
 12836 079e 50       		.byte	0x50
 12837 079f 04       		.byte	0x4
 12838 07a0 B409     		.uleb128 .LVL455-.LVL291
 12839 07a2 CC09     		.uleb128 .LVL459-.LVL291
 12840 07a4 05       		.uleb128 0x5
 12841 07a5 70       		.byte	0x70
 12842 07a6 00       		.sleb128 0
 12843 07a7 34       		.byte	0x34
 12844 07a8 25       		.byte	0x25
 12845 07a9 9F       		.byte	0x9f
 12846 07aa 04       		.byte	0x4
 12847 07ab B00B     		.uleb128 .LVL489-.LVL291
 12848 07ad BC0B     		.uleb128 .LVL491-.LVL291
 12849 07af 01       		.uleb128 0x1
 12850 07b0 68       		.byte	0x68
 12851 07b1 04       		.byte	0x4
 12852 07b2 BC0B     		.uleb128 .LVL491-.LVL291
 12853 07b4 DC0B     		.uleb128 .LVL495-.LVL291
 12854 07b6 05       		.uleb128 0x5
 12855 07b7 88       		.byte	0x88
 12856 07b8 00       		.sleb128 0
 12857 07b9 34       		.byte	0x34
 12858 07ba 25       		.byte	0x25
 12859 07bb 9F       		.byte	0x9f
 12860 07bc 04       		.byte	0x4
 12861 07bd B00D     		.uleb128 .LVL525-.LVL291
 12862 07bf BC0D     		.uleb128 .LVL527-.LVL291
 12863 07c1 01       		.uleb128 0x1
 12864 07c2 68       		.byte	0x68
 12865 07c3 04       		.byte	0x4
 12866 07c4 BC0D     		.uleb128 .LVL527-.LVL291
 12867 07c6 DC0D     		.uleb128 .LVL531-.LVL291
 12868 07c8 05       		.uleb128 0x5
 12869 07c9 88       		.byte	0x88
 12870 07ca 00       		.sleb128 0
 12871 07cb 34       		.byte	0x34
 12872 07cc 25       		.byte	0x25
 12873 07cd 9F       		.byte	0x9f
 12874 07ce 04       		.byte	0x4
 12875 07cf AC0F     		.uleb128 .LVL561-.LVL291
 12876 07d1 BC0F     		.uleb128 .LVL563-.LVL291
 12877 07d3 01       		.uleb128 0x1
 12878 07d4 50       		.byte	0x50
 12879 07d5 04       		.byte	0x4
 12880 07d6 BC0F     		.uleb128 .LVL563-.LVL291
 12881 07d8 E00F     		.uleb128 .LVL567-.LVL291
 12882 07da 05       		.uleb128 0x5
 12883 07db 70       		.byte	0x70
 12884 07dc 00       		.sleb128 0
 12885 07dd 34       		.byte	0x34
 12886 07de 25       		.byte	0x25
 12887 07df 9F       		.byte	0x9f
 12888 07e0 00       		.byte	0
 12889              	.LVUS189:
 12890 07e1 00       		.uleb128 .LVU2271
 12891 07e2 03       		.uleb128 .LVU2276
 12892 07e3 03       		.uleb128 .LVU2276
 12893 07e4 00       		.uleb128 .LVU2281
 12894 07e5 00       		.uleb128 .LVU2281
 12895 07e6 01       		.uleb128 .LVU2285
 12896 07e7 00       		.uleb128 .LVU2393
 12897 07e8 03       		.uleb128 .LVU2398
 12898 07e9 03       		.uleb128 .LVU2398
 12899 07ea 00       		.uleb128 .LVU2403
 12900 07eb 00       		.uleb128 .LVU2403
 12901 07ec 01       		.uleb128 .LVU2407
 12902 07ed 00       		.uleb128 .LVU2515
 12903 07ee 03       		.uleb128 .LVU2520
 12904 07ef 03       		.uleb128 .LVU2520
 12905 07f0 00       		.uleb128 .LVU2525
 12906 07f1 00       		.uleb128 .LVU2525
 12907 07f2 01       		.uleb128 .LVU2529
 12908 07f3 01       		.uleb128 .LVU2639
 12909 07f4 03       		.uleb128 .LVU2644
 12910 07f5 03       		.uleb128 .LVU2644
 12911 07f6 00       		.uleb128 .LVU2651
 12912 07f7 00       		.uleb128 .LVU2651
 12913 07f8 01       		.uleb128 .LVU2657
 12914 07f9 00       		.uleb128 .LVU2810
 12915 07fa 03       		.uleb128 .LVU2815
 12916 07fb 03       		.uleb128 .LVU2815
 12917 07fc 00       		.uleb128 .LVU2818
 12918 07fd 00       		.uleb128 .LVU2818
 12919 07fe 01       		.uleb128 .LVU2825
 12920 07ff 00       		.uleb128 .LVU2938
 12921 0800 03       		.uleb128 .LVU2943
 12922 0801 03       		.uleb128 .LVU2943
 12923 0802 00       		.uleb128 .LVU2946
 12924 0803 00       		.uleb128 .LVU2946
 12925 0804 01       		.uleb128 .LVU2957
 12926 0805 00       		.uleb128 .LVU3068
 12927 0806 03       		.uleb128 .LVU3073
 12928 0807 03       		.uleb128 .LVU3073
 12929 0808 00       		.uleb128 .LVU3076
 12930 0809 00       		.uleb128 .LVU3076
 12931 080a 01       		.uleb128 .LVU3087
 12932 080b 00       		.uleb128 .LVU3196
 12933 080c 03       		.uleb128 .LVU3201
 12934 080d 03       		.uleb128 .LVU3201
 12935 080e 00       		.uleb128 .LVU3205
 12936 080f 00       		.uleb128 .LVU3205
 12937 0810 01       		.uleb128 .LVU3214
 12938              	.LLST189:
 12939 0811 06       		.byte	0x6
 12940 0812 00000000 		.4byte	.LVL292
 12941 0816 04       		.byte	0x4
 12942 0817 00       		.uleb128 .LVL292-.LVL292
 12943 0818 04       		.uleb128 .LVL293-.LVL292
 12944 0819 01       		.uleb128 0x1
 12945 081a 69       		.byte	0x69
 12946 081b 04       		.byte	0x4
 12947 081c 04       		.uleb128 .LVL293-.LVL292
 12948 081d 14       		.uleb128 .LVL296-.LVL292
 12949 081e 05       		.uleb128 0x5
 12950 081f 89       		.byte	0x89
 12951 0820 00       		.sleb128 0
 12952 0821 33       		.byte	0x33
 12953 0822 25       		.byte	0x25
 12954 0823 9F       		.byte	0x9f
 12955 0824 04       		.byte	0x4
 12956 0825 14       		.uleb128 .LVL296-.LVL292
 12957 0826 20       		.uleb128 .LVL298-.LVL292
 12958 0827 01       		.uleb128 0x1
 12959 0828 69       		.byte	0x69
 12960 0829 04       		.byte	0x4
 12961 082a 8802     		.uleb128 .LVL329-.LVL292
 12962 082c 8C02     		.uleb128 .LVL330-.LVL292
 12963 082e 01       		.uleb128 0x1
 12964 082f 67       		.byte	0x67
 12965 0830 04       		.byte	0x4
 12966 0831 8C02     		.uleb128 .LVL330-.LVL292
 12967 0833 9C02     		.uleb128 .LVL333-.LVL292
 12968 0835 05       		.uleb128 0x5
 12969 0836 87       		.byte	0x87
 12970 0837 00       		.sleb128 0
 12971 0838 33       		.byte	0x33
 12972 0839 25       		.byte	0x25
 12973 083a 9F       		.byte	0x9f
 12974 083b 04       		.byte	0x4
 12975 083c 9C02     		.uleb128 .LVL333-.LVL292
 12976 083e A802     		.uleb128 .LVL335-.LVL292
 12977 0840 01       		.uleb128 0x1
 12978 0841 67       		.byte	0x67
 12979 0842 04       		.byte	0x4
 12980 0843 8804     		.uleb128 .LVL366-.LVL292
 12981 0845 8C04     		.uleb128 .LVL367-.LVL292
 12982 0847 01       		.uleb128 0x1
 12983 0848 67       		.byte	0x67
 12984 0849 04       		.byte	0x4
 12985 084a 8C04     		.uleb128 .LVL367-.LVL292
 12986 084c 9C04     		.uleb128 .LVL370-.LVL292
 12987 084e 05       		.uleb128 0x5
 12988 084f 87       		.byte	0x87
 12989 0850 00       		.sleb128 0
 12990 0851 33       		.byte	0x33
 12991 0852 25       		.byte	0x25
 12992 0853 9F       		.byte	0x9f
 12993 0854 04       		.byte	0x4
 12994 0855 9C04     		.uleb128 .LVL370-.LVL292
 12995 0857 A804     		.uleb128 .LVL372-.LVL292
 12996 0859 01       		.uleb128 0x1
 12997 085a 67       		.byte	0x67
 12998 085b 04       		.byte	0x4
 12999 085c 8806     		.uleb128 .LVL402-.LVL292
 13000 085e 8C06     		.uleb128 .LVL403-.LVL292
 13001 0860 01       		.uleb128 0x1
 13002 0861 69       		.byte	0x69
 13003 0862 04       		.byte	0x4
 13004 0863 8C06     		.uleb128 .LVL403-.LVL292
 13005 0865 A006     		.uleb128 .LVL406-.LVL292
 13006 0867 05       		.uleb128 0x5
 13007 0868 89       		.byte	0x89
 13008 0869 00       		.sleb128 0
 13009 086a 33       		.byte	0x33
 13010 086b 25       		.byte	0x25
 13011 086c 9F       		.byte	0x9f
 13012 086d 04       		.byte	0x4
 13013 086e A006     		.uleb128 .LVL406-.LVL292
 13014 0870 B406     		.uleb128 .LVL408-.LVL292
 13015 0872 01       		.uleb128 0x1
 13016 0873 69       		.byte	0x69
 13017 0874 04       		.byte	0x4
 13018 0875 A809     		.uleb128 .LVL454-.LVL292
 13019 0877 AC09     		.uleb128 .LVL455-.LVL292
 13020 0879 01       		.uleb128 0x1
 13021 087a 69       		.byte	0x69
 13022 087b 04       		.byte	0x4
 13023 087c AC09     		.uleb128 .LVL455-.LVL292
 13024 087e B009     		.uleb128 .LVL456-.LVL292
 13025 0880 05       		.uleb128 0x5
 13026 0881 89       		.byte	0x89
 13027 0882 00       		.sleb128 0
 13028 0883 34       		.byte	0x34
 13029 0884 25       		.byte	0x25
 13030 0885 9F       		.byte	0x9f
 13031 0886 04       		.byte	0x4
 13032 0887 B009     		.uleb128 .LVL456-.LVL292
 13033 0889 C809     		.uleb128 .LVL460-.LVL292
 13034 088b 01       		.uleb128 0x1
 13035 088c 69       		.byte	0x69
 13036 088d 04       		.byte	0x4
 13037 088e B00B     		.uleb128 .LVL490-.LVL292
 13038 0890 B40B     		.uleb128 .LVL491-.LVL292
 13039 0892 01       		.uleb128 0x1
 13040 0893 67       		.byte	0x67
 13041 0894 04       		.byte	0x4
 13042 0895 B40B     		.uleb128 .LVL491-.LVL292
 13043 0897 B80B     		.uleb128 .LVL492-.LVL292
 13044 0899 05       		.uleb128 0x5
 13045 089a 87       		.byte	0x87
 13046 089b 00       		.sleb128 0
 13047 089c 34       		.byte	0x34
 13048 089d 25       		.byte	0x25
 13049 089e 9F       		.byte	0x9f
 13050 089f 04       		.byte	0x4
 13051 08a0 B80B     		.uleb128 .LVL492-.LVL292
 13052 08a2 DC0B     		.uleb128 .LVL496-.LVL292
 13053 08a4 01       		.uleb128 0x1
 13054 08a5 67       		.byte	0x67
 13055 08a6 04       		.byte	0x4
 13056 08a7 B00D     		.uleb128 .LVL526-.LVL292
 13057 08a9 B40D     		.uleb128 .LVL527-.LVL292
 13058 08ab 01       		.uleb128 0x1
 13059 08ac 67       		.byte	0x67
 13060 08ad 04       		.byte	0x4
 13061 08ae B40D     		.uleb128 .LVL527-.LVL292
 13062 08b0 B80D     		.uleb128 .LVL528-.LVL292
 13063 08b2 05       		.uleb128 0x5
 13064 08b3 87       		.byte	0x87
 13065 08b4 00       		.sleb128 0
 13066 08b5 34       		.byte	0x34
 13067 08b6 25       		.byte	0x25
 13068 08b7 9F       		.byte	0x9f
 13069 08b8 04       		.byte	0x4
 13070 08b9 B80D     		.uleb128 .LVL528-.LVL292
 13071 08bb DC0D     		.uleb128 .LVL532-.LVL292
 13072 08bd 01       		.uleb128 0x1
 13073 08be 67       		.byte	0x67
 13074 08bf 04       		.byte	0x4
 13075 08c0 B00F     		.uleb128 .LVL562-.LVL292
 13076 08c2 B40F     		.uleb128 .LVL563-.LVL292
 13077 08c4 01       		.uleb128 0x1
 13078 08c5 69       		.byte	0x69
 13079 08c6 04       		.byte	0x4
 13080 08c7 B40F     		.uleb128 .LVL563-.LVL292
 13081 08c9 BC0F     		.uleb128 .LVL565-.LVL292
 13082 08cb 05       		.uleb128 0x5
 13083 08cc 89       		.byte	0x89
 13084 08cd 00       		.sleb128 0
 13085 08ce 34       		.byte	0x34
 13086 08cf 25       		.byte	0x25
 13087 08d0 9F       		.byte	0x9f
 13088 08d1 04       		.byte	0x4
 13089 08d2 BC0F     		.uleb128 .LVL565-.LVL292
 13090 08d4 DC0F     		.uleb128 .LVL568-.LVL292
 13091 08d6 01       		.uleb128 0x1
 13092 08d7 69       		.byte	0x69
 13093 08d8 00       		.byte	0
 13094              	.LVUS190:
 13095 08d9 01       		.uleb128 .LVU2272
 13096 08da 00       		.uleb128 .LVU2282
 13097 08db 01       		.uleb128 .LVU2394
 13098 08dc 00       		.uleb128 .LVU2404
 13099 08dd 01       		.uleb128 .LVU2516
 13100 08de 00       		.uleb128 .LVU2526
 13101 08df 02       		.uleb128 .LVU2640
 13102 08e0 00       		.uleb128 .LVU2654
 13103 08e1 01       		.uleb128 .LVU2811
 13104 08e2 04       		.uleb128 .LVU2816
 13105 08e3 04       		.uleb128 .LVU2816
 13106 08e4 00       		.uleb128 .LVU2819
 13107 08e5 01       		.uleb128 .LVU2939
 13108 08e6 04       		.uleb128 .LVU2944
 13109 08e7 04       		.uleb128 .LVU2944
 13110 08e8 00       		.uleb128 .LVU2947
 13111 08e9 01       		.uleb128 .LVU3069
 13112 08ea 04       		.uleb128 .LVU3074
 13113 08eb 04       		.uleb128 .LVU3074
 13114 08ec 00       		.uleb128 .LVU3077
 13115 08ed 01       		.uleb128 .LVU3197
 13116 08ee 04       		.uleb128 .LVU3202
 13117 08ef 04       		.uleb128 .LVU3202
 13118 08f0 00       		.uleb128 .LVU3204
 13119              	.LLST190:
 13120 08f1 06       		.byte	0x6
 13121 08f2 00000000 		.4byte	.LVL292
 13122 08f6 04       		.byte	0x4
 13123 08f7 00       		.uleb128 .LVL292-.LVL292
 13124 08f8 18       		.uleb128 .LVL297-.LVL292
 13125 08f9 01       		.uleb128 0x1
 13126 08fa 58       		.byte	0x58
 13127 08fb 04       		.byte	0x4
 13128 08fc 8802     		.uleb128 .LVL329-.LVL292
 13129 08fe A002     		.uleb128 .LVL334-.LVL292
 13130 0900 01       		.uleb128 0x1
 13131 0901 50       		.byte	0x50
 13132 0902 04       		.byte	0x4
 13133 0903 8804     		.uleb128 .LVL366-.LVL292
 13134 0905 A004     		.uleb128 .LVL371-.LVL292
 13135 0907 01       		.uleb128 0x1
 13136 0908 50       		.byte	0x50
 13137 0909 04       		.byte	0x4
 13138 090a 8806     		.uleb128 .LVL402-.LVL292
 13139 090c AC06     		.uleb128 .LVL407-.LVL292
 13140 090e 01       		.uleb128 0x1
 13141 090f 5A       		.byte	0x5a
 13142 0910 04       		.byte	0x4
 13143 0911 A809     		.uleb128 .LVL454-.LVL292
 13144 0913 AC09     		.uleb128 .LVL455-.LVL292
 13145 0915 01       		.uleb128 0x1
 13146 0916 58       		.byte	0x58
 13147 0917 04       		.byte	0x4
 13148 0918 AC09     		.uleb128 .LVL455-.LVL292
 13149 091a B409     		.uleb128 .LVL457-.LVL292
 13150 091c 05       		.uleb128 0x5
 13151 091d 78       		.byte	0x78
 13152 091e 00       		.sleb128 0
 13153 091f 35       		.byte	0x35
 13154 0920 25       		.byte	0x25
 13155 0921 9F       		.byte	0x9f
 13156 0922 04       		.byte	0x4
 13157 0923 B00B     		.uleb128 .LVL490-.LVL292
 13158 0925 B40B     		.uleb128 .LVL491-.LVL292
 13159 0927 01       		.uleb128 0x1
 13160 0928 50       		.byte	0x50
 13161 0929 04       		.byte	0x4
 13162 092a B40B     		.uleb128 .LVL491-.LVL292
 13163 092c BC0B     		.uleb128 .LVL493-.LVL292
 13164 092e 05       		.uleb128 0x5
 13165 092f 70       		.byte	0x70
 13166 0930 00       		.sleb128 0
 13167 0931 35       		.byte	0x35
 13168 0932 25       		.byte	0x25
 13169 0933 9F       		.byte	0x9f
 13170 0934 04       		.byte	0x4
 13171 0935 B00D     		.uleb128 .LVL526-.LVL292
 13172 0937 B40D     		.uleb128 .LVL527-.LVL292
 13173 0939 01       		.uleb128 0x1
 13174 093a 50       		.byte	0x50
 13175 093b 04       		.byte	0x4
 13176 093c B40D     		.uleb128 .LVL527-.LVL292
 13177 093e BC0D     		.uleb128 .LVL529-.LVL292
 13178 0940 05       		.uleb128 0x5
 13179 0941 70       		.byte	0x70
 13180 0942 00       		.sleb128 0
 13181 0943 35       		.byte	0x35
 13182 0944 25       		.byte	0x25
 13183 0945 9F       		.byte	0x9f
 13184 0946 04       		.byte	0x4
 13185 0947 B00F     		.uleb128 .LVL562-.LVL292
 13186 0949 B40F     		.uleb128 .LVL563-.LVL292
 13187 094b 01       		.uleb128 0x1
 13188 094c 5A       		.byte	0x5a
 13189 094d 04       		.byte	0x4
 13190 094e B40F     		.uleb128 .LVL563-.LVL292
 13191 0950 B80F     		.uleb128 .LVL564-.LVL292
 13192 0952 05       		.uleb128 0x5
 13193 0953 7A       		.byte	0x7a
 13194 0954 00       		.sleb128 0
 13195 0955 35       		.byte	0x35
 13196 0956 25       		.byte	0x25
 13197 0957 9F       		.byte	0x9f
 13198 0958 00       		.byte	0
 13199              	.LVUS191:
 13200 0959 00       		.uleb128 .LVU2282
 13201 095a 01       		.uleb128 .LVU2285
 13202 095b 00       		.uleb128 .LVU2404
 13203 095c 01       		.uleb128 .LVU2407
 13204 095d 00       		.uleb128 .LVU2526
 13205 095e 01       		.uleb128 .LVU2529
 13206 095f 00       		.uleb128 .LVU2654
 13207 0960 01       		.uleb128 .LVU2657
 13208 0961 00       		.uleb128 .LVU2824
 13209 0962 01       		.uleb128 .LVU2825
 13210 0963 00       		.uleb128 .LVU2956
 13211 0964 01       		.uleb128 .LVU2957
 13212 0965 00       		.uleb128 .LVU3086
 13213 0966 01       		.uleb128 .LVU3087
 13214 0967 00       		.uleb128 .LVU3213
 13215 0968 01       		.uleb128 .LVU3214
 13216              	.LLST191:
 13217 0969 06       		.byte	0x6
 13218 096a 00000000 		.4byte	.LVL297
 13219 096e 04       		.byte	0x4
 13220 096f 00       		.uleb128 .LVL297-.LVL297
 13221 0970 08       		.uleb128 .LVL298-.LVL297
 13222 0971 01       		.uleb128 0x1
 13223 0972 58       		.byte	0x58
 13224 0973 04       		.byte	0x4
 13225 0974 8802     		.uleb128 .LVL334-.LVL297
 13226 0976 9002     		.uleb128 .LVL335-.LVL297
 13227 0978 01       		.uleb128 0x1
 13228 0979 50       		.byte	0x50
 13229 097a 04       		.byte	0x4
 13230 097b 8804     		.uleb128 .LVL371-.LVL297
 13231 097d 9004     		.uleb128 .LVL372-.LVL297
 13232 097f 01       		.uleb128 0x1
 13233 0980 50       		.byte	0x50
 13234 0981 04       		.byte	0x4
 13235 0982 9406     		.uleb128 .LVL407-.LVL297
 13236 0984 9C06     		.uleb128 .LVL408-.LVL297
 13237 0986 01       		.uleb128 0x1
 13238 0987 5A       		.byte	0x5a
 13239 0988 04       		.byte	0x4
 13240 0989 B009     		.uleb128 .LVL460-.LVL297
 13241 098b B009     		.uleb128 .LVL460-.LVL297
 13242 098d 01       		.uleb128 0x1
 13243 098e 58       		.byte	0x58
 13244 098f 04       		.byte	0x4
 13245 0990 C40B     		.uleb128 .LVL496-.LVL297
 13246 0992 C40B     		.uleb128 .LVL496-.LVL297
 13247 0994 01       		.uleb128 0x1
 13248 0995 50       		.byte	0x50
 13249 0996 04       		.byte	0x4
 13250 0997 C40D     		.uleb128 .LVL532-.LVL297
 13251 0999 C40D     		.uleb128 .LVL532-.LVL297
 13252 099b 01       		.uleb128 0x1
 13253 099c 50       		.byte	0x50
 13254 099d 04       		.byte	0x4
 13255 099e C40F     		.uleb128 .LVL568-.LVL297
 13256 09a0 C40F     		.uleb128 .LVL568-.LVL297
 13257 09a2 01       		.uleb128 0x1
 13258 09a3 5A       		.byte	0x5a
 13259 09a4 00       		.byte	0
 13260              	.LVUS193:
 13261 09a5 00       		.uleb128 .LVU2291
 13262 09a6 00       		.uleb128 .LVU2308
 13263 09a7 00       		.uleb128 .LVU2413
 13264 09a8 00       		.uleb128 .LVU2431
 13265 09a9 00       		.uleb128 .LVU2535
 13266 09aa 00       		.uleb128 .LVU2553
 13267 09ab 01       		.uleb128 .LVU2661
 13268 09ac 00       		.uleb128 .LVU2677
 13269 09ad 00       		.uleb128 .LVU2831
 13270 09ae 00       		.uleb128 .LVU2852
 13271 09af 01       		.uleb128 .LVU2960
 13272 09b0 00       		.uleb128 .LVU2981
 13273 09b1 01       		.uleb128 .LVU3090
 13274 09b2 00       		.uleb128 .LVU3111
 13275 09b3 01       		.uleb128 .LVU3218
 13276 09b4 00       		.uleb128 .LVU3238
 13277              	.LLST193:
 13278 09b5 06       		.byte	0x6
 13279 09b6 00000000 		.4byte	.LVL299
 13280 09ba 04       		.byte	0x4
 13281 09bb 00       		.uleb128 .LVL299-.LVL299
 13282 09bc 18       		.uleb128 .LVL303-.LVL299
 13283 09bd 01       		.uleb128 0x1
 13284 09be 69       		.byte	0x69
 13285 09bf 04       		.byte	0x4
 13286 09c0 8402     		.uleb128 .LVL336-.LVL299
 13287 09c2 A002     		.uleb128 .LVL341-.LVL299
 13288 09c4 01       		.uleb128 0x1
 13289 09c5 69       		.byte	0x69
 13290 09c6 04       		.byte	0x4
 13291 09c7 8404     		.uleb128 .LVL373-.LVL299
 13292 09c9 A004     		.uleb128 .LVL378-.LVL299
 13293 09cb 01       		.uleb128 0x1
 13294 09cc 69       		.byte	0x69
 13295 09cd 04       		.byte	0x4
 13296 09ce 8806     		.uleb128 .LVL409-.LVL299
 13297 09d0 9C06     		.uleb128 .LVL412-.LVL299
 13298 09d2 01       		.uleb128 0x1
 13299 09d3 57       		.byte	0x57
 13300 09d4 04       		.byte	0x4
 13301 09d5 A809     		.uleb128 .LVL461-.LVL299
 13302 09d7 CC09     		.uleb128 .LVL467-.LVL299
 13303 09d9 01       		.uleb128 0x1
 13304 09da 69       		.byte	0x69
 13305 09db 04       		.byte	0x4
 13306 09dc AC0B     		.uleb128 .LVL497-.LVL299
 13307 09de D00B     		.uleb128 .LVL503-.LVL299
 13308 09e0 01       		.uleb128 0x1
 13309 09e1 69       		.byte	0x69
 13310 09e2 04       		.byte	0x4
 13311 09e3 AC0D     		.uleb128 .LVL533-.LVL299
 13312 09e5 D00D     		.uleb128 .LVL539-.LVL299
 13313 09e7 01       		.uleb128 0x1
 13314 09e8 69       		.byte	0x69
 13315 09e9 04       		.byte	0x4
 13316 09ea B00F     		.uleb128 .LVL569-.LVL299
 13317 09ec D00F     		.uleb128 .LVL574-.LVL299
 13318 09ee 01       		.uleb128 0x1
 13319 09ef 57       		.byte	0x57
 13320 09f0 00       		.byte	0
 13321              	.LVUS194:
 13322 09f1 04       		.uleb128 .LVU2295
 13323 09f2 00       		.uleb128 .LVU2303
 13324 09f3 01       		.uleb128 .LVU2304
 13325 09f4 00       		.uleb128 .LVU2308
 13326 09f5 04       		.uleb128 .LVU2417
 13327 09f6 00       		.uleb128 .LVU2425
 13328 09f7 01       		.uleb128 .LVU2426
 13329 09f8 00       		.uleb128 .LVU2431
 13330 09f9 04       		.uleb128 .LVU2539
 13331 09fa 00       		.uleb128 .LVU2547
 13332 09fb 01       		.uleb128 .LVU2548
 13333 09fc 00       		.uleb128 .LVU2553
 13334 09fd 05       		.uleb128 .LVU2665
 13335 09fe 00       		.uleb128 .LVU2672
 13336 09ff 01       		.uleb128 .LVU2673
 13337 0a00 00       		.uleb128 .LVU2677
 13338 0a01 04       		.uleb128 .LVU2835
 13339 0a02 00       		.uleb128 .LVU2843
 13340 0a03 01       		.uleb128 .LVU2844
 13341 0a04 00       		.uleb128 .LVU2852
 13342 0a05 05       		.uleb128 .LVU2964
 13343 0a06 00       		.uleb128 .LVU2972
 13344 0a07 01       		.uleb128 .LVU2973
 13345 0a08 00       		.uleb128 .LVU2981
 13346 0a09 05       		.uleb128 .LVU3094
 13347 0a0a 00       		.uleb128 .LVU3102
 13348 0a0b 01       		.uleb128 .LVU3103
 13349 0a0c 00       		.uleb128 .LVU3111
 13350 0a0d 05       		.uleb128 .LVU3222
 13351 0a0e 00       		.uleb128 .LVU3229
 13352 0a0f 01       		.uleb128 .LVU3230
 13353 0a10 00       		.uleb128 .LVU3238
 13354              	.LLST194:
 13355 0a11 06       		.byte	0x6
 13356 0a12 00000000 		.4byte	.LVL299
 13357 0a16 04       		.byte	0x4
 13358 0a17 00       		.uleb128 .LVL299-.LVL299
 13359 0a18 14       		.uleb128 .LVL302-.LVL299
 13360 0a19 05       		.uleb128 0x5
 13361 0a1a 89       		.byte	0x89
 13362 0a1b 00       		.sleb128 0
 13363 0a1c 48       		.byte	0x48
 13364 0a1d 25       		.byte	0x25
 13365 0a1e 9F       		.byte	0x9f
 13366 0a1f 04       		.byte	0x4
 13367 0a20 14       		.uleb128 .LVL302-.LVL299
 13368 0a21 18       		.uleb128 .LVL303-.LVL299
 13369 0a22 05       		.uleb128 0x5
 13370 0a23 89       		.byte	0x89
 13371 0a24 00       		.sleb128 0
 13372 0a25 4B       		.byte	0x4b
 13373 0a26 25       		.byte	0x25
 13374 0a27 9F       		.byte	0x9f
 13375 0a28 04       		.byte	0x4
 13376 0a29 8402     		.uleb128 .LVL336-.LVL299
 13377 0a2b 9802     		.uleb128 .LVL339-.LVL299
 13378 0a2d 05       		.uleb128 0x5
 13379 0a2e 89       		.byte	0x89
 13380 0a2f 00       		.sleb128 0
 13381 0a30 48       		.byte	0x48
 13382 0a31 25       		.byte	0x25
 13383 0a32 9F       		.byte	0x9f
 13384 0a33 04       		.byte	0x4
 13385 0a34 9802     		.uleb128 .LVL339-.LVL299
 13386 0a36 A002     		.uleb128 .LVL341-.LVL299
 13387 0a38 05       		.uleb128 0x5
 13388 0a39 89       		.byte	0x89
 13389 0a3a 00       		.sleb128 0
 13390 0a3b 4B       		.byte	0x4b
 13391 0a3c 25       		.byte	0x25
 13392 0a3d 9F       		.byte	0x9f
 13393 0a3e 04       		.byte	0x4
 13394 0a3f 8404     		.uleb128 .LVL373-.LVL299
 13395 0a41 9804     		.uleb128 .LVL376-.LVL299
 13396 0a43 05       		.uleb128 0x5
 13397 0a44 89       		.byte	0x89
 13398 0a45 00       		.sleb128 0
 13399 0a46 48       		.byte	0x48
 13400 0a47 25       		.byte	0x25
 13401 0a48 9F       		.byte	0x9f
 13402 0a49 04       		.byte	0x4
 13403 0a4a 9804     		.uleb128 .LVL376-.LVL299
 13404 0a4c A004     		.uleb128 .LVL378-.LVL299
 13405 0a4e 05       		.uleb128 0x5
 13406 0a4f 89       		.byte	0x89
 13407 0a50 00       		.sleb128 0
 13408 0a51 4B       		.byte	0x4b
 13409 0a52 25       		.byte	0x25
 13410 0a53 9F       		.byte	0x9f
 13411 0a54 04       		.byte	0x4
 13412 0a55 8806     		.uleb128 .LVL409-.LVL299
 13413 0a57 9806     		.uleb128 .LVL411-.LVL299
 13414 0a59 05       		.uleb128 0x5
 13415 0a5a 77       		.byte	0x77
 13416 0a5b 00       		.sleb128 0
 13417 0a5c 48       		.byte	0x48
 13418 0a5d 25       		.byte	0x25
 13419 0a5e 9F       		.byte	0x9f
 13420 0a5f 04       		.byte	0x4
 13421 0a60 9806     		.uleb128 .LVL411-.LVL299
 13422 0a62 9C06     		.uleb128 .LVL412-.LVL299
 13423 0a64 05       		.uleb128 0x5
 13424 0a65 77       		.byte	0x77
 13425 0a66 00       		.sleb128 0
 13426 0a67 4B       		.byte	0x4b
 13427 0a68 25       		.byte	0x25
 13428 0a69 9F       		.byte	0x9f
 13429 0a6a 04       		.byte	0x4
 13430 0a6b A809     		.uleb128 .LVL461-.LVL299
 13431 0a6d BC09     		.uleb128 .LVL464-.LVL299
 13432 0a6f 05       		.uleb128 0x5
 13433 0a70 89       		.byte	0x89
 13434 0a71 00       		.sleb128 0
 13435 0a72 48       		.byte	0x48
 13436 0a73 25       		.byte	0x25
 13437 0a74 9F       		.byte	0x9f
 13438 0a75 04       		.byte	0x4
 13439 0a76 BC09     		.uleb128 .LVL464-.LVL299
 13440 0a78 CC09     		.uleb128 .LVL467-.LVL299
 13441 0a7a 05       		.uleb128 0x5
 13442 0a7b 89       		.byte	0x89
 13443 0a7c 00       		.sleb128 0
 13444 0a7d 4C       		.byte	0x4c
 13445 0a7e 25       		.byte	0x25
 13446 0a7f 9F       		.byte	0x9f
 13447 0a80 04       		.byte	0x4
 13448 0a81 AC0B     		.uleb128 .LVL497-.LVL299
 13449 0a83 C00B     		.uleb128 .LVL500-.LVL299
 13450 0a85 05       		.uleb128 0x5
 13451 0a86 89       		.byte	0x89
 13452 0a87 00       		.sleb128 0
 13453 0a88 48       		.byte	0x48
 13454 0a89 25       		.byte	0x25
 13455 0a8a 9F       		.byte	0x9f
 13456 0a8b 04       		.byte	0x4
 13457 0a8c C00B     		.uleb128 .LVL500-.LVL299
 13458 0a8e D00B     		.uleb128 .LVL503-.LVL299
 13459 0a90 05       		.uleb128 0x5
 13460 0a91 89       		.byte	0x89
 13461 0a92 00       		.sleb128 0
 13462 0a93 4C       		.byte	0x4c
 13463 0a94 25       		.byte	0x25
 13464 0a95 9F       		.byte	0x9f
 13465 0a96 04       		.byte	0x4
 13466 0a97 AC0D     		.uleb128 .LVL533-.LVL299
 13467 0a99 C00D     		.uleb128 .LVL536-.LVL299
 13468 0a9b 05       		.uleb128 0x5
 13469 0a9c 89       		.byte	0x89
 13470 0a9d 00       		.sleb128 0
 13471 0a9e 48       		.byte	0x48
 13472 0a9f 25       		.byte	0x25
 13473 0aa0 9F       		.byte	0x9f
 13474 0aa1 04       		.byte	0x4
 13475 0aa2 C00D     		.uleb128 .LVL536-.LVL299
 13476 0aa4 D00D     		.uleb128 .LVL539-.LVL299
 13477 0aa6 05       		.uleb128 0x5
 13478 0aa7 89       		.byte	0x89
 13479 0aa8 00       		.sleb128 0
 13480 0aa9 4C       		.byte	0x4c
 13481 0aaa 25       		.byte	0x25
 13482 0aab 9F       		.byte	0x9f
 13483 0aac 04       		.byte	0x4
 13484 0aad B00F     		.uleb128 .LVL569-.LVL299
 13485 0aaf C00F     		.uleb128 .LVL571-.LVL299
 13486 0ab1 05       		.uleb128 0x5
 13487 0ab2 77       		.byte	0x77
 13488 0ab3 00       		.sleb128 0
 13489 0ab4 48       		.byte	0x48
 13490 0ab5 25       		.byte	0x25
 13491 0ab6 9F       		.byte	0x9f
 13492 0ab7 04       		.byte	0x4
 13493 0ab8 C00F     		.uleb128 .LVL571-.LVL299
 13494 0aba D00F     		.uleb128 .LVL574-.LVL299
 13495 0abc 05       		.uleb128 0x5
 13496 0abd 77       		.byte	0x77
 13497 0abe 00       		.sleb128 0
 13498 0abf 4C       		.byte	0x4c
 13499 0ac0 25       		.byte	0x25
 13500 0ac1 9F       		.byte	0x9f
 13501 0ac2 00       		.byte	0
 13502              	.LVUS195:
 13503 0ac3 00       		.uleb128 .LVU2298
 13504 0ac4 02       		.uleb128 .LVU2305
 13505 0ac5 02       		.uleb128 .LVU2305
 13506 0ac6 00       		.uleb128 .LVU2309
 13507 0ac7 00       		.uleb128 .LVU2420
 13508 0ac8 02       		.uleb128 .LVU2427
 13509 0ac9 02       		.uleb128 .LVU2427
 13510 0aca 00       		.uleb128 .LVU2430
 13511 0acb 00       		.uleb128 .LVU2542
 13512 0acc 02       		.uleb128 .LVU2549
 13513 0acd 02       		.uleb128 .LVU2549
 13514 0ace 00       		.uleb128 .LVU2552
 13515 0acf 00       		.uleb128 .LVU2669
 13516 0ad0 02       		.uleb128 .LVU2674
 13517 0ad1 02       		.uleb128 .LVU2674
 13518 0ad2 00       		.uleb128 .LVU2678
 13519 0ad3 00       		.uleb128 .LVU2838
 13520 0ad4 02       		.uleb128 .LVU2845
 13521 0ad5 02       		.uleb128 .LVU2845
 13522 0ad6 00       		.uleb128 .LVU2854
 13523 0ad7 00       		.uleb128 .LVU2967
 13524 0ad8 02       		.uleb128 .LVU2974
 13525 0ad9 02       		.uleb128 .LVU2974
 13526 0ada 00       		.uleb128 .LVU2985
 13527 0adb 00       		.uleb128 .LVU3097
 13528 0adc 02       		.uleb128 .LVU3104
 13529 0add 02       		.uleb128 .LVU3104
 13530 0ade 00       		.uleb128 .LVU3115
 13531 0adf 06       		.uleb128 .LVU3223
 13532 0ae0 02       		.uleb128 .LVU3231
 13533 0ae1 02       		.uleb128 .LVU3231
 13534 0ae2 00       		.uleb128 .LVU3240
 13535              	.LLST195:
 13536 0ae3 06       		.byte	0x6
 13537 0ae4 00000000 		.4byte	.LVL300
 13538 0ae8 04       		.byte	0x4
 13539 0ae9 00       		.uleb128 .LVL300-.LVL300
 13540 0aea 0C       		.uleb128 .LVL302-.LVL300
 13541 0aeb 01       		.uleb128 0x1
 13542 0aec 68       		.byte	0x68
 13543 0aed 04       		.byte	0x4
 13544 0aee 0C       		.uleb128 .LVL302-.LVL300
 13545 0aef 14       		.uleb128 .LVL304-.LVL300
 13546 0af0 05       		.uleb128 0x5
 13547 0af1 88       		.byte	0x88
 13548 0af2 00       		.sleb128 0
 13549 0af3 33       		.byte	0x33
 13550 0af4 25       		.byte	0x25
 13551 0af5 9F       		.byte	0x9f
 13552 0af6 04       		.byte	0x4
 13553 0af7 8402     		.uleb128 .LVL337-.LVL300
 13554 0af9 9002     		.uleb128 .LVL339-.LVL300
 13555 0afb 01       		.uleb128 0x1
 13556 0afc 68       		.byte	0x68
 13557 0afd 04       		.byte	0x4
 13558 0afe 9002     		.uleb128 .LVL339-.LVL300
 13559 0b00 9402     		.uleb128 .LVL340-.LVL300
 13560 0b02 05       		.uleb128 0x5
 13561 0b03 88       		.byte	0x88
 13562 0b04 00       		.sleb128 0
 13563 0b05 33       		.byte	0x33
 13564 0b06 25       		.byte	0x25
 13565 0b07 9F       		.byte	0x9f
 13566 0b08 04       		.byte	0x4
 13567 0b09 8404     		.uleb128 .LVL374-.LVL300
 13568 0b0b 9004     		.uleb128 .LVL376-.LVL300
 13569 0b0d 01       		.uleb128 0x1
 13570 0b0e 68       		.byte	0x68
 13571 0b0f 04       		.byte	0x4
 13572 0b10 9004     		.uleb128 .LVL376-.LVL300
 13573 0b12 9404     		.uleb128 .LVL377-.LVL300
 13574 0b14 05       		.uleb128 0x5
 13575 0b15 88       		.byte	0x88
 13576 0b16 00       		.sleb128 0
 13577 0b17 33       		.byte	0x33
 13578 0b18 25       		.byte	0x25
 13579 0b19 9F       		.byte	0x9f
 13580 0b1a 04       		.byte	0x4
 13581 0b1b 8C06     		.uleb128 .LVL410-.LVL300
 13582 0b1d 9006     		.uleb128 .LVL411-.LVL300
 13583 0b1f 01       		.uleb128 0x1
 13584 0b20 56       		.byte	0x56
 13585 0b21 04       		.byte	0x4
 13586 0b22 9006     		.uleb128 .LVL411-.LVL300
 13587 0b24 9806     		.uleb128 .LVL413-.LVL300
 13588 0b26 05       		.uleb128 0x5
 13589 0b27 76       		.byte	0x76
 13590 0b28 00       		.sleb128 0
 13591 0b29 33       		.byte	0x33
 13592 0b2a 25       		.byte	0x25
 13593 0b2b 9F       		.byte	0x9f
 13594 0b2c 04       		.byte	0x4
 13595 0b2d A809     		.uleb128 .LVL462-.LVL300
 13596 0b2f B409     		.uleb128 .LVL464-.LVL300
 13597 0b31 01       		.uleb128 0x1
 13598 0b32 68       		.byte	0x68
 13599 0b33 04       		.byte	0x4
 13600 0b34 B409     		.uleb128 .LVL464-.LVL300
 13601 0b36 CC09     		.uleb128 .LVL468-.LVL300
 13602 0b38 05       		.uleb128 0x5
 13603 0b39 88       		.byte	0x88
 13604 0b3a 00       		.sleb128 0
 13605 0b3b 34       		.byte	0x34
 13606 0b3c 25       		.byte	0x25
 13607 0b3d 9F       		.byte	0x9f
 13608 0b3e 04       		.byte	0x4
 13609 0b3f AC0B     		.uleb128 .LVL498-.LVL300
 13610 0b41 B80B     		.uleb128 .LVL500-.LVL300
 13611 0b43 01       		.uleb128 0x1
 13612 0b44 68       		.byte	0x68
 13613 0b45 04       		.byte	0x4
 13614 0b46 B80B     		.uleb128 .LVL500-.LVL300
 13615 0b48 D80B     		.uleb128 .LVL504-.LVL300
 13616 0b4a 05       		.uleb128 0x5
 13617 0b4b 88       		.byte	0x88
 13618 0b4c 00       		.sleb128 0
 13619 0b4d 34       		.byte	0x34
 13620 0b4e 25       		.byte	0x25
 13621 0b4f 9F       		.byte	0x9f
 13622 0b50 04       		.byte	0x4
 13623 0b51 AC0D     		.uleb128 .LVL534-.LVL300
 13624 0b53 B80D     		.uleb128 .LVL536-.LVL300
 13625 0b55 01       		.uleb128 0x1
 13626 0b56 68       		.byte	0x68
 13627 0b57 04       		.byte	0x4
 13628 0b58 B80D     		.uleb128 .LVL536-.LVL300
 13629 0b5a D80D     		.uleb128 .LVL540-.LVL300
 13630 0b5c 05       		.uleb128 0x5
 13631 0b5d 88       		.byte	0x88
 13632 0b5e 00       		.sleb128 0
 13633 0b5f 34       		.byte	0x34
 13634 0b60 25       		.byte	0x25
 13635 0b61 9F       		.byte	0x9f
 13636 0b62 04       		.byte	0x4
 13637 0b63 A80F     		.uleb128 .LVL569-.LVL300
 13638 0b65 B80F     		.uleb128 .LVL571-.LVL300
 13639 0b67 01       		.uleb128 0x1
 13640 0b68 56       		.byte	0x56
 13641 0b69 04       		.byte	0x4
 13642 0b6a B80F     		.uleb128 .LVL571-.LVL300
 13643 0b6c D00F     		.uleb128 .LVL575-.LVL300
 13644 0b6e 05       		.uleb128 0x5
 13645 0b6f 76       		.byte	0x76
 13646 0b70 00       		.sleb128 0
 13647 0b71 34       		.byte	0x34
 13648 0b72 25       		.byte	0x25
 13649 0b73 9F       		.byte	0x9f
 13650 0b74 00       		.byte	0
 13651              	.LVUS196:
 13652 0b75 00       		.uleb128 .LVU2301
 13653 0b76 03       		.uleb128 .LVU2306
 13654 0b77 03       		.uleb128 .LVU2306
 13655 0b78 00       		.uleb128 .LVU2311
 13656 0b79 00       		.uleb128 .LVU2311
 13657 0b7a 01       		.uleb128 .LVU2315
 13658 0b7b 00       		.uleb128 .LVU2423
 13659 0b7c 03       		.uleb128 .LVU2428
 13660 0b7d 03       		.uleb128 .LVU2428
 13661 0b7e 00       		.uleb128 .LVU2433
 13662 0b7f 00       		.uleb128 .LVU2433
 13663 0b80 01       		.uleb128 .LVU2437
 13664 0b81 00       		.uleb128 .LVU2545
 13665 0b82 03       		.uleb128 .LVU2550
 13666 0b83 03       		.uleb128 .LVU2550
 13667 0b84 00       		.uleb128 .LVU2555
 13668 0b85 00       		.uleb128 .LVU2555
 13669 0b86 01       		.uleb128 .LVU2559
 13670 0b87 01       		.uleb128 .LVU2670
 13671 0b88 03       		.uleb128 .LVU2675
 13672 0b89 03       		.uleb128 .LVU2675
 13673 0b8a 00       		.uleb128 .LVU2680
 13674 0b8b 00       		.uleb128 .LVU2680
 13675 0b8c 01       		.uleb128 .LVU2684
 13676 0b8d 00       		.uleb128 .LVU2841
 13677 0b8e 03       		.uleb128 .LVU2846
 13678 0b8f 03       		.uleb128 .LVU2846
 13679 0b90 00       		.uleb128 .LVU2849
 13680 0b91 00       		.uleb128 .LVU2849
 13681 0b92 01       		.uleb128 .LVU2856
 13682 0b93 00       		.uleb128 .LVU2970
 13683 0b94 03       		.uleb128 .LVU2975
 13684 0b95 03       		.uleb128 .LVU2975
 13685 0b96 00       		.uleb128 .LVU2978
 13686 0b97 00       		.uleb128 .LVU2978
 13687 0b98 01       		.uleb128 .LVU2989
 13688 0b99 00       		.uleb128 .LVU3100
 13689 0b9a 03       		.uleb128 .LVU3105
 13690 0b9b 03       		.uleb128 .LVU3105
 13691 0b9c 00       		.uleb128 .LVU3108
 13692 0b9d 00       		.uleb128 .LVU3108
 13693 0b9e 01       		.uleb128 .LVU3119
 13694 0b9f 00       		.uleb128 .LVU3227
 13695 0ba0 03       		.uleb128 .LVU3232
 13696 0ba1 03       		.uleb128 .LVU3232
 13697 0ba2 00       		.uleb128 .LVU3236
 13698 0ba3 00       		.uleb128 .LVU3236
 13699 0ba4 00       		.uleb128 0
 13700              	.LLST196:
 13701 0ba5 06       		.byte	0x6
 13702 0ba6 00000000 		.4byte	.LVL301
 13703 0baa 04       		.byte	0x4
 13704 0bab 00       		.uleb128 .LVL301-.LVL301
 13705 0bac 04       		.uleb128 .LVL302-.LVL301
 13706 0bad 01       		.uleb128 0x1
 13707 0bae 67       		.byte	0x67
 13708 0baf 04       		.byte	0x4
 13709 0bb0 04       		.uleb128 .LVL302-.LVL301
 13710 0bb1 14       		.uleb128 .LVL305-.LVL301
 13711 0bb2 05       		.uleb128 0x5
 13712 0bb3 87       		.byte	0x87
 13713 0bb4 00       		.sleb128 0
 13714 0bb5 33       		.byte	0x33
 13715 0bb6 25       		.byte	0x25
 13716 0bb7 9F       		.byte	0x9f
 13717 0bb8 04       		.byte	0x4
 13718 0bb9 14       		.uleb128 .LVL305-.LVL301
 13719 0bba 20       		.uleb128 .LVL307-.LVL301
 13720 0bbb 01       		.uleb128 0x1
 13721 0bbc 67       		.byte	0x67
 13722 0bbd 04       		.byte	0x4
 13723 0bbe 8402     		.uleb128 .LVL338-.LVL301
 13724 0bc0 8802     		.uleb128 .LVL339-.LVL301
 13725 0bc2 01       		.uleb128 0x1
 13726 0bc3 67       		.byte	0x67
 13727 0bc4 04       		.byte	0x4
 13728 0bc5 8802     		.uleb128 .LVL339-.LVL301
 13729 0bc7 9802     		.uleb128 .LVL342-.LVL301
 13730 0bc9 05       		.uleb128 0x5
 13731 0bca 87       		.byte	0x87
 13732 0bcb 00       		.sleb128 0
 13733 0bcc 33       		.byte	0x33
 13734 0bcd 25       		.byte	0x25
 13735 0bce 9F       		.byte	0x9f
 13736 0bcf 04       		.byte	0x4
 13737 0bd0 9802     		.uleb128 .LVL342-.LVL301
 13738 0bd2 A402     		.uleb128 .LVL344-.LVL301
 13739 0bd4 01       		.uleb128 0x1
 13740 0bd5 67       		.byte	0x67
 13741 0bd6 04       		.byte	0x4
 13742 0bd7 8404     		.uleb128 .LVL375-.LVL301
 13743 0bd9 8804     		.uleb128 .LVL376-.LVL301
 13744 0bdb 01       		.uleb128 0x1
 13745 0bdc 67       		.byte	0x67
 13746 0bdd 04       		.byte	0x4
 13747 0bde 8804     		.uleb128 .LVL376-.LVL301
 13748 0be0 9804     		.uleb128 .LVL379-.LVL301
 13749 0be2 05       		.uleb128 0x5
 13750 0be3 87       		.byte	0x87
 13751 0be4 00       		.sleb128 0
 13752 0be5 33       		.byte	0x33
 13753 0be6 25       		.byte	0x25
 13754 0be7 9F       		.byte	0x9f
 13755 0be8 04       		.byte	0x4
 13756 0be9 9804     		.uleb128 .LVL379-.LVL301
 13757 0beb A404     		.uleb128 .LVL381-.LVL301
 13758 0bed 01       		.uleb128 0x1
 13759 0bee 67       		.byte	0x67
 13760 0bef 04       		.byte	0x4
 13761 0bf0 8406     		.uleb128 .LVL410-.LVL301
 13762 0bf2 8806     		.uleb128 .LVL411-.LVL301
 13763 0bf4 01       		.uleb128 0x1
 13764 0bf5 50       		.byte	0x50
 13765 0bf6 04       		.byte	0x4
 13766 0bf7 8806     		.uleb128 .LVL411-.LVL301
 13767 0bf9 9806     		.uleb128 .LVL414-.LVL301
 13768 0bfb 05       		.uleb128 0x5
 13769 0bfc 70       		.byte	0x70
 13770 0bfd 00       		.sleb128 0
 13771 0bfe 33       		.byte	0x33
 13772 0bff 25       		.byte	0x25
 13773 0c00 9F       		.byte	0x9f
 13774 0c01 04       		.byte	0x4
 13775 0c02 9806     		.uleb128 .LVL414-.LVL301
 13776 0c04 A406     		.uleb128 .LVL416-.LVL301
 13777 0c06 01       		.uleb128 0x1
 13778 0c07 50       		.byte	0x50
 13779 0c08 04       		.byte	0x4
 13780 0c09 A809     		.uleb128 .LVL463-.LVL301
 13781 0c0b AC09     		.uleb128 .LVL464-.LVL301
 13782 0c0d 01       		.uleb128 0x1
 13783 0c0e 67       		.byte	0x67
 13784 0c0f 04       		.byte	0x4
 13785 0c10 AC09     		.uleb128 .LVL464-.LVL301
 13786 0c12 B009     		.uleb128 .LVL465-.LVL301
 13787 0c14 05       		.uleb128 0x5
 13788 0c15 87       		.byte	0x87
 13789 0c16 00       		.sleb128 0
 13790 0c17 34       		.byte	0x34
 13791 0c18 25       		.byte	0x25
 13792 0c19 9F       		.byte	0x9f
 13793 0c1a 04       		.byte	0x4
 13794 0c1b B009     		.uleb128 .LVL465-.LVL301
 13795 0c1d C809     		.uleb128 .LVL469-.LVL301
 13796 0c1f 01       		.uleb128 0x1
 13797 0c20 67       		.byte	0x67
 13798 0c21 04       		.byte	0x4
 13799 0c22 AC0B     		.uleb128 .LVL499-.LVL301
 13800 0c24 B00B     		.uleb128 .LVL500-.LVL301
 13801 0c26 01       		.uleb128 0x1
 13802 0c27 67       		.byte	0x67
 13803 0c28 04       		.byte	0x4
 13804 0c29 B00B     		.uleb128 .LVL500-.LVL301
 13805 0c2b B40B     		.uleb128 .LVL501-.LVL301
 13806 0c2d 05       		.uleb128 0x5
 13807 0c2e 87       		.byte	0x87
 13808 0c2f 00       		.sleb128 0
 13809 0c30 34       		.byte	0x34
 13810 0c31 25       		.byte	0x25
 13811 0c32 9F       		.byte	0x9f
 13812 0c33 04       		.byte	0x4
 13813 0c34 B40B     		.uleb128 .LVL501-.LVL301
 13814 0c36 D80B     		.uleb128 .LVL505-.LVL301
 13815 0c38 01       		.uleb128 0x1
 13816 0c39 67       		.byte	0x67
 13817 0c3a 04       		.byte	0x4
 13818 0c3b AC0D     		.uleb128 .LVL535-.LVL301
 13819 0c3d B00D     		.uleb128 .LVL536-.LVL301
 13820 0c3f 01       		.uleb128 0x1
 13821 0c40 67       		.byte	0x67
 13822 0c41 04       		.byte	0x4
 13823 0c42 B00D     		.uleb128 .LVL536-.LVL301
 13824 0c44 B40D     		.uleb128 .LVL537-.LVL301
 13825 0c46 05       		.uleb128 0x5
 13826 0c47 87       		.byte	0x87
 13827 0c48 00       		.sleb128 0
 13828 0c49 34       		.byte	0x34
 13829 0c4a 25       		.byte	0x25
 13830 0c4b 9F       		.byte	0x9f
 13831 0c4c 04       		.byte	0x4
 13832 0c4d B40D     		.uleb128 .LVL537-.LVL301
 13833 0c4f D80D     		.uleb128 .LVL541-.LVL301
 13834 0c51 01       		.uleb128 0x1
 13835 0c52 67       		.byte	0x67
 13836 0c53 04       		.byte	0x4
 13837 0c54 AC0F     		.uleb128 .LVL570-.LVL301
 13838 0c56 B00F     		.uleb128 .LVL571-.LVL301
 13839 0c58 01       		.uleb128 0x1
 13840 0c59 50       		.byte	0x50
 13841 0c5a 04       		.byte	0x4
 13842 0c5b B00F     		.uleb128 .LVL571-.LVL301
 13843 0c5d B80F     		.uleb128 .LVL573-.LVL301
 13844 0c5f 05       		.uleb128 0x5
 13845 0c60 70       		.byte	0x70
 13846 0c61 00       		.sleb128 0
 13847 0c62 34       		.byte	0x34
 13848 0c63 25       		.byte	0x25
 13849 0c64 9F       		.byte	0x9f
 13850 0c65 04       		.byte	0x4
 13851 0c66 B80F     		.uleb128 .LVL573-.LVL301
 13852 0c68 D00F     		.uleb128 .LFE78-.LVL301
 13853 0c6a 01       		.uleb128 0x1
 13854 0c6b 50       		.byte	0x50
 13855 0c6c 00       		.byte	0
 13856              	.LVUS197:
 13857 0c6d 01       		.uleb128 .LVU2302
 13858 0c6e 00       		.uleb128 .LVU2312
 13859 0c6f 01       		.uleb128 .LVU2424
 13860 0c70 00       		.uleb128 .LVU2434
 13861 0c71 01       		.uleb128 .LVU2546
 13862 0c72 00       		.uleb128 .LVU2556
 13863 0c73 02       		.uleb128 .LVU2671
 13864 0c74 00       		.uleb128 .LVU2681
 13865 0c75 01       		.uleb128 .LVU2842
 13866 0c76 04       		.uleb128 .LVU2847
 13867 0c77 04       		.uleb128 .LVU2847
 13868 0c78 00       		.uleb128 .LVU2850
 13869 0c79 01       		.uleb128 .LVU2971
 13870 0c7a 04       		.uleb128 .LVU2976
 13871 0c7b 04       		.uleb128 .LVU2976
 13872 0c7c 00       		.uleb128 .LVU2979
 13873 0c7d 01       		.uleb128 .LVU3101
 13874 0c7e 04       		.uleb128 .LVU3106
 13875 0c7f 04       		.uleb128 .LVU3106
 13876 0c80 00       		.uleb128 .LVU3109
 13877 0c81 01       		.uleb128 .LVU3228
 13878 0c82 04       		.uleb128 .LVU3233
 13879 0c83 04       		.uleb128 .LVU3233
 13880 0c84 00       		.uleb128 .LVU3235
 13881              	.LLST197:
 13882 0c85 06       		.byte	0x6
 13883 0c86 00000000 		.4byte	.LVL301
 13884 0c8a 04       		.byte	0x4
 13885 0c8b 00       		.uleb128 .LVL301-.LVL301
 13886 0c8c 18       		.uleb128 .LVL306-.LVL301
 13887 0c8d 01       		.uleb128 0x1
 13888 0c8e 50       		.byte	0x50
 13889 0c8f 04       		.byte	0x4
 13890 0c90 8402     		.uleb128 .LVL338-.LVL301
 13891 0c92 9C02     		.uleb128 .LVL343-.LVL301
 13892 0c94 01       		.uleb128 0x1
 13893 0c95 50       		.byte	0x50
 13894 0c96 04       		.byte	0x4
 13895 0c97 8404     		.uleb128 .LVL375-.LVL301
 13896 0c99 9C04     		.uleb128 .LVL380-.LVL301
 13897 0c9b 01       		.uleb128 0x1
 13898 0c9c 50       		.byte	0x50
 13899 0c9d 04       		.byte	0x4
 13900 0c9e 8406     		.uleb128 .LVL410-.LVL301
 13901 0ca0 9C06     		.uleb128 .LVL415-.LVL301
 13902 0ca2 01       		.uleb128 0x1
 13903 0ca3 5A       		.byte	0x5a
 13904 0ca4 04       		.byte	0x4
 13905 0ca5 A809     		.uleb128 .LVL463-.LVL301
 13906 0ca7 AC09     		.uleb128 .LVL464-.LVL301
 13907 0ca9 01       		.uleb128 0x1
 13908 0caa 50       		.byte	0x50
 13909 0cab 04       		.byte	0x4
 13910 0cac AC09     		.uleb128 .LVL464-.LVL301
 13911 0cae B409     		.uleb128 .LVL466-.LVL301
 13912 0cb0 05       		.uleb128 0x5
 13913 0cb1 70       		.byte	0x70
 13914 0cb2 00       		.sleb128 0
 13915 0cb3 35       		.byte	0x35
 13916 0cb4 25       		.byte	0x25
 13917 0cb5 9F       		.byte	0x9f
 13918 0cb6 04       		.byte	0x4
 13919 0cb7 AC0B     		.uleb128 .LVL499-.LVL301
 13920 0cb9 B00B     		.uleb128 .LVL500-.LVL301
 13921 0cbb 01       		.uleb128 0x1
 13922 0cbc 50       		.byte	0x50
 13923 0cbd 04       		.byte	0x4
 13924 0cbe B00B     		.uleb128 .LVL500-.LVL301
 13925 0cc0 B80B     		.uleb128 .LVL502-.LVL301
 13926 0cc2 05       		.uleb128 0x5
 13927 0cc3 70       		.byte	0x70
 13928 0cc4 00       		.sleb128 0
 13929 0cc5 35       		.byte	0x35
 13930 0cc6 25       		.byte	0x25
 13931 0cc7 9F       		.byte	0x9f
 13932 0cc8 04       		.byte	0x4
 13933 0cc9 AC0D     		.uleb128 .LVL535-.LVL301
 13934 0ccb B00D     		.uleb128 .LVL536-.LVL301
 13935 0ccd 01       		.uleb128 0x1
 13936 0cce 50       		.byte	0x50
 13937 0ccf 04       		.byte	0x4
 13938 0cd0 B00D     		.uleb128 .LVL536-.LVL301
 13939 0cd2 B80D     		.uleb128 .LVL538-.LVL301
 13940 0cd4 05       		.uleb128 0x5
 13941 0cd5 70       		.byte	0x70
 13942 0cd6 00       		.sleb128 0
 13943 0cd7 35       		.byte	0x35
 13944 0cd8 25       		.byte	0x25
 13945 0cd9 9F       		.byte	0x9f
 13946 0cda 04       		.byte	0x4
 13947 0cdb AC0F     		.uleb128 .LVL570-.LVL301
 13948 0cdd B00F     		.uleb128 .LVL571-.LVL301
 13949 0cdf 01       		.uleb128 0x1
 13950 0ce0 5A       		.byte	0x5a
 13951 0ce1 04       		.byte	0x4
 13952 0ce2 B00F     		.uleb128 .LVL571-.LVL301
 13953 0ce4 B40F     		.uleb128 .LVL572-.LVL301
 13954 0ce6 05       		.uleb128 0x5
 13955 0ce7 7A       		.byte	0x7a
 13956 0ce8 00       		.sleb128 0
 13957 0ce9 35       		.byte	0x35
 13958 0cea 25       		.byte	0x25
 13959 0ceb 9F       		.byte	0x9f
 13960 0cec 00       		.byte	0
 13961              	.LVUS198:
 13962 0ced 00       		.uleb128 .LVU2312
 13963 0cee 01       		.uleb128 .LVU2315
 13964 0cef 00       		.uleb128 .LVU2434
 13965 0cf0 01       		.uleb128 .LVU2437
 13966 0cf1 00       		.uleb128 .LVU2556
 13967 0cf2 01       		.uleb128 .LVU2559
 13968 0cf3 00       		.uleb128 .LVU2681
 13969 0cf4 01       		.uleb128 .LVU2684
 13970 0cf5 00       		.uleb128 .LVU2855
 13971 0cf6 01       		.uleb128 .LVU2856
 13972 0cf7 00       		.uleb128 .LVU2988
 13973 0cf8 01       		.uleb128 .LVU2989
 13974 0cf9 00       		.uleb128 .LVU3118
 13975 0cfa 01       		.uleb128 .LVU3119
 13976 0cfb 00       		.uleb128 .LVU3241
 13977 0cfc 00       		.uleb128 0
 13978              	.LLST198:
 13979 0cfd 06       		.byte	0x6
 13980 0cfe 00000000 		.4byte	.LVL306
 13981 0d02 04       		.byte	0x4
 13982 0d03 00       		.uleb128 .LVL306-.LVL306
 13983 0d04 08       		.uleb128 .LVL307-.LVL306
 13984 0d05 01       		.uleb128 0x1
 13985 0d06 50       		.byte	0x50
 13986 0d07 04       		.byte	0x4
 13987 0d08 8402     		.uleb128 .LVL343-.LVL306
 13988 0d0a 8C02     		.uleb128 .LVL344-.LVL306
 13989 0d0c 01       		.uleb128 0x1
 13990 0d0d 50       		.byte	0x50
 13991 0d0e 04       		.byte	0x4
 13992 0d0f 8404     		.uleb128 .LVL380-.LVL306
 13993 0d11 8C04     		.uleb128 .LVL381-.LVL306
 13994 0d13 01       		.uleb128 0x1
 13995 0d14 50       		.byte	0x50
 13996 0d15 04       		.byte	0x4
 13997 0d16 8406     		.uleb128 .LVL415-.LVL306
 13998 0d18 8C06     		.uleb128 .LVL416-.LVL306
 13999 0d1a 01       		.uleb128 0x1
 14000 0d1b 5A       		.byte	0x5a
 14001 0d1c 04       		.byte	0x4
 14002 0d1d B009     		.uleb128 .LVL469-.LVL306
 14003 0d1f B009     		.uleb128 .LVL469-.LVL306
 14004 0d21 01       		.uleb128 0x1
 14005 0d22 50       		.byte	0x50
 14006 0d23 04       		.byte	0x4
 14007 0d24 C00B     		.uleb128 .LVL505-.LVL306
 14008 0d26 C00B     		.uleb128 .LVL505-.LVL306
 14009 0d28 01       		.uleb128 0x1
 14010 0d29 50       		.byte	0x50
 14011 0d2a 04       		.byte	0x4
 14012 0d2b C00D     		.uleb128 .LVL541-.LVL306
 14013 0d2d C00D     		.uleb128 .LVL541-.LVL306
 14014 0d2f 01       		.uleb128 0x1
 14015 0d30 50       		.byte	0x50
 14016 0d31 04       		.byte	0x4
 14017 0d32 B40F     		.uleb128 .LVL576-.LVL306
 14018 0d34 B80F     		.uleb128 .LFE78-.LVL306
 14019 0d36 01       		.uleb128 0x1
 14020 0d37 5A       		.byte	0x5a
 14021 0d38 00       		.byte	0
 14022              	.LVUS200:
 14023 0d39 00       		.uleb128 .LVU2321
 14024 0d3a 00       		.uleb128 .LVU2339
 14025 0d3b 00       		.uleb128 .LVU2443
 14026 0d3c 00       		.uleb128 .LVU2461
 14027 0d3d 00       		.uleb128 .LVU2565
 14028 0d3e 00       		.uleb128 .LVU2583
 14029 0d3f 00       		.uleb128 .LVU2691
 14030 0d40 00       		.uleb128 .LVU2709
 14031 0d41 00       		.uleb128 .LVU2742
 14032 0d42 06       		.uleb128 .LVU2748
 14033 0d43 00       		.uleb128 .LVU2862
 14034 0d44 00       		.uleb128 .LVU2883
 14035 0d45 01       		.uleb128 .LVU2992
 14036 0d46 00       		.uleb128 .LVU3013
 14037 0d47 01       		.uleb128 .LVU3122
 14038 0d48 00       		.uleb128 .LVU3142
 14039              	.LLST200:
 14040 0d49 06       		.byte	0x6
 14041 0d4a 00000000 		.4byte	.LVL308
 14042 0d4e 04       		.byte	0x4
 14043 0d4f 00       		.uleb128 .LVL308-.LVL308
 14044 0d50 1C       		.uleb128 .LVL313-.LVL308
 14045 0d51 01       		.uleb128 0x1
 14046 0d52 69       		.byte	0x69
 14047 0d53 04       		.byte	0x4
 14048 0d54 8002     		.uleb128 .LVL345-.LVL308
 14049 0d56 9C02     		.uleb128 .LVL350-.LVL308
 14050 0d58 01       		.uleb128 0x1
 14051 0d59 69       		.byte	0x69
 14052 0d5a 04       		.byte	0x4
 14053 0d5b 8004     		.uleb128 .LVL382-.LVL308
 14054 0d5d 9C04     		.uleb128 .LVL387-.LVL308
 14055 0d5f 01       		.uleb128 0x1
 14056 0d60 69       		.byte	0x69
 14057 0d61 04       		.byte	0x4
 14058 0d62 8406     		.uleb128 .LVL418-.LVL308
 14059 0d64 A006     		.uleb128 .LVL423-.LVL308
 14060 0d66 01       		.uleb128 0x1
 14061 0d67 5A       		.byte	0x5a
 14062 0d68 04       		.byte	0x4
 14063 0d69 9C07     		.uleb128 .LVL439-.LVL308
 14064 0d6b 9C07     		.uleb128 .LVL439-.LVL308
 14065 0d6d 01       		.uleb128 0x1
 14066 0d6e 5A       		.byte	0x5a
 14067 0d6f 04       		.byte	0x4
 14068 0d70 A809     		.uleb128 .LVL470-.LVL308
 14069 0d72 CC09     		.uleb128 .LVL476-.LVL308
 14070 0d74 01       		.uleb128 0x1
 14071 0d75 69       		.byte	0x69
 14072 0d76 04       		.byte	0x4
 14073 0d77 A80B     		.uleb128 .LVL506-.LVL308
 14074 0d79 CC0B     		.uleb128 .LVL512-.LVL308
 14075 0d7b 01       		.uleb128 0x1
 14076 0d7c 69       		.byte	0x69
 14077 0d7d 04       		.byte	0x4
 14078 0d7e A80D     		.uleb128 .LVL542-.LVL308
 14079 0d80 C80D     		.uleb128 .LVL548-.LVL308
 14080 0d82 01       		.uleb128 0x1
 14081 0d83 69       		.byte	0x69
 14082 0d84 00       		.byte	0
 14083              	.LVUS201:
 14084 0d85 04       		.uleb128 .LVU2325
 14085 0d86 00       		.uleb128 .LVU2333
 14086 0d87 01       		.uleb128 .LVU2334
 14087 0d88 00       		.uleb128 .LVU2339
 14088 0d89 04       		.uleb128 .LVU2447
 14089 0d8a 00       		.uleb128 .LVU2455
 14090 0d8b 01       		.uleb128 .LVU2456
 14091 0d8c 00       		.uleb128 .LVU2461
 14092 0d8d 04       		.uleb128 .LVU2569
 14093 0d8e 00       		.uleb128 .LVU2577
 14094 0d8f 01       		.uleb128 .LVU2578
 14095 0d90 00       		.uleb128 .LVU2583
 14096 0d91 04       		.uleb128 .LVU2695
 14097 0d92 01       		.uleb128 .LVU2704
 14098 0d93 01       		.uleb128 .LVU2704
 14099 0d94 00       		.uleb128 .LVU2709
 14100 0d95 00       		.uleb128 .LVU2742
 14101 0d96 01       		.uleb128 .LVU2743
 14102 0d97 01       		.uleb128 .LVU2743
 14103 0d98 06       		.uleb128 .LVU2748
 14104 0d99 04       		.uleb128 .LVU2866
 14105 0d9a 00       		.uleb128 .LVU2874
 14106 0d9b 01       		.uleb128 .LVU2875
 14107 0d9c 00       		.uleb128 .LVU2883
 14108 0d9d 05       		.uleb128 .LVU2996
 14109 0d9e 00       		.uleb128 .LVU3004
 14110 0d9f 01       		.uleb128 .LVU3005
 14111 0da0 00       		.uleb128 .LVU3013
 14112 0da1 05       		.uleb128 .LVU3126
 14113 0da2 00       		.uleb128 .LVU3134
 14114 0da3 01       		.uleb128 .LVU3135
 14115 0da4 00       		.uleb128 .LVU3142
 14116              	.LLST201:
 14117 0da5 06       		.byte	0x6
 14118 0da6 00000000 		.4byte	.LVL308
 14119 0daa 04       		.byte	0x4
 14120 0dab 00       		.uleb128 .LVL308-.LVL308
 14121 0dac 14       		.uleb128 .LVL311-.LVL308
 14122 0dad 05       		.uleb128 0x5
 14123 0dae 89       		.byte	0x89
 14124 0daf 00       		.sleb128 0
 14125 0db0 48       		.byte	0x48
 14126 0db1 25       		.byte	0x25
 14127 0db2 9F       		.byte	0x9f
 14128 0db3 04       		.byte	0x4
 14129 0db4 14       		.uleb128 .LVL311-.LVL308
 14130 0db5 1C       		.uleb128 .LVL313-.LVL308
 14131 0db6 05       		.uleb128 0x5
 14132 0db7 89       		.byte	0x89
 14133 0db8 00       		.sleb128 0
 14134 0db9 4B       		.byte	0x4b
 14135 0dba 25       		.byte	0x25
 14136 0dbb 9F       		.byte	0x9f
 14137 0dbc 04       		.byte	0x4
 14138 0dbd 8002     		.uleb128 .LVL345-.LVL308
 14139 0dbf 9402     		.uleb128 .LVL348-.LVL308
 14140 0dc1 05       		.uleb128 0x5
 14141 0dc2 89       		.byte	0x89
 14142 0dc3 00       		.sleb128 0
 14143 0dc4 48       		.byte	0x48
 14144 0dc5 25       		.byte	0x25
 14145 0dc6 9F       		.byte	0x9f
 14146 0dc7 04       		.byte	0x4
 14147 0dc8 9402     		.uleb128 .LVL348-.LVL308
 14148 0dca 9C02     		.uleb128 .LVL350-.LVL308
 14149 0dcc 05       		.uleb128 0x5
 14150 0dcd 89       		.byte	0x89
 14151 0dce 00       		.sleb128 0
 14152 0dcf 4B       		.byte	0x4b
 14153 0dd0 25       		.byte	0x25
 14154 0dd1 9F       		.byte	0x9f
 14155 0dd2 04       		.byte	0x4
 14156 0dd3 8004     		.uleb128 .LVL382-.LVL308
 14157 0dd5 9404     		.uleb128 .LVL385-.LVL308
 14158 0dd7 05       		.uleb128 0x5
 14159 0dd8 89       		.byte	0x89
 14160 0dd9 00       		.sleb128 0
 14161 0dda 48       		.byte	0x48
 14162 0ddb 25       		.byte	0x25
 14163 0ddc 9F       		.byte	0x9f
 14164 0ddd 04       		.byte	0x4
 14165 0dde 9404     		.uleb128 .LVL385-.LVL308
 14166 0de0 9C04     		.uleb128 .LVL387-.LVL308
 14167 0de2 05       		.uleb128 0x5
 14168 0de3 89       		.byte	0x89
 14169 0de4 00       		.sleb128 0
 14170 0de5 4B       		.byte	0x4b
 14171 0de6 25       		.byte	0x25
 14172 0de7 9F       		.byte	0x9f
 14173 0de8 04       		.byte	0x4
 14174 0de9 8406     		.uleb128 .LVL418-.LVL308
 14175 0deb 9806     		.uleb128 .LVL421-.LVL308
 14176 0ded 05       		.uleb128 0x5
 14177 0dee 7A       		.byte	0x7a
 14178 0def 00       		.sleb128 0
 14179 0df0 48       		.byte	0x48
 14180 0df1 25       		.byte	0x25
 14181 0df2 9F       		.byte	0x9f
 14182 0df3 04       		.byte	0x4
 14183 0df4 9806     		.uleb128 .LVL421-.LVL308
 14184 0df6 A006     		.uleb128 .LVL423-.LVL308
 14185 0df8 05       		.uleb128 0x5
 14186 0df9 7A       		.byte	0x7a
 14187 0dfa 00       		.sleb128 0
 14188 0dfb 4B       		.byte	0x4b
 14189 0dfc 25       		.byte	0x25
 14190 0dfd 9F       		.byte	0x9f
 14191 0dfe 04       		.byte	0x4
 14192 0dff 9C07     		.uleb128 .LVL439-.LVL308
 14193 0e01 9C07     		.uleb128 .LVL439-.LVL308
 14194 0e03 05       		.uleb128 0x5
 14195 0e04 7A       		.byte	0x7a
 14196 0e05 00       		.sleb128 0
 14197 0e06 48       		.byte	0x48
 14198 0e07 25       		.byte	0x25
 14199 0e08 9F       		.byte	0x9f
 14200 0e09 04       		.byte	0x4
 14201 0e0a 9C07     		.uleb128 .LVL439-.LVL308
 14202 0e0c 9C07     		.uleb128 .LVL439-.LVL308
 14203 0e0e 05       		.uleb128 0x5
 14204 0e0f 7A       		.byte	0x7a
 14205 0e10 00       		.sleb128 0
 14206 0e11 4C       		.byte	0x4c
 14207 0e12 25       		.byte	0x25
 14208 0e13 9F       		.byte	0x9f
 14209 0e14 04       		.byte	0x4
 14210 0e15 A809     		.uleb128 .LVL470-.LVL308
 14211 0e17 BC09     		.uleb128 .LVL473-.LVL308
 14212 0e19 05       		.uleb128 0x5
 14213 0e1a 89       		.byte	0x89
 14214 0e1b 00       		.sleb128 0
 14215 0e1c 48       		.byte	0x48
 14216 0e1d 25       		.byte	0x25
 14217 0e1e 9F       		.byte	0x9f
 14218 0e1f 04       		.byte	0x4
 14219 0e20 BC09     		.uleb128 .LVL473-.LVL308
 14220 0e22 CC09     		.uleb128 .LVL476-.LVL308
 14221 0e24 05       		.uleb128 0x5
 14222 0e25 89       		.byte	0x89
 14223 0e26 00       		.sleb128 0
 14224 0e27 4C       		.byte	0x4c
 14225 0e28 25       		.byte	0x25
 14226 0e29 9F       		.byte	0x9f
 14227 0e2a 04       		.byte	0x4
 14228 0e2b A80B     		.uleb128 .LVL506-.LVL308
 14229 0e2d BC0B     		.uleb128 .LVL509-.LVL308
 14230 0e2f 05       		.uleb128 0x5
 14231 0e30 89       		.byte	0x89
 14232 0e31 00       		.sleb128 0
 14233 0e32 48       		.byte	0x48
 14234 0e33 25       		.byte	0x25
 14235 0e34 9F       		.byte	0x9f
 14236 0e35 04       		.byte	0x4
 14237 0e36 BC0B     		.uleb128 .LVL509-.LVL308
 14238 0e38 CC0B     		.uleb128 .LVL512-.LVL308
 14239 0e3a 05       		.uleb128 0x5
 14240 0e3b 89       		.byte	0x89
 14241 0e3c 00       		.sleb128 0
 14242 0e3d 4C       		.byte	0x4c
 14243 0e3e 25       		.byte	0x25
 14244 0e3f 9F       		.byte	0x9f
 14245 0e40 04       		.byte	0x4
 14246 0e41 A80D     		.uleb128 .LVL542-.LVL308
 14247 0e43 BC0D     		.uleb128 .LVL545-.LVL308
 14248 0e45 05       		.uleb128 0x5
 14249 0e46 89       		.byte	0x89
 14250 0e47 00       		.sleb128 0
 14251 0e48 48       		.byte	0x48
 14252 0e49 25       		.byte	0x25
 14253 0e4a 9F       		.byte	0x9f
 14254 0e4b 04       		.byte	0x4
 14255 0e4c BC0D     		.uleb128 .LVL545-.LVL308
 14256 0e4e C80D     		.uleb128 .LVL548-.LVL308
 14257 0e50 05       		.uleb128 0x5
 14258 0e51 89       		.byte	0x89
 14259 0e52 00       		.sleb128 0
 14260 0e53 4C       		.byte	0x4c
 14261 0e54 25       		.byte	0x25
 14262 0e55 9F       		.byte	0x9f
 14263 0e56 00       		.byte	0
 14264              	.LVUS202:
 14265 0e57 00       		.uleb128 .LVU2328
 14266 0e58 02       		.uleb128 .LVU2335
 14267 0e59 02       		.uleb128 .LVU2335
 14268 0e5a 00       		.uleb128 .LVU2338
 14269 0e5b 00       		.uleb128 .LVU2450
 14270 0e5c 02       		.uleb128 .LVU2457
 14271 0e5d 02       		.uleb128 .LVU2457
 14272 0e5e 00       		.uleb128 .LVU2460
 14273 0e5f 00       		.uleb128 .LVU2572
 14274 0e60 02       		.uleb128 .LVU2579
 14275 0e61 02       		.uleb128 .LVU2579
 14276 0e62 00       		.uleb128 .LVU2582
 14277 0e63 00       		.uleb128 .LVU2698
 14278 0e64 02       		.uleb128 .LVU2705
 14279 0e65 02       		.uleb128 .LVU2705
 14280 0e66 00       		.uleb128 .LVU2712
 14281 0e67 00       		.uleb128 .LVU2742
 14282 0e68 02       		.uleb128 .LVU2744
 14283 0e69 02       		.uleb128 .LVU2744
 14284 0e6a 06       		.uleb128 .LVU2748
 14285 0e6b 00       		.uleb128 .LVU2869
 14286 0e6c 02       		.uleb128 .LVU2876
 14287 0e6d 02       		.uleb128 .LVU2876
 14288 0e6e 00       		.uleb128 .LVU2887
 14289 0e6f 00       		.uleb128 .LVU2999
 14290 0e70 02       		.uleb128 .LVU3006
 14291 0e71 02       		.uleb128 .LVU3006
 14292 0e72 00       		.uleb128 .LVU3017
 14293 0e73 00       		.uleb128 .LVU3129
 14294 0e74 02       		.uleb128 .LVU3136
 14295 0e75 02       		.uleb128 .LVU3136
 14296 0e76 00       		.uleb128 .LVU3144
 14297              	.LLST202:
 14298 0e77 06       		.byte	0x6
 14299 0e78 00000000 		.4byte	.LVL309
 14300 0e7c 04       		.byte	0x4
 14301 0e7d 00       		.uleb128 .LVL309-.LVL309
 14302 0e7e 0C       		.uleb128 .LVL311-.LVL309
 14303 0e7f 01       		.uleb128 0x1
 14304 0e80 68       		.byte	0x68
 14305 0e81 04       		.byte	0x4
 14306 0e82 0C       		.uleb128 .LVL311-.LVL309
 14307 0e83 10       		.uleb128 .LVL312-.LVL309
 14308 0e84 05       		.uleb128 0x5
 14309 0e85 88       		.byte	0x88
 14310 0e86 00       		.sleb128 0
 14311 0e87 33       		.byte	0x33
 14312 0e88 25       		.byte	0x25
 14313 0e89 9F       		.byte	0x9f
 14314 0e8a 04       		.byte	0x4
 14315 0e8b 8002     		.uleb128 .LVL346-.LVL309
 14316 0e8d 8C02     		.uleb128 .LVL348-.LVL309
 14317 0e8f 01       		.uleb128 0x1
 14318 0e90 68       		.byte	0x68
 14319 0e91 04       		.byte	0x4
 14320 0e92 8C02     		.uleb128 .LVL348-.LVL309
 14321 0e94 9002     		.uleb128 .LVL349-.LVL309
 14322 0e96 05       		.uleb128 0x5
 14323 0e97 88       		.byte	0x88
 14324 0e98 00       		.sleb128 0
 14325 0e99 33       		.byte	0x33
 14326 0e9a 25       		.byte	0x25
 14327 0e9b 9F       		.byte	0x9f
 14328 0e9c 04       		.byte	0x4
 14329 0e9d 8004     		.uleb128 .LVL383-.LVL309
 14330 0e9f 8C04     		.uleb128 .LVL385-.LVL309
 14331 0ea1 01       		.uleb128 0x1
 14332 0ea2 68       		.byte	0x68
 14333 0ea3 04       		.byte	0x4
 14334 0ea4 8C04     		.uleb128 .LVL385-.LVL309
 14335 0ea6 9004     		.uleb128 .LVL386-.LVL309
 14336 0ea8 05       		.uleb128 0x5
 14337 0ea9 88       		.byte	0x88
 14338 0eaa 00       		.sleb128 0
 14339 0eab 33       		.byte	0x33
 14340 0eac 25       		.byte	0x25
 14341 0ead 9F       		.byte	0x9f
 14342 0eae 04       		.byte	0x4
 14343 0eaf 8406     		.uleb128 .LVL419-.LVL309
 14344 0eb1 9006     		.uleb128 .LVL421-.LVL309
 14345 0eb3 01       		.uleb128 0x1
 14346 0eb4 57       		.byte	0x57
 14347 0eb5 04       		.byte	0x4
 14348 0eb6 9006     		.uleb128 .LVL421-.LVL309
 14349 0eb8 A006     		.uleb128 .LVL424-.LVL309
 14350 0eba 05       		.uleb128 0x5
 14351 0ebb 77       		.byte	0x77
 14352 0ebc 00       		.sleb128 0
 14353 0ebd 33       		.byte	0x33
 14354 0ebe 25       		.byte	0x25
 14355 0ebf 9F       		.byte	0x9f
 14356 0ec0 04       		.byte	0x4
 14357 0ec1 9407     		.uleb128 .LVL439-.LVL309
 14358 0ec3 9407     		.uleb128 .LVL439-.LVL309
 14359 0ec5 01       		.uleb128 0x1
 14360 0ec6 57       		.byte	0x57
 14361 0ec7 04       		.byte	0x4
 14362 0ec8 9407     		.uleb128 .LVL439-.LVL309
 14363 0eca 9407     		.uleb128 .LVL439-.LVL309
 14364 0ecc 05       		.uleb128 0x5
 14365 0ecd 77       		.byte	0x77
 14366 0ece 00       		.sleb128 0
 14367 0ecf 34       		.byte	0x34
 14368 0ed0 25       		.byte	0x25
 14369 0ed1 9F       		.byte	0x9f
 14370 0ed2 04       		.byte	0x4
 14371 0ed3 A809     		.uleb128 .LVL471-.LVL309
 14372 0ed5 B409     		.uleb128 .LVL473-.LVL309
 14373 0ed7 01       		.uleb128 0x1
 14374 0ed8 68       		.byte	0x68
 14375 0ed9 04       		.byte	0x4
 14376 0eda B409     		.uleb128 .LVL473-.LVL309
 14377 0edc D409     		.uleb128 .LVL477-.LVL309
 14378 0ede 05       		.uleb128 0x5
 14379 0edf 88       		.byte	0x88
 14380 0ee0 00       		.sleb128 0
 14381 0ee1 34       		.byte	0x34
 14382 0ee2 25       		.byte	0x25
 14383 0ee3 9F       		.byte	0x9f
 14384 0ee4 04       		.byte	0x4
 14385 0ee5 A80B     		.uleb128 .LVL507-.LVL309
 14386 0ee7 B40B     		.uleb128 .LVL509-.LVL309
 14387 0ee9 01       		.uleb128 0x1
 14388 0eea 68       		.byte	0x68
 14389 0eeb 04       		.byte	0x4
 14390 0eec B40B     		.uleb128 .LVL509-.LVL309
 14391 0eee D40B     		.uleb128 .LVL513-.LVL309
 14392 0ef0 05       		.uleb128 0x5
 14393 0ef1 88       		.byte	0x88
 14394 0ef2 00       		.sleb128 0
 14395 0ef3 34       		.byte	0x34
 14396 0ef4 25       		.byte	0x25
 14397 0ef5 9F       		.byte	0x9f
 14398 0ef6 04       		.byte	0x4
 14399 0ef7 A80D     		.uleb128 .LVL543-.LVL309
 14400 0ef9 B40D     		.uleb128 .LVL545-.LVL309
 14401 0efb 01       		.uleb128 0x1
 14402 0efc 68       		.byte	0x68
 14403 0efd 04       		.byte	0x4
 14404 0efe B40D     		.uleb128 .LVL545-.LVL309
 14405 0f00 CC0D     		.uleb128 .LVL549-.LVL309
 14406 0f02 05       		.uleb128 0x5
 14407 0f03 88       		.byte	0x88
 14408 0f04 00       		.sleb128 0
 14409 0f05 34       		.byte	0x34
 14410 0f06 25       		.byte	0x25
 14411 0f07 9F       		.byte	0x9f
 14412 0f08 00       		.byte	0
 14413              	.LVUS203:
 14414 0f09 00       		.uleb128 .LVU2331
 14415 0f0a 03       		.uleb128 .LVU2336
 14416 0f0b 03       		.uleb128 .LVU2336
 14417 0f0c 00       		.uleb128 .LVU2341
 14418 0f0d 00       		.uleb128 .LVU2341
 14419 0f0e 01       		.uleb128 .LVU2345
 14420 0f0f 00       		.uleb128 .LVU2453
 14421 0f10 03       		.uleb128 .LVU2458
 14422 0f11 03       		.uleb128 .LVU2458
 14423 0f12 00       		.uleb128 .LVU2463
 14424 0f13 00       		.uleb128 .LVU2463
 14425 0f14 01       		.uleb128 .LVU2467
 14426 0f15 00       		.uleb128 .LVU2575
 14427 0f16 03       		.uleb128 .LVU2580
 14428 0f17 03       		.uleb128 .LVU2580
 14429 0f18 00       		.uleb128 .LVU2585
 14430 0f19 00       		.uleb128 .LVU2585
 14431 0f1a 01       		.uleb128 .LVU2592
 14432 0f1b 00       		.uleb128 .LVU2701
 14433 0f1c 03       		.uleb128 .LVU2706
 14434 0f1d 03       		.uleb128 .LVU2706
 14435 0f1e 00       		.uleb128 .LVU2714
 14436 0f1f 00       		.uleb128 .LVU2714
 14437 0f20 02       		.uleb128 .LVU2718
 14438 0f21 00       		.uleb128 .LVU2742
 14439 0f22 03       		.uleb128 .LVU2745
 14440 0f23 03       		.uleb128 .LVU2745
 14441 0f24 06       		.uleb128 .LVU2748
 14442 0f25 00       		.uleb128 .LVU2872
 14443 0f26 03       		.uleb128 .LVU2877
 14444 0f27 03       		.uleb128 .LVU2877
 14445 0f28 00       		.uleb128 .LVU2880
 14446 0f29 00       		.uleb128 .LVU2880
 14447 0f2a 01       		.uleb128 .LVU2891
 14448 0f2b 00       		.uleb128 .LVU3002
 14449 0f2c 03       		.uleb128 .LVU3007
 14450 0f2d 03       		.uleb128 .LVU3007
 14451 0f2e 00       		.uleb128 .LVU3010
 14452 0f2f 00       		.uleb128 .LVU3010
 14453 0f30 01       		.uleb128 .LVU3021
 14454 0f31 00       		.uleb128 .LVU3132
 14455 0f32 03       		.uleb128 .LVU3137
 14456 0f33 03       		.uleb128 .LVU3137
 14457 0f34 00       		.uleb128 .LVU3141
 14458 0f35 00       		.uleb128 .LVU3141
 14459 0f36 01       		.uleb128 .LVU3148
 14460              	.LLST203:
 14461 0f37 06       		.byte	0x6
 14462 0f38 00000000 		.4byte	.LVL310
 14463 0f3c 04       		.byte	0x4
 14464 0f3d 00       		.uleb128 .LVL310-.LVL310
 14465 0f3e 04       		.uleb128 .LVL311-.LVL310
 14466 0f3f 01       		.uleb128 0x1
 14467 0f40 67       		.byte	0x67
 14468 0f41 04       		.byte	0x4
 14469 0f42 04       		.uleb128 .LVL311-.LVL310
 14470 0f43 14       		.uleb128 .LVL314-.LVL310
 14471 0f44 05       		.uleb128 0x5
 14472 0f45 87       		.byte	0x87
 14473 0f46 00       		.sleb128 0
 14474 0f47 33       		.byte	0x33
 14475 0f48 25       		.byte	0x25
 14476 0f49 9F       		.byte	0x9f
 14477 0f4a 04       		.byte	0x4
 14478 0f4b 14       		.uleb128 .LVL314-.LVL310
 14479 0f4c 20       		.uleb128 .LVL316-.LVL310
 14480 0f4d 01       		.uleb128 0x1
 14481 0f4e 67       		.byte	0x67
 14482 0f4f 04       		.byte	0x4
 14483 0f50 8002     		.uleb128 .LVL347-.LVL310
 14484 0f52 8402     		.uleb128 .LVL348-.LVL310
 14485 0f54 01       		.uleb128 0x1
 14486 0f55 67       		.byte	0x67
 14487 0f56 04       		.byte	0x4
 14488 0f57 8402     		.uleb128 .LVL348-.LVL310
 14489 0f59 9402     		.uleb128 .LVL351-.LVL310
 14490 0f5b 05       		.uleb128 0x5
 14491 0f5c 87       		.byte	0x87
 14492 0f5d 00       		.sleb128 0
 14493 0f5e 33       		.byte	0x33
 14494 0f5f 25       		.byte	0x25
 14495 0f60 9F       		.byte	0x9f
 14496 0f61 04       		.byte	0x4
 14497 0f62 9402     		.uleb128 .LVL351-.LVL310
 14498 0f64 A002     		.uleb128 .LVL353-.LVL310
 14499 0f66 01       		.uleb128 0x1
 14500 0f67 67       		.byte	0x67
 14501 0f68 04       		.byte	0x4
 14502 0f69 8004     		.uleb128 .LVL384-.LVL310
 14503 0f6b 8404     		.uleb128 .LVL385-.LVL310
 14504 0f6d 01       		.uleb128 0x1
 14505 0f6e 67       		.byte	0x67
 14506 0f6f 04       		.byte	0x4
 14507 0f70 8404     		.uleb128 .LVL385-.LVL310
 14508 0f72 9404     		.uleb128 .LVL388-.LVL310
 14509 0f74 05       		.uleb128 0x5
 14510 0f75 87       		.byte	0x87
 14511 0f76 00       		.sleb128 0
 14512 0f77 33       		.byte	0x33
 14513 0f78 25       		.byte	0x25
 14514 0f79 9F       		.byte	0x9f
 14515 0f7a 04       		.byte	0x4
 14516 0f7b 9404     		.uleb128 .LVL388-.LVL310
 14517 0f7d A804     		.uleb128 .LVL390-.LVL310
 14518 0f7f 01       		.uleb128 0x1
 14519 0f80 67       		.byte	0x67
 14520 0f81 04       		.byte	0x4
 14521 0f82 8406     		.uleb128 .LVL420-.LVL310
 14522 0f84 8806     		.uleb128 .LVL421-.LVL310
 14523 0f86 01       		.uleb128 0x1
 14524 0f87 56       		.byte	0x56
 14525 0f88 04       		.byte	0x4
 14526 0f89 8806     		.uleb128 .LVL421-.LVL310
 14527 0f8b A006     		.uleb128 .LVL425-.LVL310
 14528 0f8d 05       		.uleb128 0x5
 14529 0f8e 76       		.byte	0x76
 14530 0f8f 00       		.sleb128 0
 14531 0f90 33       		.byte	0x33
 14532 0f91 25       		.byte	0x25
 14533 0f92 9F       		.byte	0x9f
 14534 0f93 04       		.byte	0x4
 14535 0f94 A006     		.uleb128 .LVL425-.LVL310
 14536 0f96 A806     		.uleb128 .LVL426-.LVL310
 14537 0f98 01       		.uleb128 0x1
 14538 0f99 56       		.byte	0x56
 14539 0f9a 04       		.byte	0x4
 14540 0f9b 8C07     		.uleb128 .LVL439-.LVL310
 14541 0f9d 8C07     		.uleb128 .LVL439-.LVL310
 14542 0f9f 01       		.uleb128 0x1
 14543 0fa0 56       		.byte	0x56
 14544 0fa1 04       		.byte	0x4
 14545 0fa2 8C07     		.uleb128 .LVL439-.LVL310
 14546 0fa4 8C07     		.uleb128 .LVL439-.LVL310
 14547 0fa6 05       		.uleb128 0x5
 14548 0fa7 76       		.byte	0x76
 14549 0fa8 00       		.sleb128 0
 14550 0fa9 34       		.byte	0x34
 14551 0faa 25       		.byte	0x25
 14552 0fab 9F       		.byte	0x9f
 14553 0fac 04       		.byte	0x4
 14554 0fad A809     		.uleb128 .LVL472-.LVL310
 14555 0faf AC09     		.uleb128 .LVL473-.LVL310
 14556 0fb1 01       		.uleb128 0x1
 14557 0fb2 67       		.byte	0x67
 14558 0fb3 04       		.byte	0x4
 14559 0fb4 AC09     		.uleb128 .LVL473-.LVL310
 14560 0fb6 B009     		.uleb128 .LVL474-.LVL310
 14561 0fb8 05       		.uleb128 0x5
 14562 0fb9 87       		.byte	0x87
 14563 0fba 00       		.sleb128 0
 14564 0fbb 34       		.byte	0x34
 14565 0fbc 25       		.byte	0x25
 14566 0fbd 9F       		.byte	0x9f
 14567 0fbe 04       		.byte	0x4
 14568 0fbf B009     		.uleb128 .LVL474-.LVL310
 14569 0fc1 D409     		.uleb128 .LVL478-.LVL310
 14570 0fc3 01       		.uleb128 0x1
 14571 0fc4 67       		.byte	0x67
 14572 0fc5 04       		.byte	0x4
 14573 0fc6 A80B     		.uleb128 .LVL508-.LVL310
 14574 0fc8 AC0B     		.uleb128 .LVL509-.LVL310
 14575 0fca 01       		.uleb128 0x1
 14576 0fcb 67       		.byte	0x67
 14577 0fcc 04       		.byte	0x4
 14578 0fcd AC0B     		.uleb128 .LVL509-.LVL310
 14579 0fcf B00B     		.uleb128 .LVL510-.LVL310
 14580 0fd1 05       		.uleb128 0x5
 14581 0fd2 87       		.byte	0x87
 14582 0fd3 00       		.sleb128 0
 14583 0fd4 34       		.byte	0x34
 14584 0fd5 25       		.byte	0x25
 14585 0fd6 9F       		.byte	0x9f
 14586 0fd7 04       		.byte	0x4
 14587 0fd8 B00B     		.uleb128 .LVL510-.LVL310
 14588 0fda D40B     		.uleb128 .LVL514-.LVL310
 14589 0fdc 01       		.uleb128 0x1
 14590 0fdd 67       		.byte	0x67
 14591 0fde 04       		.byte	0x4
 14592 0fdf A80D     		.uleb128 .LVL544-.LVL310
 14593 0fe1 AC0D     		.uleb128 .LVL545-.LVL310
 14594 0fe3 01       		.uleb128 0x1
 14595 0fe4 67       		.byte	0x67
 14596 0fe5 04       		.byte	0x4
 14597 0fe6 AC0D     		.uleb128 .LVL545-.LVL310
 14598 0fe8 B40D     		.uleb128 .LVL547-.LVL310
 14599 0fea 05       		.uleb128 0x5
 14600 0feb 87       		.byte	0x87
 14601 0fec 00       		.sleb128 0
 14602 0fed 34       		.byte	0x34
 14603 0fee 25       		.byte	0x25
 14604 0fef 9F       		.byte	0x9f
 14605 0ff0 04       		.byte	0x4
 14606 0ff1 B40D     		.uleb128 .LVL547-.LVL310
 14607 0ff3 CC0D     		.uleb128 .LVL550-.LVL310
 14608 0ff5 01       		.uleb128 0x1
 14609 0ff6 67       		.byte	0x67
 14610 0ff7 00       		.byte	0
 14611              	.LVUS204:
 14612 0ff8 01       		.uleb128 .LVU2332
 14613 0ff9 00       		.uleb128 .LVU2342
 14614 0ffa 01       		.uleb128 .LVU2454
 14615 0ffb 00       		.uleb128 .LVU2464
 14616 0ffc 01       		.uleb128 .LVU2576
 14617 0ffd 00       		.uleb128 .LVU2586
 14618 0ffe 01       		.uleb128 .LVU2702
 14619 0fff 00       		.uleb128 .LVU2708
 14620 1000 00       		.uleb128 .LVU2708
 14621 1001 00       		.uleb128 .LVU2709
 14622 1002 00       		.uleb128 .LVU2742
 14623 1003 04       		.uleb128 .LVU2746
 14624 1004 04       		.uleb128 .LVU2746
 14625 1005 06       		.uleb128 .LVU2748
 14626 1006 01       		.uleb128 .LVU2873
 14627 1007 04       		.uleb128 .LVU2878
 14628 1008 04       		.uleb128 .LVU2878
 14629 1009 00       		.uleb128 .LVU2881
 14630 100a 01       		.uleb128 .LVU3003
 14631 100b 04       		.uleb128 .LVU3008
 14632 100c 04       		.uleb128 .LVU3008
 14633 100d 00       		.uleb128 .LVU3011
 14634 100e 01       		.uleb128 .LVU3133
 14635 100f 04       		.uleb128 .LVU3138
 14636 1010 04       		.uleb128 .LVU3138
 14637 1011 00       		.uleb128 .LVU3140
 14638              	.LLST204:
 14639 1012 06       		.byte	0x6
 14640 1013 00000000 		.4byte	.LVL310
 14641 1017 04       		.byte	0x4
 14642 1018 00       		.uleb128 .LVL310-.LVL310
 14643 1019 18       		.uleb128 .LVL315-.LVL310
 14644 101a 01       		.uleb128 0x1
 14645 101b 50       		.byte	0x50
 14646 101c 04       		.byte	0x4
 14647 101d 8002     		.uleb128 .LVL347-.LVL310
 14648 101f 9802     		.uleb128 .LVL352-.LVL310
 14649 1021 01       		.uleb128 0x1
 14650 1022 50       		.byte	0x50
 14651 1023 04       		.byte	0x4
 14652 1024 8004     		.uleb128 .LVL384-.LVL310
 14653 1026 9804     		.uleb128 .LVL389-.LVL310
 14654 1028 01       		.uleb128 0x1
 14655 1029 50       		.byte	0x50
 14656 102a 04       		.byte	0x4
 14657 102b 8406     		.uleb128 .LVL420-.LVL310
 14658 102d 8C06     		.uleb128 .LVL422-.LVL310
 14659 102f 01       		.uleb128 0x1
 14660 1030 58       		.byte	0x58
 14661 1031 04       		.byte	0x4
 14662 1032 8C06     		.uleb128 .LVL422-.LVL310
 14663 1034 9006     		.uleb128 .LVL423-.LVL310
 14664 1036 06       		.uleb128 0x6
 14665 1037 7A       		.byte	0x7a
 14666 1038 00       		.sleb128 0
 14667 1039 08       		.byte	0x8
 14668 103a FF       		.byte	0xff
 14669 103b 1A       		.byte	0x1a
 14670 103c 9F       		.byte	0x9f
 14671 103d 04       		.byte	0x4
 14672 103e 8C07     		.uleb128 .LVL439-.LVL310
 14673 1040 8C07     		.uleb128 .LVL439-.LVL310
 14674 1042 01       		.uleb128 0x1
 14675 1043 58       		.byte	0x58
 14676 1044 04       		.byte	0x4
 14677 1045 8C07     		.uleb128 .LVL439-.LVL310
 14678 1047 8C07     		.uleb128 .LVL439-.LVL310
 14679 1049 05       		.uleb128 0x5
 14680 104a 78       		.byte	0x78
 14681 104b 00       		.sleb128 0
 14682 104c 35       		.byte	0x35
 14683 104d 25       		.byte	0x25
 14684 104e 9F       		.byte	0x9f
 14685 104f 04       		.byte	0x4
 14686 1050 A809     		.uleb128 .LVL472-.LVL310
 14687 1052 AC09     		.uleb128 .LVL473-.LVL310
 14688 1054 01       		.uleb128 0x1
 14689 1055 50       		.byte	0x50
 14690 1056 04       		.byte	0x4
 14691 1057 AC09     		.uleb128 .LVL473-.LVL310
 14692 1059 B409     		.uleb128 .LVL475-.LVL310
 14693 105b 05       		.uleb128 0x5
 14694 105c 70       		.byte	0x70
 14695 105d 00       		.sleb128 0
 14696 105e 35       		.byte	0x35
 14697 105f 25       		.byte	0x25
 14698 1060 9F       		.byte	0x9f
 14699 1061 04       		.byte	0x4
 14700 1062 A80B     		.uleb128 .LVL508-.LVL310
 14701 1064 AC0B     		.uleb128 .LVL509-.LVL310
 14702 1066 01       		.uleb128 0x1
 14703 1067 50       		.byte	0x50
 14704 1068 04       		.byte	0x4
 14705 1069 AC0B     		.uleb128 .LVL509-.LVL310
 14706 106b B40B     		.uleb128 .LVL511-.LVL310
 14707 106d 05       		.uleb128 0x5
 14708 106e 70       		.byte	0x70
 14709 106f 00       		.sleb128 0
 14710 1070 35       		.byte	0x35
 14711 1071 25       		.byte	0x25
 14712 1072 9F       		.byte	0x9f
 14713 1073 04       		.byte	0x4
 14714 1074 A80D     		.uleb128 .LVL544-.LVL310
 14715 1076 AC0D     		.uleb128 .LVL545-.LVL310
 14716 1078 01       		.uleb128 0x1
 14717 1079 50       		.byte	0x50
 14718 107a 04       		.byte	0x4
 14719 107b AC0D     		.uleb128 .LVL545-.LVL310
 14720 107d B00D     		.uleb128 .LVL546-.LVL310
 14721 107f 05       		.uleb128 0x5
 14722 1080 70       		.byte	0x70
 14723 1081 00       		.sleb128 0
 14724 1082 35       		.byte	0x35
 14725 1083 25       		.byte	0x25
 14726 1084 9F       		.byte	0x9f
 14727 1085 00       		.byte	0
 14728              	.LVUS205:
 14729 1086 00       		.uleb128 .LVU2342
 14730 1087 01       		.uleb128 .LVU2345
 14731 1088 00       		.uleb128 .LVU2464
 14732 1089 01       		.uleb128 .LVU2467
 14733 108a 00       		.uleb128 .LVU2586
 14734 108b 01       		.uleb128 .LVU2592
 14735 108c 00       		.uleb128 .LVU2716
 14736 108d 01       		.uleb128 .LVU2717
 14737 108e 01       		.uleb128 .LVU2717
 14738 108f 02       		.uleb128 .LVU2718
 14739 1090 05       		.uleb128 .LVU2747
 14740 1091 06       		.uleb128 .LVU2748
 14741 1092 00       		.uleb128 .LVU2890
 14742 1093 01       		.uleb128 .LVU2891
 14743 1094 00       		.uleb128 .LVU3020
 14744 1095 01       		.uleb128 .LVU3021
 14745 1096 00       		.uleb128 .LVU3147
 14746 1097 01       		.uleb128 .LVU3148
 14747              	.LLST205:
 14748 1098 06       		.byte	0x6
 14749 1099 00000000 		.4byte	.LVL315
 14750 109d 04       		.byte	0x4
 14751 109e 00       		.uleb128 .LVL315-.LVL315
 14752 109f 08       		.uleb128 .LVL316-.LVL315
 14753 10a0 01       		.uleb128 0x1
 14754 10a1 50       		.byte	0x50
 14755 10a2 04       		.byte	0x4
 14756 10a3 8002     		.uleb128 .LVL352-.LVL315
 14757 10a5 8802     		.uleb128 .LVL353-.LVL315
 14758 10a7 01       		.uleb128 0x1
 14759 10a8 50       		.byte	0x50
 14760 10a9 04       		.byte	0x4
 14761 10aa 8004     		.uleb128 .LVL389-.LVL315
 14762 10ac 9004     		.uleb128 .LVL390-.LVL315
 14763 10ae 01       		.uleb128 0x1
 14764 10af 50       		.byte	0x50
 14765 10b0 04       		.byte	0x4
 14766 10b1 9006     		.uleb128 .LVL426-.LVL315
 14767 10b3 9006     		.uleb128 .LVL426-.LVL315
 14768 10b5 01       		.uleb128 0x1
 14769 10b6 5A       		.byte	0x5a
 14770 10b7 04       		.byte	0x4
 14771 10b8 9006     		.uleb128 .LVL426-.LVL315
 14772 10ba 9006     		.uleb128 .LVL426-.LVL315
 14773 10bc 07       		.uleb128 0x7
 14774 10bd 7A       		.byte	0x7a
 14775 10be 00       		.sleb128 0
 14776 10bf 0B       		.byte	0xb
 14777 10c0 8000     		.2byte	0x8000
 14778 10c2 21       		.byte	0x21
 14779 10c3 9F       		.byte	0x9f
 14780 10c4 04       		.byte	0x4
 14781 10c5 F406     		.uleb128 .LVL439-.LVL315
 14782 10c7 F406     		.uleb128 .LVL439-.LVL315
 14783 10c9 1A       		.uleb128 0x1a
 14784 10ca 78       		.byte	0x78
 14785 10cb 00       		.sleb128 0
 14786 10cc 35       		.byte	0x35
 14787 10cd 25       		.byte	0x25
 14788 10ce 3C       		.byte	0x3c
 14789 10cf 24       		.byte	0x24
 14790 10d0 7A       		.byte	0x7a
 14791 10d1 00       		.sleb128 0
 14792 10d2 4C       		.byte	0x4c
 14793 10d3 25       		.byte	0x25
 14794 10d4 38       		.byte	0x38
 14795 10d5 24       		.byte	0x24
 14796 10d6 21       		.byte	0x21
 14797 10d7 77       		.byte	0x77
 14798 10d8 00       		.sleb128 0
 14799 10d9 34       		.byte	0x34
 14800 10da 25       		.byte	0x25
 14801 10db 34       		.byte	0x34
 14802 10dc 24       		.byte	0x24
 14803 10dd 21       		.byte	0x21
 14804 10de 76       		.byte	0x76
 14805 10df 00       		.sleb128 0
 14806 10e0 34       		.byte	0x34
 14807 10e1 25       		.byte	0x25
 14808 10e2 21       		.byte	0x21
 14809 10e3 9F       		.byte	0x9f
 14810 10e4 04       		.byte	0x4
 14811 10e5 BC09     		.uleb128 .LVL478-.LVL315
 14812 10e7 BC09     		.uleb128 .LVL478-.LVL315
 14813 10e9 01       		.uleb128 0x1
 14814 10ea 50       		.byte	0x50
 14815 10eb 04       		.byte	0x4
 14816 10ec BC0B     		.uleb128 .LVL514-.LVL315
 14817 10ee BC0B     		.uleb128 .LVL514-.LVL315
 14818 10f0 01       		.uleb128 0x1
 14819 10f1 50       		.byte	0x50
 14820 10f2 04       		.byte	0x4
 14821 10f3 B40D     		.uleb128 .LVL550-.LVL315
 14822 10f5 B40D     		.uleb128 .LVL550-.LVL315
 14823 10f7 01       		.uleb128 0x1
 14824 10f8 50       		.byte	0x50
 14825 10f9 00       		.byte	0
 14826              	.LVUS126:
 14827 10fa 00       		.uleb128 0
 14828 10fb 00       		.uleb128 .LVU1674
 14829 10fc 00       		.uleb128 .LVU1674
 14830 10fd 00       		.uleb128 .LVU2155
 14831 10fe 00       		.uleb128 .LVU2155
 14832 10ff 00       		.uleb128 .LVU2156
 14833 1100 00       		.uleb128 .LVU2156
 14834 1101 00       		.uleb128 0
 14835              	.LLST126:
 14836 1102 06       		.byte	0x6
 14837 1103 00000000 		.4byte	.LVL229
 14838 1107 04       		.byte	0x4
 14839 1108 00       		.uleb128 .LVL229-.LVL229
 14840 1109 24       		.uleb128 .LVL230-.LVL229
 14841 110a 01       		.uleb128 0x1
 14842 110b 53       		.byte	0x53
 14843 110c 04       		.byte	0x4
 14844 110d 24       		.uleb128 .LVL230-.LVL229
 14845 110e F40C     		.uleb128 .LVL254-.LVL229
 14846 1110 01       		.uleb128 0x1
 14847 1111 6F       		.byte	0x6f
 14848 1112 04       		.byte	0x4
 14849 1113 F40C     		.uleb128 .LVL254-.LVL229
 14850 1115 FC0C     		.uleb128 .LVL255-.LVL229
 14851 1117 0A       		.uleb128 0xa
 14852 1118 A3       		.byte	0xa3
 14853 1119 03       		.uleb128 0x3
 14854 111a A5       		.byte	0xa5
 14855 111b 03       		.uleb128 0x3
 14856 111c 2D       		.uleb128 0x2d
 14857 111d A8       		.byte	0xa8
 14858 111e 26       		.uleb128 0x26
 14859 111f A8       		.byte	0xa8
 14860 1120 00       		.uleb128 0
 14861 1121 9F       		.byte	0x9f
 14862 1122 04       		.byte	0x4
 14863 1123 FC0C     		.uleb128 .LVL255-.LVL229
 14864 1125 840D     		.uleb128 .LFE76-.LVL229
 14865 1127 01       		.uleb128 0x1
 14866 1128 6F       		.byte	0x6f
 14867 1129 00       		.byte	0
 14868              	.LVUS127:
 14869 112a 00       		.uleb128 0
 14870 112b 00       		.uleb128 .LVU1679
 14871 112c 00       		.uleb128 .LVU1679
 14872 112d 00       		.uleb128 .LVU1692
 14873 112e 00       		.uleb128 .LVU1692
 14874 112f 00       		.uleb128 0
 14875              	.LLST127:
 14876 1130 06       		.byte	0x6
 14877 1131 00000000 		.4byte	.LVL229
 14878 1135 04       		.byte	0x4
 14879 1136 00       		.uleb128 .LVL229-.LVL229
 14880 1137 34       		.uleb128 .LVL232-.LVL229
 14881 1138 01       		.uleb128 0x1
 14882 1139 54       		.byte	0x54
 14883 113a 04       		.byte	0x4
 14884 113b 34       		.uleb128 .LVL232-.LVL229
 14885 113c B001     		.uleb128 .LVL236-.LVL229
 14886 113e 01       		.uleb128 0x1
 14887 113f 65       		.byte	0x65
 14888 1140 04       		.byte	0x4
 14889 1141 B001     		.uleb128 .LVL236-.LVL229
 14890 1143 840D     		.uleb128 .LFE76-.LVL229
 14891 1145 0A       		.uleb128 0xa
 14892 1146 A3       		.byte	0xa3
 14893 1147 03       		.uleb128 0x3
 14894 1148 A5       		.byte	0xa5
 14895 1149 04       		.uleb128 0x4
 14896 114a 2D       		.uleb128 0x2d
 14897 114b A8       		.byte	0xa8
 14898 114c 34       		.uleb128 0x34
 14899 114d A8       		.byte	0xa8
 14900 114e 00       		.uleb128 0
 14901 114f 9F       		.byte	0x9f
 14902 1150 00       		.byte	0
 14903              	.LVUS128:
 14904 1151 00       		.uleb128 0
 14905 1152 00       		.uleb128 .LVU1681
 14906 1153 00       		.uleb128 .LVU1681
 14907 1154 00       		.uleb128 .LVU1692
 14908 1155 00       		.uleb128 .LVU1692
 14909 1156 00       		.uleb128 .LVU2150
 14910 1157 00       		.uleb128 .LVU2150
 14911 1158 00       		.uleb128 0
 14912              	.LLST128:
 14913 1159 06       		.byte	0x6
 14914 115a 00000000 		.4byte	.LVL229
 14915 115e 04       		.byte	0x4
 14916 115f 00       		.uleb128 .LVL229-.LVL229
 14917 1160 3F       		.uleb128 .LVL233-1-.LVL229
 14918 1161 01       		.uleb128 0x1
 14919 1162 55       		.byte	0x55
 14920 1163 04       		.byte	0x4
 14921 1164 3F       		.uleb128 .LVL233-1-.LVL229
 14922 1165 B001     		.uleb128 .LVL236-.LVL229
 14923 1167 01       		.uleb128 0x1
 14924 1168 6D       		.byte	0x6d
 14925 1169 04       		.byte	0x4
 14926 116a B001     		.uleb128 .LVL236-.LVL229
 14927 116c C80C     		.uleb128 .LVL252-.LVL229
 14928 116e 03       		.uleb128 0x3
 14929 116f 91       		.byte	0x91
 14930 1170 AA7F     		.sleb128 -86
 14931 1172 04       		.byte	0x4
 14932 1173 C80C     		.uleb128 .LVL252-.LVL229
 14933 1175 840D     		.uleb128 .LFE76-.LVL229
 14934 1177 0A       		.uleb128 0xa
 14935 1178 A3       		.byte	0xa3
 14936 1179 03       		.uleb128 0x3
 14937 117a A5       		.byte	0xa5
 14938 117b 05       		.uleb128 0x5
 14939 117c 2D       		.uleb128 0x2d
 14940 117d A8       		.byte	0xa8
 14941 117e 34       		.uleb128 0x34
 14942 117f A8       		.byte	0xa8
 14943 1180 00       		.uleb128 0
 14944 1181 9F       		.byte	0x9f
 14945 1182 00       		.byte	0
 14946              	.LVUS129:
 14947 1183 00       		.uleb128 .LVU1676
 14948 1184 00       		.uleb128 .LVU1692
 14949 1185 00       		.uleb128 .LVU1692
 14950 1186 00       		.uleb128 .LVU2150
 14951 1187 00       		.uleb128 .LVU2150
 14952 1188 00       		.uleb128 .LVU2156
 14953 1189 00       		.uleb128 .LVU2156
 14954 118a 00       		.uleb128 0
 14955              	.LLST129:
 14956 118b 06       		.byte	0x6
 14957 118c 00000000 		.4byte	.LVL231
 14958 1190 04       		.byte	0x4
 14959 1191 00       		.uleb128 .LVL231-.LVL231
 14960 1192 8401     		.uleb128 .LVL236-.LVL231
 14961 1194 01       		.uleb128 0x1
 14962 1195 63       		.byte	0x63
 14963 1196 04       		.byte	0x4
 14964 1197 8401     		.uleb128 .LVL236-.LVL231
 14965 1199 9C0C     		.uleb128 .LVL252-.LVL231
 14966 119b 03       		.uleb128 0x3
 14967 119c 91       		.byte	0x91
 14968 119d AC7F     		.sleb128 -84
 14969 119f 04       		.byte	0x4
 14970 11a0 9C0C     		.uleb128 .LVL252-.LVL231
 14971 11a2 D00C     		.uleb128 .LVL255-.LVL231
 14972 11a4 16       		.uleb128 0x16
 14973 11a5 A3       		.byte	0xa3
 14974 11a6 03       		.uleb128 0x3
 14975 11a7 A5       		.byte	0xa5
 14976 11a8 05       		.uleb128 0x5
 14977 11a9 2D       		.uleb128 0x2d
 14978 11aa A8       		.byte	0xa8
 14979 11ab 26       		.uleb128 0x26
 14980 11ac A8       		.byte	0xa8
 14981 11ad 00       		.uleb128 0
 14982 11ae A3       		.byte	0xa3
 14983 11af 03       		.uleb128 0x3
 14984 11b0 A5       		.byte	0xa5
 14985 11b1 04       		.uleb128 0x4
 14986 11b2 2D       		.uleb128 0x2d
 14987 11b3 A8       		.byte	0xa8
 14988 11b4 26       		.uleb128 0x26
 14989 11b5 A8       		.byte	0xa8
 14990 11b6 00       		.uleb128 0
 14991 11b7 1E       		.byte	0x1e
 14992 11b8 31       		.byte	0x31
 14993 11b9 24       		.byte	0x24
 14994 11ba 9F       		.byte	0x9f
 14995 11bb 04       		.byte	0x4
 14996 11bc D00C     		.uleb128 .LVL255-.LVL231
 14997 11be D80C     		.uleb128 .LFE76-.LVL231
 14998 11c0 01       		.uleb128 0x1
 14999 11c1 63       		.byte	0x63
 15000 11c2 00       		.byte	0
 15001              	.LVUS130:
 15002 11c3 00       		.uleb128 .LVU1683
 15003 11c4 00       		.uleb128 .LVU1685
 15004 11c5 00       		.uleb128 .LVU1685
 15005 11c6 00       		.uleb128 .LVU1692
 15006 11c7 00       		.uleb128 .LVU1692
 15007 11c8 00       		.uleb128 .LVU2150
 15008 11c9 00       		.uleb128 .LVU2156
 15009 11ca 00       		.uleb128 0
 15010              	.LLST130:
 15011 11cb 06       		.byte	0x6
 15012 11cc 00000000 		.4byte	.LVL234
 15013 11d0 04       		.byte	0x4
 15014 11d1 00       		.uleb128 .LVL234-.LVL234
 15015 11d2 03       		.uleb128 .LVL235-1-.LVL234
 15016 11d3 01       		.uleb128 0x1
 15017 11d4 53       		.byte	0x53
 15018 11d5 04       		.byte	0x4
 15019 11d6 03       		.uleb128 .LVL235-1-.LVL234
 15020 11d7 64       		.uleb128 .LVL236-.LVL234
 15021 11d8 01       		.uleb128 0x1
 15022 11d9 64       		.byte	0x64
 15023 11da 04       		.byte	0x4
 15024 11db 64       		.uleb128 .LVL236-.LVL234
 15025 11dc FC0B     		.uleb128 .LVL252-.LVL234
 15026 11de 03       		.uleb128 0x3
 15027 11df 91       		.byte	0x91
 15028 11e0 B07F     		.sleb128 -80
 15029 11e2 04       		.byte	0x4
 15030 11e3 B00C     		.uleb128 .LVL255-.LVL234
 15031 11e5 B80C     		.uleb128 .LFE76-.LVL234
 15032 11e7 01       		.uleb128 0x1
 15033 11e8 5A       		.byte	0x5a
 15034 11e9 00       		.byte	0
 15035              	.LVUS131:
 15036 11ea 01       		.uleb128 .LVU1686
 15037 11eb 00       		.uleb128 .LVU2155
 15038 11ec 00       		.uleb128 .LVU2155
 15039 11ed 00       		.uleb128 .LVU2156
 15040 11ee 00       		.uleb128 .LVU2156
 15041 11ef 00       		.uleb128 0
 15042              	.LLST131:
 15043 11f0 06       		.byte	0x6
 15044 11f1 00000000 		.4byte	.LVL235
 15045 11f5 04       		.byte	0x4
 15046 11f6 00       		.uleb128 .LVL235-.LVL235
 15047 11f7 A40C     		.uleb128 .LVL254-.LVL235
 15048 11f9 01       		.uleb128 0x1
 15049 11fa 6F       		.byte	0x6f
 15050 11fb 04       		.byte	0x4
 15051 11fc A40C     		.uleb128 .LVL254-.LVL235
 15052 11fe AC0C     		.uleb128 .LVL255-.LVL235
 15053 1200 0A       		.uleb128 0xa
 15054 1201 A3       		.byte	0xa3
 15055 1202 03       		.uleb128 0x3
 15056 1203 A5       		.byte	0xa5
 15057 1204 03       		.uleb128 0x3
 15058 1205 2D       		.uleb128 0x2d
 15059 1206 A8       		.byte	0xa8
 15060 1207 26       		.uleb128 0x26
 15061 1208 A8       		.byte	0xa8
 15062 1209 00       		.uleb128 0
 15063 120a 9F       		.byte	0x9f
 15064 120b 04       		.byte	0x4
 15065 120c AC0C     		.uleb128 .LVL255-.LVL235
 15066 120e B40C     		.uleb128 .LFE76-.LVL235
 15067 1210 01       		.uleb128 0x1
 15068 1211 6F       		.byte	0x6f
 15069 1212 00       		.byte	0
 15070              	.LVUS132:
 15071 1213 02       		.uleb128 .LVU1687
 15072 1214 00       		.uleb128 .LVU1692
 15073 1215 00       		.uleb128 .LVU1692
 15074 1216 06       		.uleb128 .LVU1728
 15075 1217 06       		.uleb128 .LVU1728
 15076 1218 00       		.uleb128 .LVU1810
 15077 1219 00       		.uleb128 .LVU1810
 15078 121a 07       		.uleb128 .LVU2008
 15079 121b 17       		.uleb128 .LVU2133
 15080 121c 00       		.uleb128 .LVU2150
 15081 121d 00       		.uleb128 .LVU2156
 15082 121e 00       		.uleb128 0
 15083              	.LLST132:
 15084 121f 06       		.byte	0x6
 15085 1220 00000000 		.4byte	.LVL235
 15086 1224 04       		.byte	0x4
 15087 1225 00       		.uleb128 .LVL235-.LVL235
 15088 1226 60       		.uleb128 .LVL236-.LVL235
 15089 1227 01       		.uleb128 0x1
 15090 1228 64       		.byte	0x64
 15091 1229 04       		.byte	0x4
 15092 122a 60       		.uleb128 .LVL236-.LVL235
 15093 122b E401     		.uleb128 .LVL239-.LVL235
 15094 122d 01       		.uleb128 0x1
 15095 122e 5A       		.byte	0x5a
 15096 122f 04       		.byte	0x4
 15097 1230 E401     		.uleb128 .LVL239-.LVL235
 15098 1232 B404     		.uleb128 .LVL240-.LVL235
 15099 1234 03       		.uleb128 0x3
 15100 1235 7A       		.byte	0x7a
 15101 1236 02       		.sleb128 2
 15102 1237 9F       		.byte	0x9f
 15103 1238 04       		.byte	0x4
 15104 1239 B404     		.uleb128 .LVL240-.LVL235
 15105 123b E00A     		.uleb128 .LVL242-.LVL235
 15106 123d 03       		.uleb128 0x3
 15107 123e 7A       		.byte	0x7a
 15108 123f 62       		.sleb128 -30
 15109 1240 9F       		.byte	0x9f
 15110 1241 04       		.byte	0x4
 15111 1242 900B     		.uleb128 .LVL245-.LVL235
 15112 1244 F80B     		.uleb128 .LVL252-.LVL235
 15113 1246 01       		.uleb128 0x1
 15114 1247 5A       		.byte	0x5a
 15115 1248 04       		.byte	0x4
 15116 1249 AC0C     		.uleb128 .LVL255-.LVL235
 15117 124b B40C     		.uleb128 .LFE76-.LVL235
 15118 124d 01       		.uleb128 0x1
 15119 124e 5A       		.byte	0x5a
 15120 124f 00       		.byte	0
 15121              	.LVUS134:
 15122 1250 03       		.uleb128 .LVU1688
 15123 1251 00       		.uleb128 .LVU1692
 15124 1252 00       		.uleb128 .LVU1692
 15125 1253 00       		.uleb128 .LVU1697
 15126 1254 00       		.uleb128 .LVU1697
 15127 1255 00       		.uleb128 .LVU2145
 15128 1256 00       		.uleb128 .LVU2145
 15129 1257 00       		.uleb128 .LVU2147
 15130 1258 00       		.uleb128 .LVU2147
 15131 1259 00       		.uleb128 .LVU2150
 15132 125a 00       		.uleb128 .LVU2156
 15133 125b 00       		.uleb128 0
 15134              	.LLST134:
 15135 125c 06       		.byte	0x6
 15136 125d 00000000 		.4byte	.LVL235
 15137 1261 04       		.byte	0x4
 15138 1262 00       		.uleb128 .LVL235-.LVL235
 15139 1263 60       		.uleb128 .LVL236-.LVL235
 15140 1264 02       		.uleb128 0x2
 15141 1265 30       		.byte	0x30
 15142 1266 9F       		.byte	0x9f
 15143 1267 04       		.byte	0x4
 15144 1268 60       		.uleb128 .LVL236-.LVL235
 15145 1269 8001     		.uleb128 .LVL237-.LVL235
 15146 126b 01       		.uleb128 0x1
 15147 126c 61       		.byte	0x61
 15148 126d 04       		.byte	0x4
 15149 126e 8001     		.uleb128 .LVL237-.LVL235
 15150 1270 B40B     		.uleb128 .LVL247-.LVL235
 15151 1272 03       		.uleb128 0x3
 15152 1273 91       		.byte	0x91
 15153 1274 A47F     		.sleb128 -92
 15154 1276 04       		.byte	0x4
 15155 1277 B40B     		.uleb128 .LVL247-.LVL235
 15156 1279 D40B     		.uleb128 .LVL249-.LVL235
 15157 127b 01       		.uleb128 0x1
 15158 127c 61       		.byte	0x61
 15159 127d 04       		.byte	0x4
 15160 127e D40B     		.uleb128 .LVL249-.LVL235
 15161 1280 F80B     		.uleb128 .LVL252-.LVL235
 15162 1282 08       		.uleb128 0x8
 15163 1283 91       		.byte	0x91
 15164 1284 A47F     		.sleb128 -92
 15165 1286 94       		.byte	0x94
 15166 1287 02       		.byte	0x2
 15167 1288 23       		.byte	0x23
 15168 1289 04       		.uleb128 0x4
 15169 128a 9F       		.byte	0x9f
 15170 128b 04       		.byte	0x4
 15171 128c AC0C     		.uleb128 .LVL255-.LVL235
 15172 128e B40C     		.uleb128 .LFE76-.LVL235
 15173 1290 02       		.uleb128 0x2
 15174 1291 30       		.byte	0x30
 15175 1292 9F       		.byte	0x9f
 15176 1293 00       		.byte	0
 15177              	.LVUS136:
 15178 1294 00       		.uleb128 .LVU1692
 15179 1295 00       		.uleb128 .LVU1697
 15180 1296 00       		.uleb128 .LVU1697
 15181 1297 00       		.uleb128 .LVU1701
 15182 1298 00       		.uleb128 .LVU1701
 15183 1299 03       		.uleb128 .LVU2139
 15184 129a 03       		.uleb128 .LVU2139
 15185 129b 00       		.uleb128 .LVU2149
 15186              	.LLST136:
 15187 129c 06       		.byte	0x6
 15188 129d 00000000 		.4byte	.LVL236
 15189 12a1 04       		.byte	0x4
 15190 12a2 00       		.uleb128 .LVL236-.LVL236
 15191 12a3 20       		.uleb128 .LVL237-.LVL236
 15192 12a4 02       		.uleb128 0x2
 15193 12a5 30       		.byte	0x30
 15194 12a6 9F       		.byte	0x9f
 15195 12a7 04       		.byte	0x4
 15196 12a8 20       		.uleb128 .LVL237-.LVL236
 15197 12a9 28       		.uleb128 .LVL238-.LVL236
 15198 12aa 01       		.uleb128 0x1
 15199 12ab 66       		.byte	0x66
 15200 12ac 04       		.byte	0x4
 15201 12ad 28       		.uleb128 .LVL238-.LVL236
 15202 12ae BC0A     		.uleb128 .LVL246-.LVL236
 15203 12b0 03       		.uleb128 0x3
 15204 12b1 86       		.byte	0x86
 15205 12b2 7C       		.sleb128 -4
 15206 12b3 9F       		.byte	0x9f
 15207 12b4 04       		.byte	0x4
 15208 12b5 BC0A     		.uleb128 .LVL246-.LVL236
 15209 12b7 FC0A     		.uleb128 .LVL251-.LVL236
 15210 12b9 01       		.uleb128 0x1
 15211 12ba 66       		.byte	0x66
 15212 12bb 00       		.byte	0
 15213              	.LVUS138:
 15214 12bc 00       		.uleb128 .LVU1697
 15215 12bd 19       		.uleb128 .LVU2026
 15216 12be 19       		.uleb128 .LVU2026
 15217 12bf 19       		.uleb128 .LVU2062
 15218 12c0 19       		.uleb128 .LVU2062
 15219 12c1 19       		.uleb128 .LVU2098
 15220 12c2 19       		.uleb128 .LVU2098
 15221 12c3 01       		.uleb128 .LVU2137
 15222 12c4 01       		.uleb128 .LVU2137
 15223 12c5 00       		.uleb128 .LVU2150
 15224              	.LLST138:
 15225 12c6 06       		.byte	0x6
 15226 12c7 00000000 		.4byte	.LVL237
 15227 12cb 04       		.byte	0x4
 15228 12cc 00       		.uleb128 .LVL237-.LVL237
 15229 12cd E009     		.uleb128 .LVL242-.LVL237
 15230 12cf 02       		.uleb128 0x2
 15231 12d0 30       		.byte	0x30
 15232 12d1 9F       		.byte	0x9f
 15233 12d2 04       		.byte	0x4
 15234 12d3 E009     		.uleb128 .LVL242-.LVL237
 15235 12d5 F009     		.uleb128 .LVL243-.LVL237
 15236 12d7 02       		.uleb128 0x2
 15237 12d8 31       		.byte	0x31
 15238 12d9 9F       		.byte	0x9f
 15239 12da 04       		.byte	0x4
 15240 12db F009     		.uleb128 .LVL243-.LVL237
 15241 12dd 800A     		.uleb128 .LVL244-.LVL237
 15242 12df 02       		.uleb128 0x2
 15243 12e0 32       		.byte	0x32
 15244 12e1 9F       		.byte	0x9f
 15245 12e2 04       		.byte	0x4
 15246 12e3 800A     		.uleb128 .LVL244-.LVL237
 15247 12e5 9C0A     		.uleb128 .LVL246-.LVL237
 15248 12e7 02       		.uleb128 0x2
 15249 12e8 33       		.byte	0x33
 15250 12e9 9F       		.byte	0x9f
 15251 12ea 04       		.byte	0x4
 15252 12eb 9C0A     		.uleb128 .LVL246-.LVL237
 15253 12ed F80A     		.uleb128 .LVL252-.LVL237
 15254 12ef 02       		.uleb128 0x2
 15255 12f0 34       		.byte	0x34
 15256 12f1 9F       		.byte	0x9f
 15257 12f2 00       		.byte	0
 15258              	.LVUS140:
 15259 12f3 00       		.uleb128 .LVU1722
 15260 12f4 06       		.uleb128 .LVU1728
 15261 12f5 1B       		.uleb128 .LVU2028
 15262 12f6 21       		.uleb128 .LVU2034
 15263 12f7 1B       		.uleb128 .LVU2064
 15264 12f8 21       		.uleb128 .LVU2070
 15265 12f9 1B       		.uleb128 .LVU2100
 15266 12fa 21       		.uleb128 .LVU2106
 15267              	.LLST140:
 15268 12fb 08       		.byte	0x8
 15269 12fc 00000000 		.4byte	.LVL239
 15270 1300 00       		.uleb128 .LVL239-.LVL239
 15271 1301 01       		.uleb128 0x1
 15272 1302 6B       		.byte	0x6b
 15273 1303 08       		.byte	0x8
 15274 1304 00000000 		.4byte	.LVL242
 15275 1308 00       		.uleb128 .LVL242-.LVL242
 15276 1309 0E       		.uleb128 0xe
 15277 130a 86       		.byte	0x86
 15278 130b 7C       		.sleb128 -4
 15279 130c 0A       		.byte	0xa
 15280 130d FFFF     		.2byte	0xffff
 15281 130f 1A       		.byte	0x1a
 15282 1310 82       		.byte	0x82
 15283 1311 00       		.sleb128 0
 15284 1312 22       		.byte	0x22
 15285 1313 32       		.byte	0x32
 15286 1314 24       		.byte	0x24
 15287 1315 8F       		.byte	0x8f
 15288 1316 00       		.sleb128 0
 15289 1317 22       		.byte	0x22
 15290 1318 08       		.byte	0x8
 15291 1319 00000000 		.4byte	.LVL243
 15292 131d 00       		.uleb128 .LVL243-.LVL243
 15293 131e 0E       		.uleb128 0xe
 15294 131f 86       		.byte	0x86
 15295 1320 7C       		.sleb128 -4
 15296 1321 0A       		.byte	0xa
 15297 1322 FFFF     		.2byte	0xffff
 15298 1324 1A       		.byte	0x1a
 15299 1325 83       		.byte	0x83
 15300 1326 00       		.sleb128 0
 15301 1327 22       		.byte	0x22
 15302 1328 32       		.byte	0x32
 15303 1329 24       		.byte	0x24
 15304 132a 8F       		.byte	0x8f
 15305 132b 00       		.sleb128 0
 15306 132c 22       		.byte	0x22
 15307 132d 08       		.byte	0x8
 15308 132e 00000000 		.4byte	.LVL244
 15309 1332 00       		.uleb128 .LVL244-.LVL244
 15310 1333 0E       		.uleb128 0xe
 15311 1334 86       		.byte	0x86
 15312 1335 7C       		.sleb128 -4
 15313 1336 0A       		.byte	0xa
 15314 1337 FFFF     		.2byte	0xffff
 15315 1339 1A       		.byte	0x1a
 15316 133a 80       		.byte	0x80
 15317 133b 00       		.sleb128 0
 15318 133c 22       		.byte	0x22
 15319 133d 32       		.byte	0x32
 15320 133e 24       		.byte	0x24
 15321 133f 8F       		.byte	0x8f
 15322 1340 00       		.sleb128 0
 15323 1341 22       		.byte	0x22
 15324 1342 00       		.byte	0
 15325              	.LVUS141:
 15326 1343 03       		.uleb128 .LVU1725
 15327 1344 00       		.uleb128 .LVU1906
 15328 1345 00       		.uleb128 .LVU1906
 15329 1346 1E       		.uleb128 .LVU2031
 15330 1347 1E       		.uleb128 .LVU2031
 15331 1348 1E       		.uleb128 .LVU2067
 15332 1349 1E       		.uleb128 .LVU2067
 15333 134a 1E       		.uleb128 .LVU2103
 15334 134b 1E       		.uleb128 .LVU2103
 15335 134c 00       		.uleb128 .LVU2146
 15336 134d 00       		.uleb128 .LVU2146
 15337 134e 00       		.uleb128 .LVU2148
 15338 134f 00       		.uleb128 .LVU2148
 15339 1350 00       		.uleb128 .LVU2149
 15340              	.LLST141:
 15341 1351 06       		.byte	0x6
 15342 1352 00000000 		.4byte	.LVL239
 15343 1356 04       		.byte	0x4
 15344 1357 00       		.uleb128 .LVL239-.LVL239
 15345 1358 DC05     		.uleb128 .LVL241-.LVL239
 15346 135a 10       		.uleb128 0x10
 15347 135b 8B       		.byte	0x8b
 15348 135c 00       		.sleb128 0
 15349 135d 48       		.byte	0x48
 15350 135e 25       		.byte	0x25
 15351 135f 4F       		.byte	0x4f
 15352 1360 1E       		.byte	0x1e
 15353 1361 A8       		.byte	0xa8
 15354 1362 26       		.uleb128 0x26
 15355 1363 08       		.byte	0x8
 15356 1364 FF       		.byte	0xff
 15357 1365 A8       		.byte	0xa8
 15358 1366 26       		.uleb128 0x26
 15359 1367 1B       		.byte	0x1b
 15360 1368 A8       		.byte	0xa8
 15361 1369 00       		.uleb128 0
 15362 136a 9F       		.byte	0x9f
 15363 136b 04       		.byte	0x4
 15364 136c DC05     		.uleb128 .LVL241-.LVL239
 15365 136e FC08     		.uleb128 .LVL242-.LVL239
 15366 1370 1D       		.uleb128 0x1d
 15367 1371 86       		.byte	0x86
 15368 1372 7C       		.sleb128 -4
 15369 1373 0A       		.byte	0xa
 15370 1374 FFFF     		.2byte	0xffff
 15371 1376 1A       		.byte	0x1a
 15372 1377 84       		.byte	0x84
 15373 1378 00       		.sleb128 0
 15374 1379 22       		.byte	0x22
 15375 137a 32       		.byte	0x32
 15376 137b 24       		.byte	0x24
 15377 137c 8F       		.byte	0x8f
 15378 137d 00       		.sleb128 0
 15379 137e 22       		.byte	0x22
 15380 137f 06       		.byte	0x6
 15381 1380 48       		.byte	0x48
 15382 1381 25       		.byte	0x25
 15383 1382 4F       		.byte	0x4f
 15384 1383 1E       		.byte	0x1e
 15385 1384 A8       		.byte	0xa8
 15386 1385 26       		.uleb128 0x26
 15387 1386 08       		.byte	0x8
 15388 1387 FF       		.byte	0xff
 15389 1388 A8       		.byte	0xa8
 15390 1389 26       		.uleb128 0x26
 15391 138a 1B       		.byte	0x1b
 15392 138b A8       		.byte	0xa8
 15393 138c 00       		.uleb128 0
 15394 138d 9F       		.byte	0x9f
 15395 138e 04       		.byte	0x4
 15396 138f FC08     		.uleb128 .LVL242-.LVL239
 15397 1391 8C09     		.uleb128 .LVL243-.LVL239
 15398 1393 1D       		.uleb128 0x1d
 15399 1394 86       		.byte	0x86
 15400 1395 7C       		.sleb128 -4
 15401 1396 0A       		.byte	0xa
 15402 1397 FFFF     		.2byte	0xffff
 15403 1399 1A       		.byte	0x1a
 15404 139a 82       		.byte	0x82
 15405 139b 00       		.sleb128 0
 15406 139c 22       		.byte	0x22
 15407 139d 32       		.byte	0x32
 15408 139e 24       		.byte	0x24
 15409 139f 8F       		.byte	0x8f
 15410 13a0 00       		.sleb128 0
 15411 13a1 22       		.byte	0x22
 15412 13a2 06       		.byte	0x6
 15413 13a3 48       		.byte	0x48
 15414 13a4 25       		.byte	0x25
 15415 13a5 4F       		.byte	0x4f
 15416 13a6 1E       		.byte	0x1e
 15417 13a7 A8       		.byte	0xa8
 15418 13a8 26       		.uleb128 0x26
 15419 13a9 08       		.byte	0x8
 15420 13aa FF       		.byte	0xff
 15421 13ab A8       		.byte	0xa8
 15422 13ac 26       		.uleb128 0x26
 15423 13ad 1B       		.byte	0x1b
 15424 13ae A8       		.byte	0xa8
 15425 13af 00       		.uleb128 0
 15426 13b0 9F       		.byte	0x9f
 15427 13b1 04       		.byte	0x4
 15428 13b2 8C09     		.uleb128 .LVL243-.LVL239
 15429 13b4 9C09     		.uleb128 .LVL244-.LVL239
 15430 13b6 1D       		.uleb128 0x1d
 15431 13b7 86       		.byte	0x86
 15432 13b8 7C       		.sleb128 -4
 15433 13b9 0A       		.byte	0xa
 15434 13ba FFFF     		.2byte	0xffff
 15435 13bc 1A       		.byte	0x1a
 15436 13bd 83       		.byte	0x83
 15437 13be 00       		.sleb128 0
 15438 13bf 22       		.byte	0x22
 15439 13c0 32       		.byte	0x32
 15440 13c1 24       		.byte	0x24
 15441 13c2 8F       		.byte	0x8f
 15442 13c3 00       		.sleb128 0
 15443 13c4 22       		.byte	0x22
 15444 13c5 06       		.byte	0x6
 15445 13c6 48       		.byte	0x48
 15446 13c7 25       		.byte	0x25
 15447 13c8 4F       		.byte	0x4f
 15448 13c9 1E       		.byte	0x1e
 15449 13ca A8       		.byte	0xa8
 15450 13cb 26       		.uleb128 0x26
 15451 13cc 08       		.byte	0x8
 15452 13cd FF       		.byte	0xff
 15453 13ce A8       		.byte	0xa8
 15454 13cf 26       		.uleb128 0x26
 15455 13d0 1B       		.byte	0x1b
 15456 13d1 A8       		.byte	0xa8
 15457 13d2 00       		.uleb128 0
 15458 13d3 9F       		.byte	0x9f
 15459 13d4 04       		.byte	0x4
 15460 13d5 9C09     		.uleb128 .LVL244-.LVL239
 15461 13d7 EC09     		.uleb128 .LVL248-.LVL239
 15462 13d9 1D       		.uleb128 0x1d
 15463 13da 86       		.byte	0x86
 15464 13db 7C       		.sleb128 -4
 15465 13dc 0A       		.byte	0xa
 15466 13dd FFFF     		.2byte	0xffff
 15467 13df 1A       		.byte	0x1a
 15468 13e0 80       		.byte	0x80
 15469 13e1 00       		.sleb128 0
 15470 13e2 22       		.byte	0x22
 15471 13e3 32       		.byte	0x32
 15472 13e4 24       		.byte	0x24
 15473 13e5 8F       		.byte	0x8f
 15474 13e6 00       		.sleb128 0
 15475 13e7 22       		.byte	0x22
 15476 13e8 06       		.byte	0x6
 15477 13e9 48       		.byte	0x48
 15478 13ea 25       		.byte	0x25
 15479 13eb 4F       		.byte	0x4f
 15480 13ec 1E       		.byte	0x1e
 15481 13ed A8       		.byte	0xa8
 15482 13ee 26       		.uleb128 0x26
 15483 13ef 08       		.byte	0x8
 15484 13f0 FF       		.byte	0xff
 15485 13f1 A8       		.byte	0xa8
 15486 13f2 26       		.uleb128 0x26
 15487 13f3 1B       		.byte	0x1b
 15488 13f4 A8       		.byte	0xa8
 15489 13f5 00       		.uleb128 0
 15490 13f6 9F       		.byte	0x9f
 15491 13f7 04       		.byte	0x4
 15492 13f8 EC09     		.uleb128 .LVL248-.LVL239
 15493 13fa F409     		.uleb128 .LVL250-.LVL239
 15494 13fc 24       		.uleb128 0x24
 15495 13fd 91       		.byte	0x91
 15496 13fe A07F     		.sleb128 -96
 15497 1400 06       		.byte	0x6
 15498 1401 31       		.byte	0x31
 15499 1402 24       		.byte	0x24
 15500 1403 86       		.byte	0x86
 15501 1404 7C       		.sleb128 -4
 15502 1405 0A       		.byte	0xa
 15503 1406 FFFF     		.2byte	0xffff
 15504 1408 1A       		.byte	0x1a
 15505 1409 22       		.byte	0x22
 15506 140a 82       		.byte	0x82
 15507 140b 00       		.sleb128 0
 15508 140c 22       		.byte	0x22
 15509 140d 32       		.byte	0x32
 15510 140e 24       		.byte	0x24
 15511 140f 8F       		.byte	0x8f
 15512 1410 00       		.sleb128 0
 15513 1411 22       		.byte	0x22
 15514 1412 06       		.byte	0x6
 15515 1413 48       		.byte	0x48
 15516 1414 25       		.byte	0x25
 15517 1415 4F       		.byte	0x4f
 15518 1416 1E       		.byte	0x1e
 15519 1417 A8       		.byte	0xa8
 15520 1418 26       		.uleb128 0x26
 15521 1419 08       		.byte	0x8
 15522 141a FF       		.byte	0xff
 15523 141b A8       		.byte	0xa8
 15524 141c 26       		.uleb128 0x26
 15525 141d 1B       		.byte	0x1b
 15526 141e A8       		.byte	0xa8
 15527 141f 00       		.uleb128 0
 15528 1420 9F       		.byte	0x9f
 15529 1421 04       		.byte	0x4
 15530 1422 F409     		.uleb128 .LVL250-.LVL239
 15531 1424 F809     		.uleb128 .LVL251-.LVL239
 15532 1426 30       		.uleb128 0x30
 15533 1427 91       		.byte	0x91
 15534 1428 A47F     		.sleb128 -92
 15535 142a 94       		.byte	0x94
 15536 142b 02       		.byte	0x2
 15537 142c 0A       		.byte	0xa
 15538 142d FFFF     		.2byte	0xffff
 15539 142f 1A       		.byte	0x1a
 15540 1430 91       		.byte	0x91
 15541 1431 A07F     		.sleb128 -96
 15542 1433 06       		.byte	0x6
 15543 1434 1E       		.byte	0x1e
 15544 1435 91       		.byte	0x91
 15545 1436 A07F     		.sleb128 -96
 15546 1438 06       		.byte	0x6
 15547 1439 33       		.byte	0x33
 15548 143a 1E       		.byte	0x1e
 15549 143b 22       		.byte	0x22
 15550 143c 86       		.byte	0x86
 15551 143d 7C       		.sleb128 -4
 15552 143e 0A       		.byte	0xa
 15553 143f FFFF     		.2byte	0xffff
 15554 1441 1A       		.byte	0x1a
 15555 1442 22       		.byte	0x22
 15556 1443 32       		.byte	0x32
 15557 1444 24       		.byte	0x24
 15558 1445 8F       		.byte	0x8f
 15559 1446 00       		.sleb128 0
 15560 1447 22       		.byte	0x22
 15561 1448 06       		.byte	0x6
 15562 1449 48       		.byte	0x48
 15563 144a 25       		.byte	0x25
 15564 144b 4F       		.byte	0x4f
 15565 144c 1E       		.byte	0x1e
 15566 144d A8       		.byte	0xa8
 15567 144e 26       		.uleb128 0x26
 15568 144f 08       		.byte	0x8
 15569 1450 FF       		.byte	0xff
 15570 1451 A8       		.byte	0xa8
 15571 1452 26       		.uleb128 0x26
 15572 1453 1B       		.byte	0x1b
 15573 1454 A8       		.byte	0xa8
 15574 1455 00       		.uleb128 0
 15575 1456 9F       		.byte	0x9f
 15576 1457 00       		.byte	0
 15577              	.LVUS142:
 15578 1458 04       		.uleb128 .LVU1726
 15579 1459 00       		.uleb128 .LVU1906
 15580 145a 00       		.uleb128 .LVU1906
 15581 145b 1F       		.uleb128 .LVU2032
 15582 145c 1F       		.uleb128 .LVU2032
 15583 145d 1F       		.uleb128 .LVU2068
 15584 145e 1F       		.uleb128 .LVU2068
 15585 145f 1F       		.uleb128 .LVU2104
 15586 1460 1F       		.uleb128 .LVU2104
 15587 1461 00       		.uleb128 .LVU2146
 15588 1462 00       		.uleb128 .LVU2146
 15589 1463 00       		.uleb128 .LVU2148
 15590 1464 00       		.uleb128 .LVU2148
 15591 1465 00       		.uleb128 .LVU2149
 15592              	.LLST142:
 15593 1466 06       		.byte	0x6
 15594 1467 00000000 		.4byte	.LVL239
 15595 146b 04       		.byte	0x4
 15596 146c 00       		.uleb128 .LVL239-.LVL239
 15597 146d DC05     		.uleb128 .LVL241-.LVL239
 15598 146f 14       		.uleb128 0x14
 15599 1470 8B       		.byte	0x8b
 15600 1471 00       		.sleb128 0
 15601 1472 40       		.byte	0x40
 15602 1473 25       		.byte	0x25
 15603 1474 08       		.byte	0x8
 15604 1475 FF       		.byte	0xff
 15605 1476 1A       		.byte	0x1a
 15606 1477 08       		.byte	0x8
 15607 1478 3F       		.byte	0x3f
 15608 1479 1E       		.byte	0x1e
 15609 147a A8       		.byte	0xa8
 15610 147b 26       		.uleb128 0x26
 15611 147c 08       		.byte	0x8
 15612 147d FF       		.byte	0xff
 15613 147e A8       		.byte	0xa8
 15614 147f 26       		.uleb128 0x26
 15615 1480 1B       		.byte	0x1b
 15616 1481 A8       		.byte	0xa8
 15617 1482 00       		.uleb128 0
 15618 1483 9F       		.byte	0x9f
 15619 1484 04       		.byte	0x4
 15620 1485 DC05     		.uleb128 .LVL241-.LVL239
 15621 1487 FC08     		.uleb128 .LVL242-.LVL239
 15622 1489 21       		.uleb128 0x21
 15623 148a 86       		.byte	0x86
 15624 148b 7C       		.sleb128 -4
 15625 148c 0A       		.byte	0xa
 15626 148d FFFF     		.2byte	0xffff
 15627 148f 1A       		.byte	0x1a
 15628 1490 84       		.byte	0x84
 15629 1491 00       		.sleb128 0
 15630 1492 22       		.byte	0x22
 15631 1493 32       		.byte	0x32
 15632 1494 24       		.byte	0x24
 15633 1495 8F       		.byte	0x8f
 15634 1496 00       		.sleb128 0
 15635 1497 22       		.byte	0x22
 15636 1498 06       		.byte	0x6
 15637 1499 40       		.byte	0x40
 15638 149a 25       		.byte	0x25
 15639 149b 08       		.byte	0x8
 15640 149c FF       		.byte	0xff
 15641 149d 1A       		.byte	0x1a
 15642 149e 08       		.byte	0x8
 15643 149f 3F       		.byte	0x3f
 15644 14a0 1E       		.byte	0x1e
 15645 14a1 A8       		.byte	0xa8
 15646 14a2 26       		.uleb128 0x26
 15647 14a3 08       		.byte	0x8
 15648 14a4 FF       		.byte	0xff
 15649 14a5 A8       		.byte	0xa8
 15650 14a6 26       		.uleb128 0x26
 15651 14a7 1B       		.byte	0x1b
 15652 14a8 A8       		.byte	0xa8
 15653 14a9 00       		.uleb128 0
 15654 14aa 9F       		.byte	0x9f
 15655 14ab 04       		.byte	0x4
 15656 14ac FC08     		.uleb128 .LVL242-.LVL239
 15657 14ae 8C09     		.uleb128 .LVL243-.LVL239
 15658 14b0 21       		.uleb128 0x21
 15659 14b1 86       		.byte	0x86
 15660 14b2 7C       		.sleb128 -4
 15661 14b3 0A       		.byte	0xa
 15662 14b4 FFFF     		.2byte	0xffff
 15663 14b6 1A       		.byte	0x1a
 15664 14b7 82       		.byte	0x82
 15665 14b8 00       		.sleb128 0
 15666 14b9 22       		.byte	0x22
 15667 14ba 32       		.byte	0x32
 15668 14bb 24       		.byte	0x24
 15669 14bc 8F       		.byte	0x8f
 15670 14bd 00       		.sleb128 0
 15671 14be 22       		.byte	0x22
 15672 14bf 06       		.byte	0x6
 15673 14c0 40       		.byte	0x40
 15674 14c1 25       		.byte	0x25
 15675 14c2 08       		.byte	0x8
 15676 14c3 FF       		.byte	0xff
 15677 14c4 1A       		.byte	0x1a
 15678 14c5 08       		.byte	0x8
 15679 14c6 3F       		.byte	0x3f
 15680 14c7 1E       		.byte	0x1e
 15681 14c8 A8       		.byte	0xa8
 15682 14c9 26       		.uleb128 0x26
 15683 14ca 08       		.byte	0x8
 15684 14cb FF       		.byte	0xff
 15685 14cc A8       		.byte	0xa8
 15686 14cd 26       		.uleb128 0x26
 15687 14ce 1B       		.byte	0x1b
 15688 14cf A8       		.byte	0xa8
 15689 14d0 00       		.uleb128 0
 15690 14d1 9F       		.byte	0x9f
 15691 14d2 04       		.byte	0x4
 15692 14d3 8C09     		.uleb128 .LVL243-.LVL239
 15693 14d5 9C09     		.uleb128 .LVL244-.LVL239
 15694 14d7 21       		.uleb128 0x21
 15695 14d8 86       		.byte	0x86
 15696 14d9 7C       		.sleb128 -4
 15697 14da 0A       		.byte	0xa
 15698 14db FFFF     		.2byte	0xffff
 15699 14dd 1A       		.byte	0x1a
 15700 14de 83       		.byte	0x83
 15701 14df 00       		.sleb128 0
 15702 14e0 22       		.byte	0x22
 15703 14e1 32       		.byte	0x32
 15704 14e2 24       		.byte	0x24
 15705 14e3 8F       		.byte	0x8f
 15706 14e4 00       		.sleb128 0
 15707 14e5 22       		.byte	0x22
 15708 14e6 06       		.byte	0x6
 15709 14e7 40       		.byte	0x40
 15710 14e8 25       		.byte	0x25
 15711 14e9 08       		.byte	0x8
 15712 14ea FF       		.byte	0xff
 15713 14eb 1A       		.byte	0x1a
 15714 14ec 08       		.byte	0x8
 15715 14ed 3F       		.byte	0x3f
 15716 14ee 1E       		.byte	0x1e
 15717 14ef A8       		.byte	0xa8
 15718 14f0 26       		.uleb128 0x26
 15719 14f1 08       		.byte	0x8
 15720 14f2 FF       		.byte	0xff
 15721 14f3 A8       		.byte	0xa8
 15722 14f4 26       		.uleb128 0x26
 15723 14f5 1B       		.byte	0x1b
 15724 14f6 A8       		.byte	0xa8
 15725 14f7 00       		.uleb128 0
 15726 14f8 9F       		.byte	0x9f
 15727 14f9 04       		.byte	0x4
 15728 14fa 9C09     		.uleb128 .LVL244-.LVL239
 15729 14fc EC09     		.uleb128 .LVL248-.LVL239
 15730 14fe 21       		.uleb128 0x21
 15731 14ff 86       		.byte	0x86
 15732 1500 7C       		.sleb128 -4
 15733 1501 0A       		.byte	0xa
 15734 1502 FFFF     		.2byte	0xffff
 15735 1504 1A       		.byte	0x1a
 15736 1505 80       		.byte	0x80
 15737 1506 00       		.sleb128 0
 15738 1507 22       		.byte	0x22
 15739 1508 32       		.byte	0x32
 15740 1509 24       		.byte	0x24
 15741 150a 8F       		.byte	0x8f
 15742 150b 00       		.sleb128 0
 15743 150c 22       		.byte	0x22
 15744 150d 06       		.byte	0x6
 15745 150e 40       		.byte	0x40
 15746 150f 25       		.byte	0x25
 15747 1510 08       		.byte	0x8
 15748 1511 FF       		.byte	0xff
 15749 1512 1A       		.byte	0x1a
 15750 1513 08       		.byte	0x8
 15751 1514 3F       		.byte	0x3f
 15752 1515 1E       		.byte	0x1e
 15753 1516 A8       		.byte	0xa8
 15754 1517 26       		.uleb128 0x26
 15755 1518 08       		.byte	0x8
 15756 1519 FF       		.byte	0xff
 15757 151a A8       		.byte	0xa8
 15758 151b 26       		.uleb128 0x26
 15759 151c 1B       		.byte	0x1b
 15760 151d A8       		.byte	0xa8
 15761 151e 00       		.uleb128 0
 15762 151f 9F       		.byte	0x9f
 15763 1520 04       		.byte	0x4
 15764 1521 EC09     		.uleb128 .LVL248-.LVL239
 15765 1523 F409     		.uleb128 .LVL250-.LVL239
 15766 1525 28       		.uleb128 0x28
 15767 1526 91       		.byte	0x91
 15768 1527 A07F     		.sleb128 -96
 15769 1529 06       		.byte	0x6
 15770 152a 31       		.byte	0x31
 15771 152b 24       		.byte	0x24
 15772 152c 86       		.byte	0x86
 15773 152d 7C       		.sleb128 -4
 15774 152e 0A       		.byte	0xa
 15775 152f FFFF     		.2byte	0xffff
 15776 1531 1A       		.byte	0x1a
 15777 1532 22       		.byte	0x22
 15778 1533 82       		.byte	0x82
 15779 1534 00       		.sleb128 0
 15780 1535 22       		.byte	0x22
 15781 1536 32       		.byte	0x32
 15782 1537 24       		.byte	0x24
 15783 1538 8F       		.byte	0x8f
 15784 1539 00       		.sleb128 0
 15785 153a 22       		.byte	0x22
 15786 153b 06       		.byte	0x6
 15787 153c 40       		.byte	0x40
 15788 153d 25       		.byte	0x25
 15789 153e 08       		.byte	0x8
 15790 153f FF       		.byte	0xff
 15791 1540 1A       		.byte	0x1a
 15792 1541 08       		.byte	0x8
 15793 1542 3F       		.byte	0x3f
 15794 1543 1E       		.byte	0x1e
 15795 1544 A8       		.byte	0xa8
 15796 1545 26       		.uleb128 0x26
 15797 1546 08       		.byte	0x8
 15798 1547 FF       		.byte	0xff
 15799 1548 A8       		.byte	0xa8
 15800 1549 26       		.uleb128 0x26
 15801 154a 1B       		.byte	0x1b
 15802 154b A8       		.byte	0xa8
 15803 154c 00       		.uleb128 0
 15804 154d 9F       		.byte	0x9f
 15805 154e 04       		.byte	0x4
 15806 154f F409     		.uleb128 .LVL250-.LVL239
 15807 1551 F809     		.uleb128 .LVL251-.LVL239
 15808 1553 34       		.uleb128 0x34
 15809 1554 91       		.byte	0x91
 15810 1555 A47F     		.sleb128 -92
 15811 1557 94       		.byte	0x94
 15812 1558 02       		.byte	0x2
 15813 1559 0A       		.byte	0xa
 15814 155a FFFF     		.2byte	0xffff
 15815 155c 1A       		.byte	0x1a
 15816 155d 91       		.byte	0x91
 15817 155e A07F     		.sleb128 -96
 15818 1560 06       		.byte	0x6
 15819 1561 1E       		.byte	0x1e
 15820 1562 91       		.byte	0x91
 15821 1563 A07F     		.sleb128 -96
 15822 1565 06       		.byte	0x6
 15823 1566 33       		.byte	0x33
 15824 1567 1E       		.byte	0x1e
 15825 1568 22       		.byte	0x22
 15826 1569 86       		.byte	0x86
 15827 156a 7C       		.sleb128 -4
 15828 156b 0A       		.byte	0xa
 15829 156c FFFF     		.2byte	0xffff
 15830 156e 1A       		.byte	0x1a
 15831 156f 22       		.byte	0x22
 15832 1570 32       		.byte	0x32
 15833 1571 24       		.byte	0x24
 15834 1572 8F       		.byte	0x8f
 15835 1573 00       		.sleb128 0
 15836 1574 22       		.byte	0x22
 15837 1575 06       		.byte	0x6
 15838 1576 40       		.byte	0x40
 15839 1577 25       		.byte	0x25
 15840 1578 08       		.byte	0x8
 15841 1579 FF       		.byte	0xff
 15842 157a 1A       		.byte	0x1a
 15843 157b 08       		.byte	0x8
 15844 157c 3F       		.byte	0x3f
 15845 157d 1E       		.byte	0x1e
 15846 157e A8       		.byte	0xa8
 15847 157f 26       		.uleb128 0x26
 15848 1580 08       		.byte	0x8
 15849 1581 FF       		.byte	0xff
 15850 1582 A8       		.byte	0xa8
 15851 1583 26       		.uleb128 0x26
 15852 1584 1B       		.byte	0x1b
 15853 1585 A8       		.byte	0xa8
 15854 1586 00       		.uleb128 0
 15855 1587 9F       		.byte	0x9f
 15856 1588 00       		.byte	0
 15857              	.LVUS143:
 15858 1589 05       		.uleb128 .LVU1727
 15859 158a 00       		.uleb128 .LVU1906
 15860 158b 00       		.uleb128 .LVU1906
 15861 158c 20       		.uleb128 .LVU2033
 15862 158d 20       		.uleb128 .LVU2033
 15863 158e 20       		.uleb128 .LVU2069
 15864 158f 20       		.uleb128 .LVU2069
 15865 1590 20       		.uleb128 .LVU2105
 15866 1591 20       		.uleb128 .LVU2105
 15867 1592 00       		.uleb128 .LVU2146
 15868 1593 00       		.uleb128 .LVU2146
 15869 1594 00       		.uleb128 .LVU2148
 15870 1595 00       		.uleb128 .LVU2148
 15871 1596 00       		.uleb128 .LVU2149
 15872              	.LLST143:
 15873 1597 06       		.byte	0x6
 15874 1598 00000000 		.4byte	.LVL239
 15875 159c 04       		.byte	0x4
 15876 159d 00       		.uleb128 .LVL239-.LVL239
 15877 159e DC05     		.uleb128 .LVL241-.LVL239
 15878 15a0 13       		.uleb128 0x13
 15879 15a1 8B       		.byte	0x8b
 15880 15a2 00       		.sleb128 0
 15881 15a3 38       		.byte	0x38
 15882 15a4 25       		.byte	0x25
 15883 15a5 08       		.byte	0x8
 15884 15a6 FF       		.byte	0xff
 15885 15a7 1A       		.byte	0x1a
 15886 15a8 4F       		.byte	0x4f
 15887 15a9 1E       		.byte	0x1e
 15888 15aa A8       		.byte	0xa8
 15889 15ab 26       		.uleb128 0x26
 15890 15ac 08       		.byte	0x8
 15891 15ad FF       		.byte	0xff
 15892 15ae A8       		.byte	0xa8
 15893 15af 26       		.uleb128 0x26
 15894 15b0 1B       		.byte	0x1b
 15895 15b1 A8       		.byte	0xa8
 15896 15b2 00       		.uleb128 0
 15897 15b3 9F       		.byte	0x9f
 15898 15b4 04       		.byte	0x4
 15899 15b5 DC05     		.uleb128 .LVL241-.LVL239
 15900 15b7 FC08     		.uleb128 .LVL242-.LVL239
 15901 15b9 20       		.uleb128 0x20
 15902 15ba 86       		.byte	0x86
 15903 15bb 7C       		.sleb128 -4
 15904 15bc 0A       		.byte	0xa
 15905 15bd FFFF     		.2byte	0xffff
 15906 15bf 1A       		.byte	0x1a
 15907 15c0 84       		.byte	0x84
 15908 15c1 00       		.sleb128 0
 15909 15c2 22       		.byte	0x22
 15910 15c3 32       		.byte	0x32
 15911 15c4 24       		.byte	0x24
 15912 15c5 8F       		.byte	0x8f
 15913 15c6 00       		.sleb128 0
 15914 15c7 22       		.byte	0x22
 15915 15c8 06       		.byte	0x6
 15916 15c9 38       		.byte	0x38
 15917 15ca 25       		.byte	0x25
 15918 15cb 08       		.byte	0x8
 15919 15cc FF       		.byte	0xff
 15920 15cd 1A       		.byte	0x1a
 15921 15ce 4F       		.byte	0x4f
 15922 15cf 1E       		.byte	0x1e
 15923 15d0 A8       		.byte	0xa8
 15924 15d1 26       		.uleb128 0x26
 15925 15d2 08       		.byte	0x8
 15926 15d3 FF       		.byte	0xff
 15927 15d4 A8       		.byte	0xa8
 15928 15d5 26       		.uleb128 0x26
 15929 15d6 1B       		.byte	0x1b
 15930 15d7 A8       		.byte	0xa8
 15931 15d8 00       		.uleb128 0
 15932 15d9 9F       		.byte	0x9f
 15933 15da 04       		.byte	0x4
 15934 15db FC08     		.uleb128 .LVL242-.LVL239
 15935 15dd 8C09     		.uleb128 .LVL243-.LVL239
 15936 15df 20       		.uleb128 0x20
 15937 15e0 86       		.byte	0x86
 15938 15e1 7C       		.sleb128 -4
 15939 15e2 0A       		.byte	0xa
 15940 15e3 FFFF     		.2byte	0xffff
 15941 15e5 1A       		.byte	0x1a
 15942 15e6 82       		.byte	0x82
 15943 15e7 00       		.sleb128 0
 15944 15e8 22       		.byte	0x22
 15945 15e9 32       		.byte	0x32
 15946 15ea 24       		.byte	0x24
 15947 15eb 8F       		.byte	0x8f
 15948 15ec 00       		.sleb128 0
 15949 15ed 22       		.byte	0x22
 15950 15ee 06       		.byte	0x6
 15951 15ef 38       		.byte	0x38
 15952 15f0 25       		.byte	0x25
 15953 15f1 08       		.byte	0x8
 15954 15f2 FF       		.byte	0xff
 15955 15f3 1A       		.byte	0x1a
 15956 15f4 4F       		.byte	0x4f
 15957 15f5 1E       		.byte	0x1e
 15958 15f6 A8       		.byte	0xa8
 15959 15f7 26       		.uleb128 0x26
 15960 15f8 08       		.byte	0x8
 15961 15f9 FF       		.byte	0xff
 15962 15fa A8       		.byte	0xa8
 15963 15fb 26       		.uleb128 0x26
 15964 15fc 1B       		.byte	0x1b
 15965 15fd A8       		.byte	0xa8
 15966 15fe 00       		.uleb128 0
 15967 15ff 9F       		.byte	0x9f
 15968 1600 04       		.byte	0x4
 15969 1601 8C09     		.uleb128 .LVL243-.LVL239
 15970 1603 9C09     		.uleb128 .LVL244-.LVL239
 15971 1605 20       		.uleb128 0x20
 15972 1606 86       		.byte	0x86
 15973 1607 7C       		.sleb128 -4
 15974 1608 0A       		.byte	0xa
 15975 1609 FFFF     		.2byte	0xffff
 15976 160b 1A       		.byte	0x1a
 15977 160c 83       		.byte	0x83
 15978 160d 00       		.sleb128 0
 15979 160e 22       		.byte	0x22
 15980 160f 32       		.byte	0x32
 15981 1610 24       		.byte	0x24
 15982 1611 8F       		.byte	0x8f
 15983 1612 00       		.sleb128 0
 15984 1613 22       		.byte	0x22
 15985 1614 06       		.byte	0x6
 15986 1615 38       		.byte	0x38
 15987 1616 25       		.byte	0x25
 15988 1617 08       		.byte	0x8
 15989 1618 FF       		.byte	0xff
 15990 1619 1A       		.byte	0x1a
 15991 161a 4F       		.byte	0x4f
 15992 161b 1E       		.byte	0x1e
 15993 161c A8       		.byte	0xa8
 15994 161d 26       		.uleb128 0x26
 15995 161e 08       		.byte	0x8
 15996 161f FF       		.byte	0xff
 15997 1620 A8       		.byte	0xa8
 15998 1621 26       		.uleb128 0x26
 15999 1622 1B       		.byte	0x1b
 16000 1623 A8       		.byte	0xa8
 16001 1624 00       		.uleb128 0
 16002 1625 9F       		.byte	0x9f
 16003 1626 04       		.byte	0x4
 16004 1627 9C09     		.uleb128 .LVL244-.LVL239
 16005 1629 EC09     		.uleb128 .LVL248-.LVL239
 16006 162b 20       		.uleb128 0x20
 16007 162c 86       		.byte	0x86
 16008 162d 7C       		.sleb128 -4
 16009 162e 0A       		.byte	0xa
 16010 162f FFFF     		.2byte	0xffff
 16011 1631 1A       		.byte	0x1a
 16012 1632 80       		.byte	0x80
 16013 1633 00       		.sleb128 0
 16014 1634 22       		.byte	0x22
 16015 1635 32       		.byte	0x32
 16016 1636 24       		.byte	0x24
 16017 1637 8F       		.byte	0x8f
 16018 1638 00       		.sleb128 0
 16019 1639 22       		.byte	0x22
 16020 163a 06       		.byte	0x6
 16021 163b 38       		.byte	0x38
 16022 163c 25       		.byte	0x25
 16023 163d 08       		.byte	0x8
 16024 163e FF       		.byte	0xff
 16025 163f 1A       		.byte	0x1a
 16026 1640 4F       		.byte	0x4f
 16027 1641 1E       		.byte	0x1e
 16028 1642 A8       		.byte	0xa8
 16029 1643 26       		.uleb128 0x26
 16030 1644 08       		.byte	0x8
 16031 1645 FF       		.byte	0xff
 16032 1646 A8       		.byte	0xa8
 16033 1647 26       		.uleb128 0x26
 16034 1648 1B       		.byte	0x1b
 16035 1649 A8       		.byte	0xa8
 16036 164a 00       		.uleb128 0
 16037 164b 9F       		.byte	0x9f
 16038 164c 04       		.byte	0x4
 16039 164d EC09     		.uleb128 .LVL248-.LVL239
 16040 164f F409     		.uleb128 .LVL250-.LVL239
 16041 1651 27       		.uleb128 0x27
 16042 1652 91       		.byte	0x91
 16043 1653 A07F     		.sleb128 -96
 16044 1655 06       		.byte	0x6
 16045 1656 31       		.byte	0x31
 16046 1657 24       		.byte	0x24
 16047 1658 86       		.byte	0x86
 16048 1659 7C       		.sleb128 -4
 16049 165a 0A       		.byte	0xa
 16050 165b FFFF     		.2byte	0xffff
 16051 165d 1A       		.byte	0x1a
 16052 165e 22       		.byte	0x22
 16053 165f 82       		.byte	0x82
 16054 1660 00       		.sleb128 0
 16055 1661 22       		.byte	0x22
 16056 1662 32       		.byte	0x32
 16057 1663 24       		.byte	0x24
 16058 1664 8F       		.byte	0x8f
 16059 1665 00       		.sleb128 0
 16060 1666 22       		.byte	0x22
 16061 1667 06       		.byte	0x6
 16062 1668 38       		.byte	0x38
 16063 1669 25       		.byte	0x25
 16064 166a 08       		.byte	0x8
 16065 166b FF       		.byte	0xff
 16066 166c 1A       		.byte	0x1a
 16067 166d 4F       		.byte	0x4f
 16068 166e 1E       		.byte	0x1e
 16069 166f A8       		.byte	0xa8
 16070 1670 26       		.uleb128 0x26
 16071 1671 08       		.byte	0x8
 16072 1672 FF       		.byte	0xff
 16073 1673 A8       		.byte	0xa8
 16074 1674 26       		.uleb128 0x26
 16075 1675 1B       		.byte	0x1b
 16076 1676 A8       		.byte	0xa8
 16077 1677 00       		.uleb128 0
 16078 1678 9F       		.byte	0x9f
 16079 1679 04       		.byte	0x4
 16080 167a F409     		.uleb128 .LVL250-.LVL239
 16081 167c F809     		.uleb128 .LVL251-.LVL239
 16082 167e 33       		.uleb128 0x33
 16083 167f 91       		.byte	0x91
 16084 1680 A47F     		.sleb128 -92
 16085 1682 94       		.byte	0x94
 16086 1683 02       		.byte	0x2
 16087 1684 0A       		.byte	0xa
 16088 1685 FFFF     		.2byte	0xffff
 16089 1687 1A       		.byte	0x1a
 16090 1688 91       		.byte	0x91
 16091 1689 A07F     		.sleb128 -96
 16092 168b 06       		.byte	0x6
 16093 168c 1E       		.byte	0x1e
 16094 168d 91       		.byte	0x91
 16095 168e A07F     		.sleb128 -96
 16096 1690 06       		.byte	0x6
 16097 1691 33       		.byte	0x33
 16098 1692 1E       		.byte	0x1e
 16099 1693 22       		.byte	0x22
 16100 1694 86       		.byte	0x86
 16101 1695 7C       		.sleb128 -4
 16102 1696 0A       		.byte	0xa
 16103 1697 FFFF     		.2byte	0xffff
 16104 1699 1A       		.byte	0x1a
 16105 169a 22       		.byte	0x22
 16106 169b 32       		.byte	0x32
 16107 169c 24       		.byte	0x24
 16108 169d 8F       		.byte	0x8f
 16109 169e 00       		.sleb128 0
 16110 169f 22       		.byte	0x22
 16111 16a0 06       		.byte	0x6
 16112 16a1 38       		.byte	0x38
 16113 16a2 25       		.byte	0x25
 16114 16a3 08       		.byte	0x8
 16115 16a4 FF       		.byte	0xff
 16116 16a5 1A       		.byte	0x1a
 16117 16a6 4F       		.byte	0x4f
 16118 16a7 1E       		.byte	0x1e
 16119 16a8 A8       		.byte	0xa8
 16120 16a9 26       		.uleb128 0x26
 16121 16aa 08       		.byte	0x8
 16122 16ab FF       		.byte	0xff
 16123 16ac A8       		.byte	0xa8
 16124 16ad 26       		.uleb128 0x26
 16125 16ae 1B       		.byte	0x1b
 16126 16af A8       		.byte	0xa8
 16127 16b0 00       		.uleb128 0
 16128 16b1 9F       		.byte	0x9f
 16129 16b2 00       		.byte	0
 16130              	.LVUS145:
 16131 16b3 01       		.uleb128 .LVU2002
 16132 16b4 07       		.uleb128 .LVU2008
 16133 16b5 01       		.uleb128 .LVU2038
 16134 16b6 07       		.uleb128 .LVU2044
 16135 16b7 01       		.uleb128 .LVU2074
 16136 16b8 07       		.uleb128 .LVU2080
 16137 16b9 01       		.uleb128 .LVU2111
 16138 16ba 07       		.uleb128 .LVU2117
 16139              	.LLST145:
 16140 16bb 08       		.byte	0x8
 16141 16bc 00000000 		.4byte	.LVL242
 16142 16c0 00       		.uleb128 .LVL242-.LVL242
 16143 16c1 10       		.uleb128 0x10
 16144 16c2 86       		.byte	0x86
 16145 16c3 7C       		.sleb128 -4
 16146 16c4 0A       		.byte	0xa
 16147 16c5 FFFF     		.2byte	0xffff
 16148 16c7 1A       		.byte	0x1a
 16149 16c8 84       		.byte	0x84
 16150 16c9 00       		.sleb128 0
 16151 16ca 22       		.byte	0x22
 16152 16cb 23       		.byte	0x23
 16153 16cc 01       		.uleb128 0x1
 16154 16cd 32       		.byte	0x32
 16155 16ce 24       		.byte	0x24
 16156 16cf 8F       		.byte	0x8f
 16157 16d0 00       		.sleb128 0
 16158 16d1 22       		.byte	0x22
 16159 16d2 08       		.byte	0x8
 16160 16d3 00000000 		.4byte	.LVL243
 16161 16d7 00       		.uleb128 .LVL243-.LVL243
 16162 16d8 10       		.uleb128 0x10
 16163 16d9 86       		.byte	0x86
 16164 16da 7C       		.sleb128 -4
 16165 16db 0A       		.byte	0xa
 16166 16dc FFFF     		.2byte	0xffff
 16167 16de 1A       		.byte	0x1a
 16168 16df 82       		.byte	0x82
 16169 16e0 00       		.sleb128 0
 16170 16e1 22       		.byte	0x22
 16171 16e2 23       		.byte	0x23
 16172 16e3 01       		.uleb128 0x1
 16173 16e4 32       		.byte	0x32
 16174 16e5 24       		.byte	0x24
 16175 16e6 8F       		.byte	0x8f
 16176 16e7 00       		.sleb128 0
 16177 16e8 22       		.byte	0x22
 16178 16e9 08       		.byte	0x8
 16179 16ea 00000000 		.4byte	.LVL244
 16180 16ee 00       		.uleb128 .LVL244-.LVL244
 16181 16ef 10       		.uleb128 0x10
 16182 16f0 86       		.byte	0x86
 16183 16f1 7C       		.sleb128 -4
 16184 16f2 0A       		.byte	0xa
 16185 16f3 FFFF     		.2byte	0xffff
 16186 16f5 1A       		.byte	0x1a
 16187 16f6 83       		.byte	0x83
 16188 16f7 00       		.sleb128 0
 16189 16f8 22       		.byte	0x22
 16190 16f9 23       		.byte	0x23
 16191 16fa 01       		.uleb128 0x1
 16192 16fb 32       		.byte	0x32
 16193 16fc 24       		.byte	0x24
 16194 16fd 8F       		.byte	0x8f
 16195 16fe 00       		.sleb128 0
 16196 16ff 22       		.byte	0x22
 16197 1700 08       		.byte	0x8
 16198 1701 00000000 		.4byte	.LVL245
 16199 1705 00       		.uleb128 .LVL245-.LVL245
 16200 1706 10       		.uleb128 0x10
 16201 1707 86       		.byte	0x86
 16202 1708 7C       		.sleb128 -4
 16203 1709 0A       		.byte	0xa
 16204 170a FFFF     		.2byte	0xffff
 16205 170c 1A       		.byte	0x1a
 16206 170d 80       		.byte	0x80
 16207 170e 00       		.sleb128 0
 16208 170f 22       		.byte	0x22
 16209 1710 23       		.byte	0x23
 16210 1711 01       		.uleb128 0x1
 16211 1712 32       		.byte	0x32
 16212 1713 24       		.byte	0x24
 16213 1714 8F       		.byte	0x8f
 16214 1715 00       		.sleb128 0
 16215 1716 22       		.byte	0x22
 16216 1717 00       		.byte	0
 16217              	.LVUS146:
 16218 1718 04       		.uleb128 .LVU2005
 16219 1719 04       		.uleb128 .LVU2041
 16220 171a 04       		.uleb128 .LVU2041
 16221 171b 04       		.uleb128 .LVU2077
 16222 171c 04       		.uleb128 .LVU2077
 16223 171d 04       		.uleb128 .LVU2114
 16224 171e 04       		.uleb128 .LVU2114
 16225 171f 00       		.uleb128 .LVU2146
 16226 1720 00       		.uleb128 .LVU2146
 16227 1721 00       		.uleb128 .LVU2148
 16228 1722 00       		.uleb128 .LVU2148
 16229 1723 00       		.uleb128 .LVU2149
 16230              	.LLST146:
 16231 1724 06       		.byte	0x6
 16232 1725 00000000 		.4byte	.LVL242
 16233 1729 04       		.byte	0x4
 16234 172a 00       		.uleb128 .LVL242-.LVL242
 16235 172b 10       		.uleb128 .LVL243-.LVL242
 16236 172c 1F       		.uleb128 0x1f
 16237 172d 86       		.byte	0x86
 16238 172e 7C       		.sleb128 -4
 16239 172f 0A       		.byte	0xa
 16240 1730 FFFF     		.2byte	0xffff
 16241 1732 1A       		.byte	0x1a
 16242 1733 84       		.byte	0x84
 16243 1734 00       		.sleb128 0
 16244 1735 22       		.byte	0x22
 16245 1736 23       		.byte	0x23
 16246 1737 01       		.uleb128 0x1
 16247 1738 32       		.byte	0x32
 16248 1739 24       		.byte	0x24
 16249 173a 8F       		.byte	0x8f
 16250 173b 00       		.sleb128 0
 16251 173c 22       		.byte	0x22
 16252 173d 06       		.byte	0x6
 16253 173e 48       		.byte	0x48
 16254 173f 25       		.byte	0x25
 16255 1740 4F       		.byte	0x4f
 16256 1741 1E       		.byte	0x1e
 16257 1742 A8       		.byte	0xa8
 16258 1743 26       		.uleb128 0x26
 16259 1744 08       		.byte	0x8
 16260 1745 FF       		.byte	0xff
 16261 1746 A8       		.byte	0xa8
 16262 1747 26       		.uleb128 0x26
 16263 1748 1B       		.byte	0x1b
 16264 1749 A8       		.byte	0xa8
 16265 174a 00       		.uleb128 0
 16266 174b 9F       		.byte	0x9f
 16267 174c 04       		.byte	0x4
 16268 174d 10       		.uleb128 .LVL243-.LVL242
 16269 174e 20       		.uleb128 .LVL244-.LVL242
 16270 174f 1F       		.uleb128 0x1f
 16271 1750 86       		.byte	0x86
 16272 1751 7C       		.sleb128 -4
 16273 1752 0A       		.byte	0xa
 16274 1753 FFFF     		.2byte	0xffff
 16275 1755 1A       		.byte	0x1a
 16276 1756 82       		.byte	0x82
 16277 1757 00       		.sleb128 0
 16278 1758 22       		.byte	0x22
 16279 1759 23       		.byte	0x23
 16280 175a 01       		.uleb128 0x1
 16281 175b 32       		.byte	0x32
 16282 175c 24       		.byte	0x24
 16283 175d 8F       		.byte	0x8f
 16284 175e 00       		.sleb128 0
 16285 175f 22       		.byte	0x22
 16286 1760 06       		.byte	0x6
 16287 1761 48       		.byte	0x48
 16288 1762 25       		.byte	0x25
 16289 1763 4F       		.byte	0x4f
 16290 1764 1E       		.byte	0x1e
 16291 1765 A8       		.byte	0xa8
 16292 1766 26       		.uleb128 0x26
 16293 1767 08       		.byte	0x8
 16294 1768 FF       		.byte	0xff
 16295 1769 A8       		.byte	0xa8
 16296 176a 26       		.uleb128 0x26
 16297 176b 1B       		.byte	0x1b
 16298 176c A8       		.byte	0xa8
 16299 176d 00       		.uleb128 0
 16300 176e 9F       		.byte	0x9f
 16301 176f 04       		.byte	0x4
 16302 1770 20       		.uleb128 .LVL244-.LVL242
 16303 1771 30       		.uleb128 .LVL245-.LVL242
 16304 1772 1F       		.uleb128 0x1f
 16305 1773 86       		.byte	0x86
 16306 1774 7C       		.sleb128 -4
 16307 1775 0A       		.byte	0xa
 16308 1776 FFFF     		.2byte	0xffff
 16309 1778 1A       		.byte	0x1a
 16310 1779 83       		.byte	0x83
 16311 177a 00       		.sleb128 0
 16312 177b 22       		.byte	0x22
 16313 177c 23       		.byte	0x23
 16314 177d 01       		.uleb128 0x1
 16315 177e 32       		.byte	0x32
 16316 177f 24       		.byte	0x24
 16317 1780 8F       		.byte	0x8f
 16318 1781 00       		.sleb128 0
 16319 1782 22       		.byte	0x22
 16320 1783 06       		.byte	0x6
 16321 1784 48       		.byte	0x48
 16322 1785 25       		.byte	0x25
 16323 1786 4F       		.byte	0x4f
 16324 1787 1E       		.byte	0x1e
 16325 1788 A8       		.byte	0xa8
 16326 1789 26       		.uleb128 0x26
 16327 178a 08       		.byte	0x8
 16328 178b FF       		.byte	0xff
 16329 178c A8       		.byte	0xa8
 16330 178d 26       		.uleb128 0x26
 16331 178e 1B       		.byte	0x1b
 16332 178f A8       		.byte	0xa8
 16333 1790 00       		.uleb128 0
 16334 1791 9F       		.byte	0x9f
 16335 1792 04       		.byte	0x4
 16336 1793 30       		.uleb128 .LVL245-.LVL242
 16337 1794 70       		.uleb128 .LVL248-.LVL242
 16338 1795 1F       		.uleb128 0x1f
 16339 1796 86       		.byte	0x86
 16340 1797 7C       		.sleb128 -4
 16341 1798 0A       		.byte	0xa
 16342 1799 FFFF     		.2byte	0xffff
 16343 179b 1A       		.byte	0x1a
 16344 179c 80       		.byte	0x80
 16345 179d 00       		.sleb128 0
 16346 179e 22       		.byte	0x22
 16347 179f 23       		.byte	0x23
 16348 17a0 01       		.uleb128 0x1
 16349 17a1 32       		.byte	0x32
 16350 17a2 24       		.byte	0x24
 16351 17a3 8F       		.byte	0x8f
 16352 17a4 00       		.sleb128 0
 16353 17a5 22       		.byte	0x22
 16354 17a6 06       		.byte	0x6
 16355 17a7 48       		.byte	0x48
 16356 17a8 25       		.byte	0x25
 16357 17a9 4F       		.byte	0x4f
 16358 17aa 1E       		.byte	0x1e
 16359 17ab A8       		.byte	0xa8
 16360 17ac 26       		.uleb128 0x26
 16361 17ad 08       		.byte	0x8
 16362 17ae FF       		.byte	0xff
 16363 17af A8       		.byte	0xa8
 16364 17b0 26       		.uleb128 0x26
 16365 17b1 1B       		.byte	0x1b
 16366 17b2 A8       		.byte	0xa8
 16367 17b3 00       		.uleb128 0
 16368 17b4 9F       		.byte	0x9f
 16369 17b5 04       		.byte	0x4
 16370 17b6 70       		.uleb128 .LVL248-.LVL242
 16371 17b7 78       		.uleb128 .LVL250-.LVL242
 16372 17b8 26       		.uleb128 0x26
 16373 17b9 91       		.byte	0x91
 16374 17ba A07F     		.sleb128 -96
 16375 17bc 06       		.byte	0x6
 16376 17bd 31       		.byte	0x31
 16377 17be 24       		.byte	0x24
 16378 17bf 86       		.byte	0x86
 16379 17c0 7C       		.sleb128 -4
 16380 17c1 0A       		.byte	0xa
 16381 17c2 FFFF     		.2byte	0xffff
 16382 17c4 1A       		.byte	0x1a
 16383 17c5 22       		.byte	0x22
 16384 17c6 82       		.byte	0x82
 16385 17c7 00       		.sleb128 0
 16386 17c8 22       		.byte	0x22
 16387 17c9 23       		.byte	0x23
 16388 17ca 01       		.uleb128 0x1
 16389 17cb 32       		.byte	0x32
 16390 17cc 24       		.byte	0x24
 16391 17cd 8F       		.byte	0x8f
 16392 17ce 00       		.sleb128 0
 16393 17cf 22       		.byte	0x22
 16394 17d0 06       		.byte	0x6
 16395 17d1 48       		.byte	0x48
 16396 17d2 25       		.byte	0x25
 16397 17d3 4F       		.byte	0x4f
 16398 17d4 1E       		.byte	0x1e
 16399 17d5 A8       		.byte	0xa8
 16400 17d6 26       		.uleb128 0x26
 16401 17d7 08       		.byte	0x8
 16402 17d8 FF       		.byte	0xff
 16403 17d9 A8       		.byte	0xa8
 16404 17da 26       		.uleb128 0x26
 16405 17db 1B       		.byte	0x1b
 16406 17dc A8       		.byte	0xa8
 16407 17dd 00       		.uleb128 0
 16408 17de 9F       		.byte	0x9f
 16409 17df 04       		.byte	0x4
 16410 17e0 78       		.uleb128 .LVL250-.LVL242
 16411 17e1 7C       		.uleb128 .LVL251-.LVL242
 16412 17e2 32       		.uleb128 0x32
 16413 17e3 91       		.byte	0x91
 16414 17e4 A47F     		.sleb128 -92
 16415 17e6 94       		.byte	0x94
 16416 17e7 02       		.byte	0x2
 16417 17e8 0A       		.byte	0xa
 16418 17e9 FFFF     		.2byte	0xffff
 16419 17eb 1A       		.byte	0x1a
 16420 17ec 91       		.byte	0x91
 16421 17ed A07F     		.sleb128 -96
 16422 17ef 06       		.byte	0x6
 16423 17f0 1E       		.byte	0x1e
 16424 17f1 91       		.byte	0x91
 16425 17f2 A07F     		.sleb128 -96
 16426 17f4 06       		.byte	0x6
 16427 17f5 33       		.byte	0x33
 16428 17f6 1E       		.byte	0x1e
 16429 17f7 22       		.byte	0x22
 16430 17f8 86       		.byte	0x86
 16431 17f9 7C       		.sleb128 -4
 16432 17fa 0A       		.byte	0xa
 16433 17fb FFFF     		.2byte	0xffff
 16434 17fd 1A       		.byte	0x1a
 16435 17fe 22       		.byte	0x22
 16436 17ff 23       		.byte	0x23
 16437 1800 01       		.uleb128 0x1
 16438 1801 32       		.byte	0x32
 16439 1802 24       		.byte	0x24
 16440 1803 8F       		.byte	0x8f
 16441 1804 00       		.sleb128 0
 16442 1805 22       		.byte	0x22
 16443 1806 06       		.byte	0x6
 16444 1807 48       		.byte	0x48
 16445 1808 25       		.byte	0x25
 16446 1809 4F       		.byte	0x4f
 16447 180a 1E       		.byte	0x1e
 16448 180b A8       		.byte	0xa8
 16449 180c 26       		.uleb128 0x26
 16450 180d 08       		.byte	0x8
 16451 180e FF       		.byte	0xff
 16452 180f A8       		.byte	0xa8
 16453 1810 26       		.uleb128 0x26
 16454 1811 1B       		.byte	0x1b
 16455 1812 A8       		.byte	0xa8
 16456 1813 00       		.uleb128 0
 16457 1814 9F       		.byte	0x9f
 16458 1815 00       		.byte	0
 16459              	.LVUS147:
 16460 1816 05       		.uleb128 .LVU2006
 16461 1817 05       		.uleb128 .LVU2042
 16462 1818 05       		.uleb128 .LVU2042
 16463 1819 05       		.uleb128 .LVU2078
 16464 181a 05       		.uleb128 .LVU2078
 16465 181b 05       		.uleb128 .LVU2115
 16466 181c 05       		.uleb128 .LVU2115
 16467 181d 00       		.uleb128 .LVU2146
 16468 181e 00       		.uleb128 .LVU2146
 16469 181f 00       		.uleb128 .LVU2148
 16470 1820 00       		.uleb128 .LVU2148
 16471 1821 00       		.uleb128 .LVU2149
 16472              	.LLST147:
 16473 1822 06       		.byte	0x6
 16474 1823 00000000 		.4byte	.LVL242
 16475 1827 04       		.byte	0x4
 16476 1828 00       		.uleb128 .LVL242-.LVL242
 16477 1829 10       		.uleb128 .LVL243-.LVL242
 16478 182a 23       		.uleb128 0x23
 16479 182b 86       		.byte	0x86
 16480 182c 7C       		.sleb128 -4
 16481 182d 0A       		.byte	0xa
 16482 182e FFFF     		.2byte	0xffff
 16483 1830 1A       		.byte	0x1a
 16484 1831 84       		.byte	0x84
 16485 1832 00       		.sleb128 0
 16486 1833 22       		.byte	0x22
 16487 1834 23       		.byte	0x23
 16488 1835 01       		.uleb128 0x1
 16489 1836 32       		.byte	0x32
 16490 1837 24       		.byte	0x24
 16491 1838 8F       		.byte	0x8f
 16492 1839 00       		.sleb128 0
 16493 183a 22       		.byte	0x22
 16494 183b 06       		.byte	0x6
 16495 183c 40       		.byte	0x40
 16496 183d 25       		.byte	0x25
 16497 183e 08       		.byte	0x8
 16498 183f FF       		.byte	0xff
 16499 1840 1A       		.byte	0x1a
 16500 1841 08       		.byte	0x8
 16501 1842 3F       		.byte	0x3f
 16502 1843 1E       		.byte	0x1e
 16503 1844 A8       		.byte	0xa8
 16504 1845 26       		.uleb128 0x26
 16505 1846 08       		.byte	0x8
 16506 1847 FF       		.byte	0xff
 16507 1848 A8       		.byte	0xa8
 16508 1849 26       		.uleb128 0x26
 16509 184a 1B       		.byte	0x1b
 16510 184b A8       		.byte	0xa8
 16511 184c 00       		.uleb128 0
 16512 184d 9F       		.byte	0x9f
 16513 184e 04       		.byte	0x4
 16514 184f 10       		.uleb128 .LVL243-.LVL242
 16515 1850 20       		.uleb128 .LVL244-.LVL242
 16516 1851 23       		.uleb128 0x23
 16517 1852 86       		.byte	0x86
 16518 1853 7C       		.sleb128 -4
 16519 1854 0A       		.byte	0xa
 16520 1855 FFFF     		.2byte	0xffff
 16521 1857 1A       		.byte	0x1a
 16522 1858 82       		.byte	0x82
 16523 1859 00       		.sleb128 0
 16524 185a 22       		.byte	0x22
 16525 185b 23       		.byte	0x23
 16526 185c 01       		.uleb128 0x1
 16527 185d 32       		.byte	0x32
 16528 185e 24       		.byte	0x24
 16529 185f 8F       		.byte	0x8f
 16530 1860 00       		.sleb128 0
 16531 1861 22       		.byte	0x22
 16532 1862 06       		.byte	0x6
 16533 1863 40       		.byte	0x40
 16534 1864 25       		.byte	0x25
 16535 1865 08       		.byte	0x8
 16536 1866 FF       		.byte	0xff
 16537 1867 1A       		.byte	0x1a
 16538 1868 08       		.byte	0x8
 16539 1869 3F       		.byte	0x3f
 16540 186a 1E       		.byte	0x1e
 16541 186b A8       		.byte	0xa8
 16542 186c 26       		.uleb128 0x26
 16543 186d 08       		.byte	0x8
 16544 186e FF       		.byte	0xff
 16545 186f A8       		.byte	0xa8
 16546 1870 26       		.uleb128 0x26
 16547 1871 1B       		.byte	0x1b
 16548 1872 A8       		.byte	0xa8
 16549 1873 00       		.uleb128 0
 16550 1874 9F       		.byte	0x9f
 16551 1875 04       		.byte	0x4
 16552 1876 20       		.uleb128 .LVL244-.LVL242
 16553 1877 30       		.uleb128 .LVL245-.LVL242
 16554 1878 23       		.uleb128 0x23
 16555 1879 86       		.byte	0x86
 16556 187a 7C       		.sleb128 -4
 16557 187b 0A       		.byte	0xa
 16558 187c FFFF     		.2byte	0xffff
 16559 187e 1A       		.byte	0x1a
 16560 187f 83       		.byte	0x83
 16561 1880 00       		.sleb128 0
 16562 1881 22       		.byte	0x22
 16563 1882 23       		.byte	0x23
 16564 1883 01       		.uleb128 0x1
 16565 1884 32       		.byte	0x32
 16566 1885 24       		.byte	0x24
 16567 1886 8F       		.byte	0x8f
 16568 1887 00       		.sleb128 0
 16569 1888 22       		.byte	0x22
 16570 1889 06       		.byte	0x6
 16571 188a 40       		.byte	0x40
 16572 188b 25       		.byte	0x25
 16573 188c 08       		.byte	0x8
 16574 188d FF       		.byte	0xff
 16575 188e 1A       		.byte	0x1a
 16576 188f 08       		.byte	0x8
 16577 1890 3F       		.byte	0x3f
 16578 1891 1E       		.byte	0x1e
 16579 1892 A8       		.byte	0xa8
 16580 1893 26       		.uleb128 0x26
 16581 1894 08       		.byte	0x8
 16582 1895 FF       		.byte	0xff
 16583 1896 A8       		.byte	0xa8
 16584 1897 26       		.uleb128 0x26
 16585 1898 1B       		.byte	0x1b
 16586 1899 A8       		.byte	0xa8
 16587 189a 00       		.uleb128 0
 16588 189b 9F       		.byte	0x9f
 16589 189c 04       		.byte	0x4
 16590 189d 30       		.uleb128 .LVL245-.LVL242
 16591 189e 70       		.uleb128 .LVL248-.LVL242
 16592 189f 23       		.uleb128 0x23
 16593 18a0 86       		.byte	0x86
 16594 18a1 7C       		.sleb128 -4
 16595 18a2 0A       		.byte	0xa
 16596 18a3 FFFF     		.2byte	0xffff
 16597 18a5 1A       		.byte	0x1a
 16598 18a6 80       		.byte	0x80
 16599 18a7 00       		.sleb128 0
 16600 18a8 22       		.byte	0x22
 16601 18a9 23       		.byte	0x23
 16602 18aa 01       		.uleb128 0x1
 16603 18ab 32       		.byte	0x32
 16604 18ac 24       		.byte	0x24
 16605 18ad 8F       		.byte	0x8f
 16606 18ae 00       		.sleb128 0
 16607 18af 22       		.byte	0x22
 16608 18b0 06       		.byte	0x6
 16609 18b1 40       		.byte	0x40
 16610 18b2 25       		.byte	0x25
 16611 18b3 08       		.byte	0x8
 16612 18b4 FF       		.byte	0xff
 16613 18b5 1A       		.byte	0x1a
 16614 18b6 08       		.byte	0x8
 16615 18b7 3F       		.byte	0x3f
 16616 18b8 1E       		.byte	0x1e
 16617 18b9 A8       		.byte	0xa8
 16618 18ba 26       		.uleb128 0x26
 16619 18bb 08       		.byte	0x8
 16620 18bc FF       		.byte	0xff
 16621 18bd A8       		.byte	0xa8
 16622 18be 26       		.uleb128 0x26
 16623 18bf 1B       		.byte	0x1b
 16624 18c0 A8       		.byte	0xa8
 16625 18c1 00       		.uleb128 0
 16626 18c2 9F       		.byte	0x9f
 16627 18c3 04       		.byte	0x4
 16628 18c4 70       		.uleb128 .LVL248-.LVL242
 16629 18c5 78       		.uleb128 .LVL250-.LVL242
 16630 18c6 2A       		.uleb128 0x2a
 16631 18c7 91       		.byte	0x91
 16632 18c8 A07F     		.sleb128 -96
 16633 18ca 06       		.byte	0x6
 16634 18cb 31       		.byte	0x31
 16635 18cc 24       		.byte	0x24
 16636 18cd 86       		.byte	0x86
 16637 18ce 7C       		.sleb128 -4
 16638 18cf 0A       		.byte	0xa
 16639 18d0 FFFF     		.2byte	0xffff
 16640 18d2 1A       		.byte	0x1a
 16641 18d3 22       		.byte	0x22
 16642 18d4 82       		.byte	0x82
 16643 18d5 00       		.sleb128 0
 16644 18d6 22       		.byte	0x22
 16645 18d7 23       		.byte	0x23
 16646 18d8 01       		.uleb128 0x1
 16647 18d9 32       		.byte	0x32
 16648 18da 24       		.byte	0x24
 16649 18db 8F       		.byte	0x8f
 16650 18dc 00       		.sleb128 0
 16651 18dd 22       		.byte	0x22
 16652 18de 06       		.byte	0x6
 16653 18df 40       		.byte	0x40
 16654 18e0 25       		.byte	0x25
 16655 18e1 08       		.byte	0x8
 16656 18e2 FF       		.byte	0xff
 16657 18e3 1A       		.byte	0x1a
 16658 18e4 08       		.byte	0x8
 16659 18e5 3F       		.byte	0x3f
 16660 18e6 1E       		.byte	0x1e
 16661 18e7 A8       		.byte	0xa8
 16662 18e8 26       		.uleb128 0x26
 16663 18e9 08       		.byte	0x8
 16664 18ea FF       		.byte	0xff
 16665 18eb A8       		.byte	0xa8
 16666 18ec 26       		.uleb128 0x26
 16667 18ed 1B       		.byte	0x1b
 16668 18ee A8       		.byte	0xa8
 16669 18ef 00       		.uleb128 0
 16670 18f0 9F       		.byte	0x9f
 16671 18f1 04       		.byte	0x4
 16672 18f2 78       		.uleb128 .LVL250-.LVL242
 16673 18f3 7C       		.uleb128 .LVL251-.LVL242
 16674 18f4 36       		.uleb128 0x36
 16675 18f5 91       		.byte	0x91
 16676 18f6 A47F     		.sleb128 -92
 16677 18f8 94       		.byte	0x94
 16678 18f9 02       		.byte	0x2
 16679 18fa 0A       		.byte	0xa
 16680 18fb FFFF     		.2byte	0xffff
 16681 18fd 1A       		.byte	0x1a
 16682 18fe 91       		.byte	0x91
 16683 18ff A07F     		.sleb128 -96
 16684 1901 06       		.byte	0x6
 16685 1902 1E       		.byte	0x1e
 16686 1903 91       		.byte	0x91
 16687 1904 A07F     		.sleb128 -96
 16688 1906 06       		.byte	0x6
 16689 1907 33       		.byte	0x33
 16690 1908 1E       		.byte	0x1e
 16691 1909 22       		.byte	0x22
 16692 190a 86       		.byte	0x86
 16693 190b 7C       		.sleb128 -4
 16694 190c 0A       		.byte	0xa
 16695 190d FFFF     		.2byte	0xffff
 16696 190f 1A       		.byte	0x1a
 16697 1910 22       		.byte	0x22
 16698 1911 23       		.byte	0x23
 16699 1912 01       		.uleb128 0x1
 16700 1913 32       		.byte	0x32
 16701 1914 24       		.byte	0x24
 16702 1915 8F       		.byte	0x8f
 16703 1916 00       		.sleb128 0
 16704 1917 22       		.byte	0x22
 16705 1918 06       		.byte	0x6
 16706 1919 40       		.byte	0x40
 16707 191a 25       		.byte	0x25
 16708 191b 08       		.byte	0x8
 16709 191c FF       		.byte	0xff
 16710 191d 1A       		.byte	0x1a
 16711 191e 08       		.byte	0x8
 16712 191f 3F       		.byte	0x3f
 16713 1920 1E       		.byte	0x1e
 16714 1921 A8       		.byte	0xa8
 16715 1922 26       		.uleb128 0x26
 16716 1923 08       		.byte	0x8
 16717 1924 FF       		.byte	0xff
 16718 1925 A8       		.byte	0xa8
 16719 1926 26       		.uleb128 0x26
 16720 1927 1B       		.byte	0x1b
 16721 1928 A8       		.byte	0xa8
 16722 1929 00       		.uleb128 0
 16723 192a 9F       		.byte	0x9f
 16724 192b 00       		.byte	0
 16725              	.LVUS148:
 16726 192c 06       		.uleb128 .LVU2007
 16727 192d 06       		.uleb128 .LVU2043
 16728 192e 06       		.uleb128 .LVU2043
 16729 192f 06       		.uleb128 .LVU2079
 16730 1930 06       		.uleb128 .LVU2079
 16731 1931 06       		.uleb128 .LVU2116
 16732 1932 06       		.uleb128 .LVU2116
 16733 1933 00       		.uleb128 .LVU2146
 16734 1934 00       		.uleb128 .LVU2146
 16735 1935 00       		.uleb128 .LVU2148
 16736 1936 00       		.uleb128 .LVU2148
 16737 1937 00       		.uleb128 .LVU2149
 16738              	.LLST148:
 16739 1938 06       		.byte	0x6
 16740 1939 00000000 		.4byte	.LVL242
 16741 193d 04       		.byte	0x4
 16742 193e 00       		.uleb128 .LVL242-.LVL242
 16743 193f 10       		.uleb128 .LVL243-.LVL242
 16744 1940 22       		.uleb128 0x22
 16745 1941 86       		.byte	0x86
 16746 1942 7C       		.sleb128 -4
 16747 1943 0A       		.byte	0xa
 16748 1944 FFFF     		.2byte	0xffff
 16749 1946 1A       		.byte	0x1a
 16750 1947 84       		.byte	0x84
 16751 1948 00       		.sleb128 0
 16752 1949 22       		.byte	0x22
 16753 194a 23       		.byte	0x23
 16754 194b 01       		.uleb128 0x1
 16755 194c 32       		.byte	0x32
 16756 194d 24       		.byte	0x24
 16757 194e 8F       		.byte	0x8f
 16758 194f 00       		.sleb128 0
 16759 1950 22       		.byte	0x22
 16760 1951 06       		.byte	0x6
 16761 1952 38       		.byte	0x38
 16762 1953 25       		.byte	0x25
 16763 1954 08       		.byte	0x8
 16764 1955 FF       		.byte	0xff
 16765 1956 1A       		.byte	0x1a
 16766 1957 4F       		.byte	0x4f
 16767 1958 1E       		.byte	0x1e
 16768 1959 A8       		.byte	0xa8
 16769 195a 26       		.uleb128 0x26
 16770 195b 08       		.byte	0x8
 16771 195c FF       		.byte	0xff
 16772 195d A8       		.byte	0xa8
 16773 195e 26       		.uleb128 0x26
 16774 195f 1B       		.byte	0x1b
 16775 1960 A8       		.byte	0xa8
 16776 1961 00       		.uleb128 0
 16777 1962 9F       		.byte	0x9f
 16778 1963 04       		.byte	0x4
 16779 1964 10       		.uleb128 .LVL243-.LVL242
 16780 1965 20       		.uleb128 .LVL244-.LVL242
 16781 1966 22       		.uleb128 0x22
 16782 1967 86       		.byte	0x86
 16783 1968 7C       		.sleb128 -4
 16784 1969 0A       		.byte	0xa
 16785 196a FFFF     		.2byte	0xffff
 16786 196c 1A       		.byte	0x1a
 16787 196d 82       		.byte	0x82
 16788 196e 00       		.sleb128 0
 16789 196f 22       		.byte	0x22
 16790 1970 23       		.byte	0x23
 16791 1971 01       		.uleb128 0x1
 16792 1972 32       		.byte	0x32
 16793 1973 24       		.byte	0x24
 16794 1974 8F       		.byte	0x8f
 16795 1975 00       		.sleb128 0
 16796 1976 22       		.byte	0x22
 16797 1977 06       		.byte	0x6
 16798 1978 38       		.byte	0x38
 16799 1979 25       		.byte	0x25
 16800 197a 08       		.byte	0x8
 16801 197b FF       		.byte	0xff
 16802 197c 1A       		.byte	0x1a
 16803 197d 4F       		.byte	0x4f
 16804 197e 1E       		.byte	0x1e
 16805 197f A8       		.byte	0xa8
 16806 1980 26       		.uleb128 0x26
 16807 1981 08       		.byte	0x8
 16808 1982 FF       		.byte	0xff
 16809 1983 A8       		.byte	0xa8
 16810 1984 26       		.uleb128 0x26
 16811 1985 1B       		.byte	0x1b
 16812 1986 A8       		.byte	0xa8
 16813 1987 00       		.uleb128 0
 16814 1988 9F       		.byte	0x9f
 16815 1989 04       		.byte	0x4
 16816 198a 20       		.uleb128 .LVL244-.LVL242
 16817 198b 30       		.uleb128 .LVL245-.LVL242
 16818 198c 22       		.uleb128 0x22
 16819 198d 86       		.byte	0x86
 16820 198e 7C       		.sleb128 -4
 16821 198f 0A       		.byte	0xa
 16822 1990 FFFF     		.2byte	0xffff
 16823 1992 1A       		.byte	0x1a
 16824 1993 83       		.byte	0x83
 16825 1994 00       		.sleb128 0
 16826 1995 22       		.byte	0x22
 16827 1996 23       		.byte	0x23
 16828 1997 01       		.uleb128 0x1
 16829 1998 32       		.byte	0x32
 16830 1999 24       		.byte	0x24
 16831 199a 8F       		.byte	0x8f
 16832 199b 00       		.sleb128 0
 16833 199c 22       		.byte	0x22
 16834 199d 06       		.byte	0x6
 16835 199e 38       		.byte	0x38
 16836 199f 25       		.byte	0x25
 16837 19a0 08       		.byte	0x8
 16838 19a1 FF       		.byte	0xff
 16839 19a2 1A       		.byte	0x1a
 16840 19a3 4F       		.byte	0x4f
 16841 19a4 1E       		.byte	0x1e
 16842 19a5 A8       		.byte	0xa8
 16843 19a6 26       		.uleb128 0x26
 16844 19a7 08       		.byte	0x8
 16845 19a8 FF       		.byte	0xff
 16846 19a9 A8       		.byte	0xa8
 16847 19aa 26       		.uleb128 0x26
 16848 19ab 1B       		.byte	0x1b
 16849 19ac A8       		.byte	0xa8
 16850 19ad 00       		.uleb128 0
 16851 19ae 9F       		.byte	0x9f
 16852 19af 04       		.byte	0x4
 16853 19b0 30       		.uleb128 .LVL245-.LVL242
 16854 19b1 70       		.uleb128 .LVL248-.LVL242
 16855 19b2 22       		.uleb128 0x22
 16856 19b3 86       		.byte	0x86
 16857 19b4 7C       		.sleb128 -4
 16858 19b5 0A       		.byte	0xa
 16859 19b6 FFFF     		.2byte	0xffff
 16860 19b8 1A       		.byte	0x1a
 16861 19b9 80       		.byte	0x80
 16862 19ba 00       		.sleb128 0
 16863 19bb 22       		.byte	0x22
 16864 19bc 23       		.byte	0x23
 16865 19bd 01       		.uleb128 0x1
 16866 19be 32       		.byte	0x32
 16867 19bf 24       		.byte	0x24
 16868 19c0 8F       		.byte	0x8f
 16869 19c1 00       		.sleb128 0
 16870 19c2 22       		.byte	0x22
 16871 19c3 06       		.byte	0x6
 16872 19c4 38       		.byte	0x38
 16873 19c5 25       		.byte	0x25
 16874 19c6 08       		.byte	0x8
 16875 19c7 FF       		.byte	0xff
 16876 19c8 1A       		.byte	0x1a
 16877 19c9 4F       		.byte	0x4f
 16878 19ca 1E       		.byte	0x1e
 16879 19cb A8       		.byte	0xa8
 16880 19cc 26       		.uleb128 0x26
 16881 19cd 08       		.byte	0x8
 16882 19ce FF       		.byte	0xff
 16883 19cf A8       		.byte	0xa8
 16884 19d0 26       		.uleb128 0x26
 16885 19d1 1B       		.byte	0x1b
 16886 19d2 A8       		.byte	0xa8
 16887 19d3 00       		.uleb128 0
 16888 19d4 9F       		.byte	0x9f
 16889 19d5 04       		.byte	0x4
 16890 19d6 70       		.uleb128 .LVL248-.LVL242
 16891 19d7 78       		.uleb128 .LVL250-.LVL242
 16892 19d8 29       		.uleb128 0x29
 16893 19d9 91       		.byte	0x91
 16894 19da A07F     		.sleb128 -96
 16895 19dc 06       		.byte	0x6
 16896 19dd 31       		.byte	0x31
 16897 19de 24       		.byte	0x24
 16898 19df 86       		.byte	0x86
 16899 19e0 7C       		.sleb128 -4
 16900 19e1 0A       		.byte	0xa
 16901 19e2 FFFF     		.2byte	0xffff
 16902 19e4 1A       		.byte	0x1a
 16903 19e5 22       		.byte	0x22
 16904 19e6 82       		.byte	0x82
 16905 19e7 00       		.sleb128 0
 16906 19e8 22       		.byte	0x22
 16907 19e9 23       		.byte	0x23
 16908 19ea 01       		.uleb128 0x1
 16909 19eb 32       		.byte	0x32
 16910 19ec 24       		.byte	0x24
 16911 19ed 8F       		.byte	0x8f
 16912 19ee 00       		.sleb128 0
 16913 19ef 22       		.byte	0x22
 16914 19f0 06       		.byte	0x6
 16915 19f1 38       		.byte	0x38
 16916 19f2 25       		.byte	0x25
 16917 19f3 08       		.byte	0x8
 16918 19f4 FF       		.byte	0xff
 16919 19f5 1A       		.byte	0x1a
 16920 19f6 4F       		.byte	0x4f
 16921 19f7 1E       		.byte	0x1e
 16922 19f8 A8       		.byte	0xa8
 16923 19f9 26       		.uleb128 0x26
 16924 19fa 08       		.byte	0x8
 16925 19fb FF       		.byte	0xff
 16926 19fc A8       		.byte	0xa8
 16927 19fd 26       		.uleb128 0x26
 16928 19fe 1B       		.byte	0x1b
 16929 19ff A8       		.byte	0xa8
 16930 1a00 00       		.uleb128 0
 16931 1a01 9F       		.byte	0x9f
 16932 1a02 04       		.byte	0x4
 16933 1a03 78       		.uleb128 .LVL250-.LVL242
 16934 1a04 7C       		.uleb128 .LVL251-.LVL242
 16935 1a05 35       		.uleb128 0x35
 16936 1a06 91       		.byte	0x91
 16937 1a07 A47F     		.sleb128 -92
 16938 1a09 94       		.byte	0x94
 16939 1a0a 02       		.byte	0x2
 16940 1a0b 0A       		.byte	0xa
 16941 1a0c FFFF     		.2byte	0xffff
 16942 1a0e 1A       		.byte	0x1a
 16943 1a0f 91       		.byte	0x91
 16944 1a10 A07F     		.sleb128 -96
 16945 1a12 06       		.byte	0x6
 16946 1a13 1E       		.byte	0x1e
 16947 1a14 91       		.byte	0x91
 16948 1a15 A07F     		.sleb128 -96
 16949 1a17 06       		.byte	0x6
 16950 1a18 33       		.byte	0x33
 16951 1a19 1E       		.byte	0x1e
 16952 1a1a 22       		.byte	0x22
 16953 1a1b 86       		.byte	0x86
 16954 1a1c 7C       		.sleb128 -4
 16955 1a1d 0A       		.byte	0xa
 16956 1a1e FFFF     		.2byte	0xffff
 16957 1a20 1A       		.byte	0x1a
 16958 1a21 22       		.byte	0x22
 16959 1a22 23       		.byte	0x23
 16960 1a23 01       		.uleb128 0x1
 16961 1a24 32       		.byte	0x32
 16962 1a25 24       		.byte	0x24
 16963 1a26 8F       		.byte	0x8f
 16964 1a27 00       		.sleb128 0
 16965 1a28 22       		.byte	0x22
 16966 1a29 06       		.byte	0x6
 16967 1a2a 38       		.byte	0x38
 16968 1a2b 25       		.byte	0x25
 16969 1a2c 08       		.byte	0x8
 16970 1a2d FF       		.byte	0xff
 16971 1a2e 1A       		.byte	0x1a
 16972 1a2f 4F       		.byte	0x4f
 16973 1a30 1E       		.byte	0x1e
 16974 1a31 A8       		.byte	0xa8
 16975 1a32 26       		.uleb128 0x26
 16976 1a33 08       		.byte	0x8
 16977 1a34 FF       		.byte	0xff
 16978 1a35 A8       		.byte	0xa8
 16979 1a36 26       		.uleb128 0x26
 16980 1a37 1B       		.byte	0x1b
 16981 1a38 A8       		.byte	0xa8
 16982 1a39 00       		.uleb128 0
 16983 1a3a 9F       		.byte	0x9f
 16984 1a3b 00       		.byte	0
 16985              	.LVUS150:
 16986 1a3c 09       		.uleb128 .LVU2010
 16987 1a3d 0F       		.uleb128 .LVU2016
 16988 1a3e 09       		.uleb128 .LVU2046
 16989 1a3f 0F       		.uleb128 .LVU2052
 16990 1a40 09       		.uleb128 .LVU2082
 16991 1a41 0F       		.uleb128 .LVU2088
 16992 1a42 09       		.uleb128 .LVU2119
 16993 1a43 0F       		.uleb128 .LVU2125
 16994              	.LLST150:
 16995 1a44 08       		.byte	0x8
 16996 1a45 00000000 		.4byte	.LVL242
 16997 1a49 00       		.uleb128 .LVL242-.LVL242
 16998 1a4a 10       		.uleb128 0x10
 16999 1a4b 86       		.byte	0x86
 17000 1a4c 7C       		.sleb128 -4
 17001 1a4d 0A       		.byte	0xa
 17002 1a4e FFFF     		.2byte	0xffff
 17003 1a50 1A       		.byte	0x1a
 17004 1a51 84       		.byte	0x84
 17005 1a52 00       		.sleb128 0
 17006 1a53 22       		.byte	0x22
 17007 1a54 23       		.byte	0x23
 17008 1a55 02       		.uleb128 0x2
 17009 1a56 32       		.byte	0x32
 17010 1a57 24       		.byte	0x24
 17011 1a58 8F       		.byte	0x8f
 17012 1a59 00       		.sleb128 0
 17013 1a5a 22       		.byte	0x22
 17014 1a5b 08       		.byte	0x8
 17015 1a5c 00000000 		.4byte	.LVL243
 17016 1a60 00       		.uleb128 .LVL243-.LVL243
 17017 1a61 10       		.uleb128 0x10
 17018 1a62 86       		.byte	0x86
 17019 1a63 7C       		.sleb128 -4
 17020 1a64 0A       		.byte	0xa
 17021 1a65 FFFF     		.2byte	0xffff
 17022 1a67 1A       		.byte	0x1a
 17023 1a68 82       		.byte	0x82
 17024 1a69 00       		.sleb128 0
 17025 1a6a 22       		.byte	0x22
 17026 1a6b 23       		.byte	0x23
 17027 1a6c 02       		.uleb128 0x2
 17028 1a6d 32       		.byte	0x32
 17029 1a6e 24       		.byte	0x24
 17030 1a6f 8F       		.byte	0x8f
 17031 1a70 00       		.sleb128 0
 17032 1a71 22       		.byte	0x22
 17033 1a72 08       		.byte	0x8
 17034 1a73 00000000 		.4byte	.LVL244
 17035 1a77 00       		.uleb128 .LVL244-.LVL244
 17036 1a78 10       		.uleb128 0x10
 17037 1a79 86       		.byte	0x86
 17038 1a7a 7C       		.sleb128 -4
 17039 1a7b 0A       		.byte	0xa
 17040 1a7c FFFF     		.2byte	0xffff
 17041 1a7e 1A       		.byte	0x1a
 17042 1a7f 83       		.byte	0x83
 17043 1a80 00       		.sleb128 0
 17044 1a81 22       		.byte	0x22
 17045 1a82 23       		.byte	0x23
 17046 1a83 02       		.uleb128 0x2
 17047 1a84 32       		.byte	0x32
 17048 1a85 24       		.byte	0x24
 17049 1a86 8F       		.byte	0x8f
 17050 1a87 00       		.sleb128 0
 17051 1a88 22       		.byte	0x22
 17052 1a89 08       		.byte	0x8
 17053 1a8a 00000000 		.4byte	.LVL245
 17054 1a8e 00       		.uleb128 .LVL245-.LVL245
 17055 1a8f 10       		.uleb128 0x10
 17056 1a90 86       		.byte	0x86
 17057 1a91 7C       		.sleb128 -4
 17058 1a92 0A       		.byte	0xa
 17059 1a93 FFFF     		.2byte	0xffff
 17060 1a95 1A       		.byte	0x1a
 17061 1a96 80       		.byte	0x80
 17062 1a97 00       		.sleb128 0
 17063 1a98 22       		.byte	0x22
 17064 1a99 23       		.byte	0x23
 17065 1a9a 02       		.uleb128 0x2
 17066 1a9b 32       		.byte	0x32
 17067 1a9c 24       		.byte	0x24
 17068 1a9d 8F       		.byte	0x8f
 17069 1a9e 00       		.sleb128 0
 17070 1a9f 22       		.byte	0x22
 17071 1aa0 00       		.byte	0
 17072              	.LVUS151:
 17073 1aa1 0C       		.uleb128 .LVU2013
 17074 1aa2 0C       		.uleb128 .LVU2049
 17075 1aa3 0C       		.uleb128 .LVU2049
 17076 1aa4 0C       		.uleb128 .LVU2085
 17077 1aa5 0C       		.uleb128 .LVU2085
 17078 1aa6 0C       		.uleb128 .LVU2122
 17079 1aa7 0C       		.uleb128 .LVU2122
 17080 1aa8 00       		.uleb128 .LVU2146
 17081 1aa9 00       		.uleb128 .LVU2146
 17082 1aaa 00       		.uleb128 .LVU2148
 17083 1aab 00       		.uleb128 .LVU2148
 17084 1aac 00       		.uleb128 .LVU2149
 17085              	.LLST151:
 17086 1aad 06       		.byte	0x6
 17087 1aae 00000000 		.4byte	.LVL242
 17088 1ab2 04       		.byte	0x4
 17089 1ab3 00       		.uleb128 .LVL242-.LVL242
 17090 1ab4 10       		.uleb128 .LVL243-.LVL242
 17091 1ab5 1F       		.uleb128 0x1f
 17092 1ab6 86       		.byte	0x86
 17093 1ab7 7C       		.sleb128 -4
 17094 1ab8 0A       		.byte	0xa
 17095 1ab9 FFFF     		.2byte	0xffff
 17096 1abb 1A       		.byte	0x1a
 17097 1abc 84       		.byte	0x84
 17098 1abd 00       		.sleb128 0
 17099 1abe 22       		.byte	0x22
 17100 1abf 23       		.byte	0x23
 17101 1ac0 02       		.uleb128 0x2
 17102 1ac1 32       		.byte	0x32
 17103 1ac2 24       		.byte	0x24
 17104 1ac3 8F       		.byte	0x8f
 17105 1ac4 00       		.sleb128 0
 17106 1ac5 22       		.byte	0x22
 17107 1ac6 06       		.byte	0x6
 17108 1ac7 48       		.byte	0x48
 17109 1ac8 25       		.byte	0x25
 17110 1ac9 4F       		.byte	0x4f
 17111 1aca 1E       		.byte	0x1e
 17112 1acb A8       		.byte	0xa8
 17113 1acc 26       		.uleb128 0x26
 17114 1acd 08       		.byte	0x8
 17115 1ace FF       		.byte	0xff
 17116 1acf A8       		.byte	0xa8
 17117 1ad0 26       		.uleb128 0x26
 17118 1ad1 1B       		.byte	0x1b
 17119 1ad2 A8       		.byte	0xa8
 17120 1ad3 00       		.uleb128 0
 17121 1ad4 9F       		.byte	0x9f
 17122 1ad5 04       		.byte	0x4
 17123 1ad6 10       		.uleb128 .LVL243-.LVL242
 17124 1ad7 20       		.uleb128 .LVL244-.LVL242
 17125 1ad8 1F       		.uleb128 0x1f
 17126 1ad9 86       		.byte	0x86
 17127 1ada 7C       		.sleb128 -4
 17128 1adb 0A       		.byte	0xa
 17129 1adc FFFF     		.2byte	0xffff
 17130 1ade 1A       		.byte	0x1a
 17131 1adf 82       		.byte	0x82
 17132 1ae0 00       		.sleb128 0
 17133 1ae1 22       		.byte	0x22
 17134 1ae2 23       		.byte	0x23
 17135 1ae3 02       		.uleb128 0x2
 17136 1ae4 32       		.byte	0x32
 17137 1ae5 24       		.byte	0x24
 17138 1ae6 8F       		.byte	0x8f
 17139 1ae7 00       		.sleb128 0
 17140 1ae8 22       		.byte	0x22
 17141 1ae9 06       		.byte	0x6
 17142 1aea 48       		.byte	0x48
 17143 1aeb 25       		.byte	0x25
 17144 1aec 4F       		.byte	0x4f
 17145 1aed 1E       		.byte	0x1e
 17146 1aee A8       		.byte	0xa8
 17147 1aef 26       		.uleb128 0x26
 17148 1af0 08       		.byte	0x8
 17149 1af1 FF       		.byte	0xff
 17150 1af2 A8       		.byte	0xa8
 17151 1af3 26       		.uleb128 0x26
 17152 1af4 1B       		.byte	0x1b
 17153 1af5 A8       		.byte	0xa8
 17154 1af6 00       		.uleb128 0
 17155 1af7 9F       		.byte	0x9f
 17156 1af8 04       		.byte	0x4
 17157 1af9 20       		.uleb128 .LVL244-.LVL242
 17158 1afa 30       		.uleb128 .LVL245-.LVL242
 17159 1afb 1F       		.uleb128 0x1f
 17160 1afc 86       		.byte	0x86
 17161 1afd 7C       		.sleb128 -4
 17162 1afe 0A       		.byte	0xa
 17163 1aff FFFF     		.2byte	0xffff
 17164 1b01 1A       		.byte	0x1a
 17165 1b02 83       		.byte	0x83
 17166 1b03 00       		.sleb128 0
 17167 1b04 22       		.byte	0x22
 17168 1b05 23       		.byte	0x23
 17169 1b06 02       		.uleb128 0x2
 17170 1b07 32       		.byte	0x32
 17171 1b08 24       		.byte	0x24
 17172 1b09 8F       		.byte	0x8f
 17173 1b0a 00       		.sleb128 0
 17174 1b0b 22       		.byte	0x22
 17175 1b0c 06       		.byte	0x6
 17176 1b0d 48       		.byte	0x48
 17177 1b0e 25       		.byte	0x25
 17178 1b0f 4F       		.byte	0x4f
 17179 1b10 1E       		.byte	0x1e
 17180 1b11 A8       		.byte	0xa8
 17181 1b12 26       		.uleb128 0x26
 17182 1b13 08       		.byte	0x8
 17183 1b14 FF       		.byte	0xff
 17184 1b15 A8       		.byte	0xa8
 17185 1b16 26       		.uleb128 0x26
 17186 1b17 1B       		.byte	0x1b
 17187 1b18 A8       		.byte	0xa8
 17188 1b19 00       		.uleb128 0
 17189 1b1a 9F       		.byte	0x9f
 17190 1b1b 04       		.byte	0x4
 17191 1b1c 30       		.uleb128 .LVL245-.LVL242
 17192 1b1d 70       		.uleb128 .LVL248-.LVL242
 17193 1b1e 1F       		.uleb128 0x1f
 17194 1b1f 86       		.byte	0x86
 17195 1b20 7C       		.sleb128 -4
 17196 1b21 0A       		.byte	0xa
 17197 1b22 FFFF     		.2byte	0xffff
 17198 1b24 1A       		.byte	0x1a
 17199 1b25 80       		.byte	0x80
 17200 1b26 00       		.sleb128 0
 17201 1b27 22       		.byte	0x22
 17202 1b28 23       		.byte	0x23
 17203 1b29 02       		.uleb128 0x2
 17204 1b2a 32       		.byte	0x32
 17205 1b2b 24       		.byte	0x24
 17206 1b2c 8F       		.byte	0x8f
 17207 1b2d 00       		.sleb128 0
 17208 1b2e 22       		.byte	0x22
 17209 1b2f 06       		.byte	0x6
 17210 1b30 48       		.byte	0x48
 17211 1b31 25       		.byte	0x25
 17212 1b32 4F       		.byte	0x4f
 17213 1b33 1E       		.byte	0x1e
 17214 1b34 A8       		.byte	0xa8
 17215 1b35 26       		.uleb128 0x26
 17216 1b36 08       		.byte	0x8
 17217 1b37 FF       		.byte	0xff
 17218 1b38 A8       		.byte	0xa8
 17219 1b39 26       		.uleb128 0x26
 17220 1b3a 1B       		.byte	0x1b
 17221 1b3b A8       		.byte	0xa8
 17222 1b3c 00       		.uleb128 0
 17223 1b3d 9F       		.byte	0x9f
 17224 1b3e 04       		.byte	0x4
 17225 1b3f 70       		.uleb128 .LVL248-.LVL242
 17226 1b40 78       		.uleb128 .LVL250-.LVL242
 17227 1b41 26       		.uleb128 0x26
 17228 1b42 91       		.byte	0x91
 17229 1b43 A07F     		.sleb128 -96
 17230 1b45 06       		.byte	0x6
 17231 1b46 31       		.byte	0x31
 17232 1b47 24       		.byte	0x24
 17233 1b48 86       		.byte	0x86
 17234 1b49 7C       		.sleb128 -4
 17235 1b4a 0A       		.byte	0xa
 17236 1b4b FFFF     		.2byte	0xffff
 17237 1b4d 1A       		.byte	0x1a
 17238 1b4e 22       		.byte	0x22
 17239 1b4f 82       		.byte	0x82
 17240 1b50 00       		.sleb128 0
 17241 1b51 22       		.byte	0x22
 17242 1b52 23       		.byte	0x23
 17243 1b53 02       		.uleb128 0x2
 17244 1b54 32       		.byte	0x32
 17245 1b55 24       		.byte	0x24
 17246 1b56 8F       		.byte	0x8f
 17247 1b57 00       		.sleb128 0
 17248 1b58 22       		.byte	0x22
 17249 1b59 06       		.byte	0x6
 17250 1b5a 48       		.byte	0x48
 17251 1b5b 25       		.byte	0x25
 17252 1b5c 4F       		.byte	0x4f
 17253 1b5d 1E       		.byte	0x1e
 17254 1b5e A8       		.byte	0xa8
 17255 1b5f 26       		.uleb128 0x26
 17256 1b60 08       		.byte	0x8
 17257 1b61 FF       		.byte	0xff
 17258 1b62 A8       		.byte	0xa8
 17259 1b63 26       		.uleb128 0x26
 17260 1b64 1B       		.byte	0x1b
 17261 1b65 A8       		.byte	0xa8
 17262 1b66 00       		.uleb128 0
 17263 1b67 9F       		.byte	0x9f
 17264 1b68 04       		.byte	0x4
 17265 1b69 78       		.uleb128 .LVL250-.LVL242
 17266 1b6a 7C       		.uleb128 .LVL251-.LVL242
 17267 1b6b 32       		.uleb128 0x32
 17268 1b6c 91       		.byte	0x91
 17269 1b6d A47F     		.sleb128 -92
 17270 1b6f 94       		.byte	0x94
 17271 1b70 02       		.byte	0x2
 17272 1b71 0A       		.byte	0xa
 17273 1b72 FFFF     		.2byte	0xffff
 17274 1b74 1A       		.byte	0x1a
 17275 1b75 91       		.byte	0x91
 17276 1b76 A07F     		.sleb128 -96
 17277 1b78 06       		.byte	0x6
 17278 1b79 1E       		.byte	0x1e
 17279 1b7a 91       		.byte	0x91
 17280 1b7b A07F     		.sleb128 -96
 17281 1b7d 06       		.byte	0x6
 17282 1b7e 33       		.byte	0x33
 17283 1b7f 1E       		.byte	0x1e
 17284 1b80 22       		.byte	0x22
 17285 1b81 86       		.byte	0x86
 17286 1b82 7C       		.sleb128 -4
 17287 1b83 0A       		.byte	0xa
 17288 1b84 FFFF     		.2byte	0xffff
 17289 1b86 1A       		.byte	0x1a
 17290 1b87 22       		.byte	0x22
 17291 1b88 23       		.byte	0x23
 17292 1b89 02       		.uleb128 0x2
 17293 1b8a 32       		.byte	0x32
 17294 1b8b 24       		.byte	0x24
 17295 1b8c 8F       		.byte	0x8f
 17296 1b8d 00       		.sleb128 0
 17297 1b8e 22       		.byte	0x22
 17298 1b8f 06       		.byte	0x6
 17299 1b90 48       		.byte	0x48
 17300 1b91 25       		.byte	0x25
 17301 1b92 4F       		.byte	0x4f
 17302 1b93 1E       		.byte	0x1e
 17303 1b94 A8       		.byte	0xa8
 17304 1b95 26       		.uleb128 0x26
 17305 1b96 08       		.byte	0x8
 17306 1b97 FF       		.byte	0xff
 17307 1b98 A8       		.byte	0xa8
 17308 1b99 26       		.uleb128 0x26
 17309 1b9a 1B       		.byte	0x1b
 17310 1b9b A8       		.byte	0xa8
 17311 1b9c 00       		.uleb128 0
 17312 1b9d 9F       		.byte	0x9f
 17313 1b9e 00       		.byte	0
 17314              	.LVUS152:
 17315 1b9f 0D       		.uleb128 .LVU2014
 17316 1ba0 0D       		.uleb128 .LVU2050
 17317 1ba1 0D       		.uleb128 .LVU2050
 17318 1ba2 0D       		.uleb128 .LVU2086
 17319 1ba3 0D       		.uleb128 .LVU2086
 17320 1ba4 0D       		.uleb128 .LVU2123
 17321 1ba5 0D       		.uleb128 .LVU2123
 17322 1ba6 00       		.uleb128 .LVU2146
 17323 1ba7 00       		.uleb128 .LVU2146
 17324 1ba8 00       		.uleb128 .LVU2148
 17325 1ba9 00       		.uleb128 .LVU2148
 17326 1baa 00       		.uleb128 .LVU2149
 17327              	.LLST152:
 17328 1bab 06       		.byte	0x6
 17329 1bac 00000000 		.4byte	.LVL242
 17330 1bb0 04       		.byte	0x4
 17331 1bb1 00       		.uleb128 .LVL242-.LVL242
 17332 1bb2 10       		.uleb128 .LVL243-.LVL242
 17333 1bb3 23       		.uleb128 0x23
 17334 1bb4 86       		.byte	0x86
 17335 1bb5 7C       		.sleb128 -4
 17336 1bb6 0A       		.byte	0xa
 17337 1bb7 FFFF     		.2byte	0xffff
 17338 1bb9 1A       		.byte	0x1a
 17339 1bba 84       		.byte	0x84
 17340 1bbb 00       		.sleb128 0
 17341 1bbc 22       		.byte	0x22
 17342 1bbd 23       		.byte	0x23
 17343 1bbe 02       		.uleb128 0x2
 17344 1bbf 32       		.byte	0x32
 17345 1bc0 24       		.byte	0x24
 17346 1bc1 8F       		.byte	0x8f
 17347 1bc2 00       		.sleb128 0
 17348 1bc3 22       		.byte	0x22
 17349 1bc4 06       		.byte	0x6
 17350 1bc5 40       		.byte	0x40
 17351 1bc6 25       		.byte	0x25
 17352 1bc7 08       		.byte	0x8
 17353 1bc8 FF       		.byte	0xff
 17354 1bc9 1A       		.byte	0x1a
 17355 1bca 08       		.byte	0x8
 17356 1bcb 3F       		.byte	0x3f
 17357 1bcc 1E       		.byte	0x1e
 17358 1bcd A8       		.byte	0xa8
 17359 1bce 26       		.uleb128 0x26
 17360 1bcf 08       		.byte	0x8
 17361 1bd0 FF       		.byte	0xff
 17362 1bd1 A8       		.byte	0xa8
 17363 1bd2 26       		.uleb128 0x26
 17364 1bd3 1B       		.byte	0x1b
 17365 1bd4 A8       		.byte	0xa8
 17366 1bd5 00       		.uleb128 0
 17367 1bd6 9F       		.byte	0x9f
 17368 1bd7 04       		.byte	0x4
 17369 1bd8 10       		.uleb128 .LVL243-.LVL242
 17370 1bd9 20       		.uleb128 .LVL244-.LVL242
 17371 1bda 23       		.uleb128 0x23
 17372 1bdb 86       		.byte	0x86
 17373 1bdc 7C       		.sleb128 -4
 17374 1bdd 0A       		.byte	0xa
 17375 1bde FFFF     		.2byte	0xffff
 17376 1be0 1A       		.byte	0x1a
 17377 1be1 82       		.byte	0x82
 17378 1be2 00       		.sleb128 0
 17379 1be3 22       		.byte	0x22
 17380 1be4 23       		.byte	0x23
 17381 1be5 02       		.uleb128 0x2
 17382 1be6 32       		.byte	0x32
 17383 1be7 24       		.byte	0x24
 17384 1be8 8F       		.byte	0x8f
 17385 1be9 00       		.sleb128 0
 17386 1bea 22       		.byte	0x22
 17387 1beb 06       		.byte	0x6
 17388 1bec 40       		.byte	0x40
 17389 1bed 25       		.byte	0x25
 17390 1bee 08       		.byte	0x8
 17391 1bef FF       		.byte	0xff
 17392 1bf0 1A       		.byte	0x1a
 17393 1bf1 08       		.byte	0x8
 17394 1bf2 3F       		.byte	0x3f
 17395 1bf3 1E       		.byte	0x1e
 17396 1bf4 A8       		.byte	0xa8
 17397 1bf5 26       		.uleb128 0x26
 17398 1bf6 08       		.byte	0x8
 17399 1bf7 FF       		.byte	0xff
 17400 1bf8 A8       		.byte	0xa8
 17401 1bf9 26       		.uleb128 0x26
 17402 1bfa 1B       		.byte	0x1b
 17403 1bfb A8       		.byte	0xa8
 17404 1bfc 00       		.uleb128 0
 17405 1bfd 9F       		.byte	0x9f
 17406 1bfe 04       		.byte	0x4
 17407 1bff 20       		.uleb128 .LVL244-.LVL242
 17408 1c00 30       		.uleb128 .LVL245-.LVL242
 17409 1c01 23       		.uleb128 0x23
 17410 1c02 86       		.byte	0x86
 17411 1c03 7C       		.sleb128 -4
 17412 1c04 0A       		.byte	0xa
 17413 1c05 FFFF     		.2byte	0xffff
 17414 1c07 1A       		.byte	0x1a
 17415 1c08 83       		.byte	0x83
 17416 1c09 00       		.sleb128 0
 17417 1c0a 22       		.byte	0x22
 17418 1c0b 23       		.byte	0x23
 17419 1c0c 02       		.uleb128 0x2
 17420 1c0d 32       		.byte	0x32
 17421 1c0e 24       		.byte	0x24
 17422 1c0f 8F       		.byte	0x8f
 17423 1c10 00       		.sleb128 0
 17424 1c11 22       		.byte	0x22
 17425 1c12 06       		.byte	0x6
 17426 1c13 40       		.byte	0x40
 17427 1c14 25       		.byte	0x25
 17428 1c15 08       		.byte	0x8
 17429 1c16 FF       		.byte	0xff
 17430 1c17 1A       		.byte	0x1a
 17431 1c18 08       		.byte	0x8
 17432 1c19 3F       		.byte	0x3f
 17433 1c1a 1E       		.byte	0x1e
 17434 1c1b A8       		.byte	0xa8
 17435 1c1c 26       		.uleb128 0x26
 17436 1c1d 08       		.byte	0x8
 17437 1c1e FF       		.byte	0xff
 17438 1c1f A8       		.byte	0xa8
 17439 1c20 26       		.uleb128 0x26
 17440 1c21 1B       		.byte	0x1b
 17441 1c22 A8       		.byte	0xa8
 17442 1c23 00       		.uleb128 0
 17443 1c24 9F       		.byte	0x9f
 17444 1c25 04       		.byte	0x4
 17445 1c26 30       		.uleb128 .LVL245-.LVL242
 17446 1c27 70       		.uleb128 .LVL248-.LVL242
 17447 1c28 23       		.uleb128 0x23
 17448 1c29 86       		.byte	0x86
 17449 1c2a 7C       		.sleb128 -4
 17450 1c2b 0A       		.byte	0xa
 17451 1c2c FFFF     		.2byte	0xffff
 17452 1c2e 1A       		.byte	0x1a
 17453 1c2f 80       		.byte	0x80
 17454 1c30 00       		.sleb128 0
 17455 1c31 22       		.byte	0x22
 17456 1c32 23       		.byte	0x23
 17457 1c33 02       		.uleb128 0x2
 17458 1c34 32       		.byte	0x32
 17459 1c35 24       		.byte	0x24
 17460 1c36 8F       		.byte	0x8f
 17461 1c37 00       		.sleb128 0
 17462 1c38 22       		.byte	0x22
 17463 1c39 06       		.byte	0x6
 17464 1c3a 40       		.byte	0x40
 17465 1c3b 25       		.byte	0x25
 17466 1c3c 08       		.byte	0x8
 17467 1c3d FF       		.byte	0xff
 17468 1c3e 1A       		.byte	0x1a
 17469 1c3f 08       		.byte	0x8
 17470 1c40 3F       		.byte	0x3f
 17471 1c41 1E       		.byte	0x1e
 17472 1c42 A8       		.byte	0xa8
 17473 1c43 26       		.uleb128 0x26
 17474 1c44 08       		.byte	0x8
 17475 1c45 FF       		.byte	0xff
 17476 1c46 A8       		.byte	0xa8
 17477 1c47 26       		.uleb128 0x26
 17478 1c48 1B       		.byte	0x1b
 17479 1c49 A8       		.byte	0xa8
 17480 1c4a 00       		.uleb128 0
 17481 1c4b 9F       		.byte	0x9f
 17482 1c4c 04       		.byte	0x4
 17483 1c4d 70       		.uleb128 .LVL248-.LVL242
 17484 1c4e 78       		.uleb128 .LVL250-.LVL242
 17485 1c4f 2A       		.uleb128 0x2a
 17486 1c50 91       		.byte	0x91
 17487 1c51 A07F     		.sleb128 -96
 17488 1c53 06       		.byte	0x6
 17489 1c54 31       		.byte	0x31
 17490 1c55 24       		.byte	0x24
 17491 1c56 86       		.byte	0x86
 17492 1c57 7C       		.sleb128 -4
 17493 1c58 0A       		.byte	0xa
 17494 1c59 FFFF     		.2byte	0xffff
 17495 1c5b 1A       		.byte	0x1a
 17496 1c5c 22       		.byte	0x22
 17497 1c5d 82       		.byte	0x82
 17498 1c5e 00       		.sleb128 0
 17499 1c5f 22       		.byte	0x22
 17500 1c60 23       		.byte	0x23
 17501 1c61 02       		.uleb128 0x2
 17502 1c62 32       		.byte	0x32
 17503 1c63 24       		.byte	0x24
 17504 1c64 8F       		.byte	0x8f
 17505 1c65 00       		.sleb128 0
 17506 1c66 22       		.byte	0x22
 17507 1c67 06       		.byte	0x6
 17508 1c68 40       		.byte	0x40
 17509 1c69 25       		.byte	0x25
 17510 1c6a 08       		.byte	0x8
 17511 1c6b FF       		.byte	0xff
 17512 1c6c 1A       		.byte	0x1a
 17513 1c6d 08       		.byte	0x8
 17514 1c6e 3F       		.byte	0x3f
 17515 1c6f 1E       		.byte	0x1e
 17516 1c70 A8       		.byte	0xa8
 17517 1c71 26       		.uleb128 0x26
 17518 1c72 08       		.byte	0x8
 17519 1c73 FF       		.byte	0xff
 17520 1c74 A8       		.byte	0xa8
 17521 1c75 26       		.uleb128 0x26
 17522 1c76 1B       		.byte	0x1b
 17523 1c77 A8       		.byte	0xa8
 17524 1c78 00       		.uleb128 0
 17525 1c79 9F       		.byte	0x9f
 17526 1c7a 04       		.byte	0x4
 17527 1c7b 78       		.uleb128 .LVL250-.LVL242
 17528 1c7c 7C       		.uleb128 .LVL251-.LVL242
 17529 1c7d 36       		.uleb128 0x36
 17530 1c7e 91       		.byte	0x91
 17531 1c7f A47F     		.sleb128 -92
 17532 1c81 94       		.byte	0x94
 17533 1c82 02       		.byte	0x2
 17534 1c83 0A       		.byte	0xa
 17535 1c84 FFFF     		.2byte	0xffff
 17536 1c86 1A       		.byte	0x1a
 17537 1c87 91       		.byte	0x91
 17538 1c88 A07F     		.sleb128 -96
 17539 1c8a 06       		.byte	0x6
 17540 1c8b 1E       		.byte	0x1e
 17541 1c8c 91       		.byte	0x91
 17542 1c8d A07F     		.sleb128 -96
 17543 1c8f 06       		.byte	0x6
 17544 1c90 33       		.byte	0x33
 17545 1c91 1E       		.byte	0x1e
 17546 1c92 22       		.byte	0x22
 17547 1c93 86       		.byte	0x86
 17548 1c94 7C       		.sleb128 -4
 17549 1c95 0A       		.byte	0xa
 17550 1c96 FFFF     		.2byte	0xffff
 17551 1c98 1A       		.byte	0x1a
 17552 1c99 22       		.byte	0x22
 17553 1c9a 23       		.byte	0x23
 17554 1c9b 02       		.uleb128 0x2
 17555 1c9c 32       		.byte	0x32
 17556 1c9d 24       		.byte	0x24
 17557 1c9e 8F       		.byte	0x8f
 17558 1c9f 00       		.sleb128 0
 17559 1ca0 22       		.byte	0x22
 17560 1ca1 06       		.byte	0x6
 17561 1ca2 40       		.byte	0x40
 17562 1ca3 25       		.byte	0x25
 17563 1ca4 08       		.byte	0x8
 17564 1ca5 FF       		.byte	0xff
 17565 1ca6 1A       		.byte	0x1a
 17566 1ca7 08       		.byte	0x8
 17567 1ca8 3F       		.byte	0x3f
 17568 1ca9 1E       		.byte	0x1e
 17569 1caa A8       		.byte	0xa8
 17570 1cab 26       		.uleb128 0x26
 17571 1cac 08       		.byte	0x8
 17572 1cad FF       		.byte	0xff
 17573 1cae A8       		.byte	0xa8
 17574 1caf 26       		.uleb128 0x26
 17575 1cb0 1B       		.byte	0x1b
 17576 1cb1 A8       		.byte	0xa8
 17577 1cb2 00       		.uleb128 0
 17578 1cb3 9F       		.byte	0x9f
 17579 1cb4 00       		.byte	0
 17580              	.LVUS153:
 17581 1cb5 0E       		.uleb128 .LVU2015
 17582 1cb6 0E       		.uleb128 .LVU2051
 17583 1cb7 0E       		.uleb128 .LVU2051
 17584 1cb8 0E       		.uleb128 .LVU2087
 17585 1cb9 0E       		.uleb128 .LVU2087
 17586 1cba 0E       		.uleb128 .LVU2124
 17587 1cbb 0E       		.uleb128 .LVU2124
 17588 1cbc 00       		.uleb128 .LVU2146
 17589 1cbd 00       		.uleb128 .LVU2146
 17590 1cbe 00       		.uleb128 .LVU2148
 17591 1cbf 00       		.uleb128 .LVU2148
 17592 1cc0 00       		.uleb128 .LVU2149
 17593              	.LLST153:
 17594 1cc1 06       		.byte	0x6
 17595 1cc2 00000000 		.4byte	.LVL242
 17596 1cc6 04       		.byte	0x4
 17597 1cc7 00       		.uleb128 .LVL242-.LVL242
 17598 1cc8 10       		.uleb128 .LVL243-.LVL242
 17599 1cc9 22       		.uleb128 0x22
 17600 1cca 86       		.byte	0x86
 17601 1ccb 7C       		.sleb128 -4
 17602 1ccc 0A       		.byte	0xa
 17603 1ccd FFFF     		.2byte	0xffff
 17604 1ccf 1A       		.byte	0x1a
 17605 1cd0 84       		.byte	0x84
 17606 1cd1 00       		.sleb128 0
 17607 1cd2 22       		.byte	0x22
 17608 1cd3 23       		.byte	0x23
 17609 1cd4 02       		.uleb128 0x2
 17610 1cd5 32       		.byte	0x32
 17611 1cd6 24       		.byte	0x24
 17612 1cd7 8F       		.byte	0x8f
 17613 1cd8 00       		.sleb128 0
 17614 1cd9 22       		.byte	0x22
 17615 1cda 06       		.byte	0x6
 17616 1cdb 38       		.byte	0x38
 17617 1cdc 25       		.byte	0x25
 17618 1cdd 08       		.byte	0x8
 17619 1cde FF       		.byte	0xff
 17620 1cdf 1A       		.byte	0x1a
 17621 1ce0 4F       		.byte	0x4f
 17622 1ce1 1E       		.byte	0x1e
 17623 1ce2 A8       		.byte	0xa8
 17624 1ce3 26       		.uleb128 0x26
 17625 1ce4 08       		.byte	0x8
 17626 1ce5 FF       		.byte	0xff
 17627 1ce6 A8       		.byte	0xa8
 17628 1ce7 26       		.uleb128 0x26
 17629 1ce8 1B       		.byte	0x1b
 17630 1ce9 A8       		.byte	0xa8
 17631 1cea 00       		.uleb128 0
 17632 1ceb 9F       		.byte	0x9f
 17633 1cec 04       		.byte	0x4
 17634 1ced 10       		.uleb128 .LVL243-.LVL242
 17635 1cee 20       		.uleb128 .LVL244-.LVL242
 17636 1cef 22       		.uleb128 0x22
 17637 1cf0 86       		.byte	0x86
 17638 1cf1 7C       		.sleb128 -4
 17639 1cf2 0A       		.byte	0xa
 17640 1cf3 FFFF     		.2byte	0xffff
 17641 1cf5 1A       		.byte	0x1a
 17642 1cf6 82       		.byte	0x82
 17643 1cf7 00       		.sleb128 0
 17644 1cf8 22       		.byte	0x22
 17645 1cf9 23       		.byte	0x23
 17646 1cfa 02       		.uleb128 0x2
 17647 1cfb 32       		.byte	0x32
 17648 1cfc 24       		.byte	0x24
 17649 1cfd 8F       		.byte	0x8f
 17650 1cfe 00       		.sleb128 0
 17651 1cff 22       		.byte	0x22
 17652 1d00 06       		.byte	0x6
 17653 1d01 38       		.byte	0x38
 17654 1d02 25       		.byte	0x25
 17655 1d03 08       		.byte	0x8
 17656 1d04 FF       		.byte	0xff
 17657 1d05 1A       		.byte	0x1a
 17658 1d06 4F       		.byte	0x4f
 17659 1d07 1E       		.byte	0x1e
 17660 1d08 A8       		.byte	0xa8
 17661 1d09 26       		.uleb128 0x26
 17662 1d0a 08       		.byte	0x8
 17663 1d0b FF       		.byte	0xff
 17664 1d0c A8       		.byte	0xa8
 17665 1d0d 26       		.uleb128 0x26
 17666 1d0e 1B       		.byte	0x1b
 17667 1d0f A8       		.byte	0xa8
 17668 1d10 00       		.uleb128 0
 17669 1d11 9F       		.byte	0x9f
 17670 1d12 04       		.byte	0x4
 17671 1d13 20       		.uleb128 .LVL244-.LVL242
 17672 1d14 30       		.uleb128 .LVL245-.LVL242
 17673 1d15 22       		.uleb128 0x22
 17674 1d16 86       		.byte	0x86
 17675 1d17 7C       		.sleb128 -4
 17676 1d18 0A       		.byte	0xa
 17677 1d19 FFFF     		.2byte	0xffff
 17678 1d1b 1A       		.byte	0x1a
 17679 1d1c 83       		.byte	0x83
 17680 1d1d 00       		.sleb128 0
 17681 1d1e 22       		.byte	0x22
 17682 1d1f 23       		.byte	0x23
 17683 1d20 02       		.uleb128 0x2
 17684 1d21 32       		.byte	0x32
 17685 1d22 24       		.byte	0x24
 17686 1d23 8F       		.byte	0x8f
 17687 1d24 00       		.sleb128 0
 17688 1d25 22       		.byte	0x22
 17689 1d26 06       		.byte	0x6
 17690 1d27 38       		.byte	0x38
 17691 1d28 25       		.byte	0x25
 17692 1d29 08       		.byte	0x8
 17693 1d2a FF       		.byte	0xff
 17694 1d2b 1A       		.byte	0x1a
 17695 1d2c 4F       		.byte	0x4f
 17696 1d2d 1E       		.byte	0x1e
 17697 1d2e A8       		.byte	0xa8
 17698 1d2f 26       		.uleb128 0x26
 17699 1d30 08       		.byte	0x8
 17700 1d31 FF       		.byte	0xff
 17701 1d32 A8       		.byte	0xa8
 17702 1d33 26       		.uleb128 0x26
 17703 1d34 1B       		.byte	0x1b
 17704 1d35 A8       		.byte	0xa8
 17705 1d36 00       		.uleb128 0
 17706 1d37 9F       		.byte	0x9f
 17707 1d38 04       		.byte	0x4
 17708 1d39 30       		.uleb128 .LVL245-.LVL242
 17709 1d3a 70       		.uleb128 .LVL248-.LVL242
 17710 1d3b 22       		.uleb128 0x22
 17711 1d3c 86       		.byte	0x86
 17712 1d3d 7C       		.sleb128 -4
 17713 1d3e 0A       		.byte	0xa
 17714 1d3f FFFF     		.2byte	0xffff
 17715 1d41 1A       		.byte	0x1a
 17716 1d42 80       		.byte	0x80
 17717 1d43 00       		.sleb128 0
 17718 1d44 22       		.byte	0x22
 17719 1d45 23       		.byte	0x23
 17720 1d46 02       		.uleb128 0x2
 17721 1d47 32       		.byte	0x32
 17722 1d48 24       		.byte	0x24
 17723 1d49 8F       		.byte	0x8f
 17724 1d4a 00       		.sleb128 0
 17725 1d4b 22       		.byte	0x22
 17726 1d4c 06       		.byte	0x6
 17727 1d4d 38       		.byte	0x38
 17728 1d4e 25       		.byte	0x25
 17729 1d4f 08       		.byte	0x8
 17730 1d50 FF       		.byte	0xff
 17731 1d51 1A       		.byte	0x1a
 17732 1d52 4F       		.byte	0x4f
 17733 1d53 1E       		.byte	0x1e
 17734 1d54 A8       		.byte	0xa8
 17735 1d55 26       		.uleb128 0x26
 17736 1d56 08       		.byte	0x8
 17737 1d57 FF       		.byte	0xff
 17738 1d58 A8       		.byte	0xa8
 17739 1d59 26       		.uleb128 0x26
 17740 1d5a 1B       		.byte	0x1b
 17741 1d5b A8       		.byte	0xa8
 17742 1d5c 00       		.uleb128 0
 17743 1d5d 9F       		.byte	0x9f
 17744 1d5e 04       		.byte	0x4
 17745 1d5f 70       		.uleb128 .LVL248-.LVL242
 17746 1d60 78       		.uleb128 .LVL250-.LVL242
 17747 1d61 29       		.uleb128 0x29
 17748 1d62 91       		.byte	0x91
 17749 1d63 A07F     		.sleb128 -96
 17750 1d65 06       		.byte	0x6
 17751 1d66 31       		.byte	0x31
 17752 1d67 24       		.byte	0x24
 17753 1d68 86       		.byte	0x86
 17754 1d69 7C       		.sleb128 -4
 17755 1d6a 0A       		.byte	0xa
 17756 1d6b FFFF     		.2byte	0xffff
 17757 1d6d 1A       		.byte	0x1a
 17758 1d6e 22       		.byte	0x22
 17759 1d6f 82       		.byte	0x82
 17760 1d70 00       		.sleb128 0
 17761 1d71 22       		.byte	0x22
 17762 1d72 23       		.byte	0x23
 17763 1d73 02       		.uleb128 0x2
 17764 1d74 32       		.byte	0x32
 17765 1d75 24       		.byte	0x24
 17766 1d76 8F       		.byte	0x8f
 17767 1d77 00       		.sleb128 0
 17768 1d78 22       		.byte	0x22
 17769 1d79 06       		.byte	0x6
 17770 1d7a 38       		.byte	0x38
 17771 1d7b 25       		.byte	0x25
 17772 1d7c 08       		.byte	0x8
 17773 1d7d FF       		.byte	0xff
 17774 1d7e 1A       		.byte	0x1a
 17775 1d7f 4F       		.byte	0x4f
 17776 1d80 1E       		.byte	0x1e
 17777 1d81 A8       		.byte	0xa8
 17778 1d82 26       		.uleb128 0x26
 17779 1d83 08       		.byte	0x8
 17780 1d84 FF       		.byte	0xff
 17781 1d85 A8       		.byte	0xa8
 17782 1d86 26       		.uleb128 0x26
 17783 1d87 1B       		.byte	0x1b
 17784 1d88 A8       		.byte	0xa8
 17785 1d89 00       		.uleb128 0
 17786 1d8a 9F       		.byte	0x9f
 17787 1d8b 04       		.byte	0x4
 17788 1d8c 78       		.uleb128 .LVL250-.LVL242
 17789 1d8d 7C       		.uleb128 .LVL251-.LVL242
 17790 1d8e 35       		.uleb128 0x35
 17791 1d8f 91       		.byte	0x91
 17792 1d90 A47F     		.sleb128 -92
 17793 1d92 94       		.byte	0x94
 17794 1d93 02       		.byte	0x2
 17795 1d94 0A       		.byte	0xa
 17796 1d95 FFFF     		.2byte	0xffff
 17797 1d97 1A       		.byte	0x1a
 17798 1d98 91       		.byte	0x91
 17799 1d99 A07F     		.sleb128 -96
 17800 1d9b 06       		.byte	0x6
 17801 1d9c 1E       		.byte	0x1e
 17802 1d9d 91       		.byte	0x91
 17803 1d9e A07F     		.sleb128 -96
 17804 1da0 06       		.byte	0x6
 17805 1da1 33       		.byte	0x33
 17806 1da2 1E       		.byte	0x1e
 17807 1da3 22       		.byte	0x22
 17808 1da4 86       		.byte	0x86
 17809 1da5 7C       		.sleb128 -4
 17810 1da6 0A       		.byte	0xa
 17811 1da7 FFFF     		.2byte	0xffff
 17812 1da9 1A       		.byte	0x1a
 17813 1daa 22       		.byte	0x22
 17814 1dab 23       		.byte	0x23
 17815 1dac 02       		.uleb128 0x2
 17816 1dad 32       		.byte	0x32
 17817 1dae 24       		.byte	0x24
 17818 1daf 8F       		.byte	0x8f
 17819 1db0 00       		.sleb128 0
 17820 1db1 22       		.byte	0x22
 17821 1db2 06       		.byte	0x6
 17822 1db3 38       		.byte	0x38
 17823 1db4 25       		.byte	0x25
 17824 1db5 08       		.byte	0x8
 17825 1db6 FF       		.byte	0xff
 17826 1db7 1A       		.byte	0x1a
 17827 1db8 4F       		.byte	0x4f
 17828 1db9 1E       		.byte	0x1e
 17829 1dba A8       		.byte	0xa8
 17830 1dbb 26       		.uleb128 0x26
 17831 1dbc 08       		.byte	0x8
 17832 1dbd FF       		.byte	0xff
 17833 1dbe A8       		.byte	0xa8
 17834 1dbf 26       		.uleb128 0x26
 17835 1dc0 1B       		.byte	0x1b
 17836 1dc1 A8       		.byte	0xa8
 17837 1dc2 00       		.uleb128 0
 17838 1dc3 9F       		.byte	0x9f
 17839 1dc4 00       		.byte	0
 17840              	.LVUS155:
 17841 1dc5 11       		.uleb128 .LVU2018
 17842 1dc6 17       		.uleb128 .LVU2024
 17843 1dc7 11       		.uleb128 .LVU2054
 17844 1dc8 17       		.uleb128 .LVU2060
 17845 1dc9 11       		.uleb128 .LVU2090
 17846 1dca 17       		.uleb128 .LVU2096
 17847 1dcb 11       		.uleb128 .LVU2127
 17848 1dcc 17       		.uleb128 .LVU2133
 17849              	.LLST155:
 17850 1dcd 08       		.byte	0x8
 17851 1dce 00000000 		.4byte	.LVL242
 17852 1dd2 00       		.uleb128 .LVL242-.LVL242
 17853 1dd3 10       		.uleb128 0x10
 17854 1dd4 86       		.byte	0x86
 17855 1dd5 7C       		.sleb128 -4
 17856 1dd6 0A       		.byte	0xa
 17857 1dd7 FFFF     		.2byte	0xffff
 17858 1dd9 1A       		.byte	0x1a
 17859 1dda 84       		.byte	0x84
 17860 1ddb 00       		.sleb128 0
 17861 1ddc 22       		.byte	0x22
 17862 1ddd 23       		.byte	0x23
 17863 1dde 03       		.uleb128 0x3
 17864 1ddf 32       		.byte	0x32
 17865 1de0 24       		.byte	0x24
 17866 1de1 8F       		.byte	0x8f
 17867 1de2 00       		.sleb128 0
 17868 1de3 22       		.byte	0x22
 17869 1de4 08       		.byte	0x8
 17870 1de5 00000000 		.4byte	.LVL243
 17871 1de9 00       		.uleb128 .LVL243-.LVL243
 17872 1dea 10       		.uleb128 0x10
 17873 1deb 86       		.byte	0x86
 17874 1dec 7C       		.sleb128 -4
 17875 1ded 0A       		.byte	0xa
 17876 1dee FFFF     		.2byte	0xffff
 17877 1df0 1A       		.byte	0x1a
 17878 1df1 82       		.byte	0x82
 17879 1df2 00       		.sleb128 0
 17880 1df3 22       		.byte	0x22
 17881 1df4 23       		.byte	0x23
 17882 1df5 03       		.uleb128 0x3
 17883 1df6 32       		.byte	0x32
 17884 1df7 24       		.byte	0x24
 17885 1df8 8F       		.byte	0x8f
 17886 1df9 00       		.sleb128 0
 17887 1dfa 22       		.byte	0x22
 17888 1dfb 08       		.byte	0x8
 17889 1dfc 00000000 		.4byte	.LVL244
 17890 1e00 00       		.uleb128 .LVL244-.LVL244
 17891 1e01 10       		.uleb128 0x10
 17892 1e02 86       		.byte	0x86
 17893 1e03 7C       		.sleb128 -4
 17894 1e04 0A       		.byte	0xa
 17895 1e05 FFFF     		.2byte	0xffff
 17896 1e07 1A       		.byte	0x1a
 17897 1e08 83       		.byte	0x83
 17898 1e09 00       		.sleb128 0
 17899 1e0a 22       		.byte	0x22
 17900 1e0b 23       		.byte	0x23
 17901 1e0c 03       		.uleb128 0x3
 17902 1e0d 32       		.byte	0x32
 17903 1e0e 24       		.byte	0x24
 17904 1e0f 8F       		.byte	0x8f
 17905 1e10 00       		.sleb128 0
 17906 1e11 22       		.byte	0x22
 17907 1e12 08       		.byte	0x8
 17908 1e13 00000000 		.4byte	.LVL245
 17909 1e17 00       		.uleb128 .LVL245-.LVL245
 17910 1e18 10       		.uleb128 0x10
 17911 1e19 86       		.byte	0x86
 17912 1e1a 7C       		.sleb128 -4
 17913 1e1b 0A       		.byte	0xa
 17914 1e1c FFFF     		.2byte	0xffff
 17915 1e1e 1A       		.byte	0x1a
 17916 1e1f 80       		.byte	0x80
 17917 1e20 00       		.sleb128 0
 17918 1e21 22       		.byte	0x22
 17919 1e22 23       		.byte	0x23
 17920 1e23 03       		.uleb128 0x3
 17921 1e24 32       		.byte	0x32
 17922 1e25 24       		.byte	0x24
 17923 1e26 8F       		.byte	0x8f
 17924 1e27 00       		.sleb128 0
 17925 1e28 22       		.byte	0x22
 17926 1e29 00       		.byte	0
 17927              	.LVUS156:
 17928 1e2a 14       		.uleb128 .LVU2021
 17929 1e2b 14       		.uleb128 .LVU2057
 17930 1e2c 14       		.uleb128 .LVU2057
 17931 1e2d 14       		.uleb128 .LVU2093
 17932 1e2e 14       		.uleb128 .LVU2093
 17933 1e2f 14       		.uleb128 .LVU2130
 17934 1e30 14       		.uleb128 .LVU2130
 17935 1e31 00       		.uleb128 .LVU2146
 17936 1e32 00       		.uleb128 .LVU2146
 17937 1e33 00       		.uleb128 .LVU2148
 17938 1e34 00       		.uleb128 .LVU2148
 17939 1e35 00       		.uleb128 .LVU2149
 17940              	.LLST156:
 17941 1e36 06       		.byte	0x6
 17942 1e37 00000000 		.4byte	.LVL242
 17943 1e3b 04       		.byte	0x4
 17944 1e3c 00       		.uleb128 .LVL242-.LVL242
 17945 1e3d 10       		.uleb128 .LVL243-.LVL242
 17946 1e3e 1F       		.uleb128 0x1f
 17947 1e3f 86       		.byte	0x86
 17948 1e40 7C       		.sleb128 -4
 17949 1e41 0A       		.byte	0xa
 17950 1e42 FFFF     		.2byte	0xffff
 17951 1e44 1A       		.byte	0x1a
 17952 1e45 84       		.byte	0x84
 17953 1e46 00       		.sleb128 0
 17954 1e47 22       		.byte	0x22
 17955 1e48 23       		.byte	0x23
 17956 1e49 03       		.uleb128 0x3
 17957 1e4a 32       		.byte	0x32
 17958 1e4b 24       		.byte	0x24
 17959 1e4c 8F       		.byte	0x8f
 17960 1e4d 00       		.sleb128 0
 17961 1e4e 22       		.byte	0x22
 17962 1e4f 06       		.byte	0x6
 17963 1e50 48       		.byte	0x48
 17964 1e51 25       		.byte	0x25
 17965 1e52 4F       		.byte	0x4f
 17966 1e53 1E       		.byte	0x1e
 17967 1e54 A8       		.byte	0xa8
 17968 1e55 26       		.uleb128 0x26
 17969 1e56 08       		.byte	0x8
 17970 1e57 FF       		.byte	0xff
 17971 1e58 A8       		.byte	0xa8
 17972 1e59 26       		.uleb128 0x26
 17973 1e5a 1B       		.byte	0x1b
 17974 1e5b A8       		.byte	0xa8
 17975 1e5c 00       		.uleb128 0
 17976 1e5d 9F       		.byte	0x9f
 17977 1e5e 04       		.byte	0x4
 17978 1e5f 10       		.uleb128 .LVL243-.LVL242
 17979 1e60 20       		.uleb128 .LVL244-.LVL242
 17980 1e61 1F       		.uleb128 0x1f
 17981 1e62 86       		.byte	0x86
 17982 1e63 7C       		.sleb128 -4
 17983 1e64 0A       		.byte	0xa
 17984 1e65 FFFF     		.2byte	0xffff
 17985 1e67 1A       		.byte	0x1a
 17986 1e68 82       		.byte	0x82
 17987 1e69 00       		.sleb128 0
 17988 1e6a 22       		.byte	0x22
 17989 1e6b 23       		.byte	0x23
 17990 1e6c 03       		.uleb128 0x3
 17991 1e6d 32       		.byte	0x32
 17992 1e6e 24       		.byte	0x24
 17993 1e6f 8F       		.byte	0x8f
 17994 1e70 00       		.sleb128 0
 17995 1e71 22       		.byte	0x22
 17996 1e72 06       		.byte	0x6
 17997 1e73 48       		.byte	0x48
 17998 1e74 25       		.byte	0x25
 17999 1e75 4F       		.byte	0x4f
 18000 1e76 1E       		.byte	0x1e
 18001 1e77 A8       		.byte	0xa8
 18002 1e78 26       		.uleb128 0x26
 18003 1e79 08       		.byte	0x8
 18004 1e7a FF       		.byte	0xff
 18005 1e7b A8       		.byte	0xa8
 18006 1e7c 26       		.uleb128 0x26
 18007 1e7d 1B       		.byte	0x1b
 18008 1e7e A8       		.byte	0xa8
 18009 1e7f 00       		.uleb128 0
 18010 1e80 9F       		.byte	0x9f
 18011 1e81 04       		.byte	0x4
 18012 1e82 20       		.uleb128 .LVL244-.LVL242
 18013 1e83 30       		.uleb128 .LVL245-.LVL242
 18014 1e84 1F       		.uleb128 0x1f
 18015 1e85 86       		.byte	0x86
 18016 1e86 7C       		.sleb128 -4
 18017 1e87 0A       		.byte	0xa
 18018 1e88 FFFF     		.2byte	0xffff
 18019 1e8a 1A       		.byte	0x1a
 18020 1e8b 83       		.byte	0x83
 18021 1e8c 00       		.sleb128 0
 18022 1e8d 22       		.byte	0x22
 18023 1e8e 23       		.byte	0x23
 18024 1e8f 03       		.uleb128 0x3
 18025 1e90 32       		.byte	0x32
 18026 1e91 24       		.byte	0x24
 18027 1e92 8F       		.byte	0x8f
 18028 1e93 00       		.sleb128 0
 18029 1e94 22       		.byte	0x22
 18030 1e95 06       		.byte	0x6
 18031 1e96 48       		.byte	0x48
 18032 1e97 25       		.byte	0x25
 18033 1e98 4F       		.byte	0x4f
 18034 1e99 1E       		.byte	0x1e
 18035 1e9a A8       		.byte	0xa8
 18036 1e9b 26       		.uleb128 0x26
 18037 1e9c 08       		.byte	0x8
 18038 1e9d FF       		.byte	0xff
 18039 1e9e A8       		.byte	0xa8
 18040 1e9f 26       		.uleb128 0x26
 18041 1ea0 1B       		.byte	0x1b
 18042 1ea1 A8       		.byte	0xa8
 18043 1ea2 00       		.uleb128 0
 18044 1ea3 9F       		.byte	0x9f
 18045 1ea4 04       		.byte	0x4
 18046 1ea5 30       		.uleb128 .LVL245-.LVL242
 18047 1ea6 70       		.uleb128 .LVL248-.LVL242
 18048 1ea7 1F       		.uleb128 0x1f
 18049 1ea8 86       		.byte	0x86
 18050 1ea9 7C       		.sleb128 -4
 18051 1eaa 0A       		.byte	0xa
 18052 1eab FFFF     		.2byte	0xffff
 18053 1ead 1A       		.byte	0x1a
 18054 1eae 80       		.byte	0x80
 18055 1eaf 00       		.sleb128 0
 18056 1eb0 22       		.byte	0x22
 18057 1eb1 23       		.byte	0x23
 18058 1eb2 03       		.uleb128 0x3
 18059 1eb3 32       		.byte	0x32
 18060 1eb4 24       		.byte	0x24
 18061 1eb5 8F       		.byte	0x8f
 18062 1eb6 00       		.sleb128 0
 18063 1eb7 22       		.byte	0x22
 18064 1eb8 06       		.byte	0x6
 18065 1eb9 48       		.byte	0x48
 18066 1eba 25       		.byte	0x25
 18067 1ebb 4F       		.byte	0x4f
 18068 1ebc 1E       		.byte	0x1e
 18069 1ebd A8       		.byte	0xa8
 18070 1ebe 26       		.uleb128 0x26
 18071 1ebf 08       		.byte	0x8
 18072 1ec0 FF       		.byte	0xff
 18073 1ec1 A8       		.byte	0xa8
 18074 1ec2 26       		.uleb128 0x26
 18075 1ec3 1B       		.byte	0x1b
 18076 1ec4 A8       		.byte	0xa8
 18077 1ec5 00       		.uleb128 0
 18078 1ec6 9F       		.byte	0x9f
 18079 1ec7 04       		.byte	0x4
 18080 1ec8 70       		.uleb128 .LVL248-.LVL242
 18081 1ec9 78       		.uleb128 .LVL250-.LVL242
 18082 1eca 26       		.uleb128 0x26
 18083 1ecb 91       		.byte	0x91
 18084 1ecc A07F     		.sleb128 -96
 18085 1ece 06       		.byte	0x6
 18086 1ecf 31       		.byte	0x31
 18087 1ed0 24       		.byte	0x24
 18088 1ed1 86       		.byte	0x86
 18089 1ed2 7C       		.sleb128 -4
 18090 1ed3 0A       		.byte	0xa
 18091 1ed4 FFFF     		.2byte	0xffff
 18092 1ed6 1A       		.byte	0x1a
 18093 1ed7 22       		.byte	0x22
 18094 1ed8 82       		.byte	0x82
 18095 1ed9 00       		.sleb128 0
 18096 1eda 22       		.byte	0x22
 18097 1edb 23       		.byte	0x23
 18098 1edc 03       		.uleb128 0x3
 18099 1edd 32       		.byte	0x32
 18100 1ede 24       		.byte	0x24
 18101 1edf 8F       		.byte	0x8f
 18102 1ee0 00       		.sleb128 0
 18103 1ee1 22       		.byte	0x22
 18104 1ee2 06       		.byte	0x6
 18105 1ee3 48       		.byte	0x48
 18106 1ee4 25       		.byte	0x25
 18107 1ee5 4F       		.byte	0x4f
 18108 1ee6 1E       		.byte	0x1e
 18109 1ee7 A8       		.byte	0xa8
 18110 1ee8 26       		.uleb128 0x26
 18111 1ee9 08       		.byte	0x8
 18112 1eea FF       		.byte	0xff
 18113 1eeb A8       		.byte	0xa8
 18114 1eec 26       		.uleb128 0x26
 18115 1eed 1B       		.byte	0x1b
 18116 1eee A8       		.byte	0xa8
 18117 1eef 00       		.uleb128 0
 18118 1ef0 9F       		.byte	0x9f
 18119 1ef1 04       		.byte	0x4
 18120 1ef2 78       		.uleb128 .LVL250-.LVL242
 18121 1ef3 7C       		.uleb128 .LVL251-.LVL242
 18122 1ef4 32       		.uleb128 0x32
 18123 1ef5 91       		.byte	0x91
 18124 1ef6 A47F     		.sleb128 -92
 18125 1ef8 94       		.byte	0x94
 18126 1ef9 02       		.byte	0x2
 18127 1efa 0A       		.byte	0xa
 18128 1efb FFFF     		.2byte	0xffff
 18129 1efd 1A       		.byte	0x1a
 18130 1efe 91       		.byte	0x91
 18131 1eff A07F     		.sleb128 -96
 18132 1f01 06       		.byte	0x6
 18133 1f02 1E       		.byte	0x1e
 18134 1f03 91       		.byte	0x91
 18135 1f04 A07F     		.sleb128 -96
 18136 1f06 06       		.byte	0x6
 18137 1f07 33       		.byte	0x33
 18138 1f08 1E       		.byte	0x1e
 18139 1f09 22       		.byte	0x22
 18140 1f0a 86       		.byte	0x86
 18141 1f0b 7C       		.sleb128 -4
 18142 1f0c 0A       		.byte	0xa
 18143 1f0d FFFF     		.2byte	0xffff
 18144 1f0f 1A       		.byte	0x1a
 18145 1f10 22       		.byte	0x22
 18146 1f11 23       		.byte	0x23
 18147 1f12 03       		.uleb128 0x3
 18148 1f13 32       		.byte	0x32
 18149 1f14 24       		.byte	0x24
 18150 1f15 8F       		.byte	0x8f
 18151 1f16 00       		.sleb128 0
 18152 1f17 22       		.byte	0x22
 18153 1f18 06       		.byte	0x6
 18154 1f19 48       		.byte	0x48
 18155 1f1a 25       		.byte	0x25
 18156 1f1b 4F       		.byte	0x4f
 18157 1f1c 1E       		.byte	0x1e
 18158 1f1d A8       		.byte	0xa8
 18159 1f1e 26       		.uleb128 0x26
 18160 1f1f 08       		.byte	0x8
 18161 1f20 FF       		.byte	0xff
 18162 1f21 A8       		.byte	0xa8
 18163 1f22 26       		.uleb128 0x26
 18164 1f23 1B       		.byte	0x1b
 18165 1f24 A8       		.byte	0xa8
 18166 1f25 00       		.uleb128 0
 18167 1f26 9F       		.byte	0x9f
 18168 1f27 00       		.byte	0
 18169              	.LVUS157:
 18170 1f28 15       		.uleb128 .LVU2022
 18171 1f29 15       		.uleb128 .LVU2058
 18172 1f2a 15       		.uleb128 .LVU2058
 18173 1f2b 15       		.uleb128 .LVU2094
 18174 1f2c 15       		.uleb128 .LVU2094
 18175 1f2d 15       		.uleb128 .LVU2131
 18176 1f2e 15       		.uleb128 .LVU2131
 18177 1f2f 00       		.uleb128 .LVU2146
 18178 1f30 00       		.uleb128 .LVU2146
 18179 1f31 00       		.uleb128 .LVU2148
 18180 1f32 00       		.uleb128 .LVU2148
 18181 1f33 00       		.uleb128 .LVU2149
 18182              	.LLST157:
 18183 1f34 06       		.byte	0x6
 18184 1f35 00000000 		.4byte	.LVL242
 18185 1f39 04       		.byte	0x4
 18186 1f3a 00       		.uleb128 .LVL242-.LVL242
 18187 1f3b 10       		.uleb128 .LVL243-.LVL242
 18188 1f3c 23       		.uleb128 0x23
 18189 1f3d 86       		.byte	0x86
 18190 1f3e 7C       		.sleb128 -4
 18191 1f3f 0A       		.byte	0xa
 18192 1f40 FFFF     		.2byte	0xffff
 18193 1f42 1A       		.byte	0x1a
 18194 1f43 84       		.byte	0x84
 18195 1f44 00       		.sleb128 0
 18196 1f45 22       		.byte	0x22
 18197 1f46 23       		.byte	0x23
 18198 1f47 03       		.uleb128 0x3
 18199 1f48 32       		.byte	0x32
 18200 1f49 24       		.byte	0x24
 18201 1f4a 8F       		.byte	0x8f
 18202 1f4b 00       		.sleb128 0
 18203 1f4c 22       		.byte	0x22
 18204 1f4d 06       		.byte	0x6
 18205 1f4e 40       		.byte	0x40
 18206 1f4f 25       		.byte	0x25
 18207 1f50 08       		.byte	0x8
 18208 1f51 FF       		.byte	0xff
 18209 1f52 1A       		.byte	0x1a
 18210 1f53 08       		.byte	0x8
 18211 1f54 3F       		.byte	0x3f
 18212 1f55 1E       		.byte	0x1e
 18213 1f56 A8       		.byte	0xa8
 18214 1f57 26       		.uleb128 0x26
 18215 1f58 08       		.byte	0x8
 18216 1f59 FF       		.byte	0xff
 18217 1f5a A8       		.byte	0xa8
 18218 1f5b 26       		.uleb128 0x26
 18219 1f5c 1B       		.byte	0x1b
 18220 1f5d A8       		.byte	0xa8
 18221 1f5e 00       		.uleb128 0
 18222 1f5f 9F       		.byte	0x9f
 18223 1f60 04       		.byte	0x4
 18224 1f61 10       		.uleb128 .LVL243-.LVL242
 18225 1f62 20       		.uleb128 .LVL244-.LVL242
 18226 1f63 23       		.uleb128 0x23
 18227 1f64 86       		.byte	0x86
 18228 1f65 7C       		.sleb128 -4
 18229 1f66 0A       		.byte	0xa
 18230 1f67 FFFF     		.2byte	0xffff
 18231 1f69 1A       		.byte	0x1a
 18232 1f6a 82       		.byte	0x82
 18233 1f6b 00       		.sleb128 0
 18234 1f6c 22       		.byte	0x22
 18235 1f6d 23       		.byte	0x23
 18236 1f6e 03       		.uleb128 0x3
 18237 1f6f 32       		.byte	0x32
 18238 1f70 24       		.byte	0x24
 18239 1f71 8F       		.byte	0x8f
 18240 1f72 00       		.sleb128 0
 18241 1f73 22       		.byte	0x22
 18242 1f74 06       		.byte	0x6
 18243 1f75 40       		.byte	0x40
 18244 1f76 25       		.byte	0x25
 18245 1f77 08       		.byte	0x8
 18246 1f78 FF       		.byte	0xff
 18247 1f79 1A       		.byte	0x1a
 18248 1f7a 08       		.byte	0x8
 18249 1f7b 3F       		.byte	0x3f
 18250 1f7c 1E       		.byte	0x1e
 18251 1f7d A8       		.byte	0xa8
 18252 1f7e 26       		.uleb128 0x26
 18253 1f7f 08       		.byte	0x8
 18254 1f80 FF       		.byte	0xff
 18255 1f81 A8       		.byte	0xa8
 18256 1f82 26       		.uleb128 0x26
 18257 1f83 1B       		.byte	0x1b
 18258 1f84 A8       		.byte	0xa8
 18259 1f85 00       		.uleb128 0
 18260 1f86 9F       		.byte	0x9f
 18261 1f87 04       		.byte	0x4
 18262 1f88 20       		.uleb128 .LVL244-.LVL242
 18263 1f89 30       		.uleb128 .LVL245-.LVL242
 18264 1f8a 23       		.uleb128 0x23
 18265 1f8b 86       		.byte	0x86
 18266 1f8c 7C       		.sleb128 -4
 18267 1f8d 0A       		.byte	0xa
 18268 1f8e FFFF     		.2byte	0xffff
 18269 1f90 1A       		.byte	0x1a
 18270 1f91 83       		.byte	0x83
 18271 1f92 00       		.sleb128 0
 18272 1f93 22       		.byte	0x22
 18273 1f94 23       		.byte	0x23
 18274 1f95 03       		.uleb128 0x3
 18275 1f96 32       		.byte	0x32
 18276 1f97 24       		.byte	0x24
 18277 1f98 8F       		.byte	0x8f
 18278 1f99 00       		.sleb128 0
 18279 1f9a 22       		.byte	0x22
 18280 1f9b 06       		.byte	0x6
 18281 1f9c 40       		.byte	0x40
 18282 1f9d 25       		.byte	0x25
 18283 1f9e 08       		.byte	0x8
 18284 1f9f FF       		.byte	0xff
 18285 1fa0 1A       		.byte	0x1a
 18286 1fa1 08       		.byte	0x8
 18287 1fa2 3F       		.byte	0x3f
 18288 1fa3 1E       		.byte	0x1e
 18289 1fa4 A8       		.byte	0xa8
 18290 1fa5 26       		.uleb128 0x26
 18291 1fa6 08       		.byte	0x8
 18292 1fa7 FF       		.byte	0xff
 18293 1fa8 A8       		.byte	0xa8
 18294 1fa9 26       		.uleb128 0x26
 18295 1faa 1B       		.byte	0x1b
 18296 1fab A8       		.byte	0xa8
 18297 1fac 00       		.uleb128 0
 18298 1fad 9F       		.byte	0x9f
 18299 1fae 04       		.byte	0x4
 18300 1faf 30       		.uleb128 .LVL245-.LVL242
 18301 1fb0 70       		.uleb128 .LVL248-.LVL242
 18302 1fb1 23       		.uleb128 0x23
 18303 1fb2 86       		.byte	0x86
 18304 1fb3 7C       		.sleb128 -4
 18305 1fb4 0A       		.byte	0xa
 18306 1fb5 FFFF     		.2byte	0xffff
 18307 1fb7 1A       		.byte	0x1a
 18308 1fb8 80       		.byte	0x80
 18309 1fb9 00       		.sleb128 0
 18310 1fba 22       		.byte	0x22
 18311 1fbb 23       		.byte	0x23
 18312 1fbc 03       		.uleb128 0x3
 18313 1fbd 32       		.byte	0x32
 18314 1fbe 24       		.byte	0x24
 18315 1fbf 8F       		.byte	0x8f
 18316 1fc0 00       		.sleb128 0
 18317 1fc1 22       		.byte	0x22
 18318 1fc2 06       		.byte	0x6
 18319 1fc3 40       		.byte	0x40
 18320 1fc4 25       		.byte	0x25
 18321 1fc5 08       		.byte	0x8
 18322 1fc6 FF       		.byte	0xff
 18323 1fc7 1A       		.byte	0x1a
 18324 1fc8 08       		.byte	0x8
 18325 1fc9 3F       		.byte	0x3f
 18326 1fca 1E       		.byte	0x1e
 18327 1fcb A8       		.byte	0xa8
 18328 1fcc 26       		.uleb128 0x26
 18329 1fcd 08       		.byte	0x8
 18330 1fce FF       		.byte	0xff
 18331 1fcf A8       		.byte	0xa8
 18332 1fd0 26       		.uleb128 0x26
 18333 1fd1 1B       		.byte	0x1b
 18334 1fd2 A8       		.byte	0xa8
 18335 1fd3 00       		.uleb128 0
 18336 1fd4 9F       		.byte	0x9f
 18337 1fd5 04       		.byte	0x4
 18338 1fd6 70       		.uleb128 .LVL248-.LVL242
 18339 1fd7 78       		.uleb128 .LVL250-.LVL242
 18340 1fd8 2A       		.uleb128 0x2a
 18341 1fd9 91       		.byte	0x91
 18342 1fda A07F     		.sleb128 -96
 18343 1fdc 06       		.byte	0x6
 18344 1fdd 31       		.byte	0x31
 18345 1fde 24       		.byte	0x24
 18346 1fdf 86       		.byte	0x86
 18347 1fe0 7C       		.sleb128 -4
 18348 1fe1 0A       		.byte	0xa
 18349 1fe2 FFFF     		.2byte	0xffff
 18350 1fe4 1A       		.byte	0x1a
 18351 1fe5 22       		.byte	0x22
 18352 1fe6 82       		.byte	0x82
 18353 1fe7 00       		.sleb128 0
 18354 1fe8 22       		.byte	0x22
 18355 1fe9 23       		.byte	0x23
 18356 1fea 03       		.uleb128 0x3
 18357 1feb 32       		.byte	0x32
 18358 1fec 24       		.byte	0x24
 18359 1fed 8F       		.byte	0x8f
 18360 1fee 00       		.sleb128 0
 18361 1fef 22       		.byte	0x22
 18362 1ff0 06       		.byte	0x6
 18363 1ff1 40       		.byte	0x40
 18364 1ff2 25       		.byte	0x25
 18365 1ff3 08       		.byte	0x8
 18366 1ff4 FF       		.byte	0xff
 18367 1ff5 1A       		.byte	0x1a
 18368 1ff6 08       		.byte	0x8
 18369 1ff7 3F       		.byte	0x3f
 18370 1ff8 1E       		.byte	0x1e
 18371 1ff9 A8       		.byte	0xa8
 18372 1ffa 26       		.uleb128 0x26
 18373 1ffb 08       		.byte	0x8
 18374 1ffc FF       		.byte	0xff
 18375 1ffd A8       		.byte	0xa8
 18376 1ffe 26       		.uleb128 0x26
 18377 1fff 1B       		.byte	0x1b
 18378 2000 A8       		.byte	0xa8
 18379 2001 00       		.uleb128 0
 18380 2002 9F       		.byte	0x9f
 18381 2003 04       		.byte	0x4
 18382 2004 78       		.uleb128 .LVL250-.LVL242
 18383 2005 7C       		.uleb128 .LVL251-.LVL242
 18384 2006 36       		.uleb128 0x36
 18385 2007 91       		.byte	0x91
 18386 2008 A47F     		.sleb128 -92
 18387 200a 94       		.byte	0x94
 18388 200b 02       		.byte	0x2
 18389 200c 0A       		.byte	0xa
 18390 200d FFFF     		.2byte	0xffff
 18391 200f 1A       		.byte	0x1a
 18392 2010 91       		.byte	0x91
 18393 2011 A07F     		.sleb128 -96
 18394 2013 06       		.byte	0x6
 18395 2014 1E       		.byte	0x1e
 18396 2015 91       		.byte	0x91
 18397 2016 A07F     		.sleb128 -96
 18398 2018 06       		.byte	0x6
 18399 2019 33       		.byte	0x33
 18400 201a 1E       		.byte	0x1e
 18401 201b 22       		.byte	0x22
 18402 201c 86       		.byte	0x86
 18403 201d 7C       		.sleb128 -4
 18404 201e 0A       		.byte	0xa
 18405 201f FFFF     		.2byte	0xffff
 18406 2021 1A       		.byte	0x1a
 18407 2022 22       		.byte	0x22
 18408 2023 23       		.byte	0x23
 18409 2024 03       		.uleb128 0x3
 18410 2025 32       		.byte	0x32
 18411 2026 24       		.byte	0x24
 18412 2027 8F       		.byte	0x8f
 18413 2028 00       		.sleb128 0
 18414 2029 22       		.byte	0x22
 18415 202a 06       		.byte	0x6
 18416 202b 40       		.byte	0x40
 18417 202c 25       		.byte	0x25
 18418 202d 08       		.byte	0x8
 18419 202e FF       		.byte	0xff
 18420 202f 1A       		.byte	0x1a
 18421 2030 08       		.byte	0x8
 18422 2031 3F       		.byte	0x3f
 18423 2032 1E       		.byte	0x1e
 18424 2033 A8       		.byte	0xa8
 18425 2034 26       		.uleb128 0x26
 18426 2035 08       		.byte	0x8
 18427 2036 FF       		.byte	0xff
 18428 2037 A8       		.byte	0xa8
 18429 2038 26       		.uleb128 0x26
 18430 2039 1B       		.byte	0x1b
 18431 203a A8       		.byte	0xa8
 18432 203b 00       		.uleb128 0
 18433 203c 9F       		.byte	0x9f
 18434 203d 00       		.byte	0
 18435              	.LVUS158:
 18436 203e 16       		.uleb128 .LVU2023
 18437 203f 16       		.uleb128 .LVU2059
 18438 2040 16       		.uleb128 .LVU2059
 18439 2041 16       		.uleb128 .LVU2095
 18440 2042 16       		.uleb128 .LVU2095
 18441 2043 16       		.uleb128 .LVU2132
 18442 2044 16       		.uleb128 .LVU2132
 18443 2045 00       		.uleb128 .LVU2146
 18444 2046 00       		.uleb128 .LVU2146
 18445 2047 00       		.uleb128 .LVU2148
 18446 2048 00       		.uleb128 .LVU2148
 18447 2049 00       		.uleb128 .LVU2149
 18448              	.LLST158:
 18449 204a 06       		.byte	0x6
 18450 204b 00000000 		.4byte	.LVL242
 18451 204f 04       		.byte	0x4
 18452 2050 00       		.uleb128 .LVL242-.LVL242
 18453 2051 10       		.uleb128 .LVL243-.LVL242
 18454 2052 22       		.uleb128 0x22
 18455 2053 86       		.byte	0x86
 18456 2054 7C       		.sleb128 -4
 18457 2055 0A       		.byte	0xa
 18458 2056 FFFF     		.2byte	0xffff
 18459 2058 1A       		.byte	0x1a
 18460 2059 84       		.byte	0x84
 18461 205a 00       		.sleb128 0
 18462 205b 22       		.byte	0x22
 18463 205c 23       		.byte	0x23
 18464 205d 03       		.uleb128 0x3
 18465 205e 32       		.byte	0x32
 18466 205f 24       		.byte	0x24
 18467 2060 8F       		.byte	0x8f
 18468 2061 00       		.sleb128 0
 18469 2062 22       		.byte	0x22
 18470 2063 06       		.byte	0x6
 18471 2064 38       		.byte	0x38
 18472 2065 25       		.byte	0x25
 18473 2066 08       		.byte	0x8
 18474 2067 FF       		.byte	0xff
 18475 2068 1A       		.byte	0x1a
 18476 2069 4F       		.byte	0x4f
 18477 206a 1E       		.byte	0x1e
 18478 206b A8       		.byte	0xa8
 18479 206c 26       		.uleb128 0x26
 18480 206d 08       		.byte	0x8
 18481 206e FF       		.byte	0xff
 18482 206f A8       		.byte	0xa8
 18483 2070 26       		.uleb128 0x26
 18484 2071 1B       		.byte	0x1b
 18485 2072 A8       		.byte	0xa8
 18486 2073 00       		.uleb128 0
 18487 2074 9F       		.byte	0x9f
 18488 2075 04       		.byte	0x4
 18489 2076 10       		.uleb128 .LVL243-.LVL242
 18490 2077 20       		.uleb128 .LVL244-.LVL242
 18491 2078 22       		.uleb128 0x22
 18492 2079 86       		.byte	0x86
 18493 207a 7C       		.sleb128 -4
 18494 207b 0A       		.byte	0xa
 18495 207c FFFF     		.2byte	0xffff
 18496 207e 1A       		.byte	0x1a
 18497 207f 82       		.byte	0x82
 18498 2080 00       		.sleb128 0
 18499 2081 22       		.byte	0x22
 18500 2082 23       		.byte	0x23
 18501 2083 03       		.uleb128 0x3
 18502 2084 32       		.byte	0x32
 18503 2085 24       		.byte	0x24
 18504 2086 8F       		.byte	0x8f
 18505 2087 00       		.sleb128 0
 18506 2088 22       		.byte	0x22
 18507 2089 06       		.byte	0x6
 18508 208a 38       		.byte	0x38
 18509 208b 25       		.byte	0x25
 18510 208c 08       		.byte	0x8
 18511 208d FF       		.byte	0xff
 18512 208e 1A       		.byte	0x1a
 18513 208f 4F       		.byte	0x4f
 18514 2090 1E       		.byte	0x1e
 18515 2091 A8       		.byte	0xa8
 18516 2092 26       		.uleb128 0x26
 18517 2093 08       		.byte	0x8
 18518 2094 FF       		.byte	0xff
 18519 2095 A8       		.byte	0xa8
 18520 2096 26       		.uleb128 0x26
 18521 2097 1B       		.byte	0x1b
 18522 2098 A8       		.byte	0xa8
 18523 2099 00       		.uleb128 0
 18524 209a 9F       		.byte	0x9f
 18525 209b 04       		.byte	0x4
 18526 209c 20       		.uleb128 .LVL244-.LVL242
 18527 209d 30       		.uleb128 .LVL245-.LVL242
 18528 209e 22       		.uleb128 0x22
 18529 209f 86       		.byte	0x86
 18530 20a0 7C       		.sleb128 -4
 18531 20a1 0A       		.byte	0xa
 18532 20a2 FFFF     		.2byte	0xffff
 18533 20a4 1A       		.byte	0x1a
 18534 20a5 83       		.byte	0x83
 18535 20a6 00       		.sleb128 0
 18536 20a7 22       		.byte	0x22
 18537 20a8 23       		.byte	0x23
 18538 20a9 03       		.uleb128 0x3
 18539 20aa 32       		.byte	0x32
 18540 20ab 24       		.byte	0x24
 18541 20ac 8F       		.byte	0x8f
 18542 20ad 00       		.sleb128 0
 18543 20ae 22       		.byte	0x22
 18544 20af 06       		.byte	0x6
 18545 20b0 38       		.byte	0x38
 18546 20b1 25       		.byte	0x25
 18547 20b2 08       		.byte	0x8
 18548 20b3 FF       		.byte	0xff
 18549 20b4 1A       		.byte	0x1a
 18550 20b5 4F       		.byte	0x4f
 18551 20b6 1E       		.byte	0x1e
 18552 20b7 A8       		.byte	0xa8
 18553 20b8 26       		.uleb128 0x26
 18554 20b9 08       		.byte	0x8
 18555 20ba FF       		.byte	0xff
 18556 20bb A8       		.byte	0xa8
 18557 20bc 26       		.uleb128 0x26
 18558 20bd 1B       		.byte	0x1b
 18559 20be A8       		.byte	0xa8
 18560 20bf 00       		.uleb128 0
 18561 20c0 9F       		.byte	0x9f
 18562 20c1 04       		.byte	0x4
 18563 20c2 30       		.uleb128 .LVL245-.LVL242
 18564 20c3 70       		.uleb128 .LVL248-.LVL242
 18565 20c4 22       		.uleb128 0x22
 18566 20c5 86       		.byte	0x86
 18567 20c6 7C       		.sleb128 -4
 18568 20c7 0A       		.byte	0xa
 18569 20c8 FFFF     		.2byte	0xffff
 18570 20ca 1A       		.byte	0x1a
 18571 20cb 80       		.byte	0x80
 18572 20cc 00       		.sleb128 0
 18573 20cd 22       		.byte	0x22
 18574 20ce 23       		.byte	0x23
 18575 20cf 03       		.uleb128 0x3
 18576 20d0 32       		.byte	0x32
 18577 20d1 24       		.byte	0x24
 18578 20d2 8F       		.byte	0x8f
 18579 20d3 00       		.sleb128 0
 18580 20d4 22       		.byte	0x22
 18581 20d5 06       		.byte	0x6
 18582 20d6 38       		.byte	0x38
 18583 20d7 25       		.byte	0x25
 18584 20d8 08       		.byte	0x8
 18585 20d9 FF       		.byte	0xff
 18586 20da 1A       		.byte	0x1a
 18587 20db 4F       		.byte	0x4f
 18588 20dc 1E       		.byte	0x1e
 18589 20dd A8       		.byte	0xa8
 18590 20de 26       		.uleb128 0x26
 18591 20df 08       		.byte	0x8
 18592 20e0 FF       		.byte	0xff
 18593 20e1 A8       		.byte	0xa8
 18594 20e2 26       		.uleb128 0x26
 18595 20e3 1B       		.byte	0x1b
 18596 20e4 A8       		.byte	0xa8
 18597 20e5 00       		.uleb128 0
 18598 20e6 9F       		.byte	0x9f
 18599 20e7 04       		.byte	0x4
 18600 20e8 70       		.uleb128 .LVL248-.LVL242
 18601 20e9 78       		.uleb128 .LVL250-.LVL242
 18602 20ea 29       		.uleb128 0x29
 18603 20eb 91       		.byte	0x91
 18604 20ec A07F     		.sleb128 -96
 18605 20ee 06       		.byte	0x6
 18606 20ef 31       		.byte	0x31
 18607 20f0 24       		.byte	0x24
 18608 20f1 86       		.byte	0x86
 18609 20f2 7C       		.sleb128 -4
 18610 20f3 0A       		.byte	0xa
 18611 20f4 FFFF     		.2byte	0xffff
 18612 20f6 1A       		.byte	0x1a
 18613 20f7 22       		.byte	0x22
 18614 20f8 82       		.byte	0x82
 18615 20f9 00       		.sleb128 0
 18616 20fa 22       		.byte	0x22
 18617 20fb 23       		.byte	0x23
 18618 20fc 03       		.uleb128 0x3
 18619 20fd 32       		.byte	0x32
 18620 20fe 24       		.byte	0x24
 18621 20ff 8F       		.byte	0x8f
 18622 2100 00       		.sleb128 0
 18623 2101 22       		.byte	0x22
 18624 2102 06       		.byte	0x6
 18625 2103 38       		.byte	0x38
 18626 2104 25       		.byte	0x25
 18627 2105 08       		.byte	0x8
 18628 2106 FF       		.byte	0xff
 18629 2107 1A       		.byte	0x1a
 18630 2108 4F       		.byte	0x4f
 18631 2109 1E       		.byte	0x1e
 18632 210a A8       		.byte	0xa8
 18633 210b 26       		.uleb128 0x26
 18634 210c 08       		.byte	0x8
 18635 210d FF       		.byte	0xff
 18636 210e A8       		.byte	0xa8
 18637 210f 26       		.uleb128 0x26
 18638 2110 1B       		.byte	0x1b
 18639 2111 A8       		.byte	0xa8
 18640 2112 00       		.uleb128 0
 18641 2113 9F       		.byte	0x9f
 18642 2114 04       		.byte	0x4
 18643 2115 78       		.uleb128 .LVL250-.LVL242
 18644 2116 7C       		.uleb128 .LVL251-.LVL242
 18645 2117 35       		.uleb128 0x35
 18646 2118 91       		.byte	0x91
 18647 2119 A47F     		.sleb128 -92
 18648 211b 94       		.byte	0x94
 18649 211c 02       		.byte	0x2
 18650 211d 0A       		.byte	0xa
 18651 211e FFFF     		.2byte	0xffff
 18652 2120 1A       		.byte	0x1a
 18653 2121 91       		.byte	0x91
 18654 2122 A07F     		.sleb128 -96
 18655 2124 06       		.byte	0x6
 18656 2125 1E       		.byte	0x1e
 18657 2126 91       		.byte	0x91
 18658 2127 A07F     		.sleb128 -96
 18659 2129 06       		.byte	0x6
 18660 212a 33       		.byte	0x33
 18661 212b 1E       		.byte	0x1e
 18662 212c 22       		.byte	0x22
 18663 212d 86       		.byte	0x86
 18664 212e 7C       		.sleb128 -4
 18665 212f 0A       		.byte	0xa
 18666 2130 FFFF     		.2byte	0xffff
 18667 2132 1A       		.byte	0x1a
 18668 2133 22       		.byte	0x22
 18669 2134 23       		.byte	0x23
 18670 2135 03       		.uleb128 0x3
 18671 2136 32       		.byte	0x32
 18672 2137 24       		.byte	0x24
 18673 2138 8F       		.byte	0x8f
 18674 2139 00       		.sleb128 0
 18675 213a 22       		.byte	0x22
 18676 213b 06       		.byte	0x6
 18677 213c 38       		.byte	0x38
 18678 213d 25       		.byte	0x25
 18679 213e 08       		.byte	0x8
 18680 213f FF       		.byte	0xff
 18681 2140 1A       		.byte	0x1a
 18682 2141 4F       		.byte	0x4f
 18683 2142 1E       		.byte	0x1e
 18684 2143 A8       		.byte	0xa8
 18685 2144 26       		.uleb128 0x26
 18686 2145 08       		.byte	0x8
 18687 2146 FF       		.byte	0xff
 18688 2147 A8       		.byte	0xa8
 18689 2148 26       		.uleb128 0x26
 18690 2149 1B       		.byte	0x1b
 18691 214a A8       		.byte	0xa8
 18692 214b 00       		.uleb128 0
 18693 214c 9F       		.byte	0x9f
 18694 214d 00       		.byte	0
 18695              	.LVUS104:
 18696 214e 00       		.uleb128 0
 18697 214f 00       		.uleb128 .LVU1264
 18698 2150 00       		.uleb128 .LVU1264
 18699 2151 00       		.uleb128 .LVU1642
 18700 2152 00       		.uleb128 .LVU1642
 18701 2153 00       		.uleb128 .LVU1643
 18702 2154 00       		.uleb128 .LVU1643
 18703 2155 00       		.uleb128 0
 18704              	.LLST104:
 18705 2156 06       		.byte	0x6
 18706 2157 00000000 		.4byte	.LVL167
 18707 215b 04       		.byte	0x4
 18708 215c 00       		.uleb128 .LVL167-.LVL167
 18709 215d 24       		.uleb128 .LVL168-.LVL167
 18710 215e 01       		.uleb128 0x1
 18711 215f 53       		.byte	0x53
 18712 2160 04       		.byte	0x4
 18713 2161 24       		.uleb128 .LVL168-.LVL167
 18714 2162 A808     		.uleb128 .LVL224-.LVL167
 18715 2164 01       		.uleb128 0x1
 18716 2165 6F       		.byte	0x6f
 18717 2166 04       		.byte	0x4
 18718 2167 A808     		.uleb128 .LVL224-.LVL167
 18719 2169 B008     		.uleb128 .LVL225-.LVL167
 18720 216b 0A       		.uleb128 0xa
 18721 216c A3       		.byte	0xa3
 18722 216d 03       		.uleb128 0x3
 18723 216e A5       		.byte	0xa5
 18724 216f 03       		.uleb128 0x3
 18725 2170 2D       		.uleb128 0x2d
 18726 2171 A8       		.byte	0xa8
 18727 2172 26       		.uleb128 0x26
 18728 2173 A8       		.byte	0xa8
 18729 2174 00       		.uleb128 0
 18730 2175 9F       		.byte	0x9f
 18731 2176 04       		.byte	0x4
 18732 2177 B008     		.uleb128 .LVL225-.LVL167
 18733 2179 B808     		.uleb128 .LFE74-.LVL167
 18734 217b 01       		.uleb128 0x1
 18735 217c 6F       		.byte	0x6f
 18736 217d 00       		.byte	0
 18737              	.LVUS105:
 18738 217e 00       		.uleb128 0
 18739 217f 00       		.uleb128 .LVU1269
 18740 2180 00       		.uleb128 .LVU1269
 18741 2181 00       		.uleb128 .LVU1640
 18742 2182 00       		.uleb128 .LVU1640
 18743 2183 00       		.uleb128 0
 18744              	.LLST105:
 18745 2184 06       		.byte	0x6
 18746 2185 00000000 		.4byte	.LVL167
 18747 2189 04       		.byte	0x4
 18748 218a 00       		.uleb128 .LVL167-.LVL167
 18749 218b 34       		.uleb128 .LVL170-.LVL167
 18750 218c 01       		.uleb128 0x1
 18751 218d 54       		.byte	0x54
 18752 218e 04       		.byte	0x4
 18753 218f 34       		.uleb128 .LVL170-.LVL167
 18754 2190 9408     		.uleb128 .LVL222-.LVL167
 18755 2192 01       		.uleb128 0x1
 18756 2193 63       		.byte	0x63
 18757 2194 04       		.byte	0x4
 18758 2195 9408     		.uleb128 .LVL222-.LVL167
 18759 2197 B808     		.uleb128 .LFE74-.LVL167
 18760 2199 0A       		.uleb128 0xa
 18761 219a A3       		.byte	0xa3
 18762 219b 03       		.uleb128 0x3
 18763 219c A5       		.byte	0xa5
 18764 219d 04       		.uleb128 0x4
 18765 219e 2D       		.uleb128 0x2d
 18766 219f A8       		.byte	0xa8
 18767 21a0 34       		.uleb128 0x34
 18768 21a1 A8       		.byte	0xa8
 18769 21a2 00       		.uleb128 0
 18770 21a3 9F       		.byte	0x9f
 18771 21a4 00       		.byte	0
 18772              	.LVUS106:
 18773 21a5 00       		.uleb128 0
 18774 21a6 00       		.uleb128 .LVU1271
 18775 21a7 00       		.uleb128 .LVU1271
 18776 21a8 00       		.uleb128 .LVU1281
 18777 21a9 00       		.uleb128 .LVU1281
 18778 21aa 00       		.uleb128 .LVU1635
 18779 21ab 00       		.uleb128 .LVU1635
 18780 21ac 00       		.uleb128 0
 18781              	.LLST106:
 18782 21ad 06       		.byte	0x6
 18783 21ae 00000000 		.4byte	.LVL167
 18784 21b2 04       		.byte	0x4
 18785 21b3 00       		.uleb128 .LVL167-.LVL167
 18786 21b4 3F       		.uleb128 .LVL171-1-.LVL167
 18787 21b5 01       		.uleb128 0x1
 18788 21b6 55       		.byte	0x55
 18789 21b7 04       		.byte	0x4
 18790 21b8 3F       		.uleb128 .LVL171-1-.LVL167
 18791 21b9 A401     		.uleb128 .LVL174-.LVL167
 18792 21bb 01       		.uleb128 0x1
 18793 21bc 6A       		.byte	0x6a
 18794 21bd 04       		.byte	0x4
 18795 21be A401     		.uleb128 .LVL174-.LVL167
 18796 21c0 FC07     		.uleb128 .LVL220-.LVL167
 18797 21c2 03       		.uleb128 0x3
 18798 21c3 91       		.byte	0x91
 18799 21c4 B27F     		.sleb128 -78
 18800 21c6 04       		.byte	0x4
 18801 21c7 FC07     		.uleb128 .LVL220-.LVL167
 18802 21c9 B808     		.uleb128 .LFE74-.LVL167
 18803 21cb 0A       		.uleb128 0xa
 18804 21cc A3       		.byte	0xa3
 18805 21cd 03       		.uleb128 0x3
 18806 21ce A5       		.byte	0xa5
 18807 21cf 05       		.uleb128 0x5
 18808 21d0 2D       		.uleb128 0x2d
 18809 21d1 A8       		.byte	0xa8
 18810 21d2 34       		.uleb128 0x34
 18811 21d3 A8       		.byte	0xa8
 18812 21d4 00       		.uleb128 0
 18813 21d5 9F       		.byte	0x9f
 18814 21d6 00       		.byte	0
 18815              	.LVUS107:
 18816 21d7 00       		.uleb128 .LVU1266
 18817 21d8 00       		.uleb128 .LVU1281
 18818 21d9 00       		.uleb128 .LVU1281
 18819 21da 00       		.uleb128 .LVU1635
 18820 21db 00       		.uleb128 .LVU1635
 18821 21dc 00       		.uleb128 .LVU1640
 18822 21dd 00       		.uleb128 .LVU1640
 18823 21de 00       		.uleb128 .LVU1643
 18824 21df 00       		.uleb128 .LVU1643
 18825 21e0 00       		.uleb128 0
 18826              	.LLST107:
 18827 21e1 06       		.byte	0x6
 18828 21e2 00000000 		.4byte	.LVL169
 18829 21e6 04       		.byte	0x4
 18830 21e7 00       		.uleb128 .LVL169-.LVL169
 18831 21e8 78       		.uleb128 .LVL174-.LVL169
 18832 21e9 01       		.uleb128 0x1
 18833 21ea 6D       		.byte	0x6d
 18834 21eb 04       		.byte	0x4
 18835 21ec 78       		.uleb128 .LVL174-.LVL169
 18836 21ed D007     		.uleb128 .LVL220-.LVL169
 18837 21ef 03       		.uleb128 0x3
 18838 21f0 91       		.byte	0x91
 18839 21f1 B47F     		.sleb128 -76
 18840 21f3 04       		.byte	0x4
 18841 21f4 D007     		.uleb128 .LVL220-.LVL169
 18842 21f6 E807     		.uleb128 .LVL222-.LVL169
 18843 21f8 0F       		.uleb128 0xf
 18844 21f9 83       		.byte	0x83
 18845 21fa 00       		.sleb128 0
 18846 21fb A3       		.byte	0xa3
 18847 21fc 03       		.uleb128 0x3
 18848 21fd A5       		.byte	0xa5
 18849 21fe 05       		.uleb128 0x5
 18850 21ff 2D       		.uleb128 0x2d
 18851 2200 A8       		.byte	0xa8
 18852 2201 26       		.uleb128 0x26
 18853 2202 A8       		.byte	0xa8
 18854 2203 00       		.uleb128 0
 18855 2204 1E       		.byte	0x1e
 18856 2205 32       		.byte	0x32
 18857 2206 24       		.byte	0x24
 18858 2207 9F       		.byte	0x9f
 18859 2208 04       		.byte	0x4
 18860 2209 E807     		.uleb128 .LVL222-.LVL169
 18861 220b 8408     		.uleb128 .LVL225-.LVL169
 18862 220d 16       		.uleb128 0x16
 18863 220e A3       		.byte	0xa3
 18864 220f 03       		.uleb128 0x3
 18865 2210 A5       		.byte	0xa5
 18866 2211 05       		.uleb128 0x5
 18867 2212 2D       		.uleb128 0x2d
 18868 2213 A8       		.byte	0xa8
 18869 2214 26       		.uleb128 0x26
 18870 2215 A8       		.byte	0xa8
 18871 2216 00       		.uleb128 0
 18872 2217 A3       		.byte	0xa3
 18873 2218 03       		.uleb128 0x3
 18874 2219 A5       		.byte	0xa5
 18875 221a 04       		.uleb128 0x4
 18876 221b 2D       		.uleb128 0x2d
 18877 221c A8       		.byte	0xa8
 18878 221d 26       		.uleb128 0x26
 18879 221e A8       		.byte	0xa8
 18880 221f 00       		.uleb128 0
 18881 2220 1E       		.byte	0x1e
 18882 2221 32       		.byte	0x32
 18883 2222 24       		.byte	0x24
 18884 2223 9F       		.byte	0x9f
 18885 2224 04       		.byte	0x4
 18886 2225 8408     		.uleb128 .LVL225-.LVL169
 18887 2227 8C08     		.uleb128 .LFE74-.LVL169
 18888 2229 01       		.uleb128 0x1
 18889 222a 6D       		.byte	0x6d
 18890 222b 00       		.byte	0
 18891              	.LVUS108:
 18892 222c 00       		.uleb128 .LVU1273
 18893 222d 00       		.uleb128 .LVU1275
 18894 222e 00       		.uleb128 .LVU1275
 18895 222f 00       		.uleb128 .LVU1286
 18896 2230 00       		.uleb128 .LVU1286
 18897 2231 00       		.uleb128 .LVU1633
 18898 2232 00       		.uleb128 .LVU1633
 18899 2233 00       		.uleb128 .LVU1641
 18900 2234 00       		.uleb128 .LVU1641
 18901 2235 00       		.uleb128 .LVU1643
 18902 2236 00       		.uleb128 .LVU1643
 18903 2237 00       		.uleb128 0
 18904              	.LLST108:
 18905 2238 06       		.byte	0x6
 18906 2239 00000000 		.4byte	.LVL172
 18907 223d 04       		.byte	0x4
 18908 223e 00       		.uleb128 .LVL172-.LVL172
 18909 223f 03       		.uleb128 .LVL173-1-.LVL172
 18910 2240 01       		.uleb128 0x1
 18911 2241 53       		.byte	0x53
 18912 2242 04       		.byte	0x4
 18913 2243 03       		.uleb128 .LVL173-1-.LVL172
 18914 2244 78       		.uleb128 .LVL175-.LVL172
 18915 2245 01       		.uleb128 0x1
 18916 2246 6E       		.byte	0x6e
 18917 2247 04       		.byte	0x4
 18918 2248 78       		.uleb128 .LVL175-.LVL172
 18919 2249 F806     		.uleb128 .LVL218-.LVL172
 18920 224b 02       		.uleb128 0x2
 18921 224c 90       		.byte	0x90
 18922 224d 42       		.uleb128 0x42
 18923 224e 04       		.byte	0x4
 18924 224f F806     		.uleb128 .LVL218-.LVL172
 18925 2251 D807     		.uleb128 .LVL223-.LVL172
 18926 2253 01       		.uleb128 0x1
 18927 2254 6E       		.byte	0x6e
 18928 2255 04       		.byte	0x4
 18929 2256 D807     		.uleb128 .LVL223-.LVL172
 18930 2258 E407     		.uleb128 .LVL225-.LVL172
 18931 225a 01       		.uleb128 0x1
 18932 225b 53       		.byte	0x53
 18933 225c 04       		.byte	0x4
 18934 225d E407     		.uleb128 .LVL225-.LVL172
 18935 225f EC07     		.uleb128 .LFE74-.LVL172
 18936 2261 01       		.uleb128 0x1
 18937 2262 59       		.byte	0x59
 18938 2263 00       		.byte	0
 18939              	.LVUS109:
 18940 2264 01       		.uleb128 .LVU1276
 18941 2265 00       		.uleb128 .LVU1642
 18942 2266 00       		.uleb128 .LVU1642
 18943 2267 00       		.uleb128 .LVU1643
 18944 2268 00       		.uleb128 .LVU1643
 18945 2269 00       		.uleb128 0
 18946              	.LLST109:
 18947 226a 06       		.byte	0x6
 18948 226b 00000000 		.4byte	.LVL173
 18949 226f 04       		.byte	0x4
 18950 2270 00       		.uleb128 .LVL173-.LVL173
 18951 2271 D807     		.uleb128 .LVL224-.LVL173
 18952 2273 01       		.uleb128 0x1
 18953 2274 6F       		.byte	0x6f
 18954 2275 04       		.byte	0x4
 18955 2276 D807     		.uleb128 .LVL224-.LVL173
 18956 2278 E007     		.uleb128 .LVL225-.LVL173
 18957 227a 0A       		.uleb128 0xa
 18958 227b A3       		.byte	0xa3
 18959 227c 03       		.uleb128 0x3
 18960 227d A5       		.byte	0xa5
 18961 227e 03       		.uleb128 0x3
 18962 227f 2D       		.uleb128 0x2d
 18963 2280 A8       		.byte	0xa8
 18964 2281 26       		.uleb128 0x26
 18965 2282 A8       		.byte	0xa8
 18966 2283 00       		.uleb128 0
 18967 2284 9F       		.byte	0x9f
 18968 2285 04       		.byte	0x4
 18969 2286 E007     		.uleb128 .LVL225-.LVL173
 18970 2288 E807     		.uleb128 .LFE74-.LVL173
 18971 228a 01       		.uleb128 0x1
 18972 228b 6F       		.byte	0x6f
 18973 228c 00       		.byte	0
 18974              	.LVUS110:
 18975 228d 02       		.uleb128 .LVU1277
 18976 228e 00       		.uleb128 .LVU1281
 18977 228f 00       		.uleb128 .LVU1281
 18978 2290 00       		.uleb128 .LVU1299
 18979 2291 00       		.uleb128 .LVU1299
 18980 2292 00       		.uleb128 .LVU1307
 18981 2293 00       		.uleb128 .LVU1307
 18982 2294 00       		.uleb128 .LVU1318
 18983 2295 00       		.uleb128 .LVU1318
 18984 2296 00       		.uleb128 .LVU1327
 18985 2297 00       		.uleb128 .LVU1327
 18986 2298 00       		.uleb128 .LVU1338
 18987 2299 00       		.uleb128 .LVU1338
 18988 229a 00       		.uleb128 .LVU1340
 18989 229b 00       		.uleb128 .LVU1340
 18990 229c 00       		.uleb128 .LVU1345
 18991 229d 01       		.uleb128 .LVU1618
 18992 229e 00       		.uleb128 .LVU1635
 18993 229f 00       		.uleb128 .LVU1643
 18994 22a0 00       		.uleb128 0
 18995              	.LLST110:
 18996 22a1 06       		.byte	0x6
 18997 22a2 00000000 		.4byte	.LVL173
 18998 22a6 04       		.byte	0x4
 18999 22a7 00       		.uleb128 .LVL173-.LVL173
 19000 22a8 54       		.uleb128 .LVL174-.LVL173
 19001 22a9 01       		.uleb128 0x1
 19002 22aa 6E       		.byte	0x6e
 19003 22ab 04       		.byte	0x4
 19004 22ac 54       		.uleb128 .LVL174-.LVL173
 19005 22ad 9801     		.uleb128 .LVL177-.LVL173
 19006 22af 01       		.uleb128 0x1
 19007 22b0 59       		.byte	0x59
 19008 22b1 04       		.byte	0x4
 19009 22b2 9801     		.uleb128 .LVL177-.LVL173
 19010 22b4 B801     		.uleb128 .LVL178-.LVL173
 19011 22b6 03       		.uleb128 0x3
 19012 22b7 79       		.byte	0x79
 19013 22b8 01       		.sleb128 1
 19014 22b9 9F       		.byte	0x9f
 19015 22ba 04       		.byte	0x4
 19016 22bb B801     		.uleb128 .LVL178-.LVL173
 19017 22bd D801     		.uleb128 .LVL180-.LVL173
 19018 22bf 03       		.uleb128 0x3
 19019 22c0 79       		.byte	0x79
 19020 22c1 02       		.sleb128 2
 19021 22c2 9F       		.byte	0x9f
 19022 22c3 04       		.byte	0x4
 19023 22c4 D801     		.uleb128 .LVL180-.LVL173
 19024 22c6 F801     		.uleb128 .LVL181-.LVL173
 19025 22c8 03       		.uleb128 0x3
 19026 22c9 79       		.byte	0x79
 19027 22ca 03       		.sleb128 3
 19028 22cb 9F       		.byte	0x9f
 19029 22cc 04       		.byte	0x4
 19030 22cd F801     		.uleb128 .LVL181-.LVL173
 19031 22cf 9802     		.uleb128 .LVL183-.LVL173
 19032 22d1 03       		.uleb128 0x3
 19033 22d2 79       		.byte	0x79
 19034 22d3 04       		.sleb128 4
 19035 22d4 9F       		.byte	0x9f
 19036 22d5 04       		.byte	0x4
 19037 22d6 9802     		.uleb128 .LVL183-.LVL173
 19038 22d8 A002     		.uleb128 .LVL184-.LVL173
 19039 22da 03       		.uleb128 0x3
 19040 22db 79       		.byte	0x79
 19041 22dc 05       		.sleb128 5
 19042 22dd 9F       		.byte	0x9f
 19043 22de 04       		.byte	0x4
 19044 22df A002     		.uleb128 .LVL184-.LVL173
 19045 22e1 AC02     		.uleb128 .LVL185-.LVL173
 19046 22e3 03       		.uleb128 0x3
 19047 22e4 79       		.byte	0x79
 19048 22e5 45       		.sleb128 -59
 19049 22e6 9F       		.byte	0x9f
 19050 22e7 04       		.byte	0x4
 19051 22e8 CC06     		.uleb128 .LVL215-.LVL173
 19052 22ea AC07     		.uleb128 .LVL220-.LVL173
 19053 22ec 01       		.uleb128 0x1
 19054 22ed 59       		.byte	0x59
 19055 22ee 04       		.byte	0x4
 19056 22ef E007     		.uleb128 .LVL225-.LVL173
 19057 22f1 E807     		.uleb128 .LFE74-.LVL173
 19058 22f3 01       		.uleb128 0x1
 19059 22f4 59       		.byte	0x59
 19060 22f5 00       		.byte	0
 19061              	.LVUS112:
 19062 22f6 03       		.uleb128 .LVU1278
 19063 22f7 00       		.uleb128 .LVU1281
 19064 22f8 00       		.uleb128 .LVU1281
 19065 22f9 00       		.uleb128 .LVU1286
 19066 22fa 00       		.uleb128 .LVU1286
 19067 22fb 00       		.uleb128 .LVU1632
 19068 22fc 00       		.uleb128 .LVU1632
 19069 22fd 00       		.uleb128 .LVU1634
 19070 22fe 00       		.uleb128 .LVU1643
 19071 22ff 00       		.uleb128 0
 19072              	.LLST112:
 19073 2300 06       		.byte	0x6
 19074 2301 00000000 		.4byte	.LVL173
 19075 2305 04       		.byte	0x4
 19076 2306 00       		.uleb128 .LVL173-.LVL173
 19077 2307 54       		.uleb128 .LVL174-.LVL173
 19078 2308 02       		.uleb128 0x2
 19079 2309 30       		.byte	0x30
 19080 230a 9F       		.byte	0x9f
 19081 230b 04       		.byte	0x4
 19082 230c 54       		.uleb128 .LVL174-.LVL173
 19083 230d 74       		.uleb128 .LVL175-.LVL173
 19084 230e 01       		.uleb128 0x1
 19085 230f 69       		.byte	0x69
 19086 2310 04       		.byte	0x4
 19087 2311 74       		.uleb128 .LVL175-.LVL173
 19088 2312 EC06     		.uleb128 .LVL217-.LVL173
 19089 2314 02       		.uleb128 0x2
 19090 2315 90       		.byte	0x90
 19091 2316 41       		.uleb128 0x41
 19092 2317 04       		.byte	0x4
 19093 2318 EC06     		.uleb128 .LVL217-.LVL173
 19094 231a A407     		.uleb128 .LVL219-.LVL173
 19095 231c 01       		.uleb128 0x1
 19096 231d 69       		.byte	0x69
 19097 231e 04       		.byte	0x4
 19098 231f E007     		.uleb128 .LVL225-.LVL173
 19099 2321 E807     		.uleb128 .LFE74-.LVL173
 19100 2323 02       		.uleb128 0x2
 19101 2324 30       		.byte	0x30
 19102 2325 9F       		.byte	0x9f
 19103 2326 00       		.byte	0
 19104              	.LVUS113:
 19105 2327 00       		.uleb128 .LVU1281
 19106 2328 00       		.uleb128 .LVU1286
 19107 2329 00       		.uleb128 .LVU1286
 19108 232a 00       		.uleb128 .LVU1292
 19109 232b 00       		.uleb128 .LVU1292
 19110 232c 05       		.uleb128 .LVU1625
 19111 232d 05       		.uleb128 .LVU1625
 19112 232e 00       		.uleb128 .LVU1635
 19113              	.LLST113:
 19114 232f 06       		.byte	0x6
 19115 2330 00000000 		.4byte	.LVL174
 19116 2334 04       		.byte	0x4
 19117 2335 00       		.uleb128 .LVL174-.LVL174
 19118 2336 20       		.uleb128 .LVL175-.LVL174
 19119 2337 02       		.uleb128 0x2
 19120 2338 30       		.byte	0x30
 19121 2339 9F       		.byte	0x9f
 19122 233a 04       		.byte	0x4
 19123 233b 20       		.uleb128 .LVL175-.LVL174
 19124 233c 28       		.uleb128 .LVL176-.LVL174
 19125 233d 01       		.uleb128 0x1
 19126 233e 55       		.byte	0x55
 19127 233f 04       		.byte	0x4
 19128 2340 28       		.uleb128 .LVL176-.LVL174
 19129 2341 8006     		.uleb128 .LVL216-.LVL174
 19130 2343 03       		.uleb128 0x3
 19131 2344 75       		.byte	0x75
 19132 2345 7C       		.sleb128 -4
 19133 2346 9F       		.byte	0x9f
 19134 2347 04       		.byte	0x4
 19135 2348 8006     		.uleb128 .LVL216-.LVL174
 19136 234a D806     		.uleb128 .LVL220-.LVL174
 19137 234c 01       		.uleb128 0x1
 19138 234d 55       		.byte	0x55
 19139 234e 00       		.byte	0
 19140              	.LVUS115:
 19141 234f 00       		.uleb128 .LVU1286
 19142 2350 03       		.uleb128 .LVU1361
 19143 2351 03       		.uleb128 .LVU1361
 19144 2352 03       		.uleb128 .LVU1407
 19145 2353 03       		.uleb128 .LVU1407
 19146 2354 03       		.uleb128 .LVU1444
 19147 2355 03       		.uleb128 .LVU1444
 19148 2356 03       		.uleb128 .LVU1481
 19149 2357 03       		.uleb128 .LVU1481
 19150 2358 00       		.uleb128 .LVU1635
 19151              	.LLST115:
 19152 2359 06       		.byte	0x6
 19153 235a 00000000 		.4byte	.LVL175
 19154 235e 04       		.byte	0x4
 19155 235f 00       		.uleb128 .LVL175-.LVL175
 19156 2360 DC01     		.uleb128 .LVL187-.LVL175
 19157 2362 02       		.uleb128 0x2
 19158 2363 30       		.byte	0x30
 19159 2364 9F       		.byte	0x9f
 19160 2365 04       		.byte	0x4
 19161 2366 DC01     		.uleb128 .LVL187-.LVL175
 19162 2368 C802     		.uleb128 .LVL191-.LVL175
 19163 236a 02       		.uleb128 0x2
 19164 236b 31       		.byte	0x31
 19165 236c 9F       		.byte	0x9f
 19166 236d 04       		.byte	0x4
 19167 236e C802     		.uleb128 .LVL191-.LVL175
 19168 2370 9403     		.uleb128 .LVL195-.LVL175
 19169 2372 02       		.uleb128 0x2
 19170 2373 32       		.byte	0x32
 19171 2374 9F       		.byte	0x9f
 19172 2375 04       		.byte	0x4
 19173 2376 9403     		.uleb128 .LVL195-.LVL175
 19174 2378 E003     		.uleb128 .LVL199-.LVL175
 19175 237a 02       		.uleb128 0x2
 19176 237b 33       		.byte	0x33
 19177 237c 9F       		.byte	0x9f
 19178 237d 04       		.byte	0x4
 19179 237e E003     		.uleb128 .LVL199-.LVL175
 19180 2380 B806     		.uleb128 .LVL220-.LVL175
 19181 2382 02       		.uleb128 0x2
 19182 2383 34       		.byte	0x34
 19183 2384 9F       		.byte	0x9f
 19184 2385 00       		.byte	0
 19185              	.LVUS117:
 19186 2386 02       		.uleb128 .LVU1288
 19187 2387 01       		.uleb128 .LVU1312
 19188 2388 01       		.uleb128 .LVU1312
 19189 2389 01       		.uleb128 .LVU1332
 19190 238a 01       		.uleb128 .LVU1332
 19191 238b 01       		.uleb128 .LVU1347
 19192 238c 01       		.uleb128 .LVU1347
 19193 238d 01       		.uleb128 .LVU1359
 19194 238e 01       		.uleb128 .LVU1359
 19195 238f 04       		.uleb128 .LVU1362
 19196 2390 04       		.uleb128 .LVU1362
 19197 2391 01       		.uleb128 .LVU1371
 19198 2392 01       		.uleb128 .LVU1371
 19199 2393 01       		.uleb128 .LVU1383
 19200 2394 01       		.uleb128 .LVU1383
 19201 2395 01       		.uleb128 .LVU1392
 19202 2396 01       		.uleb128 .LVU1392
 19203 2397 01       		.uleb128 .LVU1405
 19204 2398 01       		.uleb128 .LVU1405
 19205 2399 04       		.uleb128 .LVU1408
 19206 239a 04       		.uleb128 .LVU1408
 19207 239b 01       		.uleb128 .LVU1416
 19208 239c 01       		.uleb128 .LVU1416
 19209 239d 01       		.uleb128 .LVU1424
 19210 239e 01       		.uleb128 .LVU1424
 19211 239f 01       		.uleb128 .LVU1433
 19212 23a0 01       		.uleb128 .LVU1433
 19213 23a1 01       		.uleb128 .LVU1442
 19214 23a2 01       		.uleb128 .LVU1442
 19215 23a3 04       		.uleb128 .LVU1445
 19216 23a4 04       		.uleb128 .LVU1445
 19217 23a5 01       		.uleb128 .LVU1454
 19218 23a6 01       		.uleb128 .LVU1454
 19219 23a7 01       		.uleb128 .LVU1463
 19220 23a8 01       		.uleb128 .LVU1463
 19221 23a9 01       		.uleb128 .LVU1471
 19222 23aa 01       		.uleb128 .LVU1471
 19223 23ab 01       		.uleb128 .LVU1479
 19224 23ac 01       		.uleb128 .LVU1479
 19225 23ad 00       		.uleb128 .LVU1635
 19226              	.LLST117:
 19227 23ae 06       		.byte	0x6
 19228 23af 00000000 		.4byte	.LVL175
 19229 23b3 04       		.byte	0x4
 19230 23b4 00       		.uleb128 .LVL175-.LVL175
 19231 23b5 54       		.uleb128 .LVL179-.LVL175
 19232 23b6 02       		.uleb128 0x2
 19233 23b7 30       		.byte	0x30
 19234 23b8 9F       		.byte	0x9f
 19235 23b9 04       		.byte	0x4
 19236 23ba 54       		.uleb128 .LVL179-.LVL175
 19237 23bb 9401     		.uleb128 .LVL182-.LVL175
 19238 23bd 02       		.uleb128 0x2
 19239 23be 31       		.byte	0x31
 19240 23bf 9F       		.byte	0x9f
 19241 23c0 04       		.byte	0x4
 19242 23c1 9401     		.uleb128 .LVL182-.LVL175
 19243 23c3 BC01     		.uleb128 .LVL186-.LVL175
 19244 23c5 02       		.uleb128 0x2
 19245 23c6 32       		.byte	0x32
 19246 23c7 9F       		.byte	0x9f
 19247 23c8 04       		.byte	0x4
 19248 23c9 BC01     		.uleb128 .LVL186-.LVL175
 19249 23cb DC01     		.uleb128 .LVL187-.LVL175
 19250 23cd 02       		.uleb128 0x2
 19251 23ce 33       		.byte	0x33
 19252 23cf 9F       		.byte	0x9f
 19253 23d0 04       		.byte	0x4
 19254 23d1 DC01     		.uleb128 .LVL187-.LVL175
 19255 23d3 DC01     		.uleb128 .LVL187-.LVL175
 19256 23d5 02       		.uleb128 0x2
 19257 23d6 34       		.byte	0x34
 19258 23d7 9F       		.byte	0x9f
 19259 23d8 04       		.byte	0x4
 19260 23d9 DC01     		.uleb128 .LVL187-.LVL175
 19261 23db F001     		.uleb128 .LVL188-.LVL175
 19262 23dd 02       		.uleb128 0x2
 19263 23de 30       		.byte	0x30
 19264 23df 9F       		.byte	0x9f
 19265 23e0 04       		.byte	0x4
 19266 23e1 F001     		.uleb128 .LVL188-.LVL175
 19267 23e3 9002     		.uleb128 .LVL189-.LVL175
 19268 23e5 02       		.uleb128 0x2
 19269 23e6 31       		.byte	0x31
 19270 23e7 9F       		.byte	0x9f
 19271 23e8 04       		.byte	0x4
 19272 23e9 9002     		.uleb128 .LVL189-.LVL175
 19273 23eb A402     		.uleb128 .LVL190-.LVL175
 19274 23ed 02       		.uleb128 0x2
 19275 23ee 32       		.byte	0x32
 19276 23ef 9F       		.byte	0x9f
 19277 23f0 04       		.byte	0x4
 19278 23f1 A402     		.uleb128 .LVL190-.LVL175
 19279 23f3 C802     		.uleb128 .LVL191-.LVL175
 19280 23f5 02       		.uleb128 0x2
 19281 23f6 33       		.byte	0x33
 19282 23f7 9F       		.byte	0x9f
 19283 23f8 04       		.byte	0x4
 19284 23f9 C802     		.uleb128 .LVL191-.LVL175
 19285 23fb C802     		.uleb128 .LVL191-.LVL175
 19286 23fd 02       		.uleb128 0x2
 19287 23fe 34       		.byte	0x34
 19288 23ff 9F       		.byte	0x9f
 19289 2400 04       		.byte	0x4
 19290 2401 C802     		.uleb128 .LVL191-.LVL175
 19291 2403 DC02     		.uleb128 .LVL192-.LVL175
 19292 2405 02       		.uleb128 0x2
 19293 2406 30       		.byte	0x30
 19294 2407 9F       		.byte	0x9f
 19295 2408 04       		.byte	0x4
 19296 2409 DC02     		.uleb128 .LVL192-.LVL175
 19297 240b EC02     		.uleb128 .LVL193-.LVL175
 19298 240d 02       		.uleb128 0x2
 19299 240e 31       		.byte	0x31
 19300 240f 9F       		.byte	0x9f
 19301 2410 04       		.byte	0x4
 19302 2411 EC02     		.uleb128 .LVL193-.LVL175
 19303 2413 8003     		.uleb128 .LVL194-.LVL175
 19304 2415 02       		.uleb128 0x2
 19305 2416 32       		.byte	0x32
 19306 2417 9F       		.byte	0x9f
 19307 2418 04       		.byte	0x4
 19308 2419 8003     		.uleb128 .LVL194-.LVL175
 19309 241b 9403     		.uleb128 .LVL195-.LVL175
 19310 241d 02       		.uleb128 0x2
 19311 241e 33       		.byte	0x33
 19312 241f 9F       		.byte	0x9f
 19313 2420 04       		.byte	0x4
 19314 2421 9403     		.uleb128 .LVL195-.LVL175
 19315 2423 9403     		.uleb128 .LVL195-.LVL175
 19316 2425 02       		.uleb128 0x2
 19317 2426 34       		.byte	0x34
 19318 2427 9F       		.byte	0x9f
 19319 2428 04       		.byte	0x4
 19320 2429 9403     		.uleb128 .LVL195-.LVL175
 19321 242b A803     		.uleb128 .LVL196-.LVL175
 19322 242d 02       		.uleb128 0x2
 19323 242e 30       		.byte	0x30
 19324 242f 9F       		.byte	0x9f
 19325 2430 04       		.byte	0x4
 19326 2431 A803     		.uleb128 .LVL196-.LVL175
 19327 2433 C003     		.uleb128 .LVL197-.LVL175
 19328 2435 02       		.uleb128 0x2
 19329 2436 31       		.byte	0x31
 19330 2437 9F       		.byte	0x9f
 19331 2438 04       		.byte	0x4
 19332 2439 C003     		.uleb128 .LVL197-.LVL175
 19333 243b D003     		.uleb128 .LVL198-.LVL175
 19334 243d 02       		.uleb128 0x2
 19335 243e 32       		.byte	0x32
 19336 243f 9F       		.byte	0x9f
 19337 2440 04       		.byte	0x4
 19338 2441 D003     		.uleb128 .LVL198-.LVL175
 19339 2443 E003     		.uleb128 .LVL199-.LVL175
 19340 2445 02       		.uleb128 0x2
 19341 2446 33       		.byte	0x33
 19342 2447 9F       		.byte	0x9f
 19343 2448 04       		.byte	0x4
 19344 2449 E003     		.uleb128 .LVL199-.LVL175
 19345 244b B806     		.uleb128 .LVL220-.LVL175
 19346 244d 02       		.uleb128 0x2
 19347 244e 34       		.byte	0x34
 19348 244f 9F       		.byte	0x9f
 19349 2450 00       		.byte	0
 19350              	.LVUS119:
 19351 2451 04       		.uleb128 .LVU1482
 19352 2452 03       		.uleb128 .LVU1518
 19353 2453 03       		.uleb128 .LVU1518
 19354 2454 03       		.uleb128 .LVU1553
 19355 2455 03       		.uleb128 .LVU1553
 19356 2456 03       		.uleb128 .LVU1588
 19357 2457 03       		.uleb128 .LVU1588
 19358 2458 03       		.uleb128 .LVU1623
 19359 2459 03       		.uleb128 .LVU1623
 19360 245a 00       		.uleb128 .LVU1635
 19361              	.LLST119:
 19362 245b 06       		.byte	0x6
 19363 245c 00000000 		.4byte	.LVL199
 19364 2460 04       		.byte	0x4
 19365 2461 00       		.uleb128 .LVL199-.LVL199
 19366 2462 40       		.uleb128 .LVL203-.LVL199
 19367 2463 02       		.uleb128 0x2
 19368 2464 30       		.byte	0x30
 19369 2465 9F       		.byte	0x9f
 19370 2466 04       		.byte	0x4
 19371 2467 40       		.uleb128 .LVL203-.LVL199
 19372 2468 8001     		.uleb128 .LVL207-.LVL199
 19373 246a 02       		.uleb128 0x2
 19374 246b 31       		.byte	0x31
 19375 246c 9F       		.byte	0x9f
 19376 246d 04       		.byte	0x4
 19377 246e 8001     		.uleb128 .LVL207-.LVL199
 19378 2470 C001     		.uleb128 .LVL211-.LVL199
 19379 2472 02       		.uleb128 0x2
 19380 2473 32       		.byte	0x32
 19381 2474 9F       		.byte	0x9f
 19382 2475 04       		.byte	0x4
 19383 2476 C001     		.uleb128 .LVL211-.LVL199
 19384 2478 8002     		.uleb128 .LVL216-.LVL199
 19385 247a 02       		.uleb128 0x2
 19386 247b 33       		.byte	0x33
 19387 247c 9F       		.byte	0x9f
 19388 247d 04       		.byte	0x4
 19389 247e 8002     		.uleb128 .LVL216-.LVL199
 19390 2480 D802     		.uleb128 .LVL220-.LVL199
 19391 2482 02       		.uleb128 0x2
 19392 2483 34       		.byte	0x34
 19393 2484 9F       		.byte	0x9f
 19394 2485 00       		.byte	0
 19395              	.LVUS121:
 19396 2486 06       		.uleb128 .LVU1484
 19397 2487 01       		.uleb128 .LVU1492
 19398 2488 01       		.uleb128 .LVU1492
 19399 2489 01       		.uleb128 .LVU1500
 19400 248a 01       		.uleb128 .LVU1500
 19401 248b 01       		.uleb128 .LVU1508
 19402 248c 01       		.uleb128 .LVU1508
 19403 248d 01       		.uleb128 .LVU1516
 19404 248e 01       		.uleb128 .LVU1516
 19405 248f 04       		.uleb128 .LVU1519
 19406 2490 04       		.uleb128 .LVU1519
 19407 2491 01       		.uleb128 .LVU1527
 19408 2492 01       		.uleb128 .LVU1527
 19409 2493 01       		.uleb128 .LVU1535
 19410 2494 01       		.uleb128 .LVU1535
 19411 2495 01       		.uleb128 .LVU1543
 19412 2496 01       		.uleb128 .LVU1543
 19413 2497 01       		.uleb128 .LVU1551
 19414 2498 01       		.uleb128 .LVU1551
 19415 2499 04       		.uleb128 .LVU1554
 19416 249a 04       		.uleb128 .LVU1554
 19417 249b 01       		.uleb128 .LVU1562
 19418 249c 01       		.uleb128 .LVU1562
 19419 249d 01       		.uleb128 .LVU1570
 19420 249e 01       		.uleb128 .LVU1570
 19421 249f 01       		.uleb128 .LVU1578
 19422 24a0 01       		.uleb128 .LVU1578
 19423 24a1 01       		.uleb128 .LVU1586
 19424 24a2 01       		.uleb128 .LVU1586
 19425 24a3 04       		.uleb128 .LVU1589
 19426 24a4 04       		.uleb128 .LVU1589
 19427 24a5 01       		.uleb128 .LVU1597
 19428 24a6 01       		.uleb128 .LVU1597
 19429 24a7 01       		.uleb128 .LVU1605
 19430 24a8 01       		.uleb128 .LVU1605
 19431 24a9 01       		.uleb128 .LVU1613
 19432 24aa 01       		.uleb128 .LVU1613
 19433 24ab 01       		.uleb128 .LVU1621
 19434 24ac 01       		.uleb128 .LVU1621
 19435 24ad 00       		.uleb128 .LVU1635
 19436              	.LLST121:
 19437 24ae 06       		.byte	0x6
 19438 24af 00000000 		.4byte	.LVL199
 19439 24b3 04       		.byte	0x4
 19440 24b4 00       		.uleb128 .LVL199-.LVL199
 19441 24b5 10       		.uleb128 .LVL200-.LVL199
 19442 24b6 02       		.uleb128 0x2
 19443 24b7 30       		.byte	0x30
 19444 24b8 9F       		.byte	0x9f
 19445 24b9 04       		.byte	0x4
 19446 24ba 10       		.uleb128 .LVL200-.LVL199
 19447 24bb 20       		.uleb128 .LVL201-.LVL199
 19448 24bc 02       		.uleb128 0x2
 19449 24bd 31       		.byte	0x31
 19450 24be 9F       		.byte	0x9f
 19451 24bf 04       		.byte	0x4
 19452 24c0 20       		.uleb128 .LVL201-.LVL199
 19453 24c1 30       		.uleb128 .LVL202-.LVL199
 19454 24c2 02       		.uleb128 0x2
 19455 24c3 32       		.byte	0x32
 19456 24c4 9F       		.byte	0x9f
 19457 24c5 04       		.byte	0x4
 19458 24c6 30       		.uleb128 .LVL202-.LVL199
 19459 24c7 40       		.uleb128 .LVL203-.LVL199
 19460 24c8 02       		.uleb128 0x2
 19461 24c9 33       		.byte	0x33
 19462 24ca 9F       		.byte	0x9f
 19463 24cb 04       		.byte	0x4
 19464 24cc 40       		.uleb128 .LVL203-.LVL199
 19465 24cd 40       		.uleb128 .LVL203-.LVL199
 19466 24ce 02       		.uleb128 0x2
 19467 24cf 34       		.byte	0x34
 19468 24d0 9F       		.byte	0x9f
 19469 24d1 04       		.byte	0x4
 19470 24d2 40       		.uleb128 .LVL203-.LVL199
 19471 24d3 50       		.uleb128 .LVL204-.LVL199
 19472 24d4 02       		.uleb128 0x2
 19473 24d5 30       		.byte	0x30
 19474 24d6 9F       		.byte	0x9f
 19475 24d7 04       		.byte	0x4
 19476 24d8 50       		.uleb128 .LVL204-.LVL199
 19477 24d9 60       		.uleb128 .LVL205-.LVL199
 19478 24da 02       		.uleb128 0x2
 19479 24db 31       		.byte	0x31
 19480 24dc 9F       		.byte	0x9f
 19481 24dd 04       		.byte	0x4
 19482 24de 60       		.uleb128 .LVL205-.LVL199
 19483 24df 70       		.uleb128 .LVL206-.LVL199
 19484 24e0 02       		.uleb128 0x2
 19485 24e1 32       		.byte	0x32
 19486 24e2 9F       		.byte	0x9f
 19487 24e3 04       		.byte	0x4
 19488 24e4 70       		.uleb128 .LVL206-.LVL199
 19489 24e5 8001     		.uleb128 .LVL207-.LVL199
 19490 24e7 02       		.uleb128 0x2
 19491 24e8 33       		.byte	0x33
 19492 24e9 9F       		.byte	0x9f
 19493 24ea 04       		.byte	0x4
 19494 24eb 8001     		.uleb128 .LVL207-.LVL199
 19495 24ed 8001     		.uleb128 .LVL207-.LVL199
 19496 24ef 02       		.uleb128 0x2
 19497 24f0 34       		.byte	0x34
 19498 24f1 9F       		.byte	0x9f
 19499 24f2 04       		.byte	0x4
 19500 24f3 8001     		.uleb128 .LVL207-.LVL199
 19501 24f5 9001     		.uleb128 .LVL208-.LVL199
 19502 24f7 02       		.uleb128 0x2
 19503 24f8 30       		.byte	0x30
 19504 24f9 9F       		.byte	0x9f
 19505 24fa 04       		.byte	0x4
 19506 24fb 9001     		.uleb128 .LVL208-.LVL199
 19507 24fd A001     		.uleb128 .LVL209-.LVL199
 19508 24ff 02       		.uleb128 0x2
 19509 2500 31       		.byte	0x31
 19510 2501 9F       		.byte	0x9f
 19511 2502 04       		.byte	0x4
 19512 2503 A001     		.uleb128 .LVL209-.LVL199
 19513 2505 B001     		.uleb128 .LVL210-.LVL199
 19514 2507 02       		.uleb128 0x2
 19515 2508 32       		.byte	0x32
 19516 2509 9F       		.byte	0x9f
 19517 250a 04       		.byte	0x4
 19518 250b B001     		.uleb128 .LVL210-.LVL199
 19519 250d C001     		.uleb128 .LVL211-.LVL199
 19520 250f 02       		.uleb128 0x2
 19521 2510 33       		.byte	0x33
 19522 2511 9F       		.byte	0x9f
 19523 2512 04       		.byte	0x4
 19524 2513 C001     		.uleb128 .LVL211-.LVL199
 19525 2515 C001     		.uleb128 .LVL211-.LVL199
 19526 2517 02       		.uleb128 0x2
 19527 2518 34       		.byte	0x34
 19528 2519 9F       		.byte	0x9f
 19529 251a 04       		.byte	0x4
 19530 251b C001     		.uleb128 .LVL211-.LVL199
 19531 251d D001     		.uleb128 .LVL212-.LVL199
 19532 251f 02       		.uleb128 0x2
 19533 2520 30       		.byte	0x30
 19534 2521 9F       		.byte	0x9f
 19535 2522 04       		.byte	0x4
 19536 2523 D001     		.uleb128 .LVL212-.LVL199
 19537 2525 E001     		.uleb128 .LVL213-.LVL199
 19538 2527 02       		.uleb128 0x2
 19539 2528 31       		.byte	0x31
 19540 2529 9F       		.byte	0x9f
 19541 252a 04       		.byte	0x4
 19542 252b E001     		.uleb128 .LVL213-.LVL199
 19543 252d F001     		.uleb128 .LVL214-.LVL199
 19544 252f 02       		.uleb128 0x2
 19545 2530 32       		.byte	0x32
 19546 2531 9F       		.byte	0x9f
 19547 2532 04       		.byte	0x4
 19548 2533 F001     		.uleb128 .LVL214-.LVL199
 19549 2535 8002     		.uleb128 .LVL216-.LVL199
 19550 2537 02       		.uleb128 0x2
 19551 2538 33       		.byte	0x33
 19552 2539 9F       		.byte	0x9f
 19553 253a 04       		.byte	0x4
 19554 253b 8002     		.uleb128 .LVL216-.LVL199
 19555 253d D802     		.uleb128 .LVL220-.LVL199
 19556 253f 02       		.uleb128 0x2
 19557 2540 34       		.byte	0x34
 19558 2541 9F       		.byte	0x9f
 19559 2542 00       		.byte	0
 19560              	.LVUS76:
 19561 2543 00       		.uleb128 0
 19562 2544 00       		.uleb128 .LVU1033
 19563 2545 00       		.uleb128 .LVU1033
 19564 2546 00       		.uleb128 .LVU1256
 19565 2547 00       		.uleb128 .LVU1256
 19566 2548 00       		.uleb128 .LVU1257
 19567 2549 00       		.uleb128 .LVU1257
 19568 254a 00       		.uleb128 0
 19569              	.LLST76:
 19570 254b 06       		.byte	0x6
 19571 254c 00000000 		.4byte	.LVL133
 19572 2550 04       		.byte	0x4
 19573 2551 00       		.uleb128 .LVL133-.LVL133
 19574 2552 24       		.uleb128 .LVL134-.LVL133
 19575 2553 01       		.uleb128 0x1
 19576 2554 53       		.byte	0x53
 19577 2555 04       		.byte	0x4
 19578 2556 24       		.uleb128 .LVL134-.LVL133
 19579 2557 C804     		.uleb128 .LVL165-.LVL133
 19580 2559 01       		.uleb128 0x1
 19581 255a 6F       		.byte	0x6f
 19582 255b 04       		.byte	0x4
 19583 255c C804     		.uleb128 .LVL165-.LVL133
 19584 255e D004     		.uleb128 .LVL166-.LVL133
 19585 2560 0A       		.uleb128 0xa
 19586 2561 A3       		.byte	0xa3
 19587 2562 03       		.uleb128 0x3
 19588 2563 A5       		.byte	0xa5
 19589 2564 03       		.uleb128 0x3
 19590 2565 2D       		.uleb128 0x2d
 19591 2566 A8       		.byte	0xa8
 19592 2567 26       		.uleb128 0x26
 19593 2568 A8       		.byte	0xa8
 19594 2569 00       		.uleb128 0
 19595 256a 9F       		.byte	0x9f
 19596 256b 04       		.byte	0x4
 19597 256c D004     		.uleb128 .LVL166-.LVL133
 19598 256e D804     		.uleb128 .LFE73-.LVL133
 19599 2570 01       		.uleb128 0x1
 19600 2571 6F       		.byte	0x6f
 19601 2572 00       		.byte	0
 19602              	.LVUS77:
 19603 2573 00       		.uleb128 0
 19604 2574 00       		.uleb128 .LVU1038
 19605 2575 00       		.uleb128 .LVU1038
 19606 2576 00       		.uleb128 .LVU1253
 19607 2577 00       		.uleb128 .LVU1253
 19608 2578 00       		.uleb128 0
 19609              	.LLST77:
 19610 2579 06       		.byte	0x6
 19611 257a 00000000 		.4byte	.LVL133
 19612 257e 04       		.byte	0x4
 19613 257f 00       		.uleb128 .LVL133-.LVL133
 19614 2580 34       		.uleb128 .LVL136-.LVL133
 19615 2581 01       		.uleb128 0x1
 19616 2582 54       		.byte	0x54
 19617 2583 04       		.byte	0x4
 19618 2584 34       		.uleb128 .LVL136-.LVL133
 19619 2585 B804     		.uleb128 .LVL162-.LVL133
 19620 2587 01       		.uleb128 0x1
 19621 2588 66       		.byte	0x66
 19622 2589 04       		.byte	0x4
 19623 258a B804     		.uleb128 .LVL162-.LVL133
 19624 258c D804     		.uleb128 .LFE73-.LVL133
 19625 258e 0A       		.uleb128 0xa
 19626 258f A3       		.byte	0xa3
 19627 2590 03       		.uleb128 0x3
 19628 2591 A5       		.byte	0xa5
 19629 2592 04       		.uleb128 0x4
 19630 2593 2D       		.uleb128 0x2d
 19631 2594 A8       		.byte	0xa8
 19632 2595 34       		.uleb128 0x34
 19633 2596 A8       		.byte	0xa8
 19634 2597 00       		.uleb128 0
 19635 2598 9F       		.byte	0x9f
 19636 2599 00       		.byte	0
 19637              	.LVUS78:
 19638 259a 00       		.uleb128 0
 19639 259b 00       		.uleb128 .LVU1040
 19640 259c 00       		.uleb128 .LVU1040
 19641 259d 00       		.uleb128 .LVU1252
 19642 259e 00       		.uleb128 .LVU1252
 19643 259f 00       		.uleb128 0
 19644              	.LLST78:
 19645 25a0 06       		.byte	0x6
 19646 25a1 00000000 		.4byte	.LVL133
 19647 25a5 04       		.byte	0x4
 19648 25a6 00       		.uleb128 .LVL133-.LVL133
 19649 25a7 3F       		.uleb128 .LVL137-1-.LVL133
 19650 25a8 01       		.uleb128 0x1
 19651 25a9 55       		.byte	0x55
 19652 25aa 04       		.byte	0x4
 19653 25ab 3F       		.uleb128 .LVL137-1-.LVL133
 19654 25ac B404     		.uleb128 .LVL161-.LVL133
 19655 25ae 01       		.uleb128 0x1
 19656 25af 65       		.byte	0x65
 19657 25b0 04       		.byte	0x4
 19658 25b1 B404     		.uleb128 .LVL161-.LVL133
 19659 25b3 D804     		.uleb128 .LFE73-.LVL133
 19660 25b5 0A       		.uleb128 0xa
 19661 25b6 A3       		.byte	0xa3
 19662 25b7 03       		.uleb128 0x3
 19663 25b8 A5       		.byte	0xa5
 19664 25b9 05       		.uleb128 0x5
 19665 25ba 2D       		.uleb128 0x2d
 19666 25bb A8       		.byte	0xa8
 19667 25bc 34       		.uleb128 0x34
 19668 25bd A8       		.byte	0xa8
 19669 25be 00       		.uleb128 0
 19670 25bf 9F       		.byte	0x9f
 19671 25c0 00       		.byte	0
 19672              	.LVUS79:
 19673 25c1 00       		.uleb128 .LVU1035
 19674 25c2 00       		.uleb128 .LVU1255
 19675 25c3 00       		.uleb128 .LVU1255
 19676 25c4 00       		.uleb128 .LVU1257
 19677 25c5 00       		.uleb128 .LVU1257
 19678 25c6 00       		.uleb128 0
 19679              	.LLST79:
 19680 25c7 06       		.byte	0x6
 19681 25c8 00000000 		.4byte	.LVL135
 19682 25cc 04       		.byte	0x4
 19683 25cd 00       		.uleb128 .LVL135-.LVL135
 19684 25ce 9804     		.uleb128 .LVL164-.LVL135
 19685 25d0 01       		.uleb128 0x1
 19686 25d1 6E       		.byte	0x6e
 19687 25d2 04       		.byte	0x4
 19688 25d3 9804     		.uleb128 .LVL164-.LVL135
 19689 25d5 A404     		.uleb128 .LVL166-.LVL135
 19690 25d7 16       		.uleb128 0x16
 19691 25d8 A3       		.byte	0xa3
 19692 25d9 03       		.uleb128 0x3
 19693 25da A5       		.byte	0xa5
 19694 25db 05       		.uleb128 0x5
 19695 25dc 2D       		.uleb128 0x2d
 19696 25dd A8       		.byte	0xa8
 19697 25de 26       		.uleb128 0x26
 19698 25df A8       		.byte	0xa8
 19699 25e0 00       		.uleb128 0
 19700 25e1 A3       		.byte	0xa3
 19701 25e2 03       		.uleb128 0x3
 19702 25e3 A5       		.byte	0xa5
 19703 25e4 04       		.uleb128 0x4
 19704 25e5 2D       		.uleb128 0x2d
 19705 25e6 A8       		.byte	0xa8
 19706 25e7 26       		.uleb128 0x26
 19707 25e8 A8       		.byte	0xa8
 19708 25e9 00       		.uleb128 0
 19709 25ea 1E       		.byte	0x1e
 19710 25eb 31       		.byte	0x31
 19711 25ec 24       		.byte	0x24
 19712 25ed 9F       		.byte	0x9f
 19713 25ee 04       		.byte	0x4
 19714 25ef A404     		.uleb128 .LVL166-.LVL135
 19715 25f1 AC04     		.uleb128 .LFE73-.LVL135
 19716 25f3 01       		.uleb128 0x1
 19717 25f4 6E       		.byte	0x6e
 19718 25f5 00       		.byte	0
 19719              	.LVUS80:
 19720 25f6 00       		.uleb128 .LVU1042
 19721 25f7 00       		.uleb128 .LVU1044
 19722 25f8 00       		.uleb128 .LVU1044
 19723 25f9 00       		.uleb128 .LVU1254
 19724 25fa 00       		.uleb128 .LVU1254
 19725 25fb 00       		.uleb128 .LVU1257
 19726 25fc 00       		.uleb128 .LVU1257
 19727 25fd 00       		.uleb128 0
 19728              	.LLST80:
 19729 25fe 06       		.byte	0x6
 19730 25ff 00000000 		.4byte	.LVL138
 19731 2603 04       		.byte	0x4
 19732 2604 00       		.uleb128 .LVL138-.LVL138
 19733 2605 03       		.uleb128 .LVL139-1-.LVL138
 19734 2606 01       		.uleb128 0x1
 19735 2607 53       		.byte	0x53
 19736 2608 04       		.byte	0x4
 19737 2609 03       		.uleb128 .LVL139-1-.LVL138
 19738 260a F403     		.uleb128 .LVL163-.LVL138
 19739 260c 01       		.uleb128 0x1
 19740 260d 6D       		.byte	0x6d
 19741 260e 04       		.byte	0x4
 19742 260f F403     		.uleb128 .LVL163-.LVL138
 19743 2611 8404     		.uleb128 .LVL166-.LVL138
 19744 2613 01       		.uleb128 0x1
 19745 2614 53       		.byte	0x53
 19746 2615 04       		.byte	0x4
 19747 2616 8404     		.uleb128 .LVL166-.LVL138
 19748 2618 8C04     		.uleb128 .LFE73-.LVL138
 19749 261a 01       		.uleb128 0x1
 19750 261b 59       		.byte	0x59
 19751 261c 00       		.byte	0
 19752              	.LVUS81:
 19753 261d 01       		.uleb128 .LVU1045
 19754 261e 00       		.uleb128 .LVU1256
 19755 261f 00       		.uleb128 .LVU1256
 19756 2620 00       		.uleb128 .LVU1257
 19757 2621 00       		.uleb128 .LVU1257
 19758 2622 00       		.uleb128 0
 19759              	.LLST81:
 19760 2623 06       		.byte	0x6
 19761 2624 00000000 		.4byte	.LVL139
 19762 2628 04       		.byte	0x4
 19763 2629 00       		.uleb128 .LVL139-.LVL139
 19764 262a F803     		.uleb128 .LVL165-.LVL139
 19765 262c 01       		.uleb128 0x1
 19766 262d 6F       		.byte	0x6f
 19767 262e 04       		.byte	0x4
 19768 262f F803     		.uleb128 .LVL165-.LVL139
 19769 2631 8004     		.uleb128 .LVL166-.LVL139
 19770 2633 0A       		.uleb128 0xa
 19771 2634 A3       		.byte	0xa3
 19772 2635 03       		.uleb128 0x3
 19773 2636 A5       		.byte	0xa5
 19774 2637 03       		.uleb128 0x3
 19775 2638 2D       		.uleb128 0x2d
 19776 2639 A8       		.byte	0xa8
 19777 263a 26       		.uleb128 0x26
 19778 263b A8       		.byte	0xa8
 19779 263c 00       		.uleb128 0
 19780 263d 9F       		.byte	0x9f
 19781 263e 04       		.byte	0x4
 19782 263f 8004     		.uleb128 .LVL166-.LVL139
 19783 2641 8804     		.uleb128 .LFE73-.LVL139
 19784 2643 01       		.uleb128 0x1
 19785 2644 6F       		.byte	0x6f
 19786 2645 00       		.byte	0
 19787              	.LVUS82:
 19788 2646 02       		.uleb128 .LVU1046
 19789 2647 00       		.uleb128 .LVU1050
 19790 2648 00       		.uleb128 .LVU1050
 19791 2649 05       		.uleb128 .LVU1099
 19792 264a 05       		.uleb128 .LVU1099
 19793 264b 00       		.uleb128 .LVU1101
 19794 264c 00       		.uleb128 .LVU1101
 19795 264d 06       		.uleb128 .LVU1119
 19796 264e 14       		.uleb128 .LVU1236
 19797 264f 00       		.uleb128 .LVU1247
 19798 2650 00       		.uleb128 .LVU1257
 19799 2651 00       		.uleb128 0
 19800              	.LLST82:
 19801 2652 06       		.byte	0x6
 19802 2653 00000000 		.4byte	.LVL139
 19803 2657 04       		.byte	0x4
 19804 2658 00       		.uleb128 .LVL139-.LVL139
 19805 2659 4C       		.uleb128 .LVL140-.LVL139
 19806 265a 01       		.uleb128 0x1
 19807 265b 6D       		.byte	0x6d
 19808 265c 04       		.byte	0x4
 19809 265d 4C       		.uleb128 .LVL140-.LVL139
 19810 265e 8802     		.uleb128 .LVL143-.LVL139
 19811 2660 01       		.uleb128 0x1
 19812 2661 59       		.byte	0x59
 19813 2662 04       		.byte	0x4
 19814 2663 8802     		.uleb128 .LVL143-.LVL139
 19815 2665 8C02     		.uleb128 .LVL144-.LVL139
 19816 2667 03       		.uleb128 0x3
 19817 2668 79       		.byte	0x79
 19818 2669 02       		.sleb128 2
 19819 266a 9F       		.byte	0x9f
 19820 266b 04       		.byte	0x4
 19821 266c 8C02     		.uleb128 .LVL144-.LVL139
 19822 266e CC02     		.uleb128 .LVL145-.LVL139
 19823 2670 03       		.uleb128 0x3
 19824 2671 79       		.byte	0x79
 19825 2672 62       		.sleb128 -30
 19826 2673 9F       		.byte	0x9f
 19827 2674 04       		.byte	0x4
 19828 2675 8003     		.uleb128 .LVL154-.LVL139
 19829 2677 CC03     		.uleb128 .LVL159-.LVL139
 19830 2679 01       		.uleb128 0x1
 19831 267a 59       		.byte	0x59
 19832 267b 04       		.byte	0x4
 19833 267c 8004     		.uleb128 .LVL166-.LVL139
 19834 267e 8804     		.uleb128 .LFE73-.LVL139
 19835 2680 01       		.uleb128 0x1
 19836 2681 59       		.byte	0x59
 19837 2682 00       		.byte	0
 19838              	.LVUS84:
 19839 2683 03       		.uleb128 .LVU1047
 19840 2684 00       		.uleb128 .LVU1050
 19841 2685 00       		.uleb128 .LVU1050
 19842 2686 00       		.uleb128 .LVU1244
 19843 2687 00       		.uleb128 .LVU1245
 19844 2688 00       		.uleb128 .LVU1246
 19845 2689 00       		.uleb128 .LVU1257
 19846 268a 00       		.uleb128 0
 19847              	.LLST84:
 19848 268b 06       		.byte	0x6
 19849 268c 00000000 		.4byte	.LVL139
 19850 2690 04       		.byte	0x4
 19851 2691 00       		.uleb128 .LVL139-.LVL139
 19852 2692 4C       		.uleb128 .LVL140-.LVL139
 19853 2693 02       		.uleb128 0x2
 19854 2694 30       		.byte	0x30
 19855 2695 9F       		.byte	0x9f
 19856 2696 04       		.byte	0x4
 19857 2697 4C       		.uleb128 .LVL140-.LVL139
 19858 2698 8C03     		.uleb128 .LVL156-.LVL139
 19859 269a 01       		.uleb128 0x1
 19860 269b 61       		.byte	0x61
 19861 269c 04       		.byte	0x4
 19862 269d 9003     		.uleb128 .LVL157-.LVL139
 19863 269f A803     		.uleb128 .LVL158-.LVL139
 19864 26a1 01       		.uleb128 0x1
 19865 26a2 61       		.byte	0x61
 19866 26a3 04       		.byte	0x4
 19867 26a4 8004     		.uleb128 .LVL166-.LVL139
 19868 26a6 8804     		.uleb128 .LFE73-.LVL139
 19869 26a8 02       		.uleb128 0x2
 19870 26a9 30       		.byte	0x30
 19871 26aa 9F       		.byte	0x9f
 19872 26ab 00       		.byte	0
 19873              	.LVUS85:
 19874 26ac 00       		.uleb128 .LVU1050
 19875 26ad 00       		.uleb128 .LVU1054
 19876 26ae 00       		.uleb128 .LVU1054
 19877 26af 00       		.uleb128 .LVU1058
 19878 26b0 00       		.uleb128 .LVU1058
 19879 26b1 03       		.uleb128 .LVU1241
 19880 26b2 03       		.uleb128 .LVU1241
 19881 26b3 00       		.uleb128 .LVU1247
 19882              	.LLST85:
 19883 26b4 06       		.byte	0x6
 19884 26b5 00000000 		.4byte	.LVL140
 19885 26b9 04       		.byte	0x4
 19886 26ba 00       		.uleb128 .LVL140-.LVL140
 19887 26bb 18       		.uleb128 .LVL141-.LVL140
 19888 26bc 02       		.uleb128 0x2
 19889 26bd 30       		.byte	0x30
 19890 26be 9F       		.byte	0x9f
 19891 26bf 04       		.byte	0x4
 19892 26c0 18       		.uleb128 .LVL141-.LVL140
 19893 26c1 20       		.uleb128 .LVL142-.LVL140
 19894 26c2 01       		.uleb128 0x1
 19895 26c3 53       		.byte	0x53
 19896 26c4 04       		.byte	0x4
 19897 26c5 20       		.uleb128 .LVL142-.LVL140
 19898 26c6 B802     		.uleb128 .LVL155-.LVL140
 19899 26c8 03       		.uleb128 0x3
 19900 26c9 73       		.byte	0x73
 19901 26ca 7C       		.sleb128 -4
 19902 26cb 9F       		.byte	0x9f
 19903 26cc 04       		.byte	0x4
 19904 26cd B802     		.uleb128 .LVL155-.LVL140
 19905 26cf 8003     		.uleb128 .LVL159-.LVL140
 19906 26d1 01       		.uleb128 0x1
 19907 26d2 53       		.byte	0x53
 19908 26d3 00       		.byte	0
 19909              	.LVUS87:
 19910 26d4 00       		.uleb128 .LVU1054
 19911 26d5 01       		.uleb128 .LVU1137
 19912 26d6 01       		.uleb128 .LVU1137
 19913 26d7 01       		.uleb128 .LVU1171
 19914 26d8 01       		.uleb128 .LVU1171
 19915 26d9 01       		.uleb128 .LVU1206
 19916 26da 01       		.uleb128 .LVU1206
 19917 26db 01       		.uleb128 .LVU1239
 19918 26dc 01       		.uleb128 .LVU1239
 19919 26dd 00       		.uleb128 .LVU1247
 19920              	.LLST87:
 19921 26de 06       		.byte	0x6
 19922 26df 00000000 		.4byte	.LVL141
 19923 26e3 04       		.byte	0x4
 19924 26e4 00       		.uleb128 .LVL141-.LVL141
 19925 26e5 F001     		.uleb128 .LVL147-.LVL141
 19926 26e7 02       		.uleb128 0x2
 19927 26e8 30       		.byte	0x30
 19928 26e9 9F       		.byte	0x9f
 19929 26ea 04       		.byte	0x4
 19930 26eb F001     		.uleb128 .LVL147-.LVL141
 19931 26ed 8002     		.uleb128 .LVL150-.LVL141
 19932 26ef 02       		.uleb128 0x2
 19933 26f0 31       		.byte	0x31
 19934 26f1 9F       		.byte	0x9f
 19935 26f2 04       		.byte	0x4
 19936 26f3 8002     		.uleb128 .LVL150-.LVL141
 19937 26f5 9402     		.uleb128 .LVL153-.LVL141
 19938 26f7 02       		.uleb128 0x2
 19939 26f8 32       		.byte	0x32
 19940 26f9 9F       		.byte	0x9f
 19941 26fa 04       		.byte	0x4
 19942 26fb 9402     		.uleb128 .LVL153-.LVL141
 19943 26fd A002     		.uleb128 .LVL155-.LVL141
 19944 26ff 02       		.uleb128 0x2
 19945 2700 33       		.byte	0x33
 19946 2701 9F       		.byte	0x9f
 19947 2702 04       		.byte	0x4
 19948 2703 A002     		.uleb128 .LVL155-.LVL141
 19949 2705 E802     		.uleb128 .LVL159-.LVL141
 19950 2707 02       		.uleb128 0x2
 19951 2708 34       		.byte	0x34
 19952 2709 9F       		.byte	0x9f
 19953 270a 00       		.byte	0
 19954              	.LVUS89:
 19955 270b 00       		.uleb128 .LVU1094
 19956 270c 05       		.uleb128 .LVU1099
 19957 270d 03       		.uleb128 .LVU1139
 19958 270e 08       		.uleb128 .LVU1144
 19959 270f 03       		.uleb128 .LVU1173
 19960 2710 08       		.uleb128 .LVU1178
 19961 2711 03       		.uleb128 .LVU1208
 19962 2712 08       		.uleb128 .LVU1213
 19963              	.LLST89:
 19964 2713 08       		.byte	0x8
 19965 2714 00000000 		.4byte	.LVL143
 19966 2718 00       		.uleb128 .LVL143-.LVL143
 19967 2719 01       		.uleb128 0x1
 19968 271a 60       		.byte	0x60
 19969 271b 08       		.byte	0x8
 19970 271c 00000000 		.4byte	.LVL147
 19971 2720 00       		.uleb128 .LVL147-.LVL147
 19972 2721 01       		.uleb128 0x1
 19973 2722 67       		.byte	0x67
 19974 2723 08       		.byte	0x8
 19975 2724 00000000 		.4byte	.LVL150
 19976 2728 00       		.uleb128 .LVL150-.LVL150
 19977 2729 01       		.uleb128 0x1
 19978 272a 6B       		.byte	0x6b
 19979 272b 08       		.byte	0x8
 19980 272c 00000000 		.4byte	.LVL153
 19981 2730 00       		.uleb128 .LVL153-.LVL153
 19982 2731 01       		.uleb128 0x1
 19983 2732 58       		.byte	0x58
 19984 2733 00       		.byte	0
 19985              	.LVUS90:
 19986 2734 03       		.uleb128 .LVU1097
 19987 2735 05       		.uleb128 .LVU1099
 19988 2736 06       		.uleb128 .LVU1142
 19989 2737 08       		.uleb128 .LVU1144
 19990 2738 06       		.uleb128 .LVU1176
 19991 2739 08       		.uleb128 .LVU1178
 19992 273a 06       		.uleb128 .LVU1211
 19993 273b 08       		.uleb128 .LVU1213
 19994              	.LLST90:
 19995 273c 08       		.byte	0x8
 19996 273d 00000000 		.4byte	.LVL143
 19997 2741 00       		.uleb128 .LVL143-.LVL143
 19998 2742 05       		.uleb128 0x5
 19999 2743 80       		.byte	0x80
 20000 2744 00       		.sleb128 0
 20001 2745 38       		.byte	0x38
 20002 2746 25       		.byte	0x25
 20003 2747 9F       		.byte	0x9f
 20004 2748 08       		.byte	0x8
 20005 2749 00000000 		.4byte	.LVL147
 20006 274d 00       		.uleb128 .LVL147-.LVL147
 20007 274e 05       		.uleb128 0x5
 20008 274f 87       		.byte	0x87
 20009 2750 00       		.sleb128 0
 20010 2751 38       		.byte	0x38
 20011 2752 25       		.byte	0x25
 20012 2753 9F       		.byte	0x9f
 20013 2754 08       		.byte	0x8
 20014 2755 00000000 		.4byte	.LVL150
 20015 2759 00       		.uleb128 .LVL150-.LVL150
 20016 275a 05       		.uleb128 0x5
 20017 275b 8B       		.byte	0x8b
 20018 275c 00       		.sleb128 0
 20019 275d 38       		.byte	0x38
 20020 275e 25       		.byte	0x25
 20021 275f 9F       		.byte	0x9f
 20022 2760 08       		.byte	0x8
 20023 2761 00000000 		.4byte	.LVL153
 20024 2765 00       		.uleb128 .LVL153-.LVL153
 20025 2766 05       		.uleb128 0x5
 20026 2767 78       		.byte	0x78
 20027 2768 00       		.sleb128 0
 20028 2769 38       		.byte	0x38
 20029 276a 25       		.byte	0x25
 20030 276b 9F       		.byte	0x9f
 20031 276c 00       		.byte	0
 20032              	.LVUS91:
 20033 276d 04       		.uleb128 .LVU1098
 20034 276e 05       		.uleb128 .LVU1099
 20035 276f 07       		.uleb128 .LVU1143
 20036 2770 08       		.uleb128 .LVU1144
 20037 2771 07       		.uleb128 .LVU1177
 20038 2772 08       		.uleb128 .LVU1178
 20039 2773 07       		.uleb128 .LVU1212
 20040 2774 08       		.uleb128 .LVU1213
 20041              	.LLST91:
 20042 2775 08       		.byte	0x8
 20043 2776 00000000 		.4byte	.LVL143
 20044 277a 00       		.uleb128 .LVL143-.LVL143
 20045 277b 01       		.uleb128 0x1
 20046 277c 60       		.byte	0x60
 20047 277d 08       		.byte	0x8
 20048 277e 00000000 		.4byte	.LVL147
 20049 2782 00       		.uleb128 .LVL147-.LVL147
 20050 2783 01       		.uleb128 0x1
 20051 2784 67       		.byte	0x67
 20052 2785 08       		.byte	0x8
 20053 2786 00000000 		.4byte	.LVL150
 20054 278a 00       		.uleb128 .LVL150-.LVL150
 20055 278b 01       		.uleb128 0x1
 20056 278c 6B       		.byte	0x6b
 20057 278d 08       		.byte	0x8
 20058 278e 00000000 		.4byte	.LVL153
 20059 2792 00       		.uleb128 .LVL153-.LVL153
 20060 2793 01       		.uleb128 0x1
 20061 2794 58       		.byte	0x58
 20062 2795 00       		.byte	0
 20063              	.LVUS93:
 20064 2796 01       		.uleb128 .LVU1114
 20065 2797 06       		.uleb128 .LVU1119
 20066 2798 01       		.uleb128 .LVU1148
 20067 2799 06       		.uleb128 .LVU1153
 20068 279a 01       		.uleb128 .LVU1182
 20069 279b 06       		.uleb128 .LVU1187
 20070 279c 01       		.uleb128 .LVU1217
 20071 279d 06       		.uleb128 .LVU1222
 20072              	.LLST93:
 20073 279e 08       		.byte	0x8
 20074 279f 00000000 		.4byte	.LVL145
 20075 27a3 00       		.uleb128 .LVL145-.LVL145
 20076 27a4 01       		.uleb128 0x1
 20077 27a5 5F       		.byte	0x5f
 20078 27a6 08       		.byte	0x8
 20079 27a7 00000000 		.4byte	.LVL148
 20080 27ab 00       		.uleb128 .LVL148-.LVL148
 20081 27ac 01       		.uleb128 0x1
 20082 27ad 62       		.byte	0x62
 20083 27ae 08       		.byte	0x8
 20084 27af 00000000 		.4byte	.LVL151
 20085 27b3 00       		.uleb128 .LVL151-.LVL151
 20086 27b4 01       		.uleb128 0x1
 20087 27b5 6A       		.byte	0x6a
 20088 27b6 08       		.byte	0x8
 20089 27b7 00000000 		.4byte	.LVL154
 20090 27bb 00       		.uleb128 .LVL154-.LVL154
 20091 27bc 01       		.uleb128 0x1
 20092 27bd 56       		.byte	0x56
 20093 27be 00       		.byte	0
 20094              	.LVUS94:
 20095 27bf 04       		.uleb128 .LVU1117
 20096 27c0 06       		.uleb128 .LVU1119
 20097 27c1 04       		.uleb128 .LVU1151
 20098 27c2 06       		.uleb128 .LVU1153
 20099 27c3 04       		.uleb128 .LVU1185
 20100 27c4 06       		.uleb128 .LVU1187
 20101 27c5 04       		.uleb128 .LVU1220
 20102 27c6 06       		.uleb128 .LVU1222
 20103              	.LLST94:
 20104 27c7 08       		.byte	0x8
 20105 27c8 00000000 		.4byte	.LVL145
 20106 27cc 00       		.uleb128 .LVL145-.LVL145
 20107 27cd 05       		.uleb128 0x5
 20108 27ce 7F       		.byte	0x7f
 20109 27cf 00       		.sleb128 0
 20110 27d0 38       		.byte	0x38
 20111 27d1 25       		.byte	0x25
 20112 27d2 9F       		.byte	0x9f
 20113 27d3 08       		.byte	0x8
 20114 27d4 00000000 		.4byte	.LVL148
 20115 27d8 00       		.uleb128 .LVL148-.LVL148
 20116 27d9 05       		.uleb128 0x5
 20117 27da 82       		.byte	0x82
 20118 27db 00       		.sleb128 0
 20119 27dc 38       		.byte	0x38
 20120 27dd 25       		.byte	0x25
 20121 27de 9F       		.byte	0x9f
 20122 27df 08       		.byte	0x8
 20123 27e0 00000000 		.4byte	.LVL151
 20124 27e4 00       		.uleb128 .LVL151-.LVL151
 20125 27e5 05       		.uleb128 0x5
 20126 27e6 8A       		.byte	0x8a
 20127 27e7 00       		.sleb128 0
 20128 27e8 38       		.byte	0x38
 20129 27e9 25       		.byte	0x25
 20130 27ea 9F       		.byte	0x9f
 20131 27eb 08       		.byte	0x8
 20132 27ec 00000000 		.4byte	.LVL154
 20133 27f0 00       		.uleb128 .LVL154-.LVL154
 20134 27f1 05       		.uleb128 0x5
 20135 27f2 76       		.byte	0x76
 20136 27f3 00       		.sleb128 0
 20137 27f4 38       		.byte	0x38
 20138 27f5 25       		.byte	0x25
 20139 27f6 9F       		.byte	0x9f
 20140 27f7 00       		.byte	0
 20141              	.LVUS95:
 20142 27f8 05       		.uleb128 .LVU1118
 20143 27f9 06       		.uleb128 .LVU1119
 20144 27fa 05       		.uleb128 .LVU1152
 20145 27fb 06       		.uleb128 .LVU1153
 20146 27fc 05       		.uleb128 .LVU1186
 20147 27fd 06       		.uleb128 .LVU1187
 20148 27fe 05       		.uleb128 .LVU1221
 20149 27ff 06       		.uleb128 .LVU1222
 20150              	.LLST95:
 20151 2800 08       		.byte	0x8
 20152 2801 00000000 		.4byte	.LVL145
 20153 2805 00       		.uleb128 .LVL145-.LVL145
 20154 2806 01       		.uleb128 0x1
 20155 2807 5F       		.byte	0x5f
 20156 2808 08       		.byte	0x8
 20157 2809 00000000 		.4byte	.LVL148
 20158 280d 00       		.uleb128 .LVL148-.LVL148
 20159 280e 01       		.uleb128 0x1
 20160 280f 62       		.byte	0x62
 20161 2810 08       		.byte	0x8
 20162 2811 00000000 		.4byte	.LVL151
 20163 2815 00       		.uleb128 .LVL151-.LVL151
 20164 2816 01       		.uleb128 0x1
 20165 2817 6A       		.byte	0x6a
 20166 2818 08       		.byte	0x8
 20167 2819 00000000 		.4byte	.LVL154
 20168 281d 00       		.uleb128 .LVL154-.LVL154
 20169 281e 01       		.uleb128 0x1
 20170 281f 56       		.byte	0x56
 20171 2820 00       		.byte	0
 20172              	.LVUS97:
 20173 2821 08       		.uleb128 .LVU1121
 20174 2822 0D       		.uleb128 .LVU1126
 20175 2823 08       		.uleb128 .LVU1155
 20176 2824 0D       		.uleb128 .LVU1160
 20177 2825 08       		.uleb128 .LVU1189
 20178 2826 0D       		.uleb128 .LVU1194
 20179 2827 08       		.uleb128 .LVU1224
 20180 2828 0D       		.uleb128 .LVU1229
 20181              	.LLST97:
 20182 2829 08       		.byte	0x8
 20183 282a 00000000 		.4byte	.LVL145
 20184 282e 00       		.uleb128 .LVL145-.LVL145
 20185 282f 01       		.uleb128 0x1
 20186 2830 63       		.byte	0x63
 20187 2831 08       		.byte	0x8
 20188 2832 00000000 		.4byte	.LVL148
 20189 2836 00       		.uleb128 .LVL148-.LVL148
 20190 2837 01       		.uleb128 0x1
 20191 2838 68       		.byte	0x68
 20192 2839 08       		.byte	0x8
 20193 283a 00000000 		.4byte	.LVL151
 20194 283e 00       		.uleb128 .LVL151-.LVL151
 20195 283f 01       		.uleb128 0x1
 20196 2840 6C       		.byte	0x6c
 20197 2841 08       		.byte	0x8
 20198 2842 00000000 		.4byte	.LVL154
 20199 2846 00       		.uleb128 .LVL154-.LVL154
 20200 2847 01       		.uleb128 0x1
 20201 2848 57       		.byte	0x57
 20202 2849 00       		.byte	0
 20203              	.LVUS98:
 20204 284a 0B       		.uleb128 .LVU1124
 20205 284b 0D       		.uleb128 .LVU1126
 20206 284c 0B       		.uleb128 .LVU1158
 20207 284d 0D       		.uleb128 .LVU1160
 20208 284e 0B       		.uleb128 .LVU1192
 20209 284f 0D       		.uleb128 .LVU1194
 20210 2850 0B       		.uleb128 .LVU1227
 20211 2851 0D       		.uleb128 .LVU1229
 20212              	.LLST98:
 20213 2852 08       		.byte	0x8
 20214 2853 00000000 		.4byte	.LVL145
 20215 2857 00       		.uleb128 .LVL145-.LVL145
 20216 2858 05       		.uleb128 0x5
 20217 2859 83       		.byte	0x83
 20218 285a 00       		.sleb128 0
 20219 285b 38       		.byte	0x38
 20220 285c 25       		.byte	0x25
 20221 285d 9F       		.byte	0x9f
 20222 285e 08       		.byte	0x8
 20223 285f 00000000 		.4byte	.LVL148
 20224 2863 00       		.uleb128 .LVL148-.LVL148
 20225 2864 05       		.uleb128 0x5
 20226 2865 88       		.byte	0x88
 20227 2866 00       		.sleb128 0
 20228 2867 38       		.byte	0x38
 20229 2868 25       		.byte	0x25
 20230 2869 9F       		.byte	0x9f
 20231 286a 08       		.byte	0x8
 20232 286b 00000000 		.4byte	.LVL151
 20233 286f 00       		.uleb128 .LVL151-.LVL151
 20234 2870 05       		.uleb128 0x5
 20235 2871 8C       		.byte	0x8c
 20236 2872 00       		.sleb128 0
 20237 2873 38       		.byte	0x38
 20238 2874 25       		.byte	0x25
 20239 2875 9F       		.byte	0x9f
 20240 2876 08       		.byte	0x8
 20241 2877 00000000 		.4byte	.LVL154
 20242 287b 00       		.uleb128 .LVL154-.LVL154
 20243 287c 05       		.uleb128 0x5
 20244 287d 77       		.byte	0x77
 20245 287e 00       		.sleb128 0
 20246 287f 38       		.byte	0x38
 20247 2880 25       		.byte	0x25
 20248 2881 9F       		.byte	0x9f
 20249 2882 00       		.byte	0
 20250              	.LVUS99:
 20251 2883 0C       		.uleb128 .LVU1125
 20252 2884 0D       		.uleb128 .LVU1126
 20253 2885 0C       		.uleb128 .LVU1159
 20254 2886 0D       		.uleb128 .LVU1160
 20255 2887 0C       		.uleb128 .LVU1193
 20256 2888 0D       		.uleb128 .LVU1194
 20257 2889 0C       		.uleb128 .LVU1228
 20258 288a 0D       		.uleb128 .LVU1229
 20259              	.LLST99:
 20260 288b 08       		.byte	0x8
 20261 288c 00000000 		.4byte	.LVL145
 20262 2890 00       		.uleb128 .LVL145-.LVL145
 20263 2891 01       		.uleb128 0x1
 20264 2892 63       		.byte	0x63
 20265 2893 08       		.byte	0x8
 20266 2894 00000000 		.4byte	.LVL148
 20267 2898 00       		.uleb128 .LVL148-.LVL148
 20268 2899 01       		.uleb128 0x1
 20269 289a 68       		.byte	0x68
 20270 289b 08       		.byte	0x8
 20271 289c 00000000 		.4byte	.LVL151
 20272 28a0 00       		.uleb128 .LVL151-.LVL151
 20273 28a1 01       		.uleb128 0x1
 20274 28a2 6C       		.byte	0x6c
 20275 28a3 08       		.byte	0x8
 20276 28a4 00000000 		.4byte	.LVL154
 20277 28a8 00       		.uleb128 .LVL154-.LVL154
 20278 28a9 01       		.uleb128 0x1
 20279 28aa 57       		.byte	0x57
 20280 28ab 00       		.byte	0
 20281              	.LVUS101:
 20282 28ac 01       		.uleb128 .LVU1129
 20283 28ad 06       		.uleb128 .LVU1134
 20284 28ae 01       		.uleb128 .LVU1163
 20285 28af 06       		.uleb128 .LVU1168
 20286 28b0 01       		.uleb128 .LVU1197
 20287 28b1 06       		.uleb128 .LVU1202
 20288 28b2 0F       		.uleb128 .LVU1231
 20289 28b3 14       		.uleb128 .LVU1236
 20290              	.LLST101:
 20291 28b4 08       		.byte	0x8
 20292 28b5 00000000 		.4byte	.LVL146
 20293 28b9 00       		.uleb128 .LVL146-.LVL146
 20294 28ba 01       		.uleb128 0x1
 20295 28bb 64       		.byte	0x64
 20296 28bc 08       		.byte	0x8
 20297 28bd 00000000 		.4byte	.LVL149
 20298 28c1 00       		.uleb128 .LVL149-.LVL149
 20299 28c2 01       		.uleb128 0x1
 20300 28c3 69       		.byte	0x69
 20301 28c4 08       		.byte	0x8
 20302 28c5 00000000 		.4byte	.LVL152
 20303 28c9 00       		.uleb128 .LVL152-.LVL152
 20304 28ca 01       		.uleb128 0x1
 20305 28cb 54       		.byte	0x54
 20306 28cc 08       		.byte	0x8
 20307 28cd 00000000 		.4byte	.LVL154
 20308 28d1 00       		.uleb128 .LVL154-.LVL154
 20309 28d2 01       		.uleb128 0x1
 20310 28d3 5A       		.byte	0x5a
 20311 28d4 00       		.byte	0
 20312              	.LVUS102:
 20313 28d5 04       		.uleb128 .LVU1132
 20314 28d6 06       		.uleb128 .LVU1134
 20315 28d7 04       		.uleb128 .LVU1166
 20316 28d8 06       		.uleb128 .LVU1168
 20317 28d9 04       		.uleb128 .LVU1200
 20318 28da 06       		.uleb128 .LVU1202
 20319 28db 12       		.uleb128 .LVU1234
 20320 28dc 14       		.uleb128 .LVU1236
 20321              	.LLST102:
 20322 28dd 08       		.byte	0x8
 20323 28de 00000000 		.4byte	.LVL146
 20324 28e2 00       		.uleb128 .LVL146-.LVL146
 20325 28e3 05       		.uleb128 0x5
 20326 28e4 84       		.byte	0x84
 20327 28e5 00       		.sleb128 0
 20328 28e6 38       		.byte	0x38
 20329 28e7 25       		.byte	0x25
 20330 28e8 9F       		.byte	0x9f
 20331 28e9 08       		.byte	0x8
 20332 28ea 00000000 		.4byte	.LVL149
 20333 28ee 00       		.uleb128 .LVL149-.LVL149
 20334 28ef 05       		.uleb128 0x5
 20335 28f0 89       		.byte	0x89
 20336 28f1 00       		.sleb128 0
 20337 28f2 38       		.byte	0x38
 20338 28f3 25       		.byte	0x25
 20339 28f4 9F       		.byte	0x9f
 20340 28f5 08       		.byte	0x8
 20341 28f6 00000000 		.4byte	.LVL152
 20342 28fa 00       		.uleb128 .LVL152-.LVL152
 20343 28fb 05       		.uleb128 0x5
 20344 28fc 74       		.byte	0x74
 20345 28fd 00       		.sleb128 0
 20346 28fe 38       		.byte	0x38
 20347 28ff 25       		.byte	0x25
 20348 2900 9F       		.byte	0x9f
 20349 2901 08       		.byte	0x8
 20350 2902 00000000 		.4byte	.LVL154
 20351 2906 00       		.uleb128 .LVL154-.LVL154
 20352 2907 05       		.uleb128 0x5
 20353 2908 7A       		.byte	0x7a
 20354 2909 00       		.sleb128 0
 20355 290a 38       		.byte	0x38
 20356 290b 25       		.byte	0x25
 20357 290c 9F       		.byte	0x9f
 20358 290d 00       		.byte	0
 20359              	.LVUS103:
 20360 290e 05       		.uleb128 .LVU1133
 20361 290f 06       		.uleb128 .LVU1134
 20362 2910 05       		.uleb128 .LVU1167
 20363 2911 06       		.uleb128 .LVU1168
 20364 2912 05       		.uleb128 .LVU1201
 20365 2913 06       		.uleb128 .LVU1202
 20366 2914 13       		.uleb128 .LVU1235
 20367 2915 14       		.uleb128 .LVU1236
 20368              	.LLST103:
 20369 2916 08       		.byte	0x8
 20370 2917 00000000 		.4byte	.LVL146
 20371 291b 00       		.uleb128 .LVL146-.LVL146
 20372 291c 01       		.uleb128 0x1
 20373 291d 64       		.byte	0x64
 20374 291e 08       		.byte	0x8
 20375 291f 00000000 		.4byte	.LVL149
 20376 2923 00       		.uleb128 .LVL149-.LVL149
 20377 2924 01       		.uleb128 0x1
 20378 2925 69       		.byte	0x69
 20379 2926 08       		.byte	0x8
 20380 2927 00000000 		.4byte	.LVL152
 20381 292b 00       		.uleb128 .LVL152-.LVL152
 20382 292c 01       		.uleb128 0x1
 20383 292d 54       		.byte	0x54
 20384 292e 08       		.byte	0x8
 20385 292f 00000000 		.4byte	.LVL154
 20386 2933 00       		.uleb128 .LVL154-.LVL154
 20387 2934 01       		.uleb128 0x1
 20388 2935 5A       		.byte	0x5a
 20389 2936 00       		.byte	0
 20390              	.LVUS29:
 20391 2937 00       		.uleb128 0
 20392 2938 00       		.uleb128 .LVU537
 20393 2939 00       		.uleb128 .LVU537
 20394 293a 00       		.uleb128 .LVU1019
 20395 293b 00       		.uleb128 .LVU1019
 20396 293c 00       		.uleb128 0
 20397              	.LLST29:
 20398 293d 06       		.byte	0x6
 20399 293e 00000000 		.4byte	.LVL75
 20400 2942 04       		.byte	0x4
 20401 2943 00       		.uleb128 .LVL75-.LVL75
 20402 2944 24       		.uleb128 .LVL77-.LVL75
 20403 2945 01       		.uleb128 0x1
 20404 2946 53       		.byte	0x53
 20405 2947 04       		.byte	0x4
 20406 2948 24       		.uleb128 .LVL77-.LVL75
 20407 2949 DC09     		.uleb128 .LVL130-.LVL75
 20408 294b 01       		.uleb128 0x1
 20409 294c 6F       		.byte	0x6f
 20410 294d 04       		.byte	0x4
 20411 294e DC09     		.uleb128 .LVL130-.LVL75
 20412 2950 E409     		.uleb128 .LFE71-.LVL75
 20413 2952 0A       		.uleb128 0xa
 20414 2953 A3       		.byte	0xa3
 20415 2954 03       		.uleb128 0x3
 20416 2955 A5       		.byte	0xa5
 20417 2956 03       		.uleb128 0x3
 20418 2957 2D       		.uleb128 0x2d
 20419 2958 A8       		.byte	0xa8
 20420 2959 26       		.uleb128 0x26
 20421 295a A8       		.byte	0xa8
 20422 295b 00       		.uleb128 0
 20423 295c 9F       		.byte	0x9f
 20424 295d 00       		.byte	0
 20425              	.LVUS30:
 20426 295e 00       		.uleb128 0
 20427 295f 00       		.uleb128 .LVU539
 20428 2960 00       		.uleb128 .LVU539
 20429 2961 00       		.uleb128 .LVU1016
 20430 2962 00       		.uleb128 .LVU1016
 20431 2963 00       		.uleb128 0
 20432              	.LLST30:
 20433 2964 06       		.byte	0x6
 20434 2965 00000000 		.4byte	.LVL75
 20435 2969 04       		.byte	0x4
 20436 296a 00       		.uleb128 .LVL75-.LVL75
 20437 296b 2C       		.uleb128 .LVL78-.LVL75
 20438 296c 01       		.uleb128 0x1
 20439 296d 54       		.byte	0x54
 20440 296e 04       		.byte	0x4
 20441 296f 2C       		.uleb128 .LVL78-.LVL75
 20442 2970 CC09     		.uleb128 .LVL127-.LVL75
 20443 2972 01       		.uleb128 0x1
 20444 2973 66       		.byte	0x66
 20445 2974 04       		.byte	0x4
 20446 2975 CC09     		.uleb128 .LVL127-.LVL75
 20447 2977 E409     		.uleb128 .LFE71-.LVL75
 20448 2979 0A       		.uleb128 0xa
 20449 297a A3       		.byte	0xa3
 20450 297b 03       		.uleb128 0x3
 20451 297c A5       		.byte	0xa5
 20452 297d 04       		.uleb128 0x4
 20453 297e 2D       		.uleb128 0x2d
 20454 297f A8       		.byte	0xa8
 20455 2980 34       		.uleb128 0x34
 20456 2981 A8       		.byte	0xa8
 20457 2982 00       		.uleb128 0
 20458 2983 9F       		.byte	0x9f
 20459 2984 00       		.byte	0
 20460              	.LVUS31:
 20461 2985 00       		.uleb128 0
 20462 2986 00       		.uleb128 .LVU541
 20463 2987 00       		.uleb128 .LVU541
 20464 2988 00       		.uleb128 .LVU1015
 20465 2989 00       		.uleb128 .LVU1015
 20466 298a 00       		.uleb128 0
 20467              	.LLST31:
 20468 298b 06       		.byte	0x6
 20469 298c 00000000 		.4byte	.LVL75
 20470 2990 04       		.byte	0x4
 20471 2991 00       		.uleb128 .LVL75-.LVL75
 20472 2992 3B       		.uleb128 .LVL79-1-.LVL75
 20473 2993 01       		.uleb128 0x1
 20474 2994 55       		.byte	0x55
 20475 2995 04       		.byte	0x4
 20476 2996 3B       		.uleb128 .LVL79-1-.LVL75
 20477 2997 C809     		.uleb128 .LVL126-.LVL75
 20478 2999 01       		.uleb128 0x1
 20479 299a 65       		.byte	0x65
 20480 299b 04       		.byte	0x4
 20481 299c C809     		.uleb128 .LVL126-.LVL75
 20482 299e E409     		.uleb128 .LFE71-.LVL75
 20483 29a0 0A       		.uleb128 0xa
 20484 29a1 A3       		.byte	0xa3
 20485 29a2 03       		.uleb128 0x3
 20486 29a3 A5       		.byte	0xa5
 20487 29a4 05       		.uleb128 0x5
 20488 29a5 2D       		.uleb128 0x2d
 20489 29a6 A8       		.byte	0xa8
 20490 29a7 34       		.uleb128 0x34
 20491 29a8 A8       		.byte	0xa8
 20492 29a9 00       		.uleb128 0
 20493 29aa 9F       		.byte	0x9f
 20494 29ab 00       		.byte	0
 20495              	.LVUS32:
 20496 29ac 00       		.uleb128 .LVU534
 20497 29ad 00       		.uleb128 .LVU1017
 20498 29ae 00       		.uleb128 .LVU1017
 20499 29af 00       		.uleb128 0
 20500              	.LLST32:
 20501 29b0 06       		.byte	0x6
 20502 29b1 00000000 		.4byte	.LVL76
 20503 29b5 04       		.byte	0x4
 20504 29b6 00       		.uleb128 .LVL76-.LVL76
 20505 29b7 C409     		.uleb128 .LVL128-.LVL76
 20506 29b9 01       		.uleb128 0x1
 20507 29ba 6D       		.byte	0x6d
 20508 29bb 04       		.byte	0x4
 20509 29bc C409     		.uleb128 .LVL128-.LVL76
 20510 29be D409     		.uleb128 .LFE71-.LVL76
 20511 29c0 14       		.uleb128 0x14
 20512 29c1 A3       		.byte	0xa3
 20513 29c2 03       		.uleb128 0x3
 20514 29c3 A5       		.byte	0xa5
 20515 29c4 05       		.uleb128 0x5
 20516 29c5 2D       		.uleb128 0x2d
 20517 29c6 A8       		.byte	0xa8
 20518 29c7 26       		.uleb128 0x26
 20519 29c8 A8       		.byte	0xa8
 20520 29c9 00       		.uleb128 0
 20521 29ca A3       		.byte	0xa3
 20522 29cb 03       		.uleb128 0x3
 20523 29cc A5       		.byte	0xa5
 20524 29cd 04       		.uleb128 0x4
 20525 29ce 2D       		.uleb128 0x2d
 20526 29cf A8       		.byte	0xa8
 20527 29d0 26       		.uleb128 0x26
 20528 29d1 A8       		.byte	0xa8
 20529 29d2 00       		.uleb128 0
 20530 29d3 1E       		.byte	0x1e
 20531 29d4 9F       		.byte	0x9f
 20532 29d5 00       		.byte	0
 20533              	.LVUS33:
 20534 29d6 00       		.uleb128 .LVU543
 20535 29d7 00       		.uleb128 .LVU545
 20536 29d8 00       		.uleb128 .LVU545
 20537 29d9 00       		.uleb128 .LVU1018
 20538 29da 00       		.uleb128 .LVU1018
 20539 29db 00       		.uleb128 0
 20540              	.LLST33:
 20541 29dc 06       		.byte	0x6
 20542 29dd 00000000 		.4byte	.LVL80
 20543 29e1 04       		.byte	0x4
 20544 29e2 00       		.uleb128 .LVL80-.LVL80
 20545 29e3 03       		.uleb128 .LVL81-1-.LVL80
 20546 29e4 01       		.uleb128 0x1
 20547 29e5 53       		.byte	0x53
 20548 29e6 04       		.byte	0x4
 20549 29e7 03       		.uleb128 .LVL81-1-.LVL80
 20550 29e8 9009     		.uleb128 .LVL129-.LVL80
 20551 29ea 01       		.uleb128 0x1
 20552 29eb 6E       		.byte	0x6e
 20553 29ec 04       		.byte	0x4
 20554 29ed 9009     		.uleb128 .LVL129-.LVL80
 20555 29ef 9C09     		.uleb128 .LFE71-.LVL80
 20556 29f1 01       		.uleb128 0x1
 20557 29f2 53       		.byte	0x53
 20558 29f3 00       		.byte	0
 20559              	.LVUS34:
 20560 29f4 01       		.uleb128 .LVU546
 20561 29f5 00       		.uleb128 .LVU1019
 20562 29f6 00       		.uleb128 .LVU1019
 20563 29f7 00       		.uleb128 0
 20564              	.LLST34:
 20565 29f8 06       		.byte	0x6
 20566 29f9 00000000 		.4byte	.LVL81
 20567 29fd 04       		.byte	0x4
 20568 29fe 00       		.uleb128 .LVL81-.LVL81
 20569 29ff 9009     		.uleb128 .LVL130-.LVL81
 20570 2a01 01       		.uleb128 0x1
 20571 2a02 6F       		.byte	0x6f
 20572 2a03 04       		.byte	0x4
 20573 2a04 9009     		.uleb128 .LVL130-.LVL81
 20574 2a06 9809     		.uleb128 .LFE71-.LVL81
 20575 2a08 0A       		.uleb128 0xa
 20576 2a09 A3       		.byte	0xa3
 20577 2a0a 03       		.uleb128 0x3
 20578 2a0b A5       		.byte	0xa5
 20579 2a0c 03       		.uleb128 0x3
 20580 2a0d 2D       		.uleb128 0x2d
 20581 2a0e A8       		.byte	0xa8
 20582 2a0f 26       		.uleb128 0x26
 20583 2a10 A8       		.byte	0xa8
 20584 2a11 00       		.uleb128 0
 20585 2a12 9F       		.byte	0x9f
 20586 2a13 00       		.byte	0
 20587              	.LVUS35:
 20588 2a14 02       		.uleb128 .LVU547
 20589 2a15 00       		.uleb128 .LVU551
 20590 2a16 00       		.uleb128 .LVU551
 20591 2a17 05       		.uleb128 .LVU570
 20592 2a18 05       		.uleb128 .LVU570
 20593 2a19 05       		.uleb128 .LVU589
 20594 2a1a 05       		.uleb128 .LVU589
 20595 2a1b 05       		.uleb128 .LVU608
 20596 2a1c 05       		.uleb128 .LVU608
 20597 2a1d 05       		.uleb128 .LVU627
 20598 2a1e 05       		.uleb128 .LVU627
 20599 2a1f 00       		.uleb128 .LVU640
 20600 2a20 00       		.uleb128 .LVU640
 20601 2a21 05       		.uleb128 .LVU646
 20602 2a22 05       		.uleb128 .LVU996
 20603 2a23 00       		.uleb128 .LVU1010
 20604              	.LLST35:
 20605 2a24 06       		.byte	0x6
 20606 2a25 00000000 		.4byte	.LVL81
 20607 2a29 04       		.byte	0x4
 20608 2a2a 00       		.uleb128 .LVL81-.LVL81
 20609 2a2b 4C       		.uleb128 .LVL82-.LVL81
 20610 2a2c 01       		.uleb128 0x1
 20611 2a2d 6E       		.byte	0x6e
 20612 2a2e 04       		.byte	0x4
 20613 2a2f 4C       		.uleb128 .LVL82-.LVL81
 20614 2a30 8401     		.uleb128 .LVL85-.LVL81
 20615 2a32 01       		.uleb128 0x1
 20616 2a33 59       		.byte	0x59
 20617 2a34 04       		.byte	0x4
 20618 2a35 8401     		.uleb128 .LVL85-.LVL81
 20619 2a37 B401     		.uleb128 .LVL86-.LVL81
 20620 2a39 03       		.uleb128 0x3
 20621 2a3a 79       		.byte	0x79
 20622 2a3b 01       		.sleb128 1
 20623 2a3c 9F       		.byte	0x9f
 20624 2a3d 04       		.byte	0x4
 20625 2a3e B401     		.uleb128 .LVL86-.LVL81
 20626 2a40 E401     		.uleb128 .LVL87-.LVL81
 20627 2a42 03       		.uleb128 0x3
 20628 2a43 79       		.byte	0x79
 20629 2a44 02       		.sleb128 2
 20630 2a45 9F       		.byte	0x9f
 20631 2a46 04       		.byte	0x4
 20632 2a47 E401     		.uleb128 .LVL87-.LVL81
 20633 2a49 9402     		.uleb128 .LVL88-.LVL81
 20634 2a4b 03       		.uleb128 0x3
 20635 2a4c 79       		.byte	0x79
 20636 2a4d 03       		.sleb128 3
 20637 2a4e 9F       		.byte	0x9f
 20638 2a4f 04       		.byte	0x4
 20639 2a50 9402     		.uleb128 .LVL88-.LVL81
 20640 2a52 C002     		.uleb128 .LVL89-.LVL81
 20641 2a54 03       		.uleb128 0x3
 20642 2a55 79       		.byte	0x79
 20643 2a56 04       		.sleb128 4
 20644 2a57 9F       		.byte	0x9f
 20645 2a58 04       		.byte	0x4
 20646 2a59 C002     		.uleb128 .LVL89-.LVL81
 20647 2a5b C402     		.uleb128 .LVL90-.LVL81
 20648 2a5d 03       		.uleb128 0x3
 20649 2a5e 79       		.byte	0x79
 20650 2a5f 64       		.sleb128 -28
 20651 2a60 9F       		.byte	0x9f
 20652 2a61 04       		.byte	0x4
 20653 2a62 8808     		.uleb128 .LVL120-.LVL81
 20654 2a64 E408     		.uleb128 .LVL124-.LVL81
 20655 2a66 01       		.uleb128 0x1
 20656 2a67 59       		.byte	0x59
 20657 2a68 00       		.byte	0
 20658              	.LVUS37:
 20659 2a69 03       		.uleb128 .LVU548
 20660 2a6a 00       		.uleb128 .LVU551
 20661 2a6b 00       		.uleb128 .LVU551
 20662 2a6c 00       		.uleb128 .LVU556
 20663 2a6d 00       		.uleb128 .LVU556
 20664 2a6e 00       		.uleb128 .LVU1008
 20665 2a6f 00       		.uleb128 .LVU1008
 20666 2a70 00       		.uleb128 .LVU1010
 20667              	.LLST37:
 20668 2a71 06       		.byte	0x6
 20669 2a72 00000000 		.4byte	.LVL81
 20670 2a76 04       		.byte	0x4
 20671 2a77 00       		.uleb128 .LVL81-.LVL81
 20672 2a78 4C       		.uleb128 .LVL82-.LVL81
 20673 2a79 02       		.uleb128 0x2
 20674 2a7a 30       		.byte	0x30
 20675 2a7b 9F       		.byte	0x9f
 20676 2a7c 04       		.byte	0x4
 20677 2a7d 4C       		.uleb128 .LVL82-.LVL81
 20678 2a7e 68       		.uleb128 .LVL83-.LVL81
 20679 2a7f 01       		.uleb128 0x1
 20680 2a80 5A       		.byte	0x5a
 20681 2a81 04       		.byte	0x4
 20682 2a82 68       		.uleb128 .LVL83-.LVL81
 20683 2a83 A808     		.uleb128 .LVL122-.LVL81
 20684 2a85 02       		.uleb128 0x2
 20685 2a86 90       		.byte	0x90
 20686 2a87 42       		.uleb128 0x42
 20687 2a88 04       		.byte	0x4
 20688 2a89 A808     		.uleb128 .LVL122-.LVL81
 20689 2a8b E408     		.uleb128 .LVL124-.LVL81
 20690 2a8d 01       		.uleb128 0x1
 20691 2a8e 5A       		.byte	0x5a
 20692 2a8f 00       		.byte	0
 20693              	.LVUS38:
 20694 2a90 00       		.uleb128 .LVU551
 20695 2a91 00       		.uleb128 .LVU556
 20696 2a92 00       		.uleb128 .LVU556
 20697 2a93 00       		.uleb128 .LVU560
 20698 2a94 00       		.uleb128 .LVU560
 20699 2a95 03       		.uleb128 .LVU1003
 20700 2a96 03       		.uleb128 .LVU1003
 20701 2a97 00       		.uleb128 .LVU1009
 20702              	.LLST38:
 20703 2a98 06       		.byte	0x6
 20704 2a99 00000000 		.4byte	.LVL82
 20705 2a9d 04       		.byte	0x4
 20706 2a9e 00       		.uleb128 .LVL82-.LVL82
 20707 2a9f 1C       		.uleb128 .LVL83-.LVL82
 20708 2aa0 02       		.uleb128 0x2
 20709 2aa1 30       		.byte	0x30
 20710 2aa2 9F       		.byte	0x9f
 20711 2aa3 04       		.byte	0x4
 20712 2aa4 1C       		.uleb128 .LVL83-.LVL82
 20713 2aa5 24       		.uleb128 .LVL84-.LVL82
 20714 2aa6 01       		.uleb128 0x1
 20715 2aa7 68       		.byte	0x68
 20716 2aa8 04       		.byte	0x4
 20717 2aa9 24       		.uleb128 .LVL84-.LVL82
 20718 2aaa CC07     		.uleb128 .LVL121-.LVL82
 20719 2aac 03       		.uleb128 0x3
 20720 2aad 88       		.byte	0x88
 20721 2aae 78       		.sleb128 -8
 20722 2aaf 9F       		.byte	0x9f
 20723 2ab0 04       		.byte	0x4
 20724 2ab1 CC07     		.uleb128 .LVL121-.LVL82
 20725 2ab3 8808     		.uleb128 .LVL123-.LVL82
 20726 2ab5 01       		.uleb128 0x1
 20727 2ab6 68       		.byte	0x68
 20728 2ab7 00       		.byte	0
 20729              	.LVUS40:
 20730 2ab8 00       		.uleb128 .LVU556
 20731 2ab9 01       		.uleb128 .LVU690
 20732 2aba 01       		.uleb128 .LVU690
 20733 2abb 01       		.uleb128 .LVU820
 20734 2abc 01       		.uleb128 .LVU820
 20735 2abd 01       		.uleb128 .LVU911
 20736 2abe 01       		.uleb128 .LVU911
 20737 2abf 01       		.uleb128 .LVU1001
 20738 2ac0 01       		.uleb128 .LVU1001
 20739 2ac1 00       		.uleb128 .LVU1010
 20740              	.LLST40:
 20741 2ac2 06       		.byte	0x6
 20742 2ac3 00000000 		.4byte	.LVL83
 20743 2ac7 04       		.byte	0x4
 20744 2ac8 00       		.uleb128 .LVL83-.LVL83
 20745 2ac9 C802     		.uleb128 .LVL94-.LVL83
 20746 2acb 02       		.uleb128 0x2
 20747 2acc 30       		.byte	0x30
 20748 2acd 9F       		.byte	0x9f
 20749 2ace 04       		.byte	0x4
 20750 2acf C802     		.uleb128 .LVL94-.LVL83
 20751 2ad1 E804     		.uleb128 .LVL103-.LVL83
 20752 2ad3 02       		.uleb128 0x2
 20753 2ad4 31       		.byte	0x31
 20754 2ad5 9F       		.byte	0x9f
 20755 2ad6 04       		.byte	0x4
 20756 2ad7 E804     		.uleb128 .LVL103-.LVL83
 20757 2ad9 9006     		.uleb128 .LVL112-.LVL83
 20758 2adb 02       		.uleb128 0x2
 20759 2adc 32       		.byte	0x32
 20760 2add 9F       		.byte	0x9f
 20761 2ade 04       		.byte	0x4
 20762 2adf 9006     		.uleb128 .LVL112-.LVL83
 20763 2ae1 B007     		.uleb128 .LVL121-.LVL83
 20764 2ae3 02       		.uleb128 0x2
 20765 2ae4 33       		.byte	0x33
 20766 2ae5 9F       		.byte	0x9f
 20767 2ae6 04       		.byte	0x4
 20768 2ae7 B007     		.uleb128 .LVL121-.LVL83
 20769 2ae9 FC07     		.uleb128 .LVL124-.LVL83
 20770 2aeb 02       		.uleb128 0x2
 20771 2aec 34       		.byte	0x34
 20772 2aed 9F       		.byte	0x9f
 20773 2aee 00       		.byte	0
 20774              	.LVUS42:
 20775 2aef 00       		.uleb128 .LVU565
 20776 2af0 05       		.uleb128 .LVU570
 20777 2af1 00       		.uleb128 .LVU696
 20778 2af2 05       		.uleb128 .LVU701
 20779 2af3 00       		.uleb128 .LVU824
 20780 2af4 05       		.uleb128 .LVU829
 20781 2af5 00       		.uleb128 .LVU914
 20782 2af6 05       		.uleb128 .LVU919
 20783              	.LLST42:
 20784 2af7 08       		.byte	0x8
 20785 2af8 00000000 		.4byte	.LVL85
 20786 2afc 00       		.uleb128 .LVL85-.LVL85
 20787 2afd 01       		.uleb128 0x1
 20788 2afe 57       		.byte	0x57
 20789 2aff 08       		.byte	0x8
 20790 2b00 00000000 		.4byte	.LVL95
 20791 2b04 00       		.uleb128 .LVL95-.LVL95
 20792 2b05 01       		.uleb128 0x1
 20793 2b06 5E       		.byte	0x5e
 20794 2b07 08       		.byte	0x8
 20795 2b08 00000000 		.4byte	.LVL104
 20796 2b0c 00       		.uleb128 .LVL104-.LVL104
 20797 2b0d 01       		.uleb128 0x1
 20798 2b0e 60       		.byte	0x60
 20799 2b0f 08       		.byte	0x8
 20800 2b10 00000000 		.4byte	.LVL113
 20801 2b14 00       		.uleb128 .LVL113-.LVL113
 20802 2b15 01       		.uleb128 0x1
 20803 2b16 58       		.byte	0x58
 20804 2b17 00       		.byte	0
 20805              	.LVUS43:
 20806 2b18 03       		.uleb128 .LVU568
 20807 2b19 05       		.uleb128 .LVU570
 20808 2b1a 03       		.uleb128 .LVU699
 20809 2b1b 05       		.uleb128 .LVU701
 20810 2b1c 03       		.uleb128 .LVU827
 20811 2b1d 05       		.uleb128 .LVU829
 20812 2b1e 03       		.uleb128 .LVU917
 20813 2b1f 05       		.uleb128 .LVU919
 20814              	.LLST43:
 20815 2b20 08       		.byte	0x8
 20816 2b21 00000000 		.4byte	.LVL85
 20817 2b25 00       		.uleb128 .LVL85-.LVL85
 20818 2b26 08       		.uleb128 0x8
 20819 2b27 77       		.byte	0x77
 20820 2b28 00       		.sleb128 0
 20821 2b29 38       		.byte	0x38
 20822 2b2a 25       		.byte	0x25
 20823 2b2b 09       		.byte	0x9
 20824 2b2c F0       		.byte	0xf0
 20825 2b2d 1A       		.byte	0x1a
 20826 2b2e 9F       		.byte	0x9f
 20827 2b2f 08       		.byte	0x8
 20828 2b30 00000000 		.4byte	.LVL95
 20829 2b34 00       		.uleb128 .LVL95-.LVL95
 20830 2b35 08       		.uleb128 0x8
 20831 2b36 7E       		.byte	0x7e
 20832 2b37 00       		.sleb128 0
 20833 2b38 38       		.byte	0x38
 20834 2b39 25       		.byte	0x25
 20835 2b3a 09       		.byte	0x9
 20836 2b3b F0       		.byte	0xf0
 20837 2b3c 1A       		.byte	0x1a
 20838 2b3d 9F       		.byte	0x9f
 20839 2b3e 08       		.byte	0x8
 20840 2b3f 00000000 		.4byte	.LVL104
 20841 2b43 00       		.uleb128 .LVL104-.LVL104
 20842 2b44 08       		.uleb128 0x8
 20843 2b45 80       		.byte	0x80
 20844 2b46 00       		.sleb128 0
 20845 2b47 38       		.byte	0x38
 20846 2b48 25       		.byte	0x25
 20847 2b49 09       		.byte	0x9
 20848 2b4a F0       		.byte	0xf0
 20849 2b4b 1A       		.byte	0x1a
 20850 2b4c 9F       		.byte	0x9f
 20851 2b4d 08       		.byte	0x8
 20852 2b4e 00000000 		.4byte	.LVL113
 20853 2b52 00       		.uleb128 .LVL113-.LVL113
 20854 2b53 08       		.uleb128 0x8
 20855 2b54 78       		.byte	0x78
 20856 2b55 00       		.sleb128 0
 20857 2b56 38       		.byte	0x38
 20858 2b57 25       		.byte	0x25
 20859 2b58 09       		.byte	0x9
 20860 2b59 F0       		.byte	0xf0
 20861 2b5a 1A       		.byte	0x1a
 20862 2b5b 9F       		.byte	0x9f
 20863 2b5c 00       		.byte	0
 20864              	.LVUS44:
 20865 2b5d 04       		.uleb128 .LVU569
 20866 2b5e 05       		.uleb128 .LVU570
 20867 2b5f 04       		.uleb128 .LVU700
 20868 2b60 05       		.uleb128 .LVU701
 20869 2b61 04       		.uleb128 .LVU828
 20870 2b62 05       		.uleb128 .LVU829
 20871 2b63 04       		.uleb128 .LVU918
 20872 2b64 05       		.uleb128 .LVU919
 20873              	.LLST44:
 20874 2b65 08       		.byte	0x8
 20875 2b66 00000000 		.4byte	.LVL85
 20876 2b6a 00       		.uleb128 .LVL85-.LVL85
 20877 2b6b 01       		.uleb128 0x1
 20878 2b6c 57       		.byte	0x57
 20879 2b6d 08       		.byte	0x8
 20880 2b6e 00000000 		.4byte	.LVL95
 20881 2b72 00       		.uleb128 .LVL95-.LVL95
 20882 2b73 01       		.uleb128 0x1
 20883 2b74 5E       		.byte	0x5e
 20884 2b75 08       		.byte	0x8
 20885 2b76 00000000 		.4byte	.LVL104
 20886 2b7a 00       		.uleb128 .LVL104-.LVL104
 20887 2b7b 01       		.uleb128 0x1
 20888 2b7c 60       		.byte	0x60
 20889 2b7d 08       		.byte	0x8
 20890 2b7e 00000000 		.4byte	.LVL113
 20891 2b82 00       		.uleb128 .LVL113-.LVL113
 20892 2b83 01       		.uleb128 0x1
 20893 2b84 58       		.byte	0x58
 20894 2b85 00       		.byte	0
 20895              	.LVUS46:
 20896 2b86 00       		.uleb128 .LVU584
 20897 2b87 05       		.uleb128 .LVU589
 20898 2b88 00       		.uleb128 .LVU712
 20899 2b89 05       		.uleb128 .LVU717
 20900 2b8a 00       		.uleb128 .LVU835
 20901 2b8b 05       		.uleb128 .LVU840
 20902 2b8c 00       		.uleb128 .LVU925
 20903 2b8d 05       		.uleb128 .LVU930
 20904              	.LLST46:
 20905 2b8e 08       		.byte	0x8
 20906 2b8f 00000000 		.4byte	.LVL86
 20907 2b93 00       		.uleb128 .LVL86-.LVL86
 20908 2b94 01       		.uleb128 0x1
 20909 2b95 57       		.byte	0x57
 20910 2b96 08       		.byte	0x8
 20911 2b97 00000000 		.4byte	.LVL96
 20912 2b9b 00       		.uleb128 .LVL96-.LVL96
 20913 2b9c 01       		.uleb128 0x1
 20914 2b9d 61       		.byte	0x61
 20915 2b9e 08       		.byte	0x8
 20916 2b9f 00000000 		.4byte	.LVL105
 20917 2ba3 00       		.uleb128 .LVL105-.LVL105
 20918 2ba4 01       		.uleb128 0x1
 20919 2ba5 60       		.byte	0x60
 20920 2ba6 08       		.byte	0x8
 20921 2ba7 00000000 		.4byte	.LVL114
 20922 2bab 00       		.uleb128 .LVL114-.LVL114
 20923 2bac 01       		.uleb128 0x1
 20924 2bad 58       		.byte	0x58
 20925 2bae 00       		.byte	0
 20926              	.LVUS47:
 20927 2baf 03       		.uleb128 .LVU587
 20928 2bb0 05       		.uleb128 .LVU589
 20929 2bb1 03       		.uleb128 .LVU715
 20930 2bb2 05       		.uleb128 .LVU717
 20931 2bb3 03       		.uleb128 .LVU838
 20932 2bb4 05       		.uleb128 .LVU840
 20933 2bb5 03       		.uleb128 .LVU928
 20934 2bb6 05       		.uleb128 .LVU930
 20935              	.LLST47:
 20936 2bb7 08       		.byte	0x8
 20937 2bb8 00000000 		.4byte	.LVL86
 20938 2bbc 00       		.uleb128 .LVL86-.LVL86
 20939 2bbd 08       		.uleb128 0x8
 20940 2bbe 77       		.byte	0x77
 20941 2bbf 00       		.sleb128 0
 20942 2bc0 38       		.byte	0x38
 20943 2bc1 25       		.byte	0x25
 20944 2bc2 09       		.byte	0x9
 20945 2bc3 F0       		.byte	0xf0
 20946 2bc4 1A       		.byte	0x1a
 20947 2bc5 9F       		.byte	0x9f
 20948 2bc6 08       		.byte	0x8
 20949 2bc7 00000000 		.4byte	.LVL96
 20950 2bcb 00       		.uleb128 .LVL96-.LVL96
 20951 2bcc 08       		.uleb128 0x8
 20952 2bcd 81       		.byte	0x81
 20953 2bce 00       		.sleb128 0
 20954 2bcf 38       		.byte	0x38
 20955 2bd0 25       		.byte	0x25
 20956 2bd1 09       		.byte	0x9
 20957 2bd2 F0       		.byte	0xf0
 20958 2bd3 1A       		.byte	0x1a
 20959 2bd4 9F       		.byte	0x9f
 20960 2bd5 08       		.byte	0x8
 20961 2bd6 00000000 		.4byte	.LVL105
 20962 2bda 00       		.uleb128 .LVL105-.LVL105
 20963 2bdb 08       		.uleb128 0x8
 20964 2bdc 80       		.byte	0x80
 20965 2bdd 00       		.sleb128 0
 20966 2bde 38       		.byte	0x38
 20967 2bdf 25       		.byte	0x25
 20968 2be0 09       		.byte	0x9
 20969 2be1 F0       		.byte	0xf0
 20970 2be2 1A       		.byte	0x1a
 20971 2be3 9F       		.byte	0x9f
 20972 2be4 08       		.byte	0x8
 20973 2be5 00000000 		.4byte	.LVL114
 20974 2be9 00       		.uleb128 .LVL114-.LVL114
 20975 2bea 08       		.uleb128 0x8
 20976 2beb 78       		.byte	0x78
 20977 2bec 00       		.sleb128 0
 20978 2bed 38       		.byte	0x38
 20979 2bee 25       		.byte	0x25
 20980 2bef 09       		.byte	0x9
 20981 2bf0 F0       		.byte	0xf0
 20982 2bf1 1A       		.byte	0x1a
 20983 2bf2 9F       		.byte	0x9f
 20984 2bf3 00       		.byte	0
 20985              	.LVUS48:
 20986 2bf4 04       		.uleb128 .LVU588
 20987 2bf5 05       		.uleb128 .LVU589
 20988 2bf6 04       		.uleb128 .LVU716
 20989 2bf7 05       		.uleb128 .LVU717
 20990 2bf8 04       		.uleb128 .LVU839
 20991 2bf9 05       		.uleb128 .LVU840
 20992 2bfa 04       		.uleb128 .LVU929
 20993 2bfb 05       		.uleb128 .LVU930
 20994              	.LLST48:
 20995 2bfc 08       		.byte	0x8
 20996 2bfd 00000000 		.4byte	.LVL86
 20997 2c01 00       		.uleb128 .LVL86-.LVL86
 20998 2c02 01       		.uleb128 0x1
 20999 2c03 57       		.byte	0x57
 21000 2c04 08       		.byte	0x8
 21001 2c05 00000000 		.4byte	.LVL96
 21002 2c09 00       		.uleb128 .LVL96-.LVL96
 21003 2c0a 01       		.uleb128 0x1
 21004 2c0b 61       		.byte	0x61
 21005 2c0c 08       		.byte	0x8
 21006 2c0d 00000000 		.4byte	.LVL105
 21007 2c11 00       		.uleb128 .LVL105-.LVL105
 21008 2c12 01       		.uleb128 0x1
 21009 2c13 60       		.byte	0x60
 21010 2c14 08       		.byte	0x8
 21011 2c15 00000000 		.4byte	.LVL114
 21012 2c19 00       		.uleb128 .LVL114-.LVL114
 21013 2c1a 01       		.uleb128 0x1
 21014 2c1b 58       		.byte	0x58
 21015 2c1c 00       		.byte	0
 21016              	.LVUS50:
 21017 2c1d 00       		.uleb128 .LVU603
 21018 2c1e 05       		.uleb128 .LVU608
 21019 2c1f 00       		.uleb128 .LVU728
 21020 2c20 05       		.uleb128 .LVU733
 21021 2c21 00       		.uleb128 .LVU846
 21022 2c22 05       		.uleb128 .LVU851
 21023 2c23 00       		.uleb128 .LVU936
 21024 2c24 05       		.uleb128 .LVU941
 21025              	.LLST50:
 21026 2c25 08       		.byte	0x8
 21027 2c26 00000000 		.4byte	.LVL87
 21028 2c2a 00       		.uleb128 .LVL87-.LVL87
 21029 2c2b 01       		.uleb128 0x1
 21030 2c2c 67       		.byte	0x67
 21031 2c2d 08       		.byte	0x8
 21032 2c2e 00000000 		.4byte	.LVL97
 21033 2c32 00       		.uleb128 .LVL97-.LVL97
 21034 2c33 01       		.uleb128 0x1
 21035 2c34 62       		.byte	0x62
 21036 2c35 08       		.byte	0x8
 21037 2c36 00000000 		.4byte	.LVL106
 21038 2c3a 00       		.uleb128 .LVL106-.LVL106
 21039 2c3b 01       		.uleb128 0x1
 21040 2c3c 61       		.byte	0x61
 21041 2c3d 08       		.byte	0x8
 21042 2c3e 00000000 		.4byte	.LVL115
 21043 2c42 00       		.uleb128 .LVL115-.LVL115
 21044 2c43 01       		.uleb128 0x1
 21045 2c44 58       		.byte	0x58
 21046 2c45 00       		.byte	0
 21047              	.LVUS51:
 21048 2c46 03       		.uleb128 .LVU606
 21049 2c47 05       		.uleb128 .LVU608
 21050 2c48 03       		.uleb128 .LVU731
 21051 2c49 05       		.uleb128 .LVU733
 21052 2c4a 03       		.uleb128 .LVU849
 21053 2c4b 05       		.uleb128 .LVU851
 21054 2c4c 03       		.uleb128 .LVU939
 21055 2c4d 05       		.uleb128 .LVU941
 21056              	.LLST51:
 21057 2c4e 08       		.byte	0x8
 21058 2c4f 00000000 		.4byte	.LVL87
 21059 2c53 00       		.uleb128 .LVL87-.LVL87
 21060 2c54 08       		.uleb128 0x8
 21061 2c55 87       		.byte	0x87
 21062 2c56 00       		.sleb128 0
 21063 2c57 38       		.byte	0x38
 21064 2c58 25       		.byte	0x25
 21065 2c59 09       		.byte	0x9
 21066 2c5a F0       		.byte	0xf0
 21067 2c5b 1A       		.byte	0x1a
 21068 2c5c 9F       		.byte	0x9f
 21069 2c5d 08       		.byte	0x8
 21070 2c5e 00000000 		.4byte	.LVL97
 21071 2c62 00       		.uleb128 .LVL97-.LVL97
 21072 2c63 08       		.uleb128 0x8
 21073 2c64 82       		.byte	0x82
 21074 2c65 00       		.sleb128 0
 21075 2c66 38       		.byte	0x38
 21076 2c67 25       		.byte	0x25
 21077 2c68 09       		.byte	0x9
 21078 2c69 F0       		.byte	0xf0
 21079 2c6a 1A       		.byte	0x1a
 21080 2c6b 9F       		.byte	0x9f
 21081 2c6c 08       		.byte	0x8
 21082 2c6d 00000000 		.4byte	.LVL106
 21083 2c71 00       		.uleb128 .LVL106-.LVL106
 21084 2c72 08       		.uleb128 0x8
 21085 2c73 81       		.byte	0x81
 21086 2c74 00       		.sleb128 0
 21087 2c75 38       		.byte	0x38
 21088 2c76 25       		.byte	0x25
 21089 2c77 09       		.byte	0x9
 21090 2c78 F0       		.byte	0xf0
 21091 2c79 1A       		.byte	0x1a
 21092 2c7a 9F       		.byte	0x9f
 21093 2c7b 08       		.byte	0x8
 21094 2c7c 00000000 		.4byte	.LVL115
 21095 2c80 00       		.uleb128 .LVL115-.LVL115
 21096 2c81 08       		.uleb128 0x8
 21097 2c82 78       		.byte	0x78
 21098 2c83 00       		.sleb128 0
 21099 2c84 38       		.byte	0x38
 21100 2c85 25       		.byte	0x25
 21101 2c86 09       		.byte	0x9
 21102 2c87 F0       		.byte	0xf0
 21103 2c88 1A       		.byte	0x1a
 21104 2c89 9F       		.byte	0x9f
 21105 2c8a 00       		.byte	0
 21106              	.LVUS52:
 21107 2c8b 04       		.uleb128 .LVU607
 21108 2c8c 05       		.uleb128 .LVU608
 21109 2c8d 04       		.uleb128 .LVU732
 21110 2c8e 05       		.uleb128 .LVU733
 21111 2c8f 04       		.uleb128 .LVU850
 21112 2c90 05       		.uleb128 .LVU851
 21113 2c91 04       		.uleb128 .LVU940
 21114 2c92 05       		.uleb128 .LVU941
 21115              	.LLST52:
 21116 2c93 08       		.byte	0x8
 21117 2c94 00000000 		.4byte	.LVL87
 21118 2c98 00       		.uleb128 .LVL87-.LVL87
 21119 2c99 01       		.uleb128 0x1
 21120 2c9a 67       		.byte	0x67
 21121 2c9b 08       		.byte	0x8
 21122 2c9c 00000000 		.4byte	.LVL97
 21123 2ca0 00       		.uleb128 .LVL97-.LVL97
 21124 2ca1 01       		.uleb128 0x1
 21125 2ca2 62       		.byte	0x62
 21126 2ca3 08       		.byte	0x8
 21127 2ca4 00000000 		.4byte	.LVL106
 21128 2ca8 00       		.uleb128 .LVL106-.LVL106
 21129 2ca9 01       		.uleb128 0x1
 21130 2caa 61       		.byte	0x61
 21131 2cab 08       		.byte	0x8
 21132 2cac 00000000 		.4byte	.LVL115
 21133 2cb0 00       		.uleb128 .LVL115-.LVL115
 21134 2cb1 01       		.uleb128 0x1
 21135 2cb2 58       		.byte	0x58
 21136 2cb3 00       		.byte	0
 21137              	.LVUS54:
 21138 2cb4 00       		.uleb128 .LVU622
 21139 2cb5 05       		.uleb128 .LVU627
 21140 2cb6 00       		.uleb128 .LVU744
 21141 2cb7 05       		.uleb128 .LVU749
 21142 2cb8 00       		.uleb128 .LVU857
 21143 2cb9 05       		.uleb128 .LVU862
 21144 2cba 00       		.uleb128 .LVU947
 21145 2cbb 05       		.uleb128 .LVU952
 21146              	.LLST54:
 21147 2cbc 08       		.byte	0x8
 21148 2cbd 00000000 		.4byte	.LVL88
 21149 2cc1 00       		.uleb128 .LVL88-.LVL88
 21150 2cc2 01       		.uleb128 0x1
 21151 2cc3 67       		.byte	0x67
 21152 2cc4 08       		.byte	0x8
 21153 2cc5 00000000 		.4byte	.LVL98
 21154 2cc9 00       		.uleb128 .LVL98-.LVL98
 21155 2cca 01       		.uleb128 0x1
 21156 2ccb 63       		.byte	0x63
 21157 2ccc 08       		.byte	0x8
 21158 2ccd 00000000 		.4byte	.LVL107
 21159 2cd1 00       		.uleb128 .LVL107-.LVL107
 21160 2cd2 01       		.uleb128 0x1
 21161 2cd3 62       		.byte	0x62
 21162 2cd4 08       		.byte	0x8
 21163 2cd5 00000000 		.4byte	.LVL116
 21164 2cd9 00       		.uleb128 .LVL116-.LVL116
 21165 2cda 01       		.uleb128 0x1
 21166 2cdb 58       		.byte	0x58
 21167 2cdc 00       		.byte	0
 21168              	.LVUS55:
 21169 2cdd 03       		.uleb128 .LVU625
 21170 2cde 05       		.uleb128 .LVU627
 21171 2cdf 03       		.uleb128 .LVU747
 21172 2ce0 05       		.uleb128 .LVU749
 21173 2ce1 03       		.uleb128 .LVU860
 21174 2ce2 05       		.uleb128 .LVU862
 21175 2ce3 03       		.uleb128 .LVU950
 21176 2ce4 05       		.uleb128 .LVU952
 21177              	.LLST55:
 21178 2ce5 08       		.byte	0x8
 21179 2ce6 00000000 		.4byte	.LVL88
 21180 2cea 00       		.uleb128 .LVL88-.LVL88
 21181 2ceb 08       		.uleb128 0x8
 21182 2cec 87       		.byte	0x87
 21183 2ced 00       		.sleb128 0
 21184 2cee 38       		.byte	0x38
 21185 2cef 25       		.byte	0x25
 21186 2cf0 09       		.byte	0x9
 21187 2cf1 F0       		.byte	0xf0
 21188 2cf2 1A       		.byte	0x1a
 21189 2cf3 9F       		.byte	0x9f
 21190 2cf4 08       		.byte	0x8
 21191 2cf5 00000000 		.4byte	.LVL98
 21192 2cf9 00       		.uleb128 .LVL98-.LVL98
 21193 2cfa 08       		.uleb128 0x8
 21194 2cfb 83       		.byte	0x83
 21195 2cfc 00       		.sleb128 0
 21196 2cfd 38       		.byte	0x38
 21197 2cfe 25       		.byte	0x25
 21198 2cff 09       		.byte	0x9
 21199 2d00 F0       		.byte	0xf0
 21200 2d01 1A       		.byte	0x1a
 21201 2d02 9F       		.byte	0x9f
 21202 2d03 08       		.byte	0x8
 21203 2d04 00000000 		.4byte	.LVL107
 21204 2d08 00       		.uleb128 .LVL107-.LVL107
 21205 2d09 08       		.uleb128 0x8
 21206 2d0a 82       		.byte	0x82
 21207 2d0b 00       		.sleb128 0
 21208 2d0c 38       		.byte	0x38
 21209 2d0d 25       		.byte	0x25
 21210 2d0e 09       		.byte	0x9
 21211 2d0f F0       		.byte	0xf0
 21212 2d10 1A       		.byte	0x1a
 21213 2d11 9F       		.byte	0x9f
 21214 2d12 08       		.byte	0x8
 21215 2d13 00000000 		.4byte	.LVL116
 21216 2d17 00       		.uleb128 .LVL116-.LVL116
 21217 2d18 08       		.uleb128 0x8
 21218 2d19 78       		.byte	0x78
 21219 2d1a 00       		.sleb128 0
 21220 2d1b 38       		.byte	0x38
 21221 2d1c 25       		.byte	0x25
 21222 2d1d 09       		.byte	0x9
 21223 2d1e F0       		.byte	0xf0
 21224 2d1f 1A       		.byte	0x1a
 21225 2d20 9F       		.byte	0x9f
 21226 2d21 00       		.byte	0
 21227              	.LVUS56:
 21228 2d22 04       		.uleb128 .LVU626
 21229 2d23 05       		.uleb128 .LVU627
 21230 2d24 04       		.uleb128 .LVU748
 21231 2d25 05       		.uleb128 .LVU749
 21232 2d26 04       		.uleb128 .LVU861
 21233 2d27 05       		.uleb128 .LVU862
 21234 2d28 04       		.uleb128 .LVU951
 21235 2d29 05       		.uleb128 .LVU952
 21236              	.LLST56:
 21237 2d2a 08       		.byte	0x8
 21238 2d2b 00000000 		.4byte	.LVL88
 21239 2d2f 00       		.uleb128 .LVL88-.LVL88
 21240 2d30 01       		.uleb128 0x1
 21241 2d31 67       		.byte	0x67
 21242 2d32 08       		.byte	0x8
 21243 2d33 00000000 		.4byte	.LVL98
 21244 2d37 00       		.uleb128 .LVL98-.LVL98
 21245 2d38 01       		.uleb128 0x1
 21246 2d39 63       		.byte	0x63
 21247 2d3a 08       		.byte	0x8
 21248 2d3b 00000000 		.4byte	.LVL107
 21249 2d3f 00       		.uleb128 .LVL107-.LVL107
 21250 2d40 01       		.uleb128 0x1
 21251 2d41 62       		.byte	0x62
 21252 2d42 08       		.byte	0x8
 21253 2d43 00000000 		.4byte	.LVL116
 21254 2d47 00       		.uleb128 .LVL116-.LVL116
 21255 2d48 01       		.uleb128 0x1
 21256 2d49 58       		.byte	0x58
 21257 2d4a 00       		.byte	0
 21258              	.LVUS58:
 21259 2d4b 00       		.uleb128 .LVU641
 21260 2d4c 05       		.uleb128 .LVU646
 21261 2d4d 00       		.uleb128 .LVU760
 21262 2d4e 05       		.uleb128 .LVU765
 21263 2d4f 00       		.uleb128 .LVU868
 21264 2d50 05       		.uleb128 .LVU873
 21265 2d51 00       		.uleb128 .LVU958
 21266 2d52 05       		.uleb128 .LVU963
 21267              	.LLST58:
 21268 2d53 08       		.byte	0x8
 21269 2d54 00000000 		.4byte	.LVL90
 21270 2d58 00       		.uleb128 .LVL90-.LVL90
 21271 2d59 01       		.uleb128 0x1
 21272 2d5a 67       		.byte	0x67
 21273 2d5b 08       		.byte	0x8
 21274 2d5c 00000000 		.4byte	.LVL99
 21275 2d60 00       		.uleb128 .LVL99-.LVL99
 21276 2d61 01       		.uleb128 0x1
 21277 2d62 64       		.byte	0x64
 21278 2d63 08       		.byte	0x8
 21279 2d64 00000000 		.4byte	.LVL108
 21280 2d68 00       		.uleb128 .LVL108-.LVL108
 21281 2d69 01       		.uleb128 0x1
 21282 2d6a 63       		.byte	0x63
 21283 2d6b 08       		.byte	0x8
 21284 2d6c 00000000 		.4byte	.LVL117
 21285 2d70 00       		.uleb128 .LVL117-.LVL117
 21286 2d71 01       		.uleb128 0x1
 21287 2d72 58       		.byte	0x58
 21288 2d73 00       		.byte	0
 21289              	.LVUS59:
 21290 2d74 03       		.uleb128 .LVU644
 21291 2d75 05       		.uleb128 .LVU646
 21292 2d76 03       		.uleb128 .LVU763
 21293 2d77 05       		.uleb128 .LVU765
 21294 2d78 03       		.uleb128 .LVU871
 21295 2d79 05       		.uleb128 .LVU873
 21296 2d7a 03       		.uleb128 .LVU961
 21297 2d7b 05       		.uleb128 .LVU963
 21298              	.LLST59:
 21299 2d7c 08       		.byte	0x8
 21300 2d7d 00000000 		.4byte	.LVL90
 21301 2d81 00       		.uleb128 .LVL90-.LVL90
 21302 2d82 08       		.uleb128 0x8
 21303 2d83 87       		.byte	0x87
 21304 2d84 00       		.sleb128 0
 21305 2d85 38       		.byte	0x38
 21306 2d86 25       		.byte	0x25
 21307 2d87 09       		.byte	0x9
 21308 2d88 F0       		.byte	0xf0
 21309 2d89 1A       		.byte	0x1a
 21310 2d8a 9F       		.byte	0x9f
 21311 2d8b 08       		.byte	0x8
 21312 2d8c 00000000 		.4byte	.LVL99
 21313 2d90 00       		.uleb128 .LVL99-.LVL99
 21314 2d91 08       		.uleb128 0x8
 21315 2d92 84       		.byte	0x84
 21316 2d93 00       		.sleb128 0
 21317 2d94 38       		.byte	0x38
 21318 2d95 25       		.byte	0x25
 21319 2d96 09       		.byte	0x9
 21320 2d97 F0       		.byte	0xf0
 21321 2d98 1A       		.byte	0x1a
 21322 2d99 9F       		.byte	0x9f
 21323 2d9a 08       		.byte	0x8
 21324 2d9b 00000000 		.4byte	.LVL108
 21325 2d9f 00       		.uleb128 .LVL108-.LVL108
 21326 2da0 08       		.uleb128 0x8
 21327 2da1 83       		.byte	0x83
 21328 2da2 00       		.sleb128 0
 21329 2da3 38       		.byte	0x38
 21330 2da4 25       		.byte	0x25
 21331 2da5 09       		.byte	0x9
 21332 2da6 F0       		.byte	0xf0
 21333 2da7 1A       		.byte	0x1a
 21334 2da8 9F       		.byte	0x9f
 21335 2da9 08       		.byte	0x8
 21336 2daa 00000000 		.4byte	.LVL117
 21337 2dae 00       		.uleb128 .LVL117-.LVL117
 21338 2daf 08       		.uleb128 0x8
 21339 2db0 78       		.byte	0x78
 21340 2db1 00       		.sleb128 0
 21341 2db2 38       		.byte	0x38
 21342 2db3 25       		.byte	0x25
 21343 2db4 09       		.byte	0x9
 21344 2db5 F0       		.byte	0xf0
 21345 2db6 1A       		.byte	0x1a
 21346 2db7 9F       		.byte	0x9f
 21347 2db8 00       		.byte	0
 21348              	.LVUS60:
 21349 2db9 04       		.uleb128 .LVU645
 21350 2dba 05       		.uleb128 .LVU646
 21351 2dbb 04       		.uleb128 .LVU764
 21352 2dbc 05       		.uleb128 .LVU765
 21353 2dbd 04       		.uleb128 .LVU872
 21354 2dbe 05       		.uleb128 .LVU873
 21355 2dbf 04       		.uleb128 .LVU962
 21356 2dc0 05       		.uleb128 .LVU963
 21357              	.LLST60:
 21358 2dc1 08       		.byte	0x8
 21359 2dc2 00000000 		.4byte	.LVL90
 21360 2dc6 00       		.uleb128 .LVL90-.LVL90
 21361 2dc7 01       		.uleb128 0x1
 21362 2dc8 67       		.byte	0x67
 21363 2dc9 08       		.byte	0x8
 21364 2dca 00000000 		.4byte	.LVL99
 21365 2dce 00       		.uleb128 .LVL99-.LVL99
 21366 2dcf 01       		.uleb128 0x1
 21367 2dd0 64       		.byte	0x64
 21368 2dd1 08       		.byte	0x8
 21369 2dd2 00000000 		.4byte	.LVL108
 21370 2dd6 00       		.uleb128 .LVL108-.LVL108
 21371 2dd7 01       		.uleb128 0x1
 21372 2dd8 63       		.byte	0x63
 21373 2dd9 08       		.byte	0x8
 21374 2dda 00000000 		.4byte	.LVL117
 21375 2dde 00       		.uleb128 .LVL117-.LVL117
 21376 2ddf 01       		.uleb128 0x1
 21377 2de0 58       		.byte	0x58
 21378 2de1 00       		.byte	0
 21379              	.LVUS62:
 21380 2de2 00       		.uleb128 .LVU656
 21381 2de3 05       		.uleb128 .LVU661
 21382 2de4 00       		.uleb128 .LVU776
 21383 2de5 05       		.uleb128 .LVU781
 21384 2de6 00       		.uleb128 .LVU879
 21385 2de7 05       		.uleb128 .LVU884
 21386 2de8 00       		.uleb128 .LVU969
 21387 2de9 05       		.uleb128 .LVU974
 21388              	.LLST62:
 21389 2dea 08       		.byte	0x8
 21390 2deb 00000000 		.4byte	.LVL91
 21391 2def 00       		.uleb128 .LVL91-.LVL91
 21392 2df0 01       		.uleb128 0x1
 21393 2df1 60       		.byte	0x60
 21394 2df2 08       		.byte	0x8
 21395 2df3 00000000 		.4byte	.LVL100
 21396 2df7 00       		.uleb128 .LVL100-.LVL100
 21397 2df8 01       		.uleb128 0x1
 21398 2df9 67       		.byte	0x67
 21399 2dfa 08       		.byte	0x8
 21400 2dfb 00000000 		.4byte	.LVL109
 21401 2dff 00       		.uleb128 .LVL109-.LVL109
 21402 2e00 01       		.uleb128 0x1
 21403 2e01 64       		.byte	0x64
 21404 2e02 08       		.byte	0x8
 21405 2e03 00000000 		.4byte	.LVL118
 21406 2e07 00       		.uleb128 .LVL118-.LVL118
 21407 2e08 01       		.uleb128 0x1
 21408 2e09 58       		.byte	0x58
 21409 2e0a 00       		.byte	0
 21410              	.LVUS63:
 21411 2e0b 03       		.uleb128 .LVU659
 21412 2e0c 05       		.uleb128 .LVU661
 21413 2e0d 03       		.uleb128 .LVU779
 21414 2e0e 05       		.uleb128 .LVU781
 21415 2e0f 03       		.uleb128 .LVU882
 21416 2e10 05       		.uleb128 .LVU884
 21417 2e11 03       		.uleb128 .LVU972
 21418 2e12 05       		.uleb128 .LVU974
 21419              	.LLST63:
 21420 2e13 08       		.byte	0x8
 21421 2e14 00000000 		.4byte	.LVL91
 21422 2e18 00       		.uleb128 .LVL91-.LVL91
 21423 2e19 08       		.uleb128 0x8
 21424 2e1a 80       		.byte	0x80
 21425 2e1b 00       		.sleb128 0
 21426 2e1c 38       		.byte	0x38
 21427 2e1d 25       		.byte	0x25
 21428 2e1e 09       		.byte	0x9
 21429 2e1f F0       		.byte	0xf0
 21430 2e20 1A       		.byte	0x1a
 21431 2e21 9F       		.byte	0x9f
 21432 2e22 08       		.byte	0x8
 21433 2e23 00000000 		.4byte	.LVL100
 21434 2e27 00       		.uleb128 .LVL100-.LVL100
 21435 2e28 08       		.uleb128 0x8
 21436 2e29 87       		.byte	0x87
 21437 2e2a 00       		.sleb128 0
 21438 2e2b 38       		.byte	0x38
 21439 2e2c 25       		.byte	0x25
 21440 2e2d 09       		.byte	0x9
 21441 2e2e F0       		.byte	0xf0
 21442 2e2f 1A       		.byte	0x1a
 21443 2e30 9F       		.byte	0x9f
 21444 2e31 08       		.byte	0x8
 21445 2e32 00000000 		.4byte	.LVL109
 21446 2e36 00       		.uleb128 .LVL109-.LVL109
 21447 2e37 08       		.uleb128 0x8
 21448 2e38 84       		.byte	0x84
 21449 2e39 00       		.sleb128 0
 21450 2e3a 38       		.byte	0x38
 21451 2e3b 25       		.byte	0x25
 21452 2e3c 09       		.byte	0x9
 21453 2e3d F0       		.byte	0xf0
 21454 2e3e 1A       		.byte	0x1a
 21455 2e3f 9F       		.byte	0x9f
 21456 2e40 08       		.byte	0x8
 21457 2e41 00000000 		.4byte	.LVL118
 21458 2e45 00       		.uleb128 .LVL118-.LVL118
 21459 2e46 08       		.uleb128 0x8
 21460 2e47 78       		.byte	0x78
 21461 2e48 00       		.sleb128 0
 21462 2e49 38       		.byte	0x38
 21463 2e4a 25       		.byte	0x25
 21464 2e4b 09       		.byte	0x9
 21465 2e4c F0       		.byte	0xf0
 21466 2e4d 1A       		.byte	0x1a
 21467 2e4e 9F       		.byte	0x9f
 21468 2e4f 00       		.byte	0
 21469              	.LVUS64:
 21470 2e50 04       		.uleb128 .LVU660
 21471 2e51 05       		.uleb128 .LVU661
 21472 2e52 04       		.uleb128 .LVU780
 21473 2e53 05       		.uleb128 .LVU781
 21474 2e54 04       		.uleb128 .LVU883
 21475 2e55 05       		.uleb128 .LVU884
 21476 2e56 04       		.uleb128 .LVU973
 21477 2e57 05       		.uleb128 .LVU974
 21478              	.LLST64:
 21479 2e58 08       		.byte	0x8
 21480 2e59 00000000 		.4byte	.LVL91
 21481 2e5d 00       		.uleb128 .LVL91-.LVL91
 21482 2e5e 01       		.uleb128 0x1
 21483 2e5f 60       		.byte	0x60
 21484 2e60 08       		.byte	0x8
 21485 2e61 00000000 		.4byte	.LVL100
 21486 2e65 00       		.uleb128 .LVL100-.LVL100
 21487 2e66 01       		.uleb128 0x1
 21488 2e67 67       		.byte	0x67
 21489 2e68 08       		.byte	0x8
 21490 2e69 00000000 		.4byte	.LVL109
 21491 2e6d 00       		.uleb128 .LVL109-.LVL109
 21492 2e6e 01       		.uleb128 0x1
 21493 2e6f 64       		.byte	0x64
 21494 2e70 08       		.byte	0x8
 21495 2e71 00000000 		.4byte	.LVL118
 21496 2e75 00       		.uleb128 .LVL118-.LVL118
 21497 2e76 01       		.uleb128 0x1
 21498 2e77 58       		.byte	0x58
 21499 2e78 00       		.byte	0
 21500              	.LVUS66:
 21501 2e79 00       		.uleb128 .LVU668
 21502 2e7a 05       		.uleb128 .LVU673
 21503 2e7b 00       		.uleb128 .LVU792
 21504 2e7c 05       		.uleb128 .LVU797
 21505 2e7d 00       		.uleb128 .LVU890
 21506 2e7e 05       		.uleb128 .LVU895
 21507 2e7f 00       		.uleb128 .LVU980
 21508 2e80 05       		.uleb128 .LVU985
 21509              	.LLST66:
 21510 2e81 08       		.byte	0x8
 21511 2e82 00000000 		.4byte	.LVL92
 21512 2e86 00       		.uleb128 .LVL92-.LVL92
 21513 2e87 01       		.uleb128 0x1
 21514 2e88 60       		.byte	0x60
 21515 2e89 08       		.byte	0x8
 21516 2e8a 00000000 		.4byte	.LVL101
 21517 2e8e 00       		.uleb128 .LVL101-.LVL101
 21518 2e8f 01       		.uleb128 0x1
 21519 2e90 5C       		.byte	0x5c
 21520 2e91 08       		.byte	0x8
 21521 2e92 00000000 		.4byte	.LVL110
 21522 2e96 00       		.uleb128 .LVL110-.LVL110
 21523 2e97 01       		.uleb128 0x1
 21524 2e98 67       		.byte	0x67
 21525 2e99 08       		.byte	0x8
 21526 2e9a 00000000 		.4byte	.LVL119
 21527 2e9e 00       		.uleb128 .LVL119-.LVL119
 21528 2e9f 01       		.uleb128 0x1
 21529 2ea0 58       		.byte	0x58
 21530 2ea1 00       		.byte	0
 21531              	.LVUS67:
 21532 2ea2 03       		.uleb128 .LVU671
 21533 2ea3 05       		.uleb128 .LVU673
 21534 2ea4 03       		.uleb128 .LVU795
 21535 2ea5 05       		.uleb128 .LVU797
 21536 2ea6 03       		.uleb128 .LVU893
 21537 2ea7 05       		.uleb128 .LVU895
 21538 2ea8 03       		.uleb128 .LVU983
 21539 2ea9 05       		.uleb128 .LVU985
 21540              	.LLST67:
 21541 2eaa 08       		.byte	0x8
 21542 2eab 00000000 		.4byte	.LVL92
 21543 2eaf 00       		.uleb128 .LVL92-.LVL92
 21544 2eb0 08       		.uleb128 0x8
 21545 2eb1 80       		.byte	0x80
 21546 2eb2 00       		.sleb128 0
 21547 2eb3 38       		.byte	0x38
 21548 2eb4 25       		.byte	0x25
 21549 2eb5 09       		.byte	0x9
 21550 2eb6 F0       		.byte	0xf0
 21551 2eb7 1A       		.byte	0x1a
 21552 2eb8 9F       		.byte	0x9f
 21553 2eb9 08       		.byte	0x8
 21554 2eba 00000000 		.4byte	.LVL101
 21555 2ebe 00       		.uleb128 .LVL101-.LVL101
 21556 2ebf 08       		.uleb128 0x8
 21557 2ec0 7C       		.byte	0x7c
 21558 2ec1 00       		.sleb128 0
 21559 2ec2 38       		.byte	0x38
 21560 2ec3 25       		.byte	0x25
 21561 2ec4 09       		.byte	0x9
 21562 2ec5 F0       		.byte	0xf0
 21563 2ec6 1A       		.byte	0x1a
 21564 2ec7 9F       		.byte	0x9f
 21565 2ec8 08       		.byte	0x8
 21566 2ec9 00000000 		.4byte	.LVL110
 21567 2ecd 00       		.uleb128 .LVL110-.LVL110
 21568 2ece 08       		.uleb128 0x8
 21569 2ecf 87       		.byte	0x87
 21570 2ed0 00       		.sleb128 0
 21571 2ed1 38       		.byte	0x38
 21572 2ed2 25       		.byte	0x25
 21573 2ed3 09       		.byte	0x9
 21574 2ed4 F0       		.byte	0xf0
 21575 2ed5 1A       		.byte	0x1a
 21576 2ed6 9F       		.byte	0x9f
 21577 2ed7 08       		.byte	0x8
 21578 2ed8 00000000 		.4byte	.LVL119
 21579 2edc 00       		.uleb128 .LVL119-.LVL119
 21580 2edd 08       		.uleb128 0x8
 21581 2ede 78       		.byte	0x78
 21582 2edf 00       		.sleb128 0
 21583 2ee0 38       		.byte	0x38
 21584 2ee1 25       		.byte	0x25
 21585 2ee2 09       		.byte	0x9
 21586 2ee3 F0       		.byte	0xf0
 21587 2ee4 1A       		.byte	0x1a
 21588 2ee5 9F       		.byte	0x9f
 21589 2ee6 00       		.byte	0
 21590              	.LVUS68:
 21591 2ee7 04       		.uleb128 .LVU672
 21592 2ee8 05       		.uleb128 .LVU673
 21593 2ee9 04       		.uleb128 .LVU796
 21594 2eea 05       		.uleb128 .LVU797
 21595 2eeb 04       		.uleb128 .LVU894
 21596 2eec 05       		.uleb128 .LVU895
 21597 2eed 04       		.uleb128 .LVU984
 21598 2eee 05       		.uleb128 .LVU985
 21599              	.LLST68:
 21600 2eef 08       		.byte	0x8
 21601 2ef0 00000000 		.4byte	.LVL92
 21602 2ef4 00       		.uleb128 .LVL92-.LVL92
 21603 2ef5 01       		.uleb128 0x1
 21604 2ef6 60       		.byte	0x60
 21605 2ef7 08       		.byte	0x8
 21606 2ef8 00000000 		.4byte	.LVL101
 21607 2efc 00       		.uleb128 .LVL101-.LVL101
 21608 2efd 01       		.uleb128 0x1
 21609 2efe 5C       		.byte	0x5c
 21610 2eff 08       		.byte	0x8
 21611 2f00 00000000 		.4byte	.LVL110
 21612 2f04 00       		.uleb128 .LVL110-.LVL110
 21613 2f05 01       		.uleb128 0x1
 21614 2f06 67       		.byte	0x67
 21615 2f07 08       		.byte	0x8
 21616 2f08 00000000 		.4byte	.LVL119
 21617 2f0c 00       		.uleb128 .LVL119-.LVL119
 21618 2f0d 01       		.uleb128 0x1
 21619 2f0e 58       		.byte	0x58
 21620 2f0f 00       		.byte	0
 21621              	.LVUS70:
 21622 2f10 00       		.uleb128 .LVU680
 21623 2f11 05       		.uleb128 .LVU685
 21624 2f12 00       		.uleb128 .LVU808
 21625 2f13 05       		.uleb128 .LVU813
 21626 2f14 00       		.uleb128 .LVU901
 21627 2f15 05       		.uleb128 .LVU906
 21628 2f16 00       		.uleb128 .LVU991
 21629 2f17 05       		.uleb128 .LVU996
 21630              	.LLST70:
 21631 2f18 08       		.byte	0x8
 21632 2f19 00000000 		.4byte	.LVL93
 21633 2f1d 00       		.uleb128 .LVL93-.LVL93
 21634 2f1e 01       		.uleb128 0x1
 21635 2f1f 60       		.byte	0x60
 21636 2f20 08       		.byte	0x8
 21637 2f21 00000000 		.4byte	.LVL102
 21638 2f25 00       		.uleb128 .LVL102-.LVL102
 21639 2f26 01       		.uleb128 0x1
 21640 2f27 5F       		.byte	0x5f
 21641 2f28 08       		.byte	0x8
 21642 2f29 00000000 		.4byte	.LVL111
 21643 2f2d 00       		.uleb128 .LVL111-.LVL111
 21644 2f2e 01       		.uleb128 0x1
 21645 2f2f 67       		.byte	0x67
 21646 2f30 08       		.byte	0x8
 21647 2f31 00000000 		.4byte	.LVL120
 21648 2f35 00       		.uleb128 .LVL120-.LVL120
 21649 2f36 01       		.uleb128 0x1
 21650 2f37 58       		.byte	0x58
 21651 2f38 00       		.byte	0
 21652              	.LVUS71:
 21653 2f39 03       		.uleb128 .LVU683
 21654 2f3a 05       		.uleb128 .LVU685
 21655 2f3b 03       		.uleb128 .LVU811
 21656 2f3c 05       		.uleb128 .LVU813
 21657 2f3d 03       		.uleb128 .LVU904
 21658 2f3e 05       		.uleb128 .LVU906
 21659 2f3f 03       		.uleb128 .LVU994
 21660 2f40 05       		.uleb128 .LVU996
 21661              	.LLST71:
 21662 2f41 08       		.byte	0x8
 21663 2f42 00000000 		.4byte	.LVL93
 21664 2f46 00       		.uleb128 .LVL93-.LVL93
 21665 2f47 08       		.uleb128 0x8
 21666 2f48 80       		.byte	0x80
 21667 2f49 00       		.sleb128 0
 21668 2f4a 38       		.byte	0x38
 21669 2f4b 25       		.byte	0x25
 21670 2f4c 09       		.byte	0x9
 21671 2f4d F0       		.byte	0xf0
 21672 2f4e 1A       		.byte	0x1a
 21673 2f4f 9F       		.byte	0x9f
 21674 2f50 08       		.byte	0x8
 21675 2f51 00000000 		.4byte	.LVL102
 21676 2f55 00       		.uleb128 .LVL102-.LVL102
 21677 2f56 08       		.uleb128 0x8
 21678 2f57 7F       		.byte	0x7f
 21679 2f58 00       		.sleb128 0
 21680 2f59 38       		.byte	0x38
 21681 2f5a 25       		.byte	0x25
 21682 2f5b 09       		.byte	0x9
 21683 2f5c F0       		.byte	0xf0
 21684 2f5d 1A       		.byte	0x1a
 21685 2f5e 9F       		.byte	0x9f
 21686 2f5f 08       		.byte	0x8
 21687 2f60 00000000 		.4byte	.LVL111
 21688 2f64 00       		.uleb128 .LVL111-.LVL111
 21689 2f65 08       		.uleb128 0x8
 21690 2f66 87       		.byte	0x87
 21691 2f67 00       		.sleb128 0
 21692 2f68 38       		.byte	0x38
 21693 2f69 25       		.byte	0x25
 21694 2f6a 09       		.byte	0x9
 21695 2f6b F0       		.byte	0xf0
 21696 2f6c 1A       		.byte	0x1a
 21697 2f6d 9F       		.byte	0x9f
 21698 2f6e 08       		.byte	0x8
 21699 2f6f 00000000 		.4byte	.LVL120
 21700 2f73 00       		.uleb128 .LVL120-.LVL120
 21701 2f74 08       		.uleb128 0x8
 21702 2f75 78       		.byte	0x78
 21703 2f76 00       		.sleb128 0
 21704 2f77 38       		.byte	0x38
 21705 2f78 25       		.byte	0x25
 21706 2f79 09       		.byte	0x9
 21707 2f7a F0       		.byte	0xf0
 21708 2f7b 1A       		.byte	0x1a
 21709 2f7c 9F       		.byte	0x9f
 21710 2f7d 00       		.byte	0
 21711              	.LVUS72:
 21712 2f7e 04       		.uleb128 .LVU684
 21713 2f7f 05       		.uleb128 .LVU685
 21714 2f80 04       		.uleb128 .LVU812
 21715 2f81 05       		.uleb128 .LVU813
 21716 2f82 04       		.uleb128 .LVU905
 21717 2f83 05       		.uleb128 .LVU906
 21718 2f84 04       		.uleb128 .LVU995
 21719 2f85 05       		.uleb128 .LVU996
 21720              	.LLST72:
 21721 2f86 08       		.byte	0x8
 21722 2f87 00000000 		.4byte	.LVL93
 21723 2f8b 00       		.uleb128 .LVL93-.LVL93
 21724 2f8c 01       		.uleb128 0x1
 21725 2f8d 60       		.byte	0x60
 21726 2f8e 08       		.byte	0x8
 21727 2f8f 00000000 		.4byte	.LVL102
 21728 2f93 00       		.uleb128 .LVL102-.LVL102
 21729 2f94 01       		.uleb128 0x1
 21730 2f95 5F       		.byte	0x5f
 21731 2f96 08       		.byte	0x8
 21732 2f97 00000000 		.4byte	.LVL111
 21733 2f9b 00       		.uleb128 .LVL111-.LVL111
 21734 2f9c 01       		.uleb128 0x1
 21735 2f9d 67       		.byte	0x67
 21736 2f9e 08       		.byte	0x8
 21737 2f9f 00000000 		.4byte	.LVL120
 21738 2fa3 00       		.uleb128 .LVL120-.LVL120
 21739 2fa4 01       		.uleb128 0x1
 21740 2fa5 58       		.byte	0x58
 21741 2fa6 00       		.byte	0
 21742              	.LVUS14:
 21743 2fa7 00       		.uleb128 0
 21744 2fa8 00       		.uleb128 .LVU339
 21745 2fa9 00       		.uleb128 .LVU339
 21746 2faa 00       		.uleb128 .LVU521
 21747 2fab 00       		.uleb128 .LVU521
 21748 2fac 00       		.uleb128 0
 21749              	.LLST14:
 21750 2fad 06       		.byte	0x6
 21751 2fae 00000000 		.4byte	.LVL40
 21752 2fb2 04       		.byte	0x4
 21753 2fb3 00       		.uleb128 .LVL40-.LVL40
 21754 2fb4 24       		.uleb128 .LVL42-.LVL40
 21755 2fb5 01       		.uleb128 0x1
 21756 2fb6 53       		.byte	0x53
 21757 2fb7 04       		.byte	0x4
 21758 2fb8 24       		.uleb128 .LVL42-.LVL40
 21759 2fb9 DC06     		.uleb128 .LVL72-.LVL40
 21760 2fbb 01       		.uleb128 0x1
 21761 2fbc 6F       		.byte	0x6f
 21762 2fbd 04       		.byte	0x4
 21763 2fbe DC06     		.uleb128 .LVL72-.LVL40
 21764 2fc0 E406     		.uleb128 .LFE69-.LVL40
 21765 2fc2 0A       		.uleb128 0xa
 21766 2fc3 A3       		.byte	0xa3
 21767 2fc4 03       		.uleb128 0x3
 21768 2fc5 A5       		.byte	0xa5
 21769 2fc6 03       		.uleb128 0x3
 21770 2fc7 2D       		.uleb128 0x2d
 21771 2fc8 A8       		.byte	0xa8
 21772 2fc9 26       		.uleb128 0x26
 21773 2fca A8       		.byte	0xa8
 21774 2fcb 00       		.uleb128 0
 21775 2fcc 9F       		.byte	0x9f
 21776 2fcd 00       		.byte	0
 21777              	.LVUS15:
 21778 2fce 00       		.uleb128 0
 21779 2fcf 00       		.uleb128 .LVU341
 21780 2fd0 00       		.uleb128 .LVU341
 21781 2fd1 00       		.uleb128 .LVU518
 21782 2fd2 00       		.uleb128 .LVU518
 21783 2fd3 00       		.uleb128 0
 21784              	.LLST15:
 21785 2fd4 06       		.byte	0x6
 21786 2fd5 00000000 		.4byte	.LVL40
 21787 2fd9 04       		.byte	0x4
 21788 2fda 00       		.uleb128 .LVL40-.LVL40
 21789 2fdb 2C       		.uleb128 .LVL43-.LVL40
 21790 2fdc 01       		.uleb128 0x1
 21791 2fdd 54       		.byte	0x54
 21792 2fde 04       		.byte	0x4
 21793 2fdf 2C       		.uleb128 .LVL43-.LVL40
 21794 2fe0 CC06     		.uleb128 .LVL69-.LVL40
 21795 2fe2 01       		.uleb128 0x1
 21796 2fe3 65       		.byte	0x65
 21797 2fe4 04       		.byte	0x4
 21798 2fe5 CC06     		.uleb128 .LVL69-.LVL40
 21799 2fe7 E406     		.uleb128 .LFE69-.LVL40
 21800 2fe9 0A       		.uleb128 0xa
 21801 2fea A3       		.byte	0xa3
 21802 2feb 03       		.uleb128 0x3
 21803 2fec A5       		.byte	0xa5
 21804 2fed 04       		.uleb128 0x4
 21805 2fee 2D       		.uleb128 0x2d
 21806 2fef A8       		.byte	0xa8
 21807 2ff0 34       		.uleb128 0x34
 21808 2ff1 A8       		.byte	0xa8
 21809 2ff2 00       		.uleb128 0
 21810 2ff3 9F       		.byte	0x9f
 21811 2ff4 00       		.byte	0
 21812              	.LVUS16:
 21813 2ff5 00       		.uleb128 0
 21814 2ff6 00       		.uleb128 .LVU343
 21815 2ff7 00       		.uleb128 .LVU343
 21816 2ff8 00       		.uleb128 .LVU517
 21817 2ff9 00       		.uleb128 .LVU517
 21818 2ffa 00       		.uleb128 0
 21819              	.LLST16:
 21820 2ffb 06       		.byte	0x6
 21821 2ffc 00000000 		.4byte	.LVL40
 21822 3000 04       		.byte	0x4
 21823 3001 00       		.uleb128 .LVL40-.LVL40
 21824 3002 3B       		.uleb128 .LVL44-1-.LVL40
 21825 3003 01       		.uleb128 0x1
 21826 3004 55       		.byte	0x55
 21827 3005 04       		.byte	0x4
 21828 3006 3B       		.uleb128 .LVL44-1-.LVL40
 21829 3007 C806     		.uleb128 .LVL68-.LVL40
 21830 3009 01       		.uleb128 0x1
 21831 300a 64       		.byte	0x64
 21832 300b 04       		.byte	0x4
 21833 300c C806     		.uleb128 .LVL68-.LVL40
 21834 300e E406     		.uleb128 .LFE69-.LVL40
 21835 3010 0A       		.uleb128 0xa
 21836 3011 A3       		.byte	0xa3
 21837 3012 03       		.uleb128 0x3
 21838 3013 A5       		.byte	0xa5
 21839 3014 05       		.uleb128 0x5
 21840 3015 2D       		.uleb128 0x2d
 21841 3016 A8       		.byte	0xa8
 21842 3017 34       		.uleb128 0x34
 21843 3018 A8       		.byte	0xa8
 21844 3019 00       		.uleb128 0
 21845 301a 9F       		.byte	0x9f
 21846 301b 00       		.byte	0
 21847              	.LVUS17:
 21848 301c 00       		.uleb128 .LVU336
 21849 301d 00       		.uleb128 .LVU519
 21850 301e 00       		.uleb128 .LVU519
 21851 301f 00       		.uleb128 0
 21852              	.LLST17:
 21853 3020 06       		.byte	0x6
 21854 3021 00000000 		.4byte	.LVL41
 21855 3025 04       		.byte	0x4
 21856 3026 00       		.uleb128 .LVL41-.LVL41
 21857 3027 C406     		.uleb128 .LVL70-.LVL41
 21858 3029 01       		.uleb128 0x1
 21859 302a 6D       		.byte	0x6d
 21860 302b 04       		.byte	0x4
 21861 302c C406     		.uleb128 .LVL70-.LVL41
 21862 302e D406     		.uleb128 .LFE69-.LVL41
 21863 3030 14       		.uleb128 0x14
 21864 3031 A3       		.byte	0xa3
 21865 3032 03       		.uleb128 0x3
 21866 3033 A5       		.byte	0xa5
 21867 3034 05       		.uleb128 0x5
 21868 3035 2D       		.uleb128 0x2d
 21869 3036 A8       		.byte	0xa8
 21870 3037 26       		.uleb128 0x26
 21871 3038 A8       		.byte	0xa8
 21872 3039 00       		.uleb128 0
 21873 303a A3       		.byte	0xa3
 21874 303b 03       		.uleb128 0x3
 21875 303c A5       		.byte	0xa5
 21876 303d 04       		.uleb128 0x4
 21877 303e 2D       		.uleb128 0x2d
 21878 303f A8       		.byte	0xa8
 21879 3040 26       		.uleb128 0x26
 21880 3041 A8       		.byte	0xa8
 21881 3042 00       		.uleb128 0
 21882 3043 1E       		.byte	0x1e
 21883 3044 9F       		.byte	0x9f
 21884 3045 00       		.byte	0
 21885              	.LVUS18:
 21886 3046 00       		.uleb128 .LVU345
 21887 3047 00       		.uleb128 .LVU347
 21888 3048 00       		.uleb128 .LVU347
 21889 3049 00       		.uleb128 .LVU520
 21890 304a 00       		.uleb128 .LVU520
 21891 304b 00       		.uleb128 0
 21892              	.LLST18:
 21893 304c 06       		.byte	0x6
 21894 304d 00000000 		.4byte	.LVL45
 21895 3051 04       		.byte	0x4
 21896 3052 00       		.uleb128 .LVL45-.LVL45
 21897 3053 03       		.uleb128 .LVL46-1-.LVL45
 21898 3054 01       		.uleb128 0x1
 21899 3055 53       		.byte	0x53
 21900 3056 04       		.byte	0x4
 21901 3057 03       		.uleb128 .LVL46-1-.LVL45
 21902 3058 9006     		.uleb128 .LVL71-.LVL45
 21903 305a 01       		.uleb128 0x1
 21904 305b 6E       		.byte	0x6e
 21905 305c 04       		.byte	0x4
 21906 305d 9006     		.uleb128 .LVL71-.LVL45
 21907 305f 9C06     		.uleb128 .LFE69-.LVL45
 21908 3061 01       		.uleb128 0x1
 21909 3062 53       		.byte	0x53
 21910 3063 00       		.byte	0
 21911              	.LVUS19:
 21912 3064 01       		.uleb128 .LVU348
 21913 3065 00       		.uleb128 .LVU521
 21914 3066 00       		.uleb128 .LVU521
 21915 3067 00       		.uleb128 0
 21916              	.LLST19:
 21917 3068 06       		.byte	0x6
 21918 3069 00000000 		.4byte	.LVL46
 21919 306d 04       		.byte	0x4
 21920 306e 00       		.uleb128 .LVL46-.LVL46
 21921 306f 9006     		.uleb128 .LVL72-.LVL46
 21922 3071 01       		.uleb128 0x1
 21923 3072 6F       		.byte	0x6f
 21924 3073 04       		.byte	0x4
 21925 3074 9006     		.uleb128 .LVL72-.LVL46
 21926 3076 9806     		.uleb128 .LFE69-.LVL46
 21927 3078 0A       		.uleb128 0xa
 21928 3079 A3       		.byte	0xa3
 21929 307a 03       		.uleb128 0x3
 21930 307b A5       		.byte	0xa5
 21931 307c 03       		.uleb128 0x3
 21932 307d 2D       		.uleb128 0x2d
 21933 307e A8       		.byte	0xa8
 21934 307f 26       		.uleb128 0x26
 21935 3080 A8       		.byte	0xa8
 21936 3081 00       		.uleb128 0
 21937 3082 9F       		.byte	0x9f
 21938 3083 00       		.byte	0
 21939              	.LVUS20:
 21940 3084 02       		.uleb128 .LVU349
 21941 3085 00       		.uleb128 .LVU353
 21942 3086 00       		.uleb128 .LVU353
 21943 3087 00       		.uleb128 .LVU361
 21944 3088 00       		.uleb128 .LVU361
 21945 3089 01       		.uleb128 .LVU373
 21946 308a 01       		.uleb128 .LVU373
 21947 308b 01       		.uleb128 .LVU381
 21948 308c 01       		.uleb128 .LVU381
 21949 308d 01       		.uleb128 .LVU389
 21950 308e 01       		.uleb128 .LVU389
 21951 308f 01       		.uleb128 .LVU397
 21952 3090 01       		.uleb128 .LVU397
 21953 3091 01       		.uleb128 .LVU406
 21954 3092 01       		.uleb128 .LVU406
 21955 3093 00       		.uleb128 .LVU413
 21956 3094 00       		.uleb128 .LVU413
 21957 3095 01       		.uleb128 .LVU415
 21958 3096 01       		.uleb128 .LVU501
 21959 3097 00       		.uleb128 .LVU512
 21960              	.LLST20:
 21961 3098 06       		.byte	0x6
 21962 3099 00000000 		.4byte	.LVL46
 21963 309d 04       		.byte	0x4
 21964 309e 00       		.uleb128 .LVL46-.LVL46
 21965 309f 4C       		.uleb128 .LVL47-.LVL46
 21966 30a0 01       		.uleb128 0x1
 21967 30a1 6E       		.byte	0x6e
 21968 30a2 04       		.byte	0x4
 21969 30a3 4C       		.uleb128 .LVL47-.LVL46
 21970 30a4 6C       		.uleb128 .LVL49-.LVL46
 21971 30a5 01       		.uleb128 0x1
 21972 30a6 59       		.byte	0x59
 21973 30a7 04       		.byte	0x4
 21974 30a8 6C       		.uleb128 .LVL49-.LVL46
 21975 30a9 9401     		.uleb128 .LVL51-.LVL46
 21976 30ab 03       		.uleb128 0x3
 21977 30ac 79       		.byte	0x79
 21978 30ad 01       		.sleb128 1
 21979 30ae 9F       		.byte	0x9f
 21980 30af 04       		.byte	0x4
 21981 30b0 9401     		.uleb128 .LVL51-.LVL46
 21982 30b2 B401     		.uleb128 .LVL52-.LVL46
 21983 30b4 03       		.uleb128 0x3
 21984 30b5 79       		.byte	0x79
 21985 30b6 02       		.sleb128 2
 21986 30b7 9F       		.byte	0x9f
 21987 30b8 04       		.byte	0x4
 21988 30b9 B401     		.uleb128 .LVL52-.LVL46
 21989 30bb D401     		.uleb128 .LVL53-.LVL46
 21990 30bd 03       		.uleb128 0x3
 21991 30be 79       		.byte	0x79
 21992 30bf 03       		.sleb128 3
 21993 30c0 9F       		.byte	0x9f
 21994 30c1 04       		.byte	0x4
 21995 30c2 D401     		.uleb128 .LVL53-.LVL46
 21996 30c4 F401     		.uleb128 .LVL54-.LVL46
 21997 30c6 03       		.uleb128 0x3
 21998 30c7 79       		.byte	0x79
 21999 30c8 04       		.sleb128 4
 22000 30c9 9F       		.byte	0x9f
 22001 30ca 04       		.byte	0x4
 22002 30cb F401     		.uleb128 .LVL54-.LVL46
 22003 30cd 9402     		.uleb128 .LVL55-.LVL46
 22004 30cf 03       		.uleb128 0x3
 22005 30d0 79       		.byte	0x79
 22006 30d1 05       		.sleb128 5
 22007 30d2 9F       		.byte	0x9f
 22008 30d3 04       		.byte	0x4
 22009 30d4 9402     		.uleb128 .LVL55-.LVL46
 22010 30d6 B002     		.uleb128 .LVL56-.LVL46
 22011 30d8 03       		.uleb128 0x3
 22012 30d9 79       		.byte	0x79
 22013 30da 06       		.sleb128 6
 22014 30db 9F       		.byte	0x9f
 22015 30dc 04       		.byte	0x4
 22016 30dd B002     		.uleb128 .LVL56-.LVL46
 22017 30df B402     		.uleb128 .LVL57-.LVL46
 22018 30e1 03       		.uleb128 0x3
 22019 30e2 79       		.byte	0x79
 22020 30e3 66       		.sleb128 -26
 22021 30e4 9F       		.byte	0x9f
 22022 30e5 04       		.byte	0x4
 22023 30e6 9005     		.uleb128 .LVL62-.LVL46
 22024 30e8 E405     		.uleb128 .LVL66-.LVL46
 22025 30ea 01       		.uleb128 0x1
 22026 30eb 59       		.byte	0x59
 22027 30ec 00       		.byte	0
 22028              	.LVUS22:
 22029 30ed 03       		.uleb128 .LVU350
 22030 30ee 00       		.uleb128 .LVU353
 22031 30ef 00       		.uleb128 .LVU353
 22032 30f0 00       		.uleb128 .LVU358
 22033 30f1 00       		.uleb128 .LVU358
 22034 30f2 00       		.uleb128 .LVU510
 22035 30f3 00       		.uleb128 .LVU510
 22036 30f4 00       		.uleb128 .LVU512
 22037              	.LLST22:
 22038 30f5 06       		.byte	0x6
 22039 30f6 00000000 		.4byte	.LVL46
 22040 30fa 04       		.byte	0x4
 22041 30fb 00       		.uleb128 .LVL46-.LVL46
 22042 30fc 4C       		.uleb128 .LVL47-.LVL46
 22043 30fd 02       		.uleb128 0x2
 22044 30fe 30       		.byte	0x30
 22045 30ff 9F       		.byte	0x9f
 22046 3100 04       		.byte	0x4
 22047 3101 4C       		.uleb128 .LVL47-.LVL46
 22048 3102 68       		.uleb128 .LVL48-.LVL46
 22049 3103 01       		.uleb128 0x1
 22050 3104 5A       		.byte	0x5a
 22051 3105 04       		.byte	0x4
 22052 3106 68       		.uleb128 .LVL48-.LVL46
 22053 3107 A805     		.uleb128 .LVL64-.LVL46
 22054 3109 02       		.uleb128 0x2
 22055 310a 90       		.byte	0x90
 22056 310b 42       		.uleb128 0x42
 22057 310c 04       		.byte	0x4
 22058 310d A805     		.uleb128 .LVL64-.LVL46
 22059 310f E405     		.uleb128 .LVL66-.LVL46
 22060 3111 01       		.uleb128 0x1
 22061 3112 5A       		.byte	0x5a
 22062 3113 00       		.byte	0
 22063              	.LVUS23:
 22064 3114 00       		.uleb128 .LVU353
 22065 3115 00       		.uleb128 .LVU358
 22066 3116 00       		.uleb128 .LVU358
 22067 3117 00       		.uleb128 .LVU363
 22068 3118 00       		.uleb128 .LVU363
 22069 3119 03       		.uleb128 .LVU505
 22070 311a 03       		.uleb128 .LVU505
 22071 311b 00       		.uleb128 .LVU511
 22072              	.LLST23:
 22073 311c 06       		.byte	0x6
 22074 311d 00000000 		.4byte	.LVL47
 22075 3121 04       		.byte	0x4
 22076 3122 00       		.uleb128 .LVL47-.LVL47
 22077 3123 1C       		.uleb128 .LVL48-.LVL47
 22078 3124 02       		.uleb128 0x2
 22079 3125 30       		.byte	0x30
 22080 3126 9F       		.byte	0x9f
 22081 3127 04       		.byte	0x4
 22082 3128 1C       		.uleb128 .LVL48-.LVL47
 22083 3129 24       		.uleb128 .LVL50-.LVL47
 22084 312a 01       		.uleb128 0x1
 22085 312b 68       		.byte	0x68
 22086 312c 04       		.byte	0x4
 22087 312d 24       		.uleb128 .LVL50-.LVL47
 22088 312e CC04     		.uleb128 .LVL63-.LVL47
 22089 3130 03       		.uleb128 0x3
 22090 3131 88       		.byte	0x88
 22091 3132 78       		.sleb128 -8
 22092 3133 9F       		.byte	0x9f
 22093 3134 04       		.byte	0x4
 22094 3135 CC04     		.uleb128 .LVL63-.LVL47
 22095 3137 8805     		.uleb128 .LVL65-.LVL47
 22096 3139 01       		.uleb128 0x1
 22097 313a 68       		.byte	0x68
 22098 313b 00       		.byte	0
 22099              	.LVUS25:
 22100 313c 00       		.uleb128 .LVU358
 22101 313d 01       		.uleb128 .LVU426
 22102 313e 01       		.uleb128 .LVU426
 22103 313f 01       		.uleb128 .LVU467
 22104 3140 01       		.uleb128 .LVU467
 22105 3141 01       		.uleb128 .LVU485
 22106 3142 01       		.uleb128 .LVU485
 22107 3143 01       		.uleb128 .LVU503
 22108 3144 01       		.uleb128 .LVU503
 22109 3145 00       		.uleb128 .LVU512
 22110              	.LLST25:
 22111 3146 06       		.byte	0x6
 22112 3147 00000000 		.4byte	.LVL48
 22113 314b 04       		.byte	0x4
 22114 314c 00       		.uleb128 .LVL48-.LVL48
 22115 314d F801     		.uleb128 .LVL59-.LVL48
 22116 314f 02       		.uleb128 0x2
 22117 3150 30       		.byte	0x30
 22118 3151 9F       		.byte	0x9f
 22119 3152 04       		.byte	0x4
 22120 3153 F801     		.uleb128 .LVL59-.LVL48
 22121 3155 B003     		.uleb128 .LVL60-.LVL48
 22122 3157 02       		.uleb128 0x2
 22123 3158 31       		.byte	0x31
 22124 3159 9F       		.byte	0x9f
 22125 315a 04       		.byte	0x4
 22126 315b B003     		.uleb128 .LVL60-.LVL48
 22127 315d F003     		.uleb128 .LVL61-.LVL48
 22128 315f 02       		.uleb128 0x2
 22129 3160 32       		.byte	0x32
 22130 3161 9F       		.byte	0x9f
 22131 3162 04       		.byte	0x4
 22132 3163 F003     		.uleb128 .LVL61-.LVL48
 22133 3165 B004     		.uleb128 .LVL63-.LVL48
 22134 3167 02       		.uleb128 0x2
 22135 3168 33       		.byte	0x33
 22136 3169 9F       		.byte	0x9f
 22137 316a 04       		.byte	0x4
 22138 316b B004     		.uleb128 .LVL63-.LVL48
 22139 316d FC04     		.uleb128 .LVL66-.LVL48
 22140 316f 02       		.uleb128 0x2
 22141 3170 34       		.byte	0x34
 22142 3171 9F       		.byte	0x9f
 22143 3172 00       		.byte	0
 22144              	.LVUS2:
 22145 3173 00       		.uleb128 0
 22146 3174 00       		.uleb128 .LVU16
 22147 3175 00       		.uleb128 .LVU16
 22148 3176 00       		.uleb128 .LVU331
 22149 3177 00       		.uleb128 .LVU331
 22150 3178 00       		.uleb128 0
 22151              	.LLST2:
 22152 3179 06       		.byte	0x6
 22153 317a 00000000 		.4byte	.LVL4
 22154 317e 04       		.byte	0x4
 22155 317f 00       		.uleb128 .LVL4-.LVL4
 22156 3180 24       		.uleb128 .LVL5-.LVL4
 22157 3181 01       		.uleb128 0x1
 22158 3182 53       		.byte	0x53
 22159 3183 04       		.byte	0x4
 22160 3184 24       		.uleb128 .LVL5-.LVL4
 22161 3185 AC0A     		.uleb128 .LVL39-.LVL4
 22162 3187 01       		.uleb128 0x1
 22163 3188 6F       		.byte	0x6f
 22164 3189 04       		.byte	0x4
 22165 318a AC0A     		.uleb128 .LVL39-.LVL4
 22166 318c B40A     		.uleb128 .LFE68-.LVL4
 22167 318e 0A       		.uleb128 0xa
 22168 318f A3       		.byte	0xa3
 22169 3190 03       		.uleb128 0x3
 22170 3191 A5       		.byte	0xa5
 22171 3192 03       		.uleb128 0x3
 22172 3193 2D       		.uleb128 0x2d
 22173 3194 A8       		.byte	0xa8
 22174 3195 26       		.uleb128 0x26
 22175 3196 A8       		.byte	0xa8
 22176 3197 00       		.uleb128 0
 22177 3198 9F       		.byte	0x9f
 22178 3199 00       		.byte	0
 22179              	.LVUS3:
 22180 319a 00       		.uleb128 0
 22181 319b 00       		.uleb128 .LVU21
 22182 319c 00       		.uleb128 .LVU21
 22183 319d 00       		.uleb128 .LVU328
 22184 319e 00       		.uleb128 .LVU328
 22185 319f 00       		.uleb128 0
 22186              	.LLST3:
 22187 31a0 06       		.byte	0x6
 22188 31a1 00000000 		.4byte	.LVL4
 22189 31a5 04       		.byte	0x4
 22190 31a6 00       		.uleb128 .LVL4-.LVL4
 22191 31a7 34       		.uleb128 .LVL7-.LVL4
 22192 31a8 01       		.uleb128 0x1
 22193 31a9 54       		.byte	0x54
 22194 31aa 04       		.byte	0x4
 22195 31ab 34       		.uleb128 .LVL7-.LVL4
 22196 31ac 9C0A     		.uleb128 .LVL36-.LVL4
 22197 31ae 01       		.uleb128 0x1
 22198 31af 66       		.byte	0x66
 22199 31b0 04       		.byte	0x4
 22200 31b1 9C0A     		.uleb128 .LVL36-.LVL4
 22201 31b3 B40A     		.uleb128 .LFE68-.LVL4
 22202 31b5 0A       		.uleb128 0xa
 22203 31b6 A3       		.byte	0xa3
 22204 31b7 03       		.uleb128 0x3
 22205 31b8 A5       		.byte	0xa5
 22206 31b9 04       		.uleb128 0x4
 22207 31ba 2D       		.uleb128 0x2d
 22208 31bb A8       		.byte	0xa8
 22209 31bc 34       		.uleb128 0x34
 22210 31bd A8       		.byte	0xa8
 22211 31be 00       		.uleb128 0
 22212 31bf 9F       		.byte	0x9f
 22213 31c0 00       		.byte	0
 22214              	.LVUS4:
 22215 31c1 00       		.uleb128 0
 22216 31c2 00       		.uleb128 .LVU23
 22217 31c3 00       		.uleb128 .LVU23
 22218 31c4 00       		.uleb128 .LVU327
 22219 31c5 00       		.uleb128 .LVU327
 22220 31c6 00       		.uleb128 0
 22221              	.LLST4:
 22222 31c7 06       		.byte	0x6
 22223 31c8 00000000 		.4byte	.LVL4
 22224 31cc 04       		.byte	0x4
 22225 31cd 00       		.uleb128 .LVL4-.LVL4
 22226 31ce 3F       		.uleb128 .LVL8-1-.LVL4
 22227 31cf 01       		.uleb128 0x1
 22228 31d0 55       		.byte	0x55
 22229 31d1 04       		.byte	0x4
 22230 31d2 3F       		.uleb128 .LVL8-1-.LVL4
 22231 31d3 980A     		.uleb128 .LVL35-.LVL4
 22232 31d5 01       		.uleb128 0x1
 22233 31d6 65       		.byte	0x65
 22234 31d7 04       		.byte	0x4
 22235 31d8 980A     		.uleb128 .LVL35-.LVL4
 22236 31da B40A     		.uleb128 .LFE68-.LVL4
 22237 31dc 0A       		.uleb128 0xa
 22238 31dd A3       		.byte	0xa3
 22239 31de 03       		.uleb128 0x3
 22240 31df A5       		.byte	0xa5
 22241 31e0 05       		.uleb128 0x5
 22242 31e1 2D       		.uleb128 0x2d
 22243 31e2 A8       		.byte	0xa8
 22244 31e3 34       		.uleb128 0x34
 22245 31e4 A8       		.byte	0xa8
 22246 31e5 00       		.uleb128 0
 22247 31e6 9F       		.byte	0x9f
 22248 31e7 00       		.byte	0
 22249              	.LVUS5:
 22250 31e8 00       		.uleb128 .LVU18
 22251 31e9 00       		.uleb128 .LVU329
 22252 31ea 00       		.uleb128 .LVU329
 22253 31eb 00       		.uleb128 0
 22254              	.LLST5:
 22255 31ec 06       		.byte	0x6
 22256 31ed 00000000 		.4byte	.LVL6
 22257 31f1 04       		.byte	0x4
 22258 31f2 00       		.uleb128 .LVL6-.LVL6
 22259 31f3 F809     		.uleb128 .LVL37-.LVL6
 22260 31f5 01       		.uleb128 0x1
 22261 31f6 6D       		.byte	0x6d
 22262 31f7 04       		.byte	0x4
 22263 31f8 F809     		.uleb128 .LVL37-.LVL6
 22264 31fa 880A     		.uleb128 .LFE68-.LVL6
 22265 31fc 16       		.uleb128 0x16
 22266 31fd A3       		.byte	0xa3
 22267 31fe 03       		.uleb128 0x3
 22268 31ff A5       		.byte	0xa5
 22269 3200 05       		.uleb128 0x5
 22270 3201 2D       		.uleb128 0x2d
 22271 3202 A8       		.byte	0xa8
 22272 3203 26       		.uleb128 0x26
 22273 3204 A8       		.byte	0xa8
 22274 3205 00       		.uleb128 0
 22275 3206 A3       		.byte	0xa3
 22276 3207 03       		.uleb128 0x3
 22277 3208 A5       		.byte	0xa5
 22278 3209 04       		.uleb128 0x4
 22279 320a 2D       		.uleb128 0x2d
 22280 320b A8       		.byte	0xa8
 22281 320c 26       		.uleb128 0x26
 22282 320d A8       		.byte	0xa8
 22283 320e 00       		.uleb128 0
 22284 320f 1E       		.byte	0x1e
 22285 3210 31       		.byte	0x31
 22286 3211 26       		.byte	0x26
 22287 3212 9F       		.byte	0x9f
 22288 3213 00       		.byte	0
 22289              	.LVUS6:
 22290 3214 00       		.uleb128 .LVU25
 22291 3215 00       		.uleb128 .LVU27
 22292 3216 00       		.uleb128 .LVU27
 22293 3217 00       		.uleb128 .LVU330
 22294 3218 00       		.uleb128 .LVU330
 22295 3219 00       		.uleb128 0
 22296              	.LLST6:
 22297 321a 06       		.byte	0x6
 22298 321b 00000000 		.4byte	.LVL9
 22299 321f 04       		.byte	0x4
 22300 3220 00       		.uleb128 .LVL9-.LVL9
 22301 3221 03       		.uleb128 .LVL10-1-.LVL9
 22302 3222 01       		.uleb128 0x1
 22303 3223 53       		.byte	0x53
 22304 3224 04       		.byte	0x4
 22305 3225 03       		.uleb128 .LVL10-1-.LVL9
 22306 3226 DC09     		.uleb128 .LVL38-.LVL9
 22307 3228 01       		.uleb128 0x1
 22308 3229 6E       		.byte	0x6e
 22309 322a 04       		.byte	0x4
 22310 322b DC09     		.uleb128 .LVL38-.LVL9
 22311 322d E809     		.uleb128 .LFE68-.LVL9
 22312 322f 01       		.uleb128 0x1
 22313 3230 53       		.byte	0x53
 22314 3231 00       		.byte	0
 22315              	.LVUS7:
 22316 3232 01       		.uleb128 .LVU28
 22317 3233 00       		.uleb128 .LVU331
 22318 3234 00       		.uleb128 .LVU331
 22319 3235 00       		.uleb128 0
 22320              	.LLST7:
 22321 3236 06       		.byte	0x6
 22322 3237 00000000 		.4byte	.LVL10
 22323 323b 04       		.byte	0x4
 22324 323c 00       		.uleb128 .LVL10-.LVL10
 22325 323d DC09     		.uleb128 .LVL39-.LVL10
 22326 323f 01       		.uleb128 0x1
 22327 3240 6F       		.byte	0x6f
 22328 3241 04       		.byte	0x4
 22329 3242 DC09     		.uleb128 .LVL39-.LVL10
 22330 3244 E409     		.uleb128 .LFE68-.LVL10
 22331 3246 0A       		.uleb128 0xa
 22332 3247 A3       		.byte	0xa3
 22333 3248 03       		.uleb128 0x3
 22334 3249 A5       		.byte	0xa5
 22335 324a 03       		.uleb128 0x3
 22336 324b 2D       		.uleb128 0x2d
 22337 324c A8       		.byte	0xa8
 22338 324d 26       		.uleb128 0x26
 22339 324e A8       		.byte	0xa8
 22340 324f 00       		.uleb128 0
 22341 3250 9F       		.byte	0x9f
 22342 3251 00       		.byte	0
 22343              	.LVUS8:
 22344 3252 02       		.uleb128 .LVU29
 22345 3253 00       		.uleb128 .LVU33
 22346 3254 00       		.uleb128 .LVU33
 22347 3255 00       		.uleb128 .LVU43
 22348 3256 00       		.uleb128 .LVU43
 22349 3257 01       		.uleb128 .LVU56
 22350 3258 01       		.uleb128 .LVU56
 22351 3259 01       		.uleb128 .LVU69
 22352 325a 01       		.uleb128 .LVU69
 22353 325b 01       		.uleb128 .LVU82
 22354 325c 01       		.uleb128 .LVU82
 22355 325d 00       		.uleb128 .LVU90
 22356 325e 00       		.uleb128 .LVU90
 22357 325f 03       		.uleb128 .LVU95
 22358 3260 03       		.uleb128 .LVU95
 22359 3261 01       		.uleb128 .LVU103
 22360 3262 01       		.uleb128 .LVU103
 22361 3263 01       		.uleb128 .LVU110
 22362 3264 01       		.uleb128 .LVU110
 22363 3265 01       		.uleb128 .LVU117
 22364 3266 01       		.uleb128 .LVU308
 22365 3267 00       		.uleb128 .LVU322
 22366              	.LLST8:
 22367 3268 06       		.byte	0x6
 22368 3269 00000000 		.4byte	.LVL10
 22369 326d 04       		.byte	0x4
 22370 326e 00       		.uleb128 .LVL10-.LVL10
 22371 326f 4C       		.uleb128 .LVL11-.LVL10
 22372 3270 01       		.uleb128 0x1
 22373 3271 6E       		.byte	0x6e
 22374 3272 04       		.byte	0x4
 22375 3273 4C       		.uleb128 .LVL11-.LVL10
 22376 3274 8401     		.uleb128 .LVL14-.LVL10
 22377 3276 01       		.uleb128 0x1
 22378 3277 59       		.byte	0x59
 22379 3278 04       		.byte	0x4
 22380 3279 8401     		.uleb128 .LVL14-.LVL10
 22381 327b B401     		.uleb128 .LVL15-.LVL10
 22382 327d 03       		.uleb128 0x3
 22383 327e 79       		.byte	0x79
 22384 327f 01       		.sleb128 1
 22385 3280 9F       		.byte	0x9f
 22386 3281 04       		.byte	0x4
 22387 3282 B401     		.uleb128 .LVL15-.LVL10
 22388 3284 E401     		.uleb128 .LVL16-.LVL10
 22389 3286 03       		.uleb128 0x3
 22390 3287 79       		.byte	0x79
 22391 3288 02       		.sleb128 2
 22392 3289 9F       		.byte	0x9f
 22393 328a 04       		.byte	0x4
 22394 328b E401     		.uleb128 .LVL16-.LVL10
 22395 328d 9402     		.uleb128 .LVL17-.LVL10
 22396 328f 03       		.uleb128 0x3
 22397 3290 79       		.byte	0x79
 22398 3291 03       		.sleb128 3
 22399 3292 9F       		.byte	0x9f
 22400 3293 04       		.byte	0x4
 22401 3294 9402     		.uleb128 .LVL17-.LVL10
 22402 3296 B402     		.uleb128 .LVL18-.LVL10
 22403 3298 03       		.uleb128 0x3
 22404 3299 79       		.byte	0x79
 22405 329a 04       		.sleb128 4
 22406 329b 9F       		.byte	0x9f
 22407 329c 04       		.byte	0x4
 22408 329d B402     		.uleb128 .LVL18-.LVL10
 22409 329f BC02     		.uleb128 .LVL19-.LVL10
 22410 32a1 03       		.uleb128 0x3
 22411 32a2 79       		.byte	0x79
 22412 32a3 64       		.sleb128 -28
 22413 32a4 9F       		.byte	0x9f
 22414 32a5 04       		.byte	0x4
 22415 32a6 BC02     		.uleb128 .LVL19-.LVL10
 22416 32a8 DC02     		.uleb128 .LVL20-.LVL10
 22417 32aa 03       		.uleb128 0x3
 22418 32ab 79       		.byte	0x79
 22419 32ac 65       		.sleb128 -27
 22420 32ad 9F       		.byte	0x9f
 22421 32ae 04       		.byte	0x4
 22422 32af DC02     		.uleb128 .LVL20-.LVL10
 22423 32b1 FC02     		.uleb128 .LVL21-.LVL10
 22424 32b3 03       		.uleb128 0x3
 22425 32b4 79       		.byte	0x79
 22426 32b5 66       		.sleb128 -26
 22427 32b6 9F       		.byte	0x9f
 22428 32b7 04       		.byte	0x4
 22429 32b8 FC02     		.uleb128 .LVL21-.LVL10
 22430 32ba 9803     		.uleb128 .LVL22-.LVL10
 22431 32bc 03       		.uleb128 0x3
 22432 32bd 79       		.byte	0x79
 22433 32be 67       		.sleb128 -25
 22434 32bf 9F       		.byte	0x9f
 22435 32c0 04       		.byte	0x4
 22436 32c1 D408     		.uleb128 .LVL29-.LVL10
 22437 32c3 B009     		.uleb128 .LVL33-.LVL10
 22438 32c5 01       		.uleb128 0x1
 22439 32c6 59       		.byte	0x59
 22440 32c7 00       		.byte	0
 22441              	.LVUS10:
 22442 32c8 03       		.uleb128 .LVU30
 22443 32c9 00       		.uleb128 .LVU33
 22444 32ca 00       		.uleb128 .LVU33
 22445 32cb 00       		.uleb128 .LVU38
 22446 32cc 00       		.uleb128 .LVU38
 22447 32cd 00       		.uleb128 .LVU320
 22448 32ce 00       		.uleb128 .LVU320
 22449 32cf 00       		.uleb128 .LVU322
 22450              	.LLST10:
 22451 32d0 06       		.byte	0x6
 22452 32d1 00000000 		.4byte	.LVL10
 22453 32d5 04       		.byte	0x4
 22454 32d6 00       		.uleb128 .LVL10-.LVL10
 22455 32d7 4C       		.uleb128 .LVL11-.LVL10
 22456 32d8 02       		.uleb128 0x2
 22457 32d9 30       		.byte	0x30
 22458 32da 9F       		.byte	0x9f
 22459 32db 04       		.byte	0x4
 22460 32dc 4C       		.uleb128 .LVL11-.LVL10
 22461 32dd 78       		.uleb128 .LVL12-.LVL10
 22462 32de 01       		.uleb128 0x1
 22463 32df 5A       		.byte	0x5a
 22464 32e0 04       		.byte	0x4
 22465 32e1 78       		.uleb128 .LVL12-.LVL10
 22466 32e2 F408     		.uleb128 .LVL31-.LVL10
 22467 32e4 02       		.uleb128 0x2
 22468 32e5 90       		.byte	0x90
 22469 32e6 41       		.uleb128 0x41
 22470 32e7 04       		.byte	0x4
 22471 32e8 F408     		.uleb128 .LVL31-.LVL10
 22472 32ea B009     		.uleb128 .LVL33-.LVL10
 22473 32ec 01       		.uleb128 0x1
 22474 32ed 5A       		.byte	0x5a
 22475 32ee 00       		.byte	0
 22476              	.LVUS11:
 22477 32ef 00       		.uleb128 .LVU33
 22478 32f0 00       		.uleb128 .LVU38
 22479 32f1 00       		.uleb128 .LVU38
 22480 32f2 00       		.uleb128 .LVU42
 22481 32f3 00       		.uleb128 .LVU42
 22482 32f4 03       		.uleb128 .LVU315
 22483 32f5 03       		.uleb128 .LVU315
 22484 32f6 00       		.uleb128 .LVU321
 22485              	.LLST11:
 22486 32f7 06       		.byte	0x6
 22487 32f8 00000000 		.4byte	.LVL11
 22488 32fc 04       		.byte	0x4
 22489 32fd 00       		.uleb128 .LVL11-.LVL11
 22490 32fe 2C       		.uleb128 .LVL12-.LVL11
 22491 32ff 02       		.uleb128 0x2
 22492 3300 30       		.byte	0x30
 22493 3301 9F       		.byte	0x9f
 22494 3302 04       		.byte	0x4
 22495 3303 2C       		.uleb128 .LVL12-.LVL11
 22496 3304 34       		.uleb128 .LVL13-.LVL11
 22497 3305 01       		.uleb128 0x1
 22498 3306 63       		.byte	0x63
 22499 3307 04       		.byte	0x4
 22500 3308 34       		.uleb128 .LVL13-.LVL11
 22501 3309 9808     		.uleb128 .LVL30-.LVL11
 22502 330b 03       		.uleb128 0x3
 22503 330c 83       		.byte	0x83
 22504 330d 78       		.sleb128 -8
 22505 330e 9F       		.byte	0x9f
 22506 330f 04       		.byte	0x4
 22507 3310 9808     		.uleb128 .LVL30-.LVL11
 22508 3312 C808     		.uleb128 .LVL32-.LVL11
 22509 3314 01       		.uleb128 0x1
 22510 3315 63       		.byte	0x63
 22511 3316 00       		.byte	0
 22512              	.LVUS13:
 22513 3317 00       		.uleb128 .LVU38
 22514 3318 01       		.uleb128 .LVU93
 22515 3319 01       		.uleb128 .LVU93
 22516 331a 01       		.uleb128 .LVU125
 22517 331b 01       		.uleb128 .LVU125
 22518 331c 01       		.uleb128 .LVU157
 22519 331d 01       		.uleb128 .LVU157
 22520 331e 01       		.uleb128 .LVU189
 22521 331f 01       		.uleb128 .LVU189
 22522 3320 01       		.uleb128 .LVU223
 22523 3321 01       		.uleb128 .LVU223
 22524 3322 01       		.uleb128 .LVU261
 22525 3323 01       		.uleb128 .LVU261
 22526 3324 01       		.uleb128 .LVU291
 22527 3325 01       		.uleb128 .LVU291
 22528 3326 01       		.uleb128 .LVU313
 22529 3327 01       		.uleb128 .LVU313
 22530 3328 00       		.uleb128 .LVU322
 22531              	.LLST13:
 22532 3329 06       		.byte	0x6
 22533 332a 00000000 		.4byte	.LVL12
 22534 332e 04       		.byte	0x4
 22535 332f 00       		.uleb128 .LVL12-.LVL12
 22536 3330 C401     		.uleb128 .LVL19-.LVL12
 22537 3332 02       		.uleb128 0x2
 22538 3333 30       		.byte	0x30
 22539 3334 9F       		.byte	0x9f
 22540 3335 04       		.byte	0x4
 22541 3336 C401     		.uleb128 .LVL19-.LVL12
 22542 3338 BC02     		.uleb128 .LVL23-.LVL12
 22543 333a 02       		.uleb128 0x2
 22544 333b 31       		.byte	0x31
 22545 333c 9F       		.byte	0x9f
 22546 333d 04       		.byte	0x4
 22547 333e BC02     		.uleb128 .LVL23-.LVL12
 22548 3340 B403     		.uleb128 .LVL24-.LVL12
 22549 3342 02       		.uleb128 0x2
 22550 3343 32       		.byte	0x32
 22551 3344 9F       		.byte	0x9f
 22552 3345 04       		.byte	0x4
 22553 3346 B403     		.uleb128 .LVL24-.LVL12
 22554 3348 AC04     		.uleb128 .LVL25-.LVL12
 22555 334a 02       		.uleb128 0x2
 22556 334b 33       		.byte	0x33
 22557 334c 9F       		.byte	0x9f
 22558 334d 04       		.byte	0x4
 22559 334e AC04     		.uleb128 .LVL25-.LVL12
 22560 3350 A805     		.uleb128 .LVL26-.LVL12
 22561 3352 02       		.uleb128 0x2
 22562 3353 34       		.byte	0x34
 22563 3354 9F       		.byte	0x9f
 22564 3355 04       		.byte	0x4
 22565 3356 A805     		.uleb128 .LVL26-.LVL12
 22566 3358 C406     		.uleb128 .LVL27-.LVL12
 22567 335a 02       		.uleb128 0x2
 22568 335b 35       		.byte	0x35
 22569 335c 9F       		.byte	0x9f
 22570 335d 04       		.byte	0x4
 22571 335e C406     		.uleb128 .LVL27-.LVL12
 22572 3360 AC07     		.uleb128 .LVL28-.LVL12
 22573 3362 02       		.uleb128 0x2
 22574 3363 36       		.byte	0x36
 22575 3364 9F       		.byte	0x9f
 22576 3365 04       		.byte	0x4
 22577 3366 AC07     		.uleb128 .LVL28-.LVL12
 22578 3368 EC07     		.uleb128 .LVL30-.LVL12
 22579 336a 02       		.uleb128 0x2
 22580 336b 37       		.byte	0x37
 22581 336c 9F       		.byte	0x9f
 22582 336d 04       		.byte	0x4
 22583 336e EC07     		.uleb128 .LVL30-.LVL12
 22584 3370 B808     		.uleb128 .LVL33-.LVL12
 22585 3372 02       		.uleb128 0x2
 22586 3373 38       		.byte	0x38
 22587 3374 9F       		.byte	0x9f
 22588 3375 00       		.byte	0
 22589              	.LVUS0:
 22590 3376 00       		.uleb128 0
 22591 3377 00       		.uleb128 .LVU6
 22592 3378 00       		.uleb128 .LVU6
 22593 3379 00       		.uleb128 0
 22594              	.LLST0:
 22595 337a 06       		.byte	0x6
 22596 337b 00000000 		.4byte	.LVL1
 22597 337f 04       		.byte	0x4
 22598 3380 00       		.uleb128 .LVL1-.LVL1
 22599 3381 07       		.uleb128 .LVL2-1-.LVL1
 22600 3382 01       		.uleb128 0x1
 22601 3383 53       		.byte	0x53
 22602 3384 04       		.byte	0x4
 22603 3385 07       		.uleb128 .LVL2-1-.LVL1
 22604 3386 08       		.uleb128 .LFE67-.LVL1
 22605 3387 0A       		.uleb128 0xa
 22606 3388 A3       		.byte	0xa3
 22607 3389 03       		.uleb128 0x3
 22608 338a A5       		.byte	0xa5
 22609 338b 03       		.uleb128 0x3
 22610 338c 2D       		.uleb128 0x2d
 22611 338d A8       		.byte	0xa8
 22612 338e 26       		.uleb128 0x26
 22613 338f A8       		.byte	0xa8
 22614 3390 00       		.uleb128 0
 22615 3391 9F       		.byte	0x9f
 22616 3392 00       		.byte	0
 22617              	.LVUS1:
 22618 3393 01       		.uleb128 .LVU3
 22619 3394 02       		.uleb128 .LVU4
 22620              	.LLST1:
 22621 3395 08       		.byte	0x8
 22622 3396 00000000 		.4byte	.LVL1
 22623 339a 00       		.uleb128 .LVL1-.LVL1
 22624 339b 01       		.uleb128 0x1
 22625 339c 53       		.byte	0x53
 22626 339d 00       		.byte	0
 22627              	.LVUS26:
 22628 339e 00       		.uleb128 0
 22629 339f 00       		.uleb128 .LVU529
 22630 33a0 00       		.uleb128 .LVU529
 22631 33a1 00       		.uleb128 0
 22632              	.LLST26:
 22633 33a2 06       		.byte	0x6
 22634 33a3 00000000 		.4byte	.LVL73
 22635 33a7 04       		.byte	0x4
 22636 33a8 00       		.uleb128 .LVL73-.LVL73
 22637 33a9 08       		.uleb128 .LVL74-.LVL73
 22638 33aa 01       		.uleb128 0x1
 22639 33ab 53       		.byte	0x53
 22640 33ac 04       		.byte	0x4
 22641 33ad 08       		.uleb128 .LVL74-.LVL73
 22642 33ae 10       		.uleb128 .LFE70-.LVL73
 22643 33af 0A       		.uleb128 0xa
 22644 33b0 A3       		.byte	0xa3
 22645 33b1 03       		.uleb128 0x3
 22646 33b2 A5       		.byte	0xa5
 22647 33b3 03       		.uleb128 0x3
 22648 33b4 2D       		.uleb128 0x2d
 22649 33b5 A8       		.byte	0xa8
 22650 33b6 26       		.uleb128 0x26
 22651 33b7 A8       		.byte	0xa8
 22652 33b8 00       		.uleb128 0
 22653 33b9 9F       		.byte	0x9f
 22654 33ba 00       		.byte	0
 22655              	.LVUS27:
 22656 33bb 03       		.uleb128 .LVU525
 22657 33bc 00       		.uleb128 .LVU529
 22658 33bd 00       		.uleb128 .LVU529
 22659 33be 00       		.uleb128 0
 22660              	.LLST27:
 22661 33bf 06       		.byte	0x6
 22662 33c0 00000000 		.4byte	.LVL73
 22663 33c4 04       		.byte	0x4
 22664 33c5 00       		.uleb128 .LVL73-.LVL73
 22665 33c6 08       		.uleb128 .LVL74-.LVL73
 22666 33c7 08       		.uleb128 0x8
 22667 33c8 73       		.byte	0x73
 22668 33c9 00       		.sleb128 0
 22669 33ca 38       		.byte	0x38
 22670 33cb 25       		.byte	0x25
 22671 33cc 09       		.byte	0x9
 22672 33cd F0       		.byte	0xf0
 22673 33ce 1A       		.byte	0x1a
 22674 33cf 9F       		.byte	0x9f
 22675 33d0 04       		.byte	0x4
 22676 33d1 08       		.uleb128 .LVL74-.LVL73
 22677 33d2 10       		.uleb128 .LFE70-.LVL73
 22678 33d3 0F       		.uleb128 0xf
 22679 33d4 A3       		.byte	0xa3
 22680 33d5 03       		.uleb128 0x3
 22681 33d6 A5       		.byte	0xa5
 22682 33d7 03       		.uleb128 0x3
 22683 33d8 2D       		.uleb128 0x2d
 22684 33d9 A8       		.byte	0xa8
 22685 33da 26       		.uleb128 0x26
 22686 33db A8       		.byte	0xa8
 22687 33dc 00       		.uleb128 0
 22688 33dd 38       		.byte	0x38
 22689 33de 25       		.byte	0x25
 22690 33df 09       		.byte	0x9
 22691 33e0 F0       		.byte	0xf0
 22692 33e1 1A       		.byte	0x1a
 22693 33e2 9F       		.byte	0x9f
 22694 33e3 00       		.byte	0
 22695              	.LVUS28:
 22696 33e4 04       		.uleb128 .LVU526
 22697 33e5 00       		.uleb128 .LVU529
 22698 33e6 00       		.uleb128 .LVU529
 22699 33e7 00       		.uleb128 0
 22700              	.LLST28:
 22701 33e8 06       		.byte	0x6
 22702 33e9 00000000 		.4byte	.LVL73
 22703 33ed 04       		.byte	0x4
 22704 33ee 00       		.uleb128 .LVL73-.LVL73
 22705 33ef 08       		.uleb128 .LVL74-.LVL73
 22706 33f0 01       		.uleb128 0x1
 22707 33f1 53       		.byte	0x53
 22708 33f2 04       		.byte	0x4
 22709 33f3 08       		.uleb128 .LVL74-.LVL73
 22710 33f4 10       		.uleb128 .LFE70-.LVL73
 22711 33f5 0A       		.uleb128 0xa
 22712 33f6 A3       		.byte	0xa3
 22713 33f7 03       		.uleb128 0x3
 22714 33f8 A5       		.byte	0xa5
 22715 33f9 03       		.uleb128 0x3
 22716 33fa 2D       		.uleb128 0x2d
 22717 33fb A8       		.byte	0xa8
 22718 33fc 3B       		.uleb128 0x3b
 22719 33fd A8       		.byte	0xa8
 22720 33fe 00       		.uleb128 0
 22721 33ff 9F       		.byte	0x9f
 22722 3400 00       		.byte	0
 22723              	.LVUS73:
 22724 3401 00       		.uleb128 0
 22725 3402 00       		.uleb128 .LVU1026
 22726 3403 00       		.uleb128 .LVU1026
 22727 3404 00       		.uleb128 0
 22728              	.LLST73:
 22729 3405 06       		.byte	0x6
 22730 3406 00000000 		.4byte	.LVL131
 22731 340a 04       		.byte	0x4
 22732 340b 00       		.uleb128 .LVL131-.LVL131
 22733 340c 04       		.uleb128 .LVL132-.LVL131
 22734 340d 01       		.uleb128 0x1
 22735 340e 53       		.byte	0x53
 22736 340f 04       		.byte	0x4
 22737 3410 04       		.uleb128 .LVL132-.LVL131
 22738 3411 08       		.uleb128 .LFE72-.LVL131
 22739 3412 0A       		.uleb128 0xa
 22740 3413 A3       		.byte	0xa3
 22741 3414 03       		.uleb128 0x3
 22742 3415 A5       		.byte	0xa5
 22743 3416 03       		.uleb128 0x3
 22744 3417 2D       		.uleb128 0x2d
 22745 3418 A8       		.byte	0xa8
 22746 3419 26       		.uleb128 0x26
 22747 341a A8       		.byte	0xa8
 22748 341b 00       		.uleb128 0
 22749 341c 9F       		.byte	0x9f
 22750 341d 00       		.byte	0
 22751              	.LVUS74:
 22752 341e 03       		.uleb128 .LVU1023
 22753 341f 00       		.uleb128 .LVU1026
 22754 3420 00       		.uleb128 .LVU1026
 22755 3421 00       		.uleb128 0
 22756              	.LLST74:
 22757 3422 06       		.byte	0x6
 22758 3423 00000000 		.4byte	.LVL131
 22759 3427 04       		.byte	0x4
 22760 3428 00       		.uleb128 .LVL131-.LVL131
 22761 3429 04       		.uleb128 .LVL132-.LVL131
 22762 342a 05       		.uleb128 0x5
 22763 342b 73       		.byte	0x73
 22764 342c 00       		.sleb128 0
 22765 342d 38       		.byte	0x38
 22766 342e 25       		.byte	0x25
 22767 342f 9F       		.byte	0x9f
 22768 3430 04       		.byte	0x4
 22769 3431 04       		.uleb128 .LVL132-.LVL131
 22770 3432 08       		.uleb128 .LFE72-.LVL131
 22771 3433 0C       		.uleb128 0xc
 22772 3434 A3       		.byte	0xa3
 22773 3435 03       		.uleb128 0x3
 22774 3436 A5       		.byte	0xa5
 22775 3437 03       		.uleb128 0x3
 22776 3438 2D       		.uleb128 0x2d
 22777 3439 A8       		.byte	0xa8
 22778 343a 26       		.uleb128 0x26
 22779 343b A8       		.byte	0xa8
 22780 343c 00       		.uleb128 0
 22781 343d 38       		.byte	0x38
 22782 343e 25       		.byte	0x25
 22783 343f 9F       		.byte	0x9f
 22784 3440 00       		.byte	0
 22785              	.LVUS75:
 22786 3441 04       		.uleb128 .LVU1024
 22787 3442 00       		.uleb128 0
 22788              	.LLST75:
 22789 3443 08       		.byte	0x8
 22790 3444 00000000 		.4byte	.LVL131
 22791 3448 08       		.uleb128 .LFE72-.LVL131
 22792 3449 01       		.uleb128 0x1
 22793 344a 53       		.byte	0x53
 22794 344b 00       		.byte	0
 22795              	.LVUS122:
 22796 344c 00       		.uleb128 0
 22797 344d 00       		.uleb128 .LVU1658
 22798 344e 00       		.uleb128 .LVU1658
 22799 344f 00       		.uleb128 0
 22800              	.LLST122:
 22801 3450 06       		.byte	0x6
 22802 3451 00000000 		.4byte	.LVL226
 22803 3455 04       		.byte	0x4
 22804 3456 00       		.uleb128 .LVL226-.LVL226
 22805 3457 20       		.uleb128 .LVL228-.LVL226
 22806 3458 01       		.uleb128 0x1
 22807 3459 53       		.byte	0x53
 22808 345a 04       		.byte	0x4
 22809 345b 20       		.uleb128 .LVL228-.LVL226
 22810 345c 4C       		.uleb128 .LFE75-.LVL226
 22811 345d 0A       		.uleb128 0xa
 22812 345e A3       		.byte	0xa3
 22813 345f 03       		.uleb128 0x3
 22814 3460 A5       		.byte	0xa5
 22815 3461 03       		.uleb128 0x3
 22816 3462 2D       		.uleb128 0x2d
 22817 3463 A8       		.byte	0xa8
 22818 3464 26       		.uleb128 0x26
 22819 3465 A8       		.byte	0xa8
 22820 3466 00       		.uleb128 0
 22821 3467 9F       		.byte	0x9f
 22822 3468 00       		.byte	0
 22823              	.LVUS123:
 22824 3469 00       		.uleb128 .LVU1651
 22825 346a 00       		.uleb128 .LVU1658
 22826 346b 00       		.uleb128 .LVU1658
 22827 346c 00       		.uleb128 0
 22828              	.LLST123:
 22829 346d 06       		.byte	0x6
 22830 346e 00000000 		.4byte	.LVL227
 22831 3472 04       		.byte	0x4
 22832 3473 00       		.uleb128 .LVL227-.LVL227
 22833 3474 10       		.uleb128 .LVL228-.LVL227
 22834 3475 10       		.uleb128 0x10
 22835 3476 73       		.byte	0x73
 22836 3477 00       		.sleb128 0
 22837 3478 48       		.byte	0x48
 22838 3479 25       		.byte	0x25
 22839 347a 4F       		.byte	0x4f
 22840 347b 1E       		.byte	0x1e
 22841 347c A8       		.byte	0xa8
 22842 347d 26       		.uleb128 0x26
 22843 347e 08       		.byte	0x8
 22844 347f FF       		.byte	0xff
 22845 3480 A8       		.byte	0xa8
 22846 3481 26       		.uleb128 0x26
 22847 3482 1B       		.byte	0x1b
 22848 3483 A8       		.byte	0xa8
 22849 3484 00       		.uleb128 0
 22850 3485 9F       		.byte	0x9f
 22851 3486 04       		.byte	0x4
 22852 3487 10       		.uleb128 .LVL228-.LVL227
 22853 3488 3C       		.uleb128 .LFE75-.LVL227
 22854 3489 17       		.uleb128 0x17
 22855 348a A3       		.byte	0xa3
 22856 348b 03       		.uleb128 0x3
 22857 348c A5       		.byte	0xa5
 22858 348d 03       		.uleb128 0x3
 22859 348e 2D       		.uleb128 0x2d
 22860 348f A8       		.byte	0xa8
 22861 3490 26       		.uleb128 0x26
 22862 3491 A8       		.byte	0xa8
 22863 3492 00       		.uleb128 0
 22864 3493 48       		.byte	0x48
 22865 3494 25       		.byte	0x25
 22866 3495 4F       		.byte	0x4f
 22867 3496 1E       		.byte	0x1e
 22868 3497 A8       		.byte	0xa8
 22869 3498 26       		.uleb128 0x26
 22870 3499 08       		.byte	0x8
 22871 349a FF       		.byte	0xff
 22872 349b A8       		.byte	0xa8
 22873 349c 26       		.uleb128 0x26
 22874 349d 1B       		.byte	0x1b
 22875 349e A8       		.byte	0xa8
 22876 349f 00       		.uleb128 0
 22877 34a0 9F       		.byte	0x9f
 22878 34a1 00       		.byte	0
 22879              	.LVUS124:
 22880 34a2 01       		.uleb128 .LVU1652
 22881 34a3 00       		.uleb128 .LVU1658
 22882 34a4 00       		.uleb128 .LVU1658
 22883 34a5 00       		.uleb128 0
 22884              	.LLST124:
 22885 34a6 06       		.byte	0x6
 22886 34a7 00000000 		.4byte	.LVL227
 22887 34ab 04       		.byte	0x4
 22888 34ac 00       		.uleb128 .LVL227-.LVL227
 22889 34ad 10       		.uleb128 .LVL228-.LVL227
 22890 34ae 14       		.uleb128 0x14
 22891 34af 73       		.byte	0x73
 22892 34b0 00       		.sleb128 0
 22893 34b1 40       		.byte	0x40
 22894 34b2 25       		.byte	0x25
 22895 34b3 08       		.byte	0x8
 22896 34b4 FF       		.byte	0xff
 22897 34b5 1A       		.byte	0x1a
 22898 34b6 08       		.byte	0x8
 22899 34b7 3F       		.byte	0x3f
 22900 34b8 1E       		.byte	0x1e
 22901 34b9 A8       		.byte	0xa8
 22902 34ba 26       		.uleb128 0x26
 22903 34bb 08       		.byte	0x8
 22904 34bc FF       		.byte	0xff
 22905 34bd A8       		.byte	0xa8
 22906 34be 26       		.uleb128 0x26
 22907 34bf 1B       		.byte	0x1b
 22908 34c0 A8       		.byte	0xa8
 22909 34c1 00       		.uleb128 0
 22910 34c2 9F       		.byte	0x9f
 22911 34c3 04       		.byte	0x4
 22912 34c4 10       		.uleb128 .LVL228-.LVL227
 22913 34c5 3C       		.uleb128 .LFE75-.LVL227
 22914 34c6 1B       		.uleb128 0x1b
 22915 34c7 A3       		.byte	0xa3
 22916 34c8 03       		.uleb128 0x3
 22917 34c9 A5       		.byte	0xa5
 22918 34ca 03       		.uleb128 0x3
 22919 34cb 2D       		.uleb128 0x2d
 22920 34cc A8       		.byte	0xa8
 22921 34cd 26       		.uleb128 0x26
 22922 34ce A8       		.byte	0xa8
 22923 34cf 00       		.uleb128 0
 22924 34d0 40       		.byte	0x40
 22925 34d1 25       		.byte	0x25
 22926 34d2 08       		.byte	0x8
 22927 34d3 FF       		.byte	0xff
 22928 34d4 1A       		.byte	0x1a
 22929 34d5 08       		.byte	0x8
 22930 34d6 3F       		.byte	0x3f
 22931 34d7 1E       		.byte	0x1e
 22932 34d8 A8       		.byte	0xa8
 22933 34d9 26       		.uleb128 0x26
 22934 34da 08       		.byte	0x8
 22935 34db FF       		.byte	0xff
 22936 34dc A8       		.byte	0xa8
 22937 34dd 26       		.uleb128 0x26
 22938 34de 1B       		.byte	0x1b
 22939 34df A8       		.byte	0xa8
 22940 34e0 00       		.uleb128 0
 22941 34e1 9F       		.byte	0x9f
 22942 34e2 00       		.byte	0
 22943              	.LVUS125:
 22944 34e3 02       		.uleb128 .LVU1653
 22945 34e4 00       		.uleb128 .LVU1658
 22946 34e5 00       		.uleb128 .LVU1658
 22947 34e6 00       		.uleb128 0
 22948              	.LLST125:
 22949 34e7 06       		.byte	0x6
 22950 34e8 00000000 		.4byte	.LVL227
 22951 34ec 04       		.byte	0x4
 22952 34ed 00       		.uleb128 .LVL227-.LVL227
 22953 34ee 10       		.uleb128 .LVL228-.LVL227
 22954 34ef 13       		.uleb128 0x13
 22955 34f0 73       		.byte	0x73
 22956 34f1 00       		.sleb128 0
 22957 34f2 38       		.byte	0x38
 22958 34f3 25       		.byte	0x25
 22959 34f4 08       		.byte	0x8
 22960 34f5 FF       		.byte	0xff
 22961 34f6 1A       		.byte	0x1a
 22962 34f7 4F       		.byte	0x4f
 22963 34f8 1E       		.byte	0x1e
 22964 34f9 A8       		.byte	0xa8
 22965 34fa 26       		.uleb128 0x26
 22966 34fb 08       		.byte	0x8
 22967 34fc FF       		.byte	0xff
 22968 34fd A8       		.byte	0xa8
 22969 34fe 26       		.uleb128 0x26
 22970 34ff 1B       		.byte	0x1b
 22971 3500 A8       		.byte	0xa8
 22972 3501 00       		.uleb128 0
 22973 3502 9F       		.byte	0x9f
 22974 3503 04       		.byte	0x4
 22975 3504 10       		.uleb128 .LVL228-.LVL227
 22976 3505 3C       		.uleb128 .LFE75-.LVL227
 22977 3506 1A       		.uleb128 0x1a
 22978 3507 A3       		.byte	0xa3
 22979 3508 03       		.uleb128 0x3
 22980 3509 A5       		.byte	0xa5
 22981 350a 03       		.uleb128 0x3
 22982 350b 2D       		.uleb128 0x2d
 22983 350c A8       		.byte	0xa8
 22984 350d 26       		.uleb128 0x26
 22985 350e A8       		.byte	0xa8
 22986 350f 00       		.uleb128 0
 22987 3510 38       		.byte	0x38
 22988 3511 25       		.byte	0x25
 22989 3512 08       		.byte	0x8
 22990 3513 FF       		.byte	0xff
 22991 3514 1A       		.byte	0x1a
 22992 3515 4F       		.byte	0x4f
 22993 3516 1E       		.byte	0x1e
 22994 3517 A8       		.byte	0xa8
 22995 3518 26       		.uleb128 0x26
 22996 3519 08       		.byte	0x8
 22997 351a FF       		.byte	0xff
 22998 351b A8       		.byte	0xa8
 22999 351c 26       		.uleb128 0x26
 23000 351d 1B       		.byte	0x1b
 23001 351e A8       		.byte	0xa8
 23002 351f 00       		.uleb128 0
 23003 3520 9F       		.byte	0x9f
 23004 3521 00       		.byte	0
 23005              	.LVUS159:
 23006 3522 00       		.uleb128 0
 23007 3523 00       		.uleb128 .LVU2175
 23008 3524 00       		.uleb128 .LVU2175
 23009 3525 00       		.uleb128 .LVU2184
 23010 3526 00       		.uleb128 .LVU2184
 23011 3527 00       		.uleb128 .LVU2193
 23012 3528 00       		.uleb128 .LVU2193
 23013 3529 00       		.uleb128 0
 23014              	.LLST159:
 23015 352a 06       		.byte	0x6
 23016 352b 00000000 		.4byte	.LVL256
 23017 352f 04       		.byte	0x4
 23018 3530 00       		.uleb128 .LVL256-.LVL256
 23019 3531 1C       		.uleb128 .LVL261-.LVL256
 23020 3532 01       		.uleb128 0x1
 23021 3533 53       		.byte	0x53
 23022 3534 04       		.byte	0x4
 23023 3535 1C       		.uleb128 .LVL261-.LVL256
 23024 3536 38       		.uleb128 .LVL266-.LVL256
 23025 3537 0A       		.uleb128 0xa
 23026 3538 A3       		.byte	0xa3
 23027 3539 03       		.uleb128 0x3
 23028 353a A5       		.byte	0xa5
 23029 353b 03       		.uleb128 0x3
 23030 353c 2D       		.uleb128 0x2d
 23031 353d A8       		.byte	0xa8
 23032 353e 26       		.uleb128 0x26
 23033 353f A8       		.byte	0xa8
 23034 3540 00       		.uleb128 0
 23035 3541 9F       		.byte	0x9f
 23036 3542 04       		.byte	0x4
 23037 3543 38       		.uleb128 .LVL266-.LVL256
 23038 3544 48       		.uleb128 .LVL269-.LVL256
 23039 3545 01       		.uleb128 0x1
 23040 3546 53       		.byte	0x53
 23041 3547 04       		.byte	0x4
 23042 3548 48       		.uleb128 .LVL269-.LVL256
 23043 3549 5C       		.uleb128 .LFE77-.LVL256
 23044 354a 0A       		.uleb128 0xa
 23045 354b A3       		.byte	0xa3
 23046 354c 03       		.uleb128 0x3
 23047 354d A5       		.byte	0xa5
 23048 354e 03       		.uleb128 0x3
 23049 354f 2D       		.uleb128 0x2d
 23050 3550 A8       		.byte	0xa8
 23051 3551 26       		.uleb128 0x26
 23052 3552 A8       		.byte	0xa8
 23053 3553 00       		.uleb128 0
 23054 3554 9F       		.byte	0x9f
 23055 3555 00       		.byte	0
 23056              	.LVUS160:
 23057 3556 04       		.uleb128 .LVU2161
 23058 3557 01       		.uleb128 .LVU2170
 23059 3558 01       		.uleb128 .LVU2170
 23060 3559 00       		.uleb128 .LVU2175
 23061 355a 00       		.uleb128 .LVU2175
 23062 355b 00       		.uleb128 .LVU2184
 23063 355c 00       		.uleb128 .LVU2184
 23064 355d 01       		.uleb128 .LVU2185
 23065 355e 01       		.uleb128 .LVU2185
 23066 355f 00       		.uleb128 .LVU2193
 23067 3560 00       		.uleb128 .LVU2193
 23068 3561 00       		.uleb128 0
 23069              	.LLST160:
 23070 3562 06       		.byte	0x6
 23071 3563 00000000 		.4byte	.LVL256
 23072 3567 04       		.byte	0x4
 23073 3568 00       		.uleb128 .LVL256-.LVL256
 23074 3569 14       		.uleb128 .LVL259-.LVL256
 23075 356a 05       		.uleb128 0x5
 23076 356b 73       		.byte	0x73
 23077 356c 00       		.sleb128 0
 23078 356d 48       		.byte	0x48
 23079 356e 25       		.byte	0x25
 23080 356f 9F       		.byte	0x9f
 23081 3570 04       		.byte	0x4
 23082 3571 14       		.uleb128 .LVL259-.LVL256
 23083 3572 1C       		.uleb128 .LVL261-.LVL256
 23084 3573 05       		.uleb128 0x5
 23085 3574 73       		.byte	0x73
 23086 3575 00       		.sleb128 0
 23087 3576 4B       		.byte	0x4b
 23088 3577 25       		.byte	0x25
 23089 3578 9F       		.byte	0x9f
 23090 3579 04       		.byte	0x4
 23091 357a 1C       		.uleb128 .LVL261-.LVL256
 23092 357b 38       		.uleb128 .LVL266-.LVL256
 23093 357c 0C       		.uleb128 0xc
 23094 357d A3       		.byte	0xa3
 23095 357e 03       		.uleb128 0x3
 23096 357f A5       		.byte	0xa5
 23097 3580 03       		.uleb128 0x3
 23098 3581 2D       		.uleb128 0x2d
 23099 3582 A8       		.byte	0xa8
 23100 3583 26       		.uleb128 0x26
 23101 3584 A8       		.byte	0xa8
 23102 3585 00       		.uleb128 0
 23103 3586 4B       		.byte	0x4b
 23104 3587 25       		.byte	0x25
 23105 3588 9F       		.byte	0x9f
 23106 3589 04       		.byte	0x4
 23107 358a 38       		.uleb128 .LVL266-.LVL256
 23108 358b 38       		.uleb128 .LVL266-.LVL256
 23109 358c 05       		.uleb128 0x5
 23110 358d 73       		.byte	0x73
 23111 358e 00       		.sleb128 0
 23112 358f 48       		.byte	0x48
 23113 3590 25       		.byte	0x25
 23114 3591 9F       		.byte	0x9f
 23115 3592 04       		.byte	0x4
 23116 3593 38       		.uleb128 .LVL266-.LVL256
 23117 3594 48       		.uleb128 .LVL269-.LVL256
 23118 3595 05       		.uleb128 0x5
 23119 3596 73       		.byte	0x73
 23120 3597 00       		.sleb128 0
 23121 3598 4C       		.byte	0x4c
 23122 3599 25       		.byte	0x25
 23123 359a 9F       		.byte	0x9f
 23124 359b 04       		.byte	0x4
 23125 359c 48       		.uleb128 .LVL269-.LVL256
 23126 359d 5C       		.uleb128 .LFE77-.LVL256
 23127 359e 0C       		.uleb128 0xc
 23128 359f A3       		.byte	0xa3
 23129 35a0 03       		.uleb128 0x3
 23130 35a1 A5       		.byte	0xa5
 23131 35a2 03       		.uleb128 0x3
 23132 35a3 2D       		.uleb128 0x2d
 23133 35a4 A8       		.byte	0xa8
 23134 35a5 26       		.uleb128 0x26
 23135 35a6 A8       		.byte	0xa8
 23136 35a7 00       		.uleb128 0
 23137 35a8 4C       		.byte	0x4c
 23138 35a9 25       		.byte	0x25
 23139 35aa 9F       		.byte	0x9f
 23140 35ab 00       		.byte	0
 23141              	.LVUS161:
 23142 35ac 00       		.uleb128 .LVU2164
 23143 35ad 02       		.uleb128 .LVU2171
 23144 35ae 02       		.uleb128 .LVU2171
 23145 35af 00       		.uleb128 .LVU2174
 23146 35b0 00       		.uleb128 .LVU2174
 23147 35b1 00       		.uleb128 .LVU2175
 23148 35b2 00       		.uleb128 .LVU2175
 23149 35b3 00       		.uleb128 .LVU2184
 23150 35b4 00       		.uleb128 .LVU2184
 23151 35b5 02       		.uleb128 .LVU2186
 23152 35b6 02       		.uleb128 .LVU2186
 23153 35b7 00       		.uleb128 .LVU2195
 23154 35b8 00       		.uleb128 .LVU2195
 23155 35b9 00       		.uleb128 0
 23156              	.LLST161:
 23157 35ba 06       		.byte	0x6
 23158 35bb 00000000 		.4byte	.LVL257
 23159 35bf 04       		.byte	0x4
 23160 35c0 00       		.uleb128 .LVL257-.LVL257
 23161 35c1 0C       		.uleb128 .LVL259-.LVL257
 23162 35c2 01       		.uleb128 0x1
 23163 35c3 5A       		.byte	0x5a
 23164 35c4 04       		.byte	0x4
 23165 35c5 0C       		.uleb128 .LVL259-.LVL257
 23166 35c6 10       		.uleb128 .LVL260-.LVL257
 23167 35c7 05       		.uleb128 0x5
 23168 35c8 7A       		.byte	0x7a
 23169 35c9 00       		.sleb128 0
 23170 35ca 33       		.byte	0x33
 23171 35cb 25       		.byte	0x25
 23172 35cc 9F       		.byte	0x9f
 23173 35cd 04       		.byte	0x4
 23174 35ce 10       		.uleb128 .LVL260-.LVL257
 23175 35cf 14       		.uleb128 .LVL261-.LVL257
 23176 35d0 0A       		.uleb128 0xa
 23177 35d1 73       		.byte	0x73
 23178 35d2 00       		.sleb128 0
 23179 35d3 40       		.byte	0x40
 23180 35d4 25       		.byte	0x25
 23181 35d5 08       		.byte	0x8
 23182 35d6 FF       		.byte	0xff
 23183 35d7 1A       		.byte	0x1a
 23184 35d8 33       		.byte	0x33
 23185 35d9 25       		.byte	0x25
 23186 35da 9F       		.byte	0x9f
 23187 35db 04       		.byte	0x4
 23188 35dc 14       		.uleb128 .LVL261-.LVL257
 23189 35dd 30       		.uleb128 .LVL266-.LVL257
 23190 35de 11       		.uleb128 0x11
 23191 35df A3       		.byte	0xa3
 23192 35e0 03       		.uleb128 0x3
 23193 35e1 A5       		.byte	0xa5
 23194 35e2 03       		.uleb128 0x3
 23195 35e3 2D       		.uleb128 0x2d
 23196 35e4 A8       		.byte	0xa8
 23197 35e5 26       		.uleb128 0x26
 23198 35e6 A8       		.byte	0xa8
 23199 35e7 00       		.uleb128 0
 23200 35e8 40       		.byte	0x40
 23201 35e9 25       		.byte	0x25
 23202 35ea 08       		.byte	0x8
 23203 35eb FF       		.byte	0xff
 23204 35ec 1A       		.byte	0x1a
 23205 35ed 33       		.byte	0x33
 23206 35ee 25       		.byte	0x25
 23207 35ef 9F       		.byte	0x9f
 23208 35f0 04       		.byte	0x4
 23209 35f1 30       		.uleb128 .LVL266-.LVL257
 23210 35f2 30       		.uleb128 .LVL266-.LVL257
 23211 35f3 01       		.uleb128 0x1
 23212 35f4 5A       		.byte	0x5a
 23213 35f5 04       		.byte	0x4
 23214 35f6 30       		.uleb128 .LVL266-.LVL257
 23215 35f7 48       		.uleb128 .LVL270-.LVL257
 23216 35f8 05       		.uleb128 0x5
 23217 35f9 7A       		.byte	0x7a
 23218 35fa 00       		.sleb128 0
 23219 35fb 34       		.byte	0x34
 23220 35fc 25       		.byte	0x25
 23221 35fd 9F       		.byte	0x9f
 23222 35fe 04       		.byte	0x4
 23223 35ff 48       		.uleb128 .LVL270-.LVL257
 23224 3600 54       		.uleb128 .LFE77-.LVL257
 23225 3601 11       		.uleb128 0x11
 23226 3602 A3       		.byte	0xa3
 23227 3603 03       		.uleb128 0x3
 23228 3604 A5       		.byte	0xa5
 23229 3605 03       		.uleb128 0x3
 23230 3606 2D       		.uleb128 0x2d
 23231 3607 A8       		.byte	0xa8
 23232 3608 26       		.uleb128 0x26
 23233 3609 A8       		.byte	0xa8
 23234 360a 00       		.uleb128 0
 23235 360b 40       		.byte	0x40
 23236 360c 25       		.byte	0x25
 23237 360d 08       		.byte	0x8
 23238 360e FF       		.byte	0xff
 23239 360f 1A       		.byte	0x1a
 23240 3610 34       		.byte	0x34
 23241 3611 25       		.byte	0x25
 23242 3612 9F       		.byte	0x9f
 23243 3613 00       		.byte	0
 23244              	.LVUS162:
 23245 3614 00       		.uleb128 .LVU2167
 23246 3615 03       		.uleb128 .LVU2172
 23247 3616 03       		.uleb128 .LVU2172
 23248 3617 00       		.uleb128 .LVU2177
 23249 3618 00       		.uleb128 .LVU2177
 23250 3619 03       		.uleb128 .LVU2187
 23251 361a 03       		.uleb128 .LVU2187
 23252 361b 00       		.uleb128 .LVU2190
 23253 361c 00       		.uleb128 .LVU2190
 23254 361d 00       		.uleb128 0
 23255              	.LLST162:
 23256 361e 06       		.byte	0x6
 23257 361f 00000000 		.4byte	.LVL258
 23258 3623 04       		.byte	0x4
 23259 3624 00       		.uleb128 .LVL258-.LVL258
 23260 3625 04       		.uleb128 .LVL259-.LVL258
 23261 3626 01       		.uleb128 0x1
 23262 3627 58       		.byte	0x58
 23263 3628 04       		.byte	0x4
 23264 3629 04       		.uleb128 .LVL259-.LVL258
 23265 362a 14       		.uleb128 .LVL262-.LVL258
 23266 362b 05       		.uleb128 0x5
 23267 362c 78       		.byte	0x78
 23268 362d 00       		.sleb128 0
 23269 362e 33       		.byte	0x33
 23270 362f 25       		.byte	0x25
 23271 3630 9F       		.byte	0x9f
 23272 3631 04       		.byte	0x4
 23273 3632 14       		.uleb128 .LVL262-.LVL258
 23274 3633 28       		.uleb128 .LVL266-.LVL258
 23275 3634 01       		.uleb128 0x1
 23276 3635 58       		.byte	0x58
 23277 3636 04       		.byte	0x4
 23278 3637 28       		.uleb128 .LVL266-.LVL258
 23279 3638 2C       		.uleb128 .LVL267-.LVL258
 23280 3639 05       		.uleb128 0x5
 23281 363a 78       		.byte	0x78
 23282 363b 00       		.sleb128 0
 23283 363c 34       		.byte	0x34
 23284 363d 25       		.byte	0x25
 23285 363e 9F       		.byte	0x9f
 23286 363f 04       		.byte	0x4
 23287 3640 2C       		.uleb128 .LVL267-.LVL258
 23288 3641 4C       		.uleb128 .LFE77-.LVL258
 23289 3642 01       		.uleb128 0x1
 23290 3643 58       		.byte	0x58
 23291 3644 00       		.byte	0
 23292              	.LVUS163:
 23293 3645 01       		.uleb128 .LVU2168
 23294 3646 00       		.uleb128 .LVU2180
 23295 3647 00       		.uleb128 .LVU2180
 23296 3648 00       		.uleb128 .LVU2184
 23297 3649 00       		.uleb128 .LVU2184
 23298 364a 04       		.uleb128 .LVU2188
 23299 364b 04       		.uleb128 .LVU2188
 23300 364c 00       		.uleb128 .LVU2191
 23301 364d 00       		.uleb128 .LVU2191
 23302 364e 00       		.uleb128 .LVU2193
 23303 364f 00       		.uleb128 .LVU2193
 23304 3650 00       		.uleb128 0
 23305              	.LLST163:
 23306 3651 06       		.byte	0x6
 23307 3652 00000000 		.4byte	.LVL258
 23308 3656 04       		.byte	0x4
 23309 3657 00       		.uleb128 .LVL258-.LVL258
 23310 3658 1C       		.uleb128 .LVL264-.LVL258
 23311 3659 01       		.uleb128 0x1
 23312 365a 59       		.byte	0x59
 23313 365b 04       		.byte	0x4
 23314 365c 1C       		.uleb128 .LVL264-.LVL258
 23315 365d 28       		.uleb128 .LVL266-.LVL258
 23316 365e 0D       		.uleb128 0xd
 23317 365f A3       		.byte	0xa3
 23318 3660 03       		.uleb128 0x3
 23319 3661 A5       		.byte	0xa5
 23320 3662 03       		.uleb128 0x3
 23321 3663 2D       		.uleb128 0x2d
 23322 3664 A8       		.byte	0xa8
 23323 3665 26       		.uleb128 0x26
 23324 3666 A8       		.byte	0xa8
 23325 3667 00       		.uleb128 0
 23326 3668 08       		.byte	0x8
 23327 3669 FF       		.byte	0xff
 23328 366a 1A       		.byte	0x1a
 23329 366b 9F       		.byte	0x9f
 23330 366c 04       		.byte	0x4
 23331 366d 28       		.uleb128 .LVL266-.LVL258
 23332 366e 28       		.uleb128 .LVL266-.LVL258
 23333 366f 01       		.uleb128 0x1
 23334 3670 59       		.byte	0x59
 23335 3671 04       		.byte	0x4
 23336 3672 28       		.uleb128 .LVL266-.LVL258
 23337 3673 30       		.uleb128 .LVL268-.LVL258
 23338 3674 05       		.uleb128 0x5
 23339 3675 79       		.byte	0x79
 23340 3676 00       		.sleb128 0
 23341 3677 35       		.byte	0x35
 23342 3678 25       		.byte	0x25
 23343 3679 9F       		.byte	0x9f
 23344 367a 04       		.byte	0x4
 23345 367b 30       		.uleb128 .LVL268-.LVL258
 23346 367c 38       		.uleb128 .LVL269-.LVL258
 23347 367d 08       		.uleb128 0x8
 23348 367e 73       		.byte	0x73
 23349 367f 00       		.sleb128 0
 23350 3680 08       		.byte	0x8
 23351 3681 FF       		.byte	0xff
 23352 3682 1A       		.byte	0x1a
 23353 3683 35       		.byte	0x35
 23354 3684 25       		.byte	0x25
 23355 3685 9F       		.byte	0x9f
 23356 3686 04       		.byte	0x4
 23357 3687 38       		.uleb128 .LVL269-.LVL258
 23358 3688 4C       		.uleb128 .LFE77-.LVL258
 23359 3689 0F       		.uleb128 0xf
 23360 368a A3       		.byte	0xa3
 23361 368b 03       		.uleb128 0x3
 23362 368c A5       		.byte	0xa5
 23363 368d 03       		.uleb128 0x3
 23364 368e 2D       		.uleb128 0x2d
 23365 368f A8       		.byte	0xa8
 23366 3690 26       		.uleb128 0x26
 23367 3691 A8       		.byte	0xa8
 23368 3692 00       		.uleb128 0
 23369 3693 08       		.byte	0x8
 23370 3694 FF       		.byte	0xff
 23371 3695 1A       		.byte	0x1a
 23372 3696 35       		.byte	0x35
 23373 3697 25       		.byte	0x25
 23374 3698 9F       		.byte	0x9f
 23375 3699 00       		.byte	0
 23376              	.LVUS164:
 23377 369a 00       		.uleb128 .LVU2178
 23378 369b 00       		.uleb128 .LVU2184
 23379 369c 00       		.uleb128 .LVU2196
 23380 369d 00       		.uleb128 0
 23381              	.LLST164:
 23382 369e 06       		.byte	0x6
 23383 369f 00000000 		.4byte	.LVL263
 23384 36a3 04       		.byte	0x4
 23385 36a4 00       		.uleb128 .LVL263-.LVL263
 23386 36a5 10       		.uleb128 .LVL266-.LVL263
 23387 36a6 01       		.uleb128 0x1
 23388 36a7 53       		.byte	0x53
 23389 36a8 04       		.byte	0x4
 23390 36a9 2C       		.uleb128 .LVL271-.LVL263
 23391 36aa 34       		.uleb128 .LFE77-.LVL263
 23392 36ab 01       		.uleb128 0x1
 23393 36ac 53       		.byte	0x53
 23394 36ad 00       		.byte	0
 23395              	.Ldebug_loc3:
 23396              		.section	.debug_aranges,"",@progbits
 23397 0000 00000084 		.4byte	0x84
 23398 0004 0002     		.2byte	0x2
 23399 0006 00000000 		.4byte	.Ldebug_info0
 23400 000a 04       		.byte	0x4
 23401 000b 00       		.byte	0
 23402 000c 0000     		.2byte	0
 23403 000e 0000     		.2byte	0
 23404 0010 00000000 		.4byte	.LFB65
 23405 0014 00000004 		.4byte	.LFE65-.LFB65
 23406 0018 00000000 		.4byte	.LFB67
 23407 001c 00000008 		.4byte	.LFE67-.LFB67
 23408 0020 00000000 		.4byte	.LFB62
 23409 0024 00000010 		.4byte	.LFE62-.LFB62
 23410 0028 00000000 		.4byte	.LFB68
 23411 002c 00000534 		.4byte	.LFE68-.LFB68
 23412 0030 00000000 		.4byte	.LFB69
 23413 0034 00000364 		.4byte	.LFE69-.LFB69
 23414 0038 00000000 		.4byte	.LFB70
 23415 003c 00000010 		.4byte	.LFE70-.LFB70
 23416 0040 00000000 		.4byte	.LFB71
 23417 0044 000004E4 		.4byte	.LFE71-.LFB71
 23418 0048 00000000 		.4byte	.LFB72
 23419 004c 00000008 		.4byte	.LFE72-.LFB72
 23420 0050 00000000 		.4byte	.LFB73
 23421 0054 00000258 		.4byte	.LFE73-.LFB73
 23422 0058 00000000 		.4byte	.LFB74
 23423 005c 00000438 		.4byte	.LFE74-.LFB74
 23424 0060 00000000 		.4byte	.LFB75
 23425 0064 0000004C 		.4byte	.LFE75-.LFB75
 23426 0068 00000000 		.4byte	.LFB76
 23427 006c 00000684 		.4byte	.LFE76-.LFB76
 23428 0070 00000000 		.4byte	.LFB77
 23429 0074 0000005C 		.4byte	.LFE77-.LFB77
 23430 0078 00000000 		.4byte	.LFB78
 23431 007c 00000908 		.4byte	.LFE78-.LFB78
 23432 0080 00000000 		.4byte	0
 23433 0084 00000000 		.4byte	0
 23434              		.section	.debug_rnglists,"",@progbits
 23435              	.Ldebug_ranges0:
 23436 0000 000007C5 		.4byte	.Ldebug_ranges3-.Ldebug_ranges2
 23437              	.Ldebug_ranges2:
 23438 0004 0005     		.2byte	0x5
 23439 0006 04       		.byte	0x4
 23440 0007 00       		.byte	0
 23441 0008 00000000 		.4byte	0
 23442              	.LLRL9:
 23443 000c 05       		.byte	0x5
 23444 000d 00000000 		.4byte	.LBB48
 23445 0011 04       		.byte	0x4
 23446 0012 00       		.uleb128 .LBB48-.LBB48
 23447 0013 0C       		.uleb128 .LBE48-.LBB48
 23448 0014 04       		.byte	0x4
 23449 0015 10       		.uleb128 .LBB55-.LBB48
 23450 0016 B009     		.uleb128 .LBE55-.LBB48
 23451 0018 00       		.byte	0
 23452              	.LLRL12:
 23453 0019 05       		.byte	0x5
 23454 001a 00000000 		.4byte	.LBB50
 23455 001e 04       		.byte	0x4
 23456 001f 00       		.uleb128 .LBB50-.LBB50
 23457 0020 0C       		.uleb128 .LBE50-.LBB50
 23458 0021 04       		.byte	0x4
 23459 0022 10       		.uleb128 .LBB51-.LBB50
 23460 0023 30       		.uleb128 .LBE51-.LBB50
 23461 0024 04       		.byte	0x4
 23462 0025 34       		.uleb128 .LBB52-.LBB50
 23463 0026 9807     		.uleb128 .LBE52-.LBB50
 23464 0028 04       		.byte	0x4
 23465 0029 9C07     		.uleb128 .LBB53-.LBB50
 23466 002b A407     		.uleb128 .LBE53-.LBB50
 23467 002d 04       		.byte	0x4
 23468 002e A807     		.uleb128 .LBB54-.LBB50
 23469 0030 9808     		.uleb128 .LBE54-.LBB50
 23470 0032 00       		.byte	0
 23471              	.LLRL21:
 23472 0033 05       		.byte	0x5
 23473 0034 00000000 		.4byte	.LBB56
 23474 0038 04       		.byte	0x4
 23475 0039 00       		.uleb128 .LBB56-.LBB56
 23476 003a 0C       		.uleb128 .LBE56-.LBB56
 23477 003b 04       		.byte	0x4
 23478 003c 10       		.uleb128 .LBB62-.LBB56
 23479 003d E405     		.uleb128 .LBE62-.LBB56
 23480 003f 00       		.byte	0
 23481              	.LLRL24:
 23482 0040 05       		.byte	0x5
 23483 0041 00000000 		.4byte	.LBB58
 23484 0045 04       		.byte	0x4
 23485 0046 00       		.uleb128 .LBB58-.LBB58
 23486 0047 0C       		.uleb128 .LBE58-.LBB58
 23487 0048 04       		.byte	0x4
 23488 0049 10       		.uleb128 .LBB59-.LBB58
 23489 004a 20       		.uleb128 .LBE59-.LBB58
 23490 004b 04       		.byte	0x4
 23491 004c 24       		.uleb128 .LBB60-.LBB58
 23492 004d BC03     		.uleb128 .LBE60-.LBB58
 23493 004f 04       		.byte	0x4
 23494 0050 C403     		.uleb128 .LBB61-.LBB58
 23495 0052 CC04     		.uleb128 .LBE61-.LBB58
 23496 0054 00       		.byte	0
 23497              	.LLRL36:
 23498 0055 05       		.byte	0x5
 23499 0056 00000000 		.4byte	.LBB63
 23500 005a 04       		.byte	0x4
 23501 005b 00       		.uleb128 .LBB63-.LBB63
 23502 005c 0C       		.uleb128 .LBE63-.LBB63
 23503 005d 04       		.byte	0x4
 23504 005e 10       		.uleb128 .LBB159-.LBB63
 23505 005f E408     		.uleb128 .LBE159-.LBB63
 23506 0061 00       		.byte	0
 23507              	.LLRL39:
 23508 0062 05       		.byte	0x5
 23509 0063 00000000 		.4byte	.LBB65
 23510 0067 04       		.byte	0x4
 23511 0068 00       		.uleb128 .LBB65-.LBB65
 23512 0069 0C       		.uleb128 .LBE65-.LBB65
 23513 006a 04       		.byte	0x4
 23514 006b 10       		.uleb128 .LBB156-.LBB65
 23515 006c 20       		.uleb128 .LBE156-.LBB65
 23516 006d 04       		.byte	0x4
 23517 006e 24       		.uleb128 .LBB157-.LBB65
 23518 006f 8405     		.uleb128 .LBE157-.LBB65
 23519 0071 04       		.byte	0x4
 23520 0072 8C05     		.uleb128 .LBB158-.LBB65
 23521 0074 CC07     		.uleb128 .LBE158-.LBB65
 23522 0076 00       		.byte	0
 23523              	.LLRL41:
 23524 0077 05       		.byte	0x5
 23525 0078 00000000 		.4byte	.LBB66
 23526 007c 04       		.byte	0x4
 23527 007d 00       		.uleb128 .LBB66-.LBB66
 23528 007e 00       		.uleb128 .LBE66-.LBB66
 23529 007f 04       		.byte	0x4
 23530 0080 0C       		.uleb128 .LBB73-.LBB66
 23531 0081 18       		.uleb128 .LBE73-.LBB66
 23532 0082 04       		.byte	0x4
 23533 0083 BC02     		.uleb128 .LBB124-.LBB66
 23534 0085 BC02     		.uleb128 .LBE124-.LBB66
 23535 0087 04       		.byte	0x4
 23536 0088 C002     		.uleb128 .LBB125-.LBB66
 23537 008a CC02     		.uleb128 .LBE125-.LBB66
 23538 008c 04       		.byte	0x4
 23539 008d D804     		.uleb128 .LBB140-.LBB66
 23540 008f E404     		.uleb128 .LBE140-.LBB66
 23541 0091 04       		.byte	0x4
 23542 0092 F805     		.uleb128 .LBB148-.LBB66
 23543 0094 8406     		.uleb128 .LBE148-.LBB66
 23544 0096 00       		.byte	0
 23545              	.LLRL45:
 23546 0097 05       		.byte	0x5
 23547 0098 00000000 		.4byte	.LBB74
 23548 009c 04       		.byte	0x4
 23549 009d 00       		.uleb128 .LBB74-.LBB74
 23550 009e 00       		.uleb128 .LBE74-.LBB74
 23551 009f 04       		.byte	0x4
 23552 00a0 0C       		.uleb128 .LBB81-.LBB74
 23553 00a1 18       		.uleb128 .LBE81-.LBB74
 23554 00a2 04       		.byte	0x4
 23555 00a3 B002     		.uleb128 .LBB126-.LBB74
 23556 00a5 B002     		.uleb128 .LBE126-.LBB74
 23557 00a7 04       		.byte	0x4
 23558 00a8 B402     		.uleb128 .LBB127-.LBB74
 23559 00aa C002     		.uleb128 .LBE127-.LBB74
 23560 00ac 04       		.byte	0x4
 23561 00ad BC04     		.uleb128 .LBB141-.LBB74
 23562 00af C804     		.uleb128 .LBE141-.LBB74
 23563 00b1 04       		.byte	0x4
 23564 00b2 DC05     		.uleb128 .LBB149-.LBB74
 23565 00b4 E805     		.uleb128 .LBE149-.LBB74
 23566 00b6 00       		.byte	0
 23567              	.LLRL49:
 23568 00b7 05       		.byte	0x5
 23569 00b8 00000000 		.4byte	.LBB82
 23570 00bc 04       		.byte	0x4
 23571 00bd 00       		.uleb128 .LBB82-.LBB82
 23572 00be 00       		.uleb128 .LBE82-.LBB82
 23573 00bf 04       		.byte	0x4
 23574 00c0 0C       		.uleb128 .LBB89-.LBB82
 23575 00c1 18       		.uleb128 .LBE89-.LBB82
 23576 00c2 04       		.byte	0x4
 23577 00c3 A402     		.uleb128 .LBB128-.LBB82
 23578 00c5 A402     		.uleb128 .LBE128-.LBB82
 23579 00c7 04       		.byte	0x4
 23580 00c8 A802     		.uleb128 .LBB129-.LBB82
 23581 00ca B402     		.uleb128 .LBE129-.LBB82
 23582 00cc 04       		.byte	0x4
 23583 00cd A004     		.uleb128 .LBB142-.LBB82
 23584 00cf AC04     		.uleb128 .LBE142-.LBB82
 23585 00d1 04       		.byte	0x4
 23586 00d2 C005     		.uleb128 .LBB150-.LBB82
 23587 00d4 CC05     		.uleb128 .LBE150-.LBB82
 23588 00d6 00       		.byte	0
 23589              	.LLRL53:
 23590 00d7 05       		.byte	0x5
 23591 00d8 00000000 		.4byte	.LBB90
 23592 00dc 04       		.byte	0x4
 23593 00dd 00       		.uleb128 .LBB90-.LBB90
 23594 00de 00       		.uleb128 .LBE90-.LBB90
 23595 00df 04       		.byte	0x4
 23596 00e0 0C       		.uleb128 .LBB97-.LBB90
 23597 00e1 18       		.uleb128 .LBE97-.LBB90
 23598 00e2 04       		.byte	0x4
 23599 00e3 9802     		.uleb128 .LBB130-.LBB90
 23600 00e5 9802     		.uleb128 .LBE130-.LBB90
 23601 00e7 04       		.byte	0x4
 23602 00e8 9C02     		.uleb128 .LBB131-.LBB90
 23603 00ea A802     		.uleb128 .LBE131-.LBB90
 23604 00ec 04       		.byte	0x4
 23605 00ed 8404     		.uleb128 .LBB143-.LBB90
 23606 00ef 9004     		.uleb128 .LBE143-.LBB90
 23607 00f1 04       		.byte	0x4
 23608 00f2 A405     		.uleb128 .LBB151-.LBB90
 23609 00f4 B005     		.uleb128 .LBE151-.LBB90
 23610 00f6 00       		.byte	0
 23611              	.LLRL57:
 23612 00f7 05       		.byte	0x5
 23613 00f8 00000000 		.4byte	.LBB98
 23614 00fc 04       		.byte	0x4
 23615 00fd 00       		.uleb128 .LBB98-.LBB98
 23616 00fe 00       		.uleb128 .LBE98-.LBB98
 23617 00ff 04       		.byte	0x4
 23618 0100 08       		.uleb128 .LBB105-.LBB98
 23619 0101 14       		.uleb128 .LBE105-.LBB98
 23620 0102 04       		.byte	0x4
 23621 0103 8C02     		.uleb128 .LBB132-.LBB98
 23622 0105 8C02     		.uleb128 .LBE132-.LBB98
 23623 0107 04       		.byte	0x4
 23624 0108 9002     		.uleb128 .LBB133-.LBB98
 23625 010a 9C02     		.uleb128 .LBE133-.LBB98
 23626 010c 04       		.byte	0x4
 23627 010d E803     		.uleb128 .LBB144-.LBB98
 23628 010f F403     		.uleb128 .LBE144-.LBB98
 23629 0111 04       		.byte	0x4
 23630 0112 8805     		.uleb128 .LBB152-.LBB98
 23631 0114 9405     		.uleb128 .LBE152-.LBB98
 23632 0116 00       		.byte	0
 23633              	.LLRL61:
 23634 0117 05       		.byte	0x5
 23635 0118 00000000 		.4byte	.LBB106
 23636 011c 04       		.byte	0x4
 23637 011d 00       		.uleb128 .LBB106-.LBB106
 23638 011e 0C       		.uleb128 .LBE106-.LBB106
 23639 011f 04       		.byte	0x4
 23640 0120 8C02     		.uleb128 .LBB134-.LBB106
 23641 0122 8C02     		.uleb128 .LBE134-.LBB106
 23642 0124 04       		.byte	0x4
 23643 0125 9002     		.uleb128 .LBB135-.LBB106
 23644 0127 9C02     		.uleb128 .LBE135-.LBB106
 23645 0129 04       		.byte	0x4
 23646 012a D803     		.uleb128 .LBB145-.LBB106
 23647 012c E403     		.uleb128 .LBE145-.LBB106
 23648 012e 04       		.byte	0x4
 23649 012f F804     		.uleb128 .LBB153-.LBB106
 23650 0131 8405     		.uleb128 .LBE153-.LBB106
 23651 0133 00       		.byte	0
 23652              	.LLRL65:
 23653 0134 05       		.byte	0x5
 23654 0135 00000000 		.4byte	.LBB112
 23655 0139 04       		.byte	0x4
 23656 013a 00       		.uleb128 .LBB112-.LBB112
 23657 013b 0C       		.uleb128 .LBE112-.LBB112
 23658 013c 04       		.byte	0x4
 23659 013d 9402     		.uleb128 .LBB136-.LBB112
 23660 013f 9402     		.uleb128 .LBE136-.LBB112
 23661 0141 04       		.byte	0x4
 23662 0142 9802     		.uleb128 .LBB137-.LBB112
 23663 0144 A402     		.uleb128 .LBE137-.LBB112
 23664 0146 04       		.byte	0x4
 23665 0147 D003     		.uleb128 .LBB146-.LBB112
 23666 0149 DC03     		.uleb128 .LBE146-.LBB112
 23667 014b 04       		.byte	0x4
 23668 014c F004     		.uleb128 .LBB154-.LBB112
 23669 014e FC04     		.uleb128 .LBE154-.LBB112
 23670 0150 00       		.byte	0
 23671              	.LLRL69:
 23672 0151 05       		.byte	0x5
 23673 0152 00000000 		.4byte	.LBB118
 23674 0156 04       		.byte	0x4
 23675 0157 00       		.uleb128 .LBB118-.LBB118
 23676 0158 0C       		.uleb128 .LBE118-.LBB118
 23677 0159 04       		.byte	0x4
 23678 015a 9C02     		.uleb128 .LBB138-.LBB118
 23679 015c 9C02     		.uleb128 .LBE138-.LBB118
 23680 015e 04       		.byte	0x4
 23681 015f A002     		.uleb128 .LBB139-.LBB118
 23682 0161 AC02     		.uleb128 .LBE139-.LBB118
 23683 0163 04       		.byte	0x4
 23684 0164 C803     		.uleb128 .LBB147-.LBB118
 23685 0166 D403     		.uleb128 .LBE147-.LBB118
 23686 0168 04       		.byte	0x4
 23687 0169 E804     		.uleb128 .LBB155-.LBB118
 23688 016b F404     		.uleb128 .LBE155-.LBB118
 23689 016d 00       		.byte	0
 23690              	.LLRL83:
 23691 016e 05       		.byte	0x5
 23692 016f 00000000 		.4byte	.LBB160
 23693 0173 04       		.byte	0x4
 23694 0174 00       		.uleb128 .LBB160-.LBB160
 23695 0175 10       		.uleb128 .LBE160-.LBB160
 23696 0176 04       		.byte	0x4
 23697 0177 14       		.uleb128 .LBB199-.LBB160
 23698 0178 CC03     		.uleb128 .LBE199-.LBB160
 23699 017a 00       		.byte	0
 23700              	.LLRL86:
 23701 017b 05       		.byte	0x5
 23702 017c 00000000 		.4byte	.LBB162
 23703 0180 04       		.byte	0x4
 23704 0181 00       		.uleb128 .LBB162-.LBB162
 23705 0182 04       		.uleb128 .LBE162-.LBB162
 23706 0183 04       		.byte	0x4
 23707 0184 08       		.uleb128 .LBB195-.LBB162
 23708 0185 1C       		.uleb128 .LBE195-.LBB162
 23709 0186 04       		.byte	0x4
 23710 0187 20       		.uleb128 .LBB196-.LBB162
 23711 0188 68       		.uleb128 .LBE196-.LBB162
 23712 0189 04       		.byte	0x4
 23713 018a 6C       		.uleb128 .LBB197-.LBB162
 23714 018b AC01     		.uleb128 .LBE197-.LBB162
 23715 018d 04       		.byte	0x4
 23716 018e B001     		.uleb128 .LBB198-.LBB162
 23717 0190 B802     		.uleb128 .LBE198-.LBB162
 23718 0192 00       		.byte	0
 23719              	.LLRL88:
 23720 0193 05       		.byte	0x5
 23721 0194 00000000 		.4byte	.LBB163
 23722 0198 04       		.byte	0x4
 23723 0199 00       		.uleb128 .LBB163-.LBB163
 23724 019a 00       		.uleb128 .LBE163-.LBB163
 23725 019b 04       		.byte	0x4
 23726 019c 4C       		.uleb128 .LBB183-.LBB163
 23727 019d 4C       		.uleb128 .LBE183-.LBB163
 23728 019e 04       		.byte	0x4
 23729 019f 5C       		.uleb128 .LBB187-.LBB163
 23730 01a0 5C       		.uleb128 .LBE187-.LBB163
 23731 01a1 04       		.byte	0x4
 23732 01a2 70       		.uleb128 .LBB191-.LBB163
 23733 01a3 70       		.uleb128 .LBE191-.LBB163
 23734 01a4 00       		.byte	0
 23735              	.LLRL92:
 23736 01a5 05       		.byte	0x5
 23737 01a6 00000000 		.4byte	.LBB168
 23738 01aa 04       		.byte	0x4
 23739 01ab 00       		.uleb128 .LBB168-.LBB168
 23740 01ac 00       		.uleb128 .LBE168-.LBB168
 23741 01ad 04       		.byte	0x4
 23742 01ae 10       		.uleb128 .LBB184-.LBB168
 23743 01af 10       		.uleb128 .LBE184-.LBB168
 23744 01b0 04       		.byte	0x4
 23745 01b1 20       		.uleb128 .LBB188-.LBB168
 23746 01b2 20       		.uleb128 .LBE188-.LBB168
 23747 01b3 04       		.byte	0x4
 23748 01b4 34       		.uleb128 .LBB192-.LBB168
 23749 01b5 34       		.uleb128 .LBE192-.LBB168
 23750 01b6 00       		.byte	0
 23751              	.LLRL96:
 23752 01b7 05       		.byte	0x5
 23753 01b8 00000000 		.4byte	.LBB173
 23754 01bc 04       		.byte	0x4
 23755 01bd 00       		.uleb128 .LBB173-.LBB173
 23756 01be 00       		.uleb128 .LBE173-.LBB173
 23757 01bf 04       		.byte	0x4
 23758 01c0 10       		.uleb128 .LBB185-.LBB173
 23759 01c1 10       		.uleb128 .LBE185-.LBB173
 23760 01c2 04       		.byte	0x4
 23761 01c3 20       		.uleb128 .LBB189-.LBB173
 23762 01c4 20       		.uleb128 .LBE189-.LBB173
 23763 01c5 04       		.byte	0x4
 23764 01c6 34       		.uleb128 .LBB193-.LBB173
 23765 01c7 34       		.uleb128 .LBE193-.LBB173
 23766 01c8 00       		.byte	0
 23767              	.LLRL100:
 23768 01c9 05       		.byte	0x5
 23769 01ca 00000000 		.4byte	.LBB178
 23770 01ce 04       		.byte	0x4
 23771 01cf 00       		.uleb128 .LBB178-.LBB178
 23772 01d0 00       		.uleb128 .LBE178-.LBB178
 23773 01d1 04       		.byte	0x4
 23774 01d2 10       		.uleb128 .LBB186-.LBB178
 23775 01d3 10       		.uleb128 .LBE186-.LBB178
 23776 01d4 04       		.byte	0x4
 23777 01d5 20       		.uleb128 .LBB190-.LBB178
 23778 01d6 20       		.uleb128 .LBE190-.LBB178
 23779 01d7 04       		.byte	0x4
 23780 01d8 30       		.uleb128 .LBB194-.LBB178
 23781 01d9 30       		.uleb128 .LBE194-.LBB178
 23782 01da 00       		.byte	0
 23783              	.LLRL111:
 23784 01db 05       		.byte	0x5
 23785 01dc 00000000 		.4byte	.LBB200
 23786 01e0 04       		.byte	0x4
 23787 01e1 00       		.uleb128 .LBB200-.LBB200
 23788 01e2 10       		.uleb128 .LBE200-.LBB200
 23789 01e3 04       		.byte	0x4
 23790 01e4 14       		.uleb128 .LBB223-.LBB200
 23791 01e5 AC07     		.uleb128 .LBE223-.LBB200
 23792 01e7 00       		.byte	0
 23793              	.LLRL114:
 23794 01e8 05       		.byte	0x5
 23795 01e9 00000000 		.4byte	.LBB202
 23796 01ed 04       		.byte	0x4
 23797 01ee 00       		.uleb128 .LBB202-.LBB202
 23798 01ef 0C       		.uleb128 .LBE202-.LBB202
 23799 01f0 04       		.byte	0x4
 23800 01f1 14       		.uleb128 .LBB212-.LBB202
 23801 01f2 24       		.uleb128 .LBE212-.LBB202
 23802 01f3 04       		.byte	0x4
 23803 01f4 28       		.uleb128 .LBB213-.LBB202
 23804 01f5 C801     		.uleb128 .LBE213-.LBB202
 23805 01f7 04       		.byte	0x4
 23806 01f8 CC01     		.uleb128 .LBB220-.LBB202
 23807 01fa D003     		.uleb128 .LBE220-.LBB202
 23808 01fc 04       		.byte	0x4
 23809 01fd D803     		.uleb128 .LBB221-.LBB202
 23810 01ff 8004     		.uleb128 .LBE221-.LBB202
 23811 0201 00       		.byte	0
 23812              	.LLRL116:
 23813 0202 05       		.byte	0x5
 23814 0203 00000000 		.4byte	.LBB203
 23815 0207 04       		.byte	0x4
 23816 0208 00       		.uleb128 .LBB203-.LBB203
 23817 0209 0C       		.uleb128 .LBE203-.LBB203
 23818 020a 04       		.byte	0x4
 23819 020b 14       		.uleb128 .LBB204-.LBB203
 23820 020c 20       		.uleb128 .LBE204-.LBB203
 23821 020d 04       		.byte	0x4
 23822 020e 20       		.uleb128 .LBB205-.LBB203
 23823 020f 24       		.uleb128 .LBE205-.LBB203
 23824 0210 04       		.byte	0x4
 23825 0211 28       		.uleb128 .LBB206-.LBB203
 23826 0212 C801     		.uleb128 .LBE206-.LBB203
 23827 0214 04       		.byte	0x4
 23828 0215 CC01     		.uleb128 .LBB207-.LBB203
 23829 0217 FC01     		.uleb128 .LBE207-.LBB203
 23830 0219 04       		.byte	0x4
 23831 021a FC01     		.uleb128 .LBB208-.LBB203
 23832 021c E802     		.uleb128 .LBE208-.LBB203
 23833 021e 04       		.byte	0x4
 23834 021f E802     		.uleb128 .LBB209-.LBB203
 23835 0221 B403     		.uleb128 .LBE209-.LBB203
 23836 0223 04       		.byte	0x4
 23837 0224 B403     		.uleb128 .LBB210-.LBB203
 23838 0226 D003     		.uleb128 .LBE210-.LBB203
 23839 0228 04       		.byte	0x4
 23840 0229 D803     		.uleb128 .LBB211-.LBB203
 23841 022b 8004     		.uleb128 .LBE211-.LBB203
 23842 022d 00       		.byte	0
 23843              	.LLRL118:
 23844 022e 05       		.byte	0x5
 23845 022f 00000000 		.4byte	.LBB214
 23846 0233 04       		.byte	0x4
 23847 0234 00       		.uleb128 .LBB214-.LBB214
 23848 0235 04       		.uleb128 .LBE214-.LBB214
 23849 0236 04       		.byte	0x4
 23850 0237 B802     		.uleb128 .LBB222-.LBB214
 23851 0239 B804     		.uleb128 .LBE222-.LBB214
 23852 023b 00       		.byte	0
 23853              	.LLRL120:
 23854 023c 05       		.byte	0x5
 23855 023d 00000000 		.4byte	.LBB215
 23856 0241 04       		.byte	0x4
 23857 0242 00       		.uleb128 .LBB215-.LBB215
 23858 0243 04       		.uleb128 .LBE215-.LBB215
 23859 0244 04       		.byte	0x4
 23860 0245 B802     		.uleb128 .LBB216-.LBB215
 23861 0247 F802     		.uleb128 .LBE216-.LBB215
 23862 0249 04       		.byte	0x4
 23863 024a F802     		.uleb128 .LBB217-.LBB215
 23864 024c B803     		.uleb128 .LBE217-.LBB215
 23865 024e 04       		.byte	0x4
 23866 024f B803     		.uleb128 .LBB218-.LBB215
 23867 0251 F803     		.uleb128 .LBE218-.LBB215
 23868 0253 04       		.byte	0x4
 23869 0254 F803     		.uleb128 .LBB219-.LBB215
 23870 0256 B804     		.uleb128 .LBE219-.LBB215
 23871 0258 00       		.byte	0
 23872              	.LLRL133:
 23873 0259 05       		.byte	0x5
 23874 025a 00000000 		.4byte	.LBB224
 23875 025e 04       		.byte	0x4
 23876 025f 00       		.uleb128 .LBB224-.LBB224
 23877 0260 18       		.uleb128 .LBE224-.LBB224
 23878 0261 04       		.byte	0x4
 23879 0262 1C       		.uleb128 .LBB563-.LBB224
 23880 0263 F80B     		.uleb128 .LBE563-.LBB224
 23881 0265 00       		.byte	0
 23882              	.LLRL135:
 23883 0266 05       		.byte	0x5
 23884 0267 00000000 		.4byte	.LBB225
 23885 026b 04       		.byte	0x4
 23886 026c 00       		.uleb128 .LBB225-.LBB225
 23887 026d 0C       		.uleb128 .LBE225-.LBB225
 23888 026e 04       		.byte	0x4
 23889 026f 54       		.uleb128 .LBB562-.LBB225
 23890 0270 940B     		.uleb128 .LBE562-.LBB225
 23891 0272 00       		.byte	0
 23892              	.LLRL137:
 23893 0273 05       		.byte	0x5
 23894 0274 00000000 		.4byte	.LBB226
 23895 0278 04       		.byte	0x4
 23896 0279 00       		.uleb128 .LBB226-.LBB226
 23897 027a 0C       		.uleb128 .LBE226-.LBB226
 23898 027b 04       		.byte	0x4
 23899 027c 54       		.uleb128 .LBB557-.LBB226
 23900 027d 64       		.uleb128 .LBE557-.LBB226
 23901 027e 04       		.byte	0x4
 23902 027f 68       		.uleb128 .LBB558-.LBB226
 23903 0280 78       		.uleb128 .LBE558-.LBB226
 23904 0281 04       		.byte	0x4
 23905 0282 7C       		.uleb128 .LBB559-.LBB226
 23906 0283 A409     		.uleb128 .LBE559-.LBB226
 23907 0285 04       		.byte	0x4
 23908 0286 A809     		.uleb128 .LBB560-.LBB226
 23909 0288 BC09     		.uleb128 .LBE560-.LBB226
 23910 028a 04       		.byte	0x4
 23911 028b C409     		.uleb128 .LBB561-.LBB226
 23912 028d 900B     		.uleb128 .LBE561-.LBB226
 23913 028f 00       		.byte	0
 23914              	.LLRL139:
 23915 0290 05       		.byte	0x5
 23916 0291 00000000 		.4byte	.LBB227
 23917 0295 04       		.byte	0x4
 23918 0296 00       		.uleb128 .LBB227-.LBB227
 23919 0297 0C       		.uleb128 .LBE227-.LBB227
 23920 0298 04       		.byte	0x4
 23921 0299 D801     		.uleb128 .LBB307-.LBB227
 23922 029b D801     		.uleb128 .LBE307-.LBB227
 23923 029d 04       		.byte	0x4
 23924 029e 8007     		.uleb128 .LBB482-.LBB227
 23925 02a0 8407     		.uleb128 .LBE482-.LBB227
 23926 02a2 04       		.byte	0x4
 23927 02a3 8807     		.uleb128 .LBB484-.LBB227
 23928 02a5 9007     		.uleb128 .LBE484-.LBB227
 23929 02a7 04       		.byte	0x4
 23930 02a8 9407     		.uleb128 .LBB486-.LBB227
 23931 02aa A807     		.uleb128 .LBE486-.LBB227
 23932 02ac 04       		.byte	0x4
 23933 02ad AC07     		.uleb128 .LBB488-.LBB227
 23934 02af B807     		.uleb128 .LBE488-.LBB227
 23935 02b1 04       		.byte	0x4
 23936 02b2 CC07     		.uleb128 .LBB491-.LBB227
 23937 02b4 D007     		.uleb128 .LBE491-.LBB227
 23938 02b6 04       		.byte	0x4
 23939 02b7 D407     		.uleb128 .LBB493-.LBB227
 23940 02b9 D807     		.uleb128 .LBE493-.LBB227
 23941 02bb 04       		.byte	0x4
 23942 02bc DC07     		.uleb128 .LBB495-.LBB227
 23943 02be E407     		.uleb128 .LBE495-.LBB227
 23944 02c0 04       		.byte	0x4
 23945 02c1 E807     		.uleb128 .LBB497-.LBB227
 23946 02c3 EC07     		.uleb128 .LBE497-.LBB227
 23947 02c5 04       		.byte	0x4
 23948 02c6 FC07     		.uleb128 .LBB500-.LBB227
 23949 02c8 8008     		.uleb128 .LBE500-.LBB227
 23950 02ca 04       		.byte	0x4
 23951 02cb 8408     		.uleb128 .LBB502-.LBB227
 23952 02cd 8808     		.uleb128 .LBE502-.LBB227
 23953 02cf 04       		.byte	0x4
 23954 02d0 8C08     		.uleb128 .LBB504-.LBB227
 23955 02d2 9408     		.uleb128 .LBE504-.LBB227
 23956 02d4 04       		.byte	0x4
 23957 02d5 9808     		.uleb128 .LBB505-.LBB227
 23958 02d7 B408     		.uleb128 .LBE505-.LBB227
 23959 02d9 04       		.byte	0x4
 23960 02da B808     		.uleb128 .LBB507-.LBB227
 23961 02dc CC08     		.uleb128 .LBE507-.LBB227
 23962 02de 04       		.byte	0x4
 23963 02df D008     		.uleb128 .LBB509-.LBB227
 23964 02e1 E408     		.uleb128 .LBE509-.LBB227
 23965 02e3 04       		.byte	0x4
 23966 02e4 F808     		.uleb128 .LBB513-.LBB227
 23967 02e6 FC08     		.uleb128 .LBE513-.LBB227
 23968 02e8 04       		.byte	0x4
 23969 02e9 8009     		.uleb128 .LBB515-.LBB227
 23970 02eb 8409     		.uleb128 .LBE515-.LBB227
 23971 02ed 04       		.byte	0x4
 23972 02ee 9009     		.uleb128 .LBB518-.LBB227
 23973 02f0 9409     		.uleb128 .LBE518-.LBB227
 23974 02f2 04       		.byte	0x4
 23975 02f3 A809     		.uleb128 .LBB522-.LBB227
 23976 02f5 AC09     		.uleb128 .LBE522-.LBB227
 23977 02f7 04       		.byte	0x4
 23978 02f8 B009     		.uleb128 .LBB524-.LBB227
 23979 02fa B409     		.uleb128 .LBE524-.LBB227
 23980 02fc 04       		.byte	0x4
 23981 02fd C809     		.uleb128 .LBB527-.LBB227
 23982 02ff CC09     		.uleb128 .LBE527-.LBB227
 23983 0301 04       		.byte	0x4
 23984 0302 D009     		.uleb128 .LBB529-.LBB227
 23985 0304 E009     		.uleb128 .LBE529-.LBB227
 23986 0306 04       		.byte	0x4
 23987 0307 E409     		.uleb128 .LBB531-.LBB227
 23988 0309 E809     		.uleb128 .LBE531-.LBB227
 23989 030b 04       		.byte	0x4
 23990 030c EC09     		.uleb128 .LBB533-.LBB227
 23991 030e 840A     		.uleb128 .LBE533-.LBB227
 23992 0310 04       		.byte	0x4
 23993 0311 B40A     		.uleb128 .LBB537-.LBB227
 23994 0313 B80A     		.uleb128 .LBE537-.LBB227
 23995 0315 04       		.byte	0x4
 23996 0316 C40A     		.uleb128 .LBB539-.LBB227
 23997 0318 D00A     		.uleb128 .LBE539-.LBB227
 23998 031a 04       		.byte	0x4
 23999 031b D40A     		.uleb128 .LBB543-.LBB227
 24000 031d E00A     		.uleb128 .LBE543-.LBB227
 24001 031f 04       		.byte	0x4
 24002 0320 E40A     		.uleb128 .LBB547-.LBB227
 24003 0322 F00A     		.uleb128 .LBE547-.LBB227
 24004 0324 04       		.byte	0x4
 24005 0325 F40A     		.uleb128 .LBB551-.LBB227
 24006 0327 F40A     		.uleb128 .LBE551-.LBB227
 24007 0329 04       		.byte	0x4
 24008 032a F80A     		.uleb128 .LBB553-.LBB227
 24009 032c 800B     		.uleb128 .LBE553-.LBB227
 24010 032e 00       		.byte	0
 24011              	.LLRL144:
 24012 032f 05       		.byte	0x5
 24013 0330 00000000 		.4byte	.LBB259
 24014 0334 04       		.byte	0x4
 24015 0335 00       		.uleb128 .LBB259-.LBB259
 24016 0336 0C       		.uleb128 .LBE259-.LBB259
 24017 0337 04       		.byte	0x4
 24018 0338 10       		.uleb128 .LBB305-.LBB259
 24019 0339 14       		.uleb128 .LBE305-.LBB259
 24020 033a 04       		.byte	0x4
 24021 033b 18       		.uleb128 .LBB306-.LBB259
 24022 033c 1C       		.uleb128 .LBE306-.LBB259
 24023 033d 04       		.byte	0x4
 24024 033e 38       		.uleb128 .LBB308-.LBB259
 24025 033f 3C       		.uleb128 .LBE308-.LBB259
 24026 0340 04       		.byte	0x4
 24027 0341 40       		.uleb128 .LBB309-.LBB259
 24028 0342 44       		.uleb128 .LBE309-.LBB259
 24029 0343 04       		.byte	0x4
 24030 0344 4C       		.uleb128 .LBB310-.LBB259
 24031 0345 50       		.uleb128 .LBE310-.LBB259
 24032 0346 04       		.byte	0x4
 24033 0347 58       		.uleb128 .LBB311-.LBB259
 24034 0348 6C       		.uleb128 .LBE311-.LBB259
 24035 0349 04       		.byte	0x4
 24036 034a 70       		.uleb128 .LBB312-.LBB259
 24037 034b 74       		.uleb128 .LBE312-.LBB259
 24038 034c 04       		.byte	0x4
 24039 034d 8401     		.uleb128 .LBB357-.LBB259
 24040 034f 8801     		.uleb128 .LBE357-.LBB259
 24041 0351 04       		.byte	0x4
 24042 0352 9801     		.uleb128 .LBB358-.LBB259
 24043 0354 9C01     		.uleb128 .LBE358-.LBB259
 24044 0356 04       		.byte	0x4
 24045 0357 A001     		.uleb128 .LBB359-.LBB259
 24046 0359 A401     		.uleb128 .LBE359-.LBB259
 24047 035b 04       		.byte	0x4
 24048 035c B801     		.uleb128 .LBB360-.LBB259
 24049 035e BC01     		.uleb128 .LBE360-.LBB259
 24050 0360 04       		.byte	0x4
 24051 0361 C401     		.uleb128 .LBB362-.LBB259
 24052 0363 C801     		.uleb128 .LBE362-.LBB259
 24053 0365 04       		.byte	0x4
 24054 0366 D401     		.uleb128 .LBB364-.LBB259
 24055 0368 D801     		.uleb128 .LBE364-.LBB259
 24056 036a 04       		.byte	0x4
 24057 036b DC01     		.uleb128 .LBB365-.LBB259
 24058 036d E001     		.uleb128 .LBE365-.LBB259
 24059 036f 04       		.byte	0x4
 24060 0370 F001     		.uleb128 .LBB367-.LBB259
 24061 0372 F401     		.uleb128 .LBE367-.LBB259
 24062 0374 04       		.byte	0x4
 24063 0375 9002     		.uleb128 .LBB416-.LBB259
 24064 0377 9402     		.uleb128 .LBE416-.LBB259
 24065 0379 04       		.byte	0x4
 24066 037a A802     		.uleb128 .LBB419-.LBB259
 24067 037c B002     		.uleb128 .LBE419-.LBB259
 24068 037e 04       		.byte	0x4
 24069 037f B402     		.uleb128 .LBB421-.LBB259
 24070 0381 B802     		.uleb128 .LBE421-.LBB259
 24071 0383 04       		.byte	0x4
 24072 0384 C402     		.uleb128 .LBB424-.LBB259
 24073 0386 CC02     		.uleb128 .LBE424-.LBB259
 24074 0388 04       		.byte	0x4
 24075 0389 D802     		.uleb128 .LBB427-.LBB259
 24076 038b DC02     		.uleb128 .LBE427-.LBB259
 24077 038d 04       		.byte	0x4
 24078 038e E002     		.uleb128 .LBB429-.LBB259
 24079 0390 E402     		.uleb128 .LBE429-.LBB259
 24080 0392 04       		.byte	0x4
 24081 0393 BC03     		.uleb128 .LBB444-.LBB259
 24082 0395 C003     		.uleb128 .LBE444-.LBB259
 24083 0397 04       		.byte	0x4
 24084 0398 CC03     		.uleb128 .LBB447-.LBB259
 24085 039a D403     		.uleb128 .LBE447-.LBB259
 24086 039c 04       		.byte	0x4
 24087 039d D803     		.uleb128 .LBB449-.LBB259
 24088 039f E003     		.uleb128 .LBE449-.LBB259
 24089 03a1 04       		.byte	0x4
 24090 03a2 E803     		.uleb128 .LBB451-.LBB259
 24091 03a4 EC03     		.uleb128 .LBE451-.LBB259
 24092 03a6 04       		.byte	0x4
 24093 03a7 F003     		.uleb128 .LBB453-.LBB259
 24094 03a9 FC03     		.uleb128 .LBE453-.LBB259
 24095 03ab 04       		.byte	0x4
 24096 03ac 8004     		.uleb128 .LBB455-.LBB259
 24097 03ae 8C04     		.uleb128 .LBE455-.LBB259
 24098 03b0 04       		.byte	0x4
 24099 03b1 9004     		.uleb128 .LBB457-.LBB259
 24100 03b3 9C04     		.uleb128 .LBE457-.LBB259
 24101 03b5 04       		.byte	0x4
 24102 03b6 A004     		.uleb128 .LBB459-.LBB259
 24103 03b8 A404     		.uleb128 .LBE459-.LBB259
 24104 03ba 04       		.byte	0x4
 24105 03bb A804     		.uleb128 .LBB461-.LBB259
 24106 03bd AC04     		.uleb128 .LBE461-.LBB259
 24107 03bf 04       		.byte	0x4
 24108 03c0 B804     		.uleb128 .LBB464-.LBB259
 24109 03c2 C004     		.uleb128 .LBE464-.LBB259
 24110 03c4 04       		.byte	0x4
 24111 03c5 C404     		.uleb128 .LBB466-.LBB259
 24112 03c7 CC04     		.uleb128 .LBE466-.LBB259
 24113 03c9 04       		.byte	0x4
 24114 03ca 8405     		.uleb128 .LBB473-.LBB259
 24115 03cc 8805     		.uleb128 .LBE473-.LBB259
 24116 03ce 04       		.byte	0x4
 24117 03cf 8007     		.uleb128 .LBB506-.LBB259
 24118 03d1 8407     		.uleb128 .LBE506-.LBB259
 24119 03d3 04       		.byte	0x4
 24120 03d4 9807     		.uleb128 .LBB508-.LBB259
 24121 03d6 9C07     		.uleb128 .LBE508-.LBB259
 24122 03d8 04       		.byte	0x4
 24123 03d9 B007     		.uleb128 .LBB510-.LBB259
 24124 03db B807     		.uleb128 .LBE510-.LBB259
 24125 03dd 04       		.byte	0x4
 24126 03de C007     		.uleb128 .LBB512-.LBB259
 24127 03e0 C407     		.uleb128 .LBE512-.LBB259
 24128 03e2 04       		.byte	0x4
 24129 03e3 D007     		.uleb128 .LBB516-.LBB259
 24130 03e5 D407     		.uleb128 .LBE516-.LBB259
 24131 03e7 04       		.byte	0x4
 24132 03e8 E007     		.uleb128 .LBB519-.LBB259
 24133 03ea E407     		.uleb128 .LBE519-.LBB259
 24134 03ec 04       		.byte	0x4
 24135 03ed E807     		.uleb128 .LBB521-.LBB259
 24136 03ef EC07     		.uleb128 .LBE521-.LBB259
 24137 03f1 04       		.byte	0x4
 24138 03f2 A009     		.uleb128 .LBB540-.LBB259
 24139 03f4 A009     		.uleb128 .LBE540-.LBB259
 24140 03f6 04       		.byte	0x4
 24141 03f7 B009     		.uleb128 .LBB544-.LBB259
 24142 03f9 B009     		.uleb128 .LBE544-.LBB259
 24143 03fb 04       		.byte	0x4
 24144 03fc C009     		.uleb128 .LBB548-.LBB259
 24145 03fe C009     		.uleb128 .LBE548-.LBB259
 24146 0400 04       		.byte	0x4
 24147 0401 D009     		.uleb128 .LBB554-.LBB259
 24148 0403 D009     		.uleb128 .LBE554-.LBB259
 24149 0405 00       		.byte	0
 24150              	.LLRL149:
 24151 0406 05       		.byte	0x5
 24152 0407 00000000 		.4byte	.LBB313
 24153 040b 04       		.byte	0x4
 24154 040c 00       		.uleb128 .LBB313-.LBB313
 24155 040d 04       		.uleb128 .LBE313-.LBB313
 24156 040e 04       		.byte	0x4
 24157 040f 40       		.uleb128 .LBB361-.LBB313
 24158 0410 44       		.uleb128 .LBE361-.LBB313
 24159 0411 04       		.byte	0x4
 24160 0412 50       		.uleb128 .LBB363-.LBB313
 24161 0413 54       		.uleb128 .LBE363-.LBB313
 24162 0414 04       		.byte	0x4
 24163 0415 68       		.uleb128 .LBB366-.LBB313
 24164 0416 74       		.uleb128 .LBE366-.LBB313
 24165 0417 04       		.byte	0x4
 24166 0418 78       		.uleb128 .LBB368-.LBB313
 24167 0419 8401     		.uleb128 .LBE368-.LBB313
 24168 041b 04       		.byte	0x4
 24169 041c 9801     		.uleb128 .LBB417-.LBB313
 24170 041e A001     		.uleb128 .LBE417-.LBB313
 24171 0420 04       		.byte	0x4
 24172 0421 D001     		.uleb128 .LBB425-.LBB313
 24173 0423 D801     		.uleb128 .LBE425-.LBB313
 24174 0425 04       		.byte	0x4
 24175 0426 F001     		.uleb128 .LBB431-.LBB313
 24176 0428 F401     		.uleb128 .LBE431-.LBB313
 24177 042a 04       		.byte	0x4
 24178 042b FC01     		.uleb128 .LBB433-.LBB313
 24179 042d 8002     		.uleb128 .LBE433-.LBB313
 24180 042f 04       		.byte	0x4
 24181 0430 8402     		.uleb128 .LBB435-.LBB313
 24182 0432 8C02     		.uleb128 .LBE435-.LBB313
 24183 0434 04       		.byte	0x4
 24184 0435 9002     		.uleb128 .LBB437-.LBB313
 24185 0437 9402     		.uleb128 .LBE437-.LBB313
 24186 0439 04       		.byte	0x4
 24187 043a A002     		.uleb128 .LBB439-.LBB313
 24188 043c A402     		.uleb128 .LBE439-.LBB313
 24189 043e 04       		.byte	0x4
 24190 043f AC02     		.uleb128 .LBB441-.LBB313
 24191 0441 B402     		.uleb128 .LBE441-.LBB313
 24192 0443 04       		.byte	0x4
 24193 0444 B802     		.uleb128 .LBB443-.LBB313
 24194 0446 C002     		.uleb128 .LBE443-.LBB313
 24195 0448 04       		.byte	0x4
 24196 0449 C402     		.uleb128 .LBB445-.LBB313
 24197 044b C802     		.uleb128 .LBE445-.LBB313
 24198 044d 04       		.byte	0x4
 24199 044e 8003     		.uleb128 .LBB454-.LBB313
 24200 0450 8403     		.uleb128 .LBE454-.LBB313
 24201 0452 04       		.byte	0x4
 24202 0453 9003     		.uleb128 .LBB456-.LBB313
 24203 0455 9403     		.uleb128 .LBE456-.LBB313
 24204 0457 04       		.byte	0x4
 24205 0458 A003     		.uleb128 .LBB458-.LBB313
 24206 045a A403     		.uleb128 .LBE458-.LBB313
 24207 045c 04       		.byte	0x4
 24208 045d A803     		.uleb128 .LBB460-.LBB313
 24209 045f AC03     		.uleb128 .LBE460-.LBB313
 24210 0461 04       		.byte	0x4
 24211 0462 B803     		.uleb128 .LBB463-.LBB313
 24212 0464 BC03     		.uleb128 .LBE463-.LBB313
 24213 0466 04       		.byte	0x4
 24214 0467 D003     		.uleb128 .LBB467-.LBB313
 24215 0469 DC03     		.uleb128 .LBE467-.LBB313
 24216 046b 04       		.byte	0x4
 24217 046c E403     		.uleb128 .LBB469-.LBB313
 24218 046e E803     		.uleb128 .LBE469-.LBB313
 24219 0470 04       		.byte	0x4
 24220 0471 EC03     		.uleb128 .LBB470-.LBB313
 24221 0473 F003     		.uleb128 .LBE470-.LBB313
 24222 0475 04       		.byte	0x4
 24223 0476 8004     		.uleb128 .LBB472-.LBB313
 24224 0478 8804     		.uleb128 .LBE472-.LBB313
 24225 047a 04       		.byte	0x4
 24226 047b 9004     		.uleb128 .LBB475-.LBB313
 24227 047d A004     		.uleb128 .LBE475-.LBB313
 24228 047f 04       		.byte	0x4
 24229 0480 A404     		.uleb128 .LBB477-.LBB313
 24230 0482 A804     		.uleb128 .LBE477-.LBB313
 24231 0484 04       		.byte	0x4
 24232 0485 AC04     		.uleb128 .LBB479-.LBB313
 24233 0487 B404     		.uleb128 .LBE479-.LBB313
 24234 0489 04       		.byte	0x4
 24235 048a B804     		.uleb128 .LBB481-.LBB313
 24236 048c CC04     		.uleb128 .LBE481-.LBB313
 24237 048e 04       		.byte	0x4
 24238 048f D404     		.uleb128 .LBB483-.LBB313
 24239 0491 D804     		.uleb128 .LBE483-.LBB313
 24240 0493 04       		.byte	0x4
 24241 0494 9005     		.uleb128 .LBB490-.LBB313
 24242 0496 9C05     		.uleb128 .LBE490-.LBB313
 24243 0498 04       		.byte	0x4
 24244 0499 A805     		.uleb128 .LBB494-.LBB313
 24245 049b AC05     		.uleb128 .LBE494-.LBB313
 24246 049d 04       		.byte	0x4
 24247 049e C005     		.uleb128 .LBB499-.LBB313
 24248 04a0 CC05     		.uleb128 .LBE499-.LBB313
 24249 04a2 04       		.byte	0x4
 24250 04a3 CC06     		.uleb128 .LBB514-.LBB313
 24251 04a5 D006     		.uleb128 .LBE514-.LBB313
 24252 04a7 04       		.byte	0x4
 24253 04a8 E806     		.uleb128 .LBB520-.LBB313
 24254 04aa EC06     		.uleb128 .LBE520-.LBB313
 24255 04ac 04       		.byte	0x4
 24256 04ad FC06     		.uleb128 .LBB523-.LBB313
 24257 04af 8007     		.uleb128 .LBE523-.LBB313
 24258 04b1 04       		.byte	0x4
 24259 04b2 8407     		.uleb128 .LBB525-.LBB313
 24260 04b4 8807     		.uleb128 .LBE525-.LBB313
 24261 04b6 04       		.byte	0x4
 24262 04b7 B807     		.uleb128 .LBB532-.LBB313
 24263 04b9 BC07     		.uleb128 .LBE532-.LBB313
 24264 04bb 04       		.byte	0x4
 24265 04bc F407     		.uleb128 .LBB535-.LBB313
 24266 04be F807     		.uleb128 .LBE535-.LBB313
 24267 04c0 04       		.byte	0x4
 24268 04c1 8808     		.uleb128 .LBB538-.LBB313
 24269 04c3 9008     		.uleb128 .LBE538-.LBB313
 24270 04c5 04       		.byte	0x4
 24271 04c6 A408     		.uleb128 .LBB541-.LBB313
 24272 04c8 A408     		.uleb128 .LBE541-.LBB313
 24273 04ca 04       		.byte	0x4
 24274 04cb B408     		.uleb128 .LBB545-.LBB313
 24275 04cd B408     		.uleb128 .LBE545-.LBB313
 24276 04cf 04       		.byte	0x4
 24277 04d0 C408     		.uleb128 .LBB549-.LBB313
 24278 04d2 C408     		.uleb128 .LBE549-.LBB313
 24279 04d4 04       		.byte	0x4
 24280 04d5 D408     		.uleb128 .LBB555-.LBB313
 24281 04d7 D408     		.uleb128 .LBE555-.LBB313
 24282 04d9 00       		.byte	0
 24283              	.LLRL154:
 24284 04da 05       		.byte	0x5
 24285 04db 00000000 		.4byte	.LBB369
 24286 04df 04       		.byte	0x4
 24287 04e0 00       		.uleb128 .LBB369-.LBB369
 24288 04e1 04       		.uleb128 .LBE369-.LBB369
 24289 04e2 04       		.byte	0x4
 24290 04e3 20       		.uleb128 .LBB418-.LBB369
 24291 04e4 28       		.uleb128 .LBE418-.LBB369
 24292 04e5 04       		.byte	0x4
 24293 04e6 30       		.uleb128 .LBB420-.LBB369
 24294 04e7 34       		.uleb128 .LBE420-.LBB369
 24295 04e8 04       		.byte	0x4
 24296 04e9 38       		.uleb128 .LBB422-.LBB369
 24297 04ea 3C       		.uleb128 .LBE422-.LBB369
 24298 04eb 04       		.byte	0x4
 24299 04ec 40       		.uleb128 .LBB423-.LBB369
 24300 04ed 44       		.uleb128 .LBE423-.LBB369
 24301 04ee 04       		.byte	0x4
 24302 04ef 54       		.uleb128 .LBB426-.LBB369
 24303 04f0 58       		.uleb128 .LBE426-.LBB369
 24304 04f1 04       		.byte	0x4
 24305 04f2 5C       		.uleb128 .LBB428-.LBB369
 24306 04f3 60       		.uleb128 .LBE428-.LBB369
 24307 04f4 04       		.byte	0x4
 24308 04f5 68       		.uleb128 .LBB430-.LBB369
 24309 04f6 6C       		.uleb128 .LBE430-.LBB369
 24310 04f7 04       		.byte	0x4
 24311 04f8 74       		.uleb128 .LBB432-.LBB369
 24312 04f9 78       		.uleb128 .LBE432-.LBB369
 24313 04fa 04       		.byte	0x4
 24314 04fb 7C       		.uleb128 .LBB434-.LBB369
 24315 04fc 8001     		.uleb128 .LBE434-.LBB369
 24316 04fe 04       		.byte	0x4
 24317 04ff 8801     		.uleb128 .LBB436-.LBB369
 24318 0501 8C01     		.uleb128 .LBE436-.LBB369
 24319 0503 04       		.byte	0x4
 24320 0504 9001     		.uleb128 .LBB438-.LBB369
 24321 0506 9C01     		.uleb128 .LBE438-.LBB369
 24322 0508 04       		.byte	0x4
 24323 0509 A001     		.uleb128 .LBB440-.LBB369
 24324 050b A801     		.uleb128 .LBE440-.LBB369
 24325 050d 04       		.byte	0x4
 24326 050e B001     		.uleb128 .LBB442-.LBB369
 24327 0510 B401     		.uleb128 .LBE442-.LBB369
 24328 0512 04       		.byte	0x4
 24329 0513 C401     		.uleb128 .LBB446-.LBB369
 24330 0515 CC01     		.uleb128 .LBE446-.LBB369
 24331 0517 04       		.byte	0x4
 24332 0518 D401     		.uleb128 .LBB448-.LBB369
 24333 051a D801     		.uleb128 .LBE448-.LBB369
 24334 051c 04       		.byte	0x4
 24335 051d E001     		.uleb128 .LBB450-.LBB369
 24336 051f E801     		.uleb128 .LBE450-.LBB369
 24337 0521 04       		.byte	0x4
 24338 0522 EC01     		.uleb128 .LBB452-.LBB369
 24339 0524 F001     		.uleb128 .LBE452-.LBB369
 24340 0526 04       		.byte	0x4
 24341 0527 B002     		.uleb128 .LBB462-.LBB369
 24342 0529 B402     		.uleb128 .LBE462-.LBB369
 24343 052b 04       		.byte	0x4
 24344 052c C002     		.uleb128 .LBB465-.LBB369
 24345 052e C402     		.uleb128 .LBE465-.LBB369
 24346 0530 04       		.byte	0x4
 24347 0531 D802     		.uleb128 .LBB468-.LBB369
 24348 0533 E002     		.uleb128 .LBE468-.LBB369
 24349 0535 04       		.byte	0x4
 24350 0536 EC02     		.uleb128 .LBB471-.LBB369
 24351 0538 FC02     		.uleb128 .LBE471-.LBB369
 24352 053a 04       		.byte	0x4
 24353 053b 8803     		.uleb128 .LBB474-.LBB369
 24354 053d 8C03     		.uleb128 .LBE474-.LBB369
 24355 053f 04       		.byte	0x4
 24356 0540 9C03     		.uleb128 .LBB476-.LBB369
 24357 0542 A003     		.uleb128 .LBE476-.LBB369
 24358 0544 04       		.byte	0x4
 24359 0545 A403     		.uleb128 .LBB478-.LBB369
 24360 0547 A803     		.uleb128 .LBE478-.LBB369
 24361 0549 04       		.byte	0x4
 24362 054a B003     		.uleb128 .LBB480-.LBB369
 24363 054c B403     		.uleb128 .LBE480-.LBB369
 24364 054e 04       		.byte	0x4
 24365 054f DC03     		.uleb128 .LBB485-.LBB369
 24366 0551 E003     		.uleb128 .LBE485-.LBB369
 24367 0553 04       		.byte	0x4
 24368 0554 F403     		.uleb128 .LBB487-.LBB369
 24369 0556 F803     		.uleb128 .LBE487-.LBB369
 24370 0558 04       		.byte	0x4
 24371 0559 8404     		.uleb128 .LBB489-.LBB369
 24372 055b 8C04     		.uleb128 .LBE489-.LBB369
 24373 055d 04       		.byte	0x4
 24374 055e 9C04     		.uleb128 .LBB492-.LBB369
 24375 0560 A004     		.uleb128 .LBE492-.LBB369
 24376 0562 04       		.byte	0x4
 24377 0563 B004     		.uleb128 .LBB496-.LBB369
 24378 0565 B404     		.uleb128 .LBE496-.LBB369
 24379 0567 04       		.byte	0x4
 24380 0568 B804     		.uleb128 .LBB498-.LBB369
 24381 056a BC04     		.uleb128 .LBE498-.LBB369
 24382 056c 04       		.byte	0x4
 24383 056d CC04     		.uleb128 .LBB501-.LBB369
 24384 056f D004     		.uleb128 .LBE501-.LBB369
 24385 0571 04       		.byte	0x4
 24386 0572 D404     		.uleb128 .LBB503-.LBB369
 24387 0574 D804     		.uleb128 .LBE503-.LBB369
 24388 0576 04       		.byte	0x4
 24389 0577 B805     		.uleb128 .LBB511-.LBB369
 24390 0579 BC05     		.uleb128 .LBE511-.LBB369
 24391 057b 04       		.byte	0x4
 24392 057c D405     		.uleb128 .LBB517-.LBB369
 24393 057e DC05     		.uleb128 .LBE517-.LBB369
 24394 0580 04       		.byte	0x4
 24395 0581 9006     		.uleb128 .LBB526-.LBB369
 24396 0583 9406     		.uleb128 .LBE526-.LBB369
 24397 0585 04       		.byte	0x4
 24398 0586 9806     		.uleb128 .LBB528-.LBB369
 24399 0588 9C06     		.uleb128 .LBE528-.LBB369
 24400 058a 04       		.byte	0x4
 24401 058b AC06     		.uleb128 .LBB530-.LBB369
 24402 058d B006     		.uleb128 .LBE530-.LBB369
 24403 058f 04       		.byte	0x4
 24404 0590 D006     		.uleb128 .LBB534-.LBB369
 24405 0592 F006     		.uleb128 .LBE534-.LBB369
 24406 0594 04       		.byte	0x4
 24407 0595 F406     		.uleb128 .LBB536-.LBB369
 24408 0597 FC06     		.uleb128 .LBE536-.LBB369
 24409 0599 04       		.byte	0x4
 24410 059a A007     		.uleb128 .LBB542-.LBB369
 24411 059c A007     		.uleb128 .LBE542-.LBB369
 24412 059e 04       		.byte	0x4
 24413 059f B007     		.uleb128 .LBB546-.LBB369
 24414 05a1 B007     		.uleb128 .LBE546-.LBB369
 24415 05a3 04       		.byte	0x4
 24416 05a4 C007     		.uleb128 .LBB550-.LBB369
 24417 05a6 C007     		.uleb128 .LBE550-.LBB369
 24418 05a8 04       		.byte	0x4
 24419 05a9 C007     		.uleb128 .LBB552-.LBB369
 24420 05ab C407     		.uleb128 .LBE552-.LBB369
 24421 05ad 04       		.byte	0x4
 24422 05ae D007     		.uleb128 .LBB556-.LBB369
 24423 05b0 D807     		.uleb128 .LBE556-.LBB369
 24424 05b2 00       		.byte	0
 24425              	.LLRL172:
 24426 05b3 05       		.byte	0x5
 24427 05b4 00000000 		.4byte	.LBB575
 24428 05b8 04       		.byte	0x4
 24429 05b9 00       		.uleb128 .LBB575-.LBB575
 24430 05ba 14       		.uleb128 .LBE575-.LBB575
 24431 05bb 04       		.byte	0x4
 24432 05bc 1C       		.uleb128 .LBB725-.LBB575
 24433 05bd 8409     		.uleb128 .LBE725-.LBB575
 24434 05bf 04       		.byte	0x4
 24435 05c0 B809     		.uleb128 .LBB726-.LBB575
 24436 05c2 B811     		.uleb128 .LBE726-.LBB575
 24437 05c4 00       		.byte	0
 24438              	.LLRL174:
 24439 05c5 05       		.byte	0x5
 24440 05c6 00000000 		.4byte	.LBB576
 24441 05ca 04       		.byte	0x4
 24442 05cb 00       		.uleb128 .LBB576-.LBB576
 24443 05cc BC08     		.uleb128 .LBE576-.LBB576
 24444 05ce 04       		.byte	0x4
 24445 05cf 9009     		.uleb128 .LBB724-.LBB576
 24446 05d1 9011     		.uleb128 .LBE724-.LBB576
 24447 05d3 00       		.byte	0
 24448              	.LLRL176:
 24449 05d4 05       		.byte	0x5
 24450 05d5 00000000 		.4byte	.LBB577
 24451 05d9 04       		.byte	0x4
 24452 05da 00       		.uleb128 .LBB577-.LBB577
 24453 05db 04       		.uleb128 .LBE577-.LBB577
 24454 05dc 04       		.byte	0x4
 24455 05dd 08       		.uleb128 .LBB716-.LBB577
 24456 05de F007     		.uleb128 .LBE716-.LBB577
 24457 05e0 04       		.byte	0x4
 24458 05e1 F407     		.uleb128 .LBB717-.LBB577
 24459 05e3 8C08     		.uleb128 .LBE717-.LBB577
 24460 05e5 04       		.byte	0x4
 24461 05e6 9008     		.uleb128 .LBB718-.LBB577
 24462 05e8 9408     		.uleb128 .LBE718-.LBB577
 24463 05ea 04       		.byte	0x4
 24464 05eb 9808     		.uleb128 .LBB719-.LBB577
 24465 05ed B808     		.uleb128 .LBE719-.LBB577
 24466 05ef 04       		.byte	0x4
 24467 05f0 9009     		.uleb128 .LBB720-.LBB577
 24468 05f2 9009     		.uleb128 .LBE720-.LBB577
 24469 05f4 04       		.byte	0x4
 24470 05f5 9409     		.uleb128 .LBB721-.LBB577
 24471 05f7 9C09     		.uleb128 .LBE721-.LBB577
 24472 05f9 04       		.byte	0x4
 24473 05fa A009     		.uleb128 .LBB722-.LBB577
 24474 05fc BC09     		.uleb128 .LBE722-.LBB577
 24475 05fe 04       		.byte	0x4
 24476 05ff C009     		.uleb128 .LBB723-.LBB577
 24477 0601 9011     		.uleb128 .LBE723-.LBB577
 24478 0603 00       		.byte	0
 24479              	.LLRL178:
 24480 0604 05       		.byte	0x5
 24481 0605 00000000 		.4byte	.LBB578
 24482 0609 04       		.byte	0x4
 24483 060a 00       		.uleb128 .LBB578-.LBB578
 24484 060b 30       		.uleb128 .LBE578-.LBB578
 24485 060c 04       		.byte	0x4
 24486 060d 8C02     		.uleb128 .LBB651-.LBB578
 24487 060f BC02     		.uleb128 .LBE651-.LBB578
 24488 0611 04       		.byte	0x4
 24489 0612 8C04     		.uleb128 .LBB655-.LBB578
 24490 0614 BC04     		.uleb128 .LBE655-.LBB578
 24491 0616 04       		.byte	0x4
 24492 0617 8C06     		.uleb128 .LBB661-.LBB578
 24493 0619 A806     		.uleb128 .LBE661-.LBB578
 24494 061b 04       		.byte	0x4
 24495 061c AC06     		.uleb128 .LBB662-.LBB578
 24496 061e B406     		.uleb128 .LBE662-.LBB578
 24497 0620 04       		.byte	0x4
 24498 0621 BC06     		.uleb128 .LBB663-.LBB578
 24499 0623 C806     		.uleb128 .LBE663-.LBB578
 24500 0625 04       		.byte	0x4
 24501 0626 A809     		.uleb128 .LBB678-.LBB578
 24502 0628 D809     		.uleb128 .LBE678-.LBB578
 24503 062a 04       		.byte	0x4
 24504 062b B40B     		.uleb128 .LBB684-.LBB578
 24505 062d DC0B     		.uleb128 .LBE684-.LBB578
 24506 062f 04       		.byte	0x4
 24507 0630 E40B     		.uleb128 .LBB685-.LBB578
 24508 0632 E80B     		.uleb128 .LBE685-.LBB578
 24509 0634 04       		.byte	0x4
 24510 0635 EC0B     		.uleb128 .LBB686-.LBB578
 24511 0637 F00B     		.uleb128 .LBE686-.LBB578
 24512 0639 04       		.byte	0x4
 24513 063a B40D     		.uleb128 .LBB696-.LBB578
 24514 063c DC0D     		.uleb128 .LBE696-.LBB578
 24515 063e 04       		.byte	0x4
 24516 063f E40D     		.uleb128 .LBB697-.LBB578
 24517 0641 E80D     		.uleb128 .LBE697-.LBB578
 24518 0643 04       		.byte	0x4
 24519 0644 EC0D     		.uleb128 .LBB698-.LBB578
 24520 0646 F00D     		.uleb128 .LBE698-.LBB578
 24521 0648 04       		.byte	0x4
 24522 0649 B40F     		.uleb128 .LBB707-.LBB578
 24523 064b D00F     		.uleb128 .LBE707-.LBB578
 24524 064d 04       		.byte	0x4
 24525 064e D40F     		.uleb128 .LBB708-.LBB578
 24526 0650 DC0F     		.uleb128 .LBE708-.LBB578
 24527 0652 04       		.byte	0x4
 24528 0653 E40F     		.uleb128 .LBB709-.LBB578
 24529 0655 F00F     		.uleb128 .LBE709-.LBB578
 24530 0657 00       		.byte	0
 24531              	.LLRL185:
 24532 0658 05       		.byte	0x5
 24533 0659 00000000 		.4byte	.LBB595
 24534 065d 04       		.byte	0x4
 24535 065e 00       		.uleb128 .LBB595-.LBB595
 24536 065f 30       		.uleb128 .LBE595-.LBB595
 24537 0660 04       		.byte	0x4
 24538 0661 8802     		.uleb128 .LBB652-.LBB595
 24539 0663 B802     		.uleb128 .LBE652-.LBB595
 24540 0665 04       		.byte	0x4
 24541 0666 8804     		.uleb128 .LBB656-.LBB595
 24542 0668 B804     		.uleb128 .LBE656-.LBB595
 24543 066a 04       		.byte	0x4
 24544 066b 8406     		.uleb128 .LBB664-.LBB595
 24545 066d 8806     		.uleb128 .LBE664-.LBB595
 24546 066f 04       		.byte	0x4
 24547 0670 8C06     		.uleb128 .LBB665-.LBB595
 24548 0672 A406     		.uleb128 .LBE665-.LBB595
 24549 0674 04       		.byte	0x4
 24550 0675 A806     		.uleb128 .LBB666-.LBB595
 24551 0677 B006     		.uleb128 .LBE666-.LBB595
 24552 0679 04       		.byte	0x4
 24553 067a B806     		.uleb128 .LBB667-.LBB595
 24554 067c C406     		.uleb128 .LBE667-.LBB595
 24555 067e 04       		.byte	0x4
 24556 067f A809     		.uleb128 .LBB679-.LBB595
 24557 0681 D809     		.uleb128 .LBE679-.LBB595
 24558 0683 04       		.byte	0x4
 24559 0684 B00B     		.uleb128 .LBB687-.LBB595
 24560 0686 D80B     		.uleb128 .LBE687-.LBB595
 24561 0688 04       		.byte	0x4
 24562 0689 E00B     		.uleb128 .LBB688-.LBB595
 24563 068b E40B     		.uleb128 .LBE688-.LBB595
 24564 068d 04       		.byte	0x4
 24565 068e E80B     		.uleb128 .LBB689-.LBB595
 24566 0690 EC0B     		.uleb128 .LBE689-.LBB595
 24567 0692 04       		.byte	0x4
 24568 0693 B00D     		.uleb128 .LBB699-.LBB595
 24569 0695 D80D     		.uleb128 .LBE699-.LBB595
 24570 0697 04       		.byte	0x4
 24571 0698 E00D     		.uleb128 .LBB700-.LBB595
 24572 069a E40D     		.uleb128 .LBE700-.LBB595
 24573 069c 04       		.byte	0x4
 24574 069d E80D     		.uleb128 .LBB701-.LBB595
 24575 069f EC0D     		.uleb128 .LBE701-.LBB595
 24576 06a1 04       		.byte	0x4
 24577 06a2 AC0F     		.uleb128 .LBB710-.LBB595
 24578 06a4 B00F     		.uleb128 .LBE710-.LBB595
 24579 06a6 04       		.byte	0x4
 24580 06a7 B40F     		.uleb128 .LBB711-.LBB595
 24581 06a9 CC0F     		.uleb128 .LBE711-.LBB595
 24582 06ab 04       		.byte	0x4
 24583 06ac D00F     		.uleb128 .LBB712-.LBB595
 24584 06ae D80F     		.uleb128 .LBE712-.LBB595
 24585 06b0 04       		.byte	0x4
 24586 06b1 E00F     		.uleb128 .LBB713-.LBB595
 24587 06b3 EC0F     		.uleb128 .LBE713-.LBB595
 24588 06b5 00       		.byte	0
 24589              	.LLRL192:
 24590 06b6 05       		.byte	0x5
 24591 06b7 00000000 		.4byte	.LBB614
 24592 06bb 04       		.byte	0x4
 24593 06bc 00       		.uleb128 .LBB614-.LBB614
 24594 06bd 30       		.uleb128 .LBE614-.LBB614
 24595 06be 04       		.byte	0x4
 24596 06bf 8402     		.uleb128 .LBB653-.LBB614
 24597 06c1 B402     		.uleb128 .LBE653-.LBB614
 24598 06c3 04       		.byte	0x4
 24599 06c4 8404     		.uleb128 .LBB657-.LBB614
 24600 06c6 B404     		.uleb128 .LBE657-.LBB614
 24601 06c8 04       		.byte	0x4
 24602 06c9 8006     		.uleb128 .LBB668-.LBB614
 24603 06cb 8406     		.uleb128 .LBE668-.LBB614
 24604 06cd 04       		.byte	0x4
 24605 06ce 8806     		.uleb128 .LBB669-.LBB614
 24606 06d0 B406     		.uleb128 .LBE669-.LBB614
 24607 06d2 04       		.byte	0x4
 24608 06d3 A809     		.uleb128 .LBB680-.LBB614
 24609 06d5 D809     		.uleb128 .LBE680-.LBB614
 24610 06d7 04       		.byte	0x4
 24611 06d8 AC0B     		.uleb128 .LBB690-.LBB614
 24612 06da D40B     		.uleb128 .LBE690-.LBB614
 24613 06dc 04       		.byte	0x4
 24614 06dd DC0B     		.uleb128 .LBB691-.LBB614
 24615 06df E00B     		.uleb128 .LBE691-.LBB614
 24616 06e1 04       		.byte	0x4
 24617 06e2 E40B     		.uleb128 .LBB692-.LBB614
 24618 06e4 E80B     		.uleb128 .LBE692-.LBB614
 24619 06e6 04       		.byte	0x4
 24620 06e7 AC0D     		.uleb128 .LBB702-.LBB614
 24621 06e9 D40D     		.uleb128 .LBE702-.LBB614
 24622 06eb 04       		.byte	0x4
 24623 06ec DC0D     		.uleb128 .LBB703-.LBB614
 24624 06ee E00D     		.uleb128 .LBE703-.LBB614
 24625 06f0 04       		.byte	0x4
 24626 06f1 E40D     		.uleb128 .LBB704-.LBB614
 24627 06f3 E80D     		.uleb128 .LBE704-.LBB614
 24628 06f5 04       		.byte	0x4
 24629 06f6 A80F     		.uleb128 .LBB714-.LBB614
 24630 06f8 AC0F     		.uleb128 .LBE714-.LBB614
 24631 06fa 04       		.byte	0x4
 24632 06fb B00F     		.uleb128 .LBB715-.LBB614
 24633 06fd E00F     		.uleb128 .LBE715-.LBB614
 24634 06ff 00       		.byte	0
 24635              	.LLRL199:
 24636 0700 05       		.byte	0x5
 24637 0701 00000000 		.4byte	.LBB629
 24638 0705 04       		.byte	0x4
 24639 0706 00       		.uleb128 .LBB629-.LBB629
 24640 0707 30       		.uleb128 .LBE629-.LBB629
 24641 0708 04       		.byte	0x4
 24642 0709 8002     		.uleb128 .LBB654-.LBB629
 24643 070b B002     		.uleb128 .LBE654-.LBB629
 24644 070d 04       		.byte	0x4
 24645 070e 8004     		.uleb128 .LBB658-.LBB629
 24646 0710 A804     		.uleb128 .LBE658-.LBB629
 24647 0712 04       		.byte	0x4
 24648 0713 AC04     		.uleb128 .LBB659-.LBB629
 24649 0715 B004     		.uleb128 .LBE659-.LBB629
 24650 0717 04       		.byte	0x4
 24651 0718 B404     		.uleb128 .LBB660-.LBB629
 24652 071a B804     		.uleb128 .LBE660-.LBB629
 24653 071c 04       		.byte	0x4
 24654 071d 8406     		.uleb128 .LBB670-.LBB629
 24655 071f 9806     		.uleb128 .LBE670-.LBB629
 24656 0721 04       		.byte	0x4
 24657 0722 9C06     		.uleb128 .LBB671-.LBB629
 24658 0724 A006     		.uleb128 .LBE671-.LBB629
 24659 0726 04       		.byte	0x4
 24660 0727 A406     		.uleb128 .LBB672-.LBB629
 24661 0729 B806     		.uleb128 .LBE672-.LBB629
 24662 072b 04       		.byte	0x4
 24663 072c BC06     		.uleb128 .LBB673-.LBB629
 24664 072e C006     		.uleb128 .LBE673-.LBB629
 24665 0730 04       		.byte	0x4
 24666 0731 9C07     		.uleb128 .LBB674-.LBB629
 24667 0733 9C07     		.uleb128 .LBE674-.LBB629
 24668 0735 04       		.byte	0x4
 24669 0736 A007     		.uleb128 .LBB675-.LBB629
 24670 0738 A807     		.uleb128 .LBE675-.LBB629
 24671 073a 04       		.byte	0x4
 24672 073b AC07     		.uleb128 .LBB676-.LBB629
 24673 073d BC07     		.uleb128 .LBE676-.LBB629
 24674 073f 04       		.byte	0x4
 24675 0740 C007     		.uleb128 .LBB677-.LBB629
 24676 0742 C407     		.uleb128 .LBE677-.LBB629
 24677 0744 04       		.byte	0x4
 24678 0745 A809     		.uleb128 .LBB681-.LBB629
 24679 0747 D009     		.uleb128 .LBE681-.LBB629
 24680 0749 04       		.byte	0x4
 24681 074a D809     		.uleb128 .LBB682-.LBB629
 24682 074c DC09     		.uleb128 .LBE682-.LBB629
 24683 074e 04       		.byte	0x4
 24684 074f E009     		.uleb128 .LBB683-.LBB629
 24685 0751 E409     		.uleb128 .LBE683-.LBB629
 24686 0753 04       		.byte	0x4
 24687 0754 A80B     		.uleb128 .LBB693-.LBB629
 24688 0756 D00B     		.uleb128 .LBE693-.LBB629
 24689 0758 04       		.byte	0x4
 24690 0759 D80B     		.uleb128 .LBB694-.LBB629
 24691 075b DC0B     		.uleb128 .LBE694-.LBB629
 24692 075d 04       		.byte	0x4
 24693 075e E00B     		.uleb128 .LBB695-.LBB629
 24694 0760 E40B     		.uleb128 .LBE695-.LBB629
 24695 0762 04       		.byte	0x4
 24696 0763 A80D     		.uleb128 .LBB705-.LBB629
 24697 0765 D40D     		.uleb128 .LBE705-.LBB629
 24698 0767 04       		.byte	0x4
 24699 0768 D80D     		.uleb128 .LBB706-.LBB629
 24700 076a DC0D     		.uleb128 .LBE706-.LBB629
 24701 076c 00       		.byte	0
 24702              	.LLRL206:
 24703 076d 07       		.byte	0x7
 24704 076e 00000000 		.4byte	.LFB65
 24705 0772 04       		.uleb128 .LFE65-.LFB65
 24706 0773 07       		.byte	0x7
 24707 0774 00000000 		.4byte	.LFB67
 24708 0778 08       		.uleb128 .LFE67-.LFB67
 24709 0779 07       		.byte	0x7
 24710 077a 00000000 		.4byte	.LFB62
 24711 077e 10       		.uleb128 .LFE62-.LFB62
 24712 077f 07       		.byte	0x7
 24713 0780 00000000 		.4byte	.LFB68
 24714 0784 B40A     		.uleb128 .LFE68-.LFB68
 24715 0786 07       		.byte	0x7
 24716 0787 00000000 		.4byte	.LFB69
 24717 078b E406     		.uleb128 .LFE69-.LFB69
 24718 078d 07       		.byte	0x7
 24719 078e 00000000 		.4byte	.LFB70
 24720 0792 10       		.uleb128 .LFE70-.LFB70
 24721 0793 07       		.byte	0x7
 24722 0794 00000000 		.4byte	.LFB71
 24723 0798 E409     		.uleb128 .LFE71-.LFB71
 24724 079a 07       		.byte	0x7
 24725 079b 00000000 		.4byte	.LFB72
 24726 079f 08       		.uleb128 .LFE72-.LFB72
 24727 07a0 07       		.byte	0x7
 24728 07a1 00000000 		.4byte	.LFB73
 24729 07a5 D804     		.uleb128 .LFE73-.LFB73
 24730 07a7 07       		.byte	0x7
 24731 07a8 00000000 		.4byte	.LFB74
 24732 07ac B808     		.uleb128 .LFE74-.LFB74
 24733 07ae 07       		.byte	0x7
 24734 07af 00000000 		.4byte	.LFB75
 24735 07b3 4C       		.uleb128 .LFE75-.LFB75
 24736 07b4 07       		.byte	0x7
 24737 07b5 00000000 		.4byte	.LFB76
 24738 07b9 840D     		.uleb128 .LFE76-.LFB76
 24739 07bb 07       		.byte	0x7
 24740 07bc 00000000 		.4byte	.LFB77
 24741 07c0 5C       		.uleb128 .LFE77-.LFB77
 24742 07c1 07       		.byte	0x7
 24743 07c2 00000000 		.4byte	.LFB78
 24744 07c6 8812     		.uleb128 .LFE78-.LFB78
 24745 07c8 00       		.byte	0
 24746              	.Ldebug_ranges3:
 24747              		.section	.debug_line,"",@progbits
 24748              	.Ldebug_line0:
 24749 0000 00002F0E 		.section	.debug_str,"MS",@progbits,1
 24749      00030000 
 24749      01FF0401 
 24749      FB0E0D00 
 24749      01010101 
 24750              	.LASF37:
 24751 0000 636F6E76 		.string	"convertRGBAToIA4"
 24751      65727452 
 24751      47424154 
 24751      6F494134 
 24751      00
 24752              	.LASF25:
 24753 0011 636F6E76 		.string	"convertBufferToI8"
 24753      65727442 
 24753      75666665 
 24753      72546F49 
 24753      3800
 24754              	.LASF72:
 24755 0023 6465636C 		.string	"decltype(nullptr)"
 24755      74797065 
 24755      286E756C 
 24755      6C707472 
 24755      2900
 24756              	.LASF38:
 24757 0035 5F5A4E31 		.string	"_ZN11Metaphrasis16convertRGBAToIA4Ej"
 24757      314D6574 
 24757      61706872 
 24757      61736973 
 24757      3136636F 
 24758              	.LASF63:
 24759 005a 5F5A4E31 		.string	"_ZN11MetaphrasisD2Ev"
 24759      314D6574 
 24759      61706872 
 24759      61736973 
 24759      44324576 
 24760              	.LASF74:
 24761 006f 5F767074 		.string	"_vptr.Metaphrasis"
 24761      722E4D65 
 24761      74617068 
 24761      72617369 
 24761      7300
 24762              	.LASF18:
 24763 0081 73697A65 		.string	"size_t"
 24763      5F7400
 24764              	.LASF79:
 24765 0088 4443466C 		.string	"DCFlushRange"
 24765      75736852 
 24765      616E6765 
 24765      00
 24766              	.LASF51:
 24767 0095 636F6C6F 		.string	"color"
 24767      7200
 24768              	.LASF30:
 24769 009b 5F5A4E31 		.string	"_ZN11Metaphrasis18convertBufferToIA8EPjtt"
 24769      314D6574 
 24769      61706872 
 24769      61736973 
 24769      3138636F 
 24770              	.LASF9:
 24771 00c5 6C6F6E67 		.string	"long long int"
 24771      206C6F6E 
 24771      6720696E 
 24771      7400
 24772              	.LASF8:
 24773 00d3 5F5F7569 		.string	"__uint32_t"
 24773      6E743332 
 24773      5F7400
 24774              	.LASF32:
 24775 00de 5F5A4E31 		.string	"_ZN11Metaphrasis20convertBufferToRGBA8EPjtt"
 24775      314D6574 
 24775      61706872 
 24775      61736973 
 24775      3230636F 
 24776              	.LASF71:
 24777 010a 463A5C47 		.string	"F:\\GameModding\\MarioKartWii\\Mods\\Distro\\RetroRewind6\\dev\\Launcher\\RRLauncher\\lau
 24777      616D654D 
 24777      6F646469 
 24777      6E675C4D 
 24777      6172696F 
 24778              	.LASF7:
 24779 0166 5F5F7569 		.string	"__uint16_t"
 24779      6E743136 
 24779      5F7400
 24780              	.LASF73:
 24781 0171 5F5A4E31 		.string	"_ZN11MetaphrasisC4ERKS_"
 24781      314D6574 
 24781      61706872 
 24781      61736973 
 24781      43344552 
 24782              	.LASF67:
 24783 0189 5F5F6275 		.string	"__builtin_memset"
 24783      696C7469 
 24783      6E5F6D65 
 24783      6D736574 
 24783      00
 24784              	.LASF10:
 24785 019a 75696E74 		.string	"uint8_t"
 24785      385F7400 
 24786              	.LASF12:
 24787 01a2 75696E74 		.string	"uint32_t"
 24787      33325F74 
 24787      00
 24788              	.LASF16:
 24789 01ab 626F6F6C 		.string	"bool"
 24789      00
 24790              	.LASF62:
 24791 01b0 5F5A4E31 		.string	"_ZN11MetaphrasisD0Ev"
 24791      314D6574 
 24791      61706872 
 24791      61736973 
 24791      44304576 
 24792              	.LASF5:
 24793 01c5 73686F72 		.string	"short int"
 24793      7420696E 
 24793      7400
 24794              	.LASF13:
 24795 01cf 666C6F61 		.string	"float"
 24795      7400
 24796              	.LASF59:
 24797 01d5 64617461 		.string	"dataBufferI4"
 24797      42756666 
 24797      65724934 
 24797      00
 24798              	.LASF36:
 24799 01e2 5F5A4E31 		.string	"_ZN11Metaphrasis21convertBufferToRGB5A3EPjtt"
 24799      314D6574 
 24799      61706872 
 24799      61736973 
 24799      3231636F 
 24800              	.LASF22:
 24801 020f 636F6E76 		.string	"convertBufferToI4"
 24801      65727442 
 24801      75666665 
 24801      72546F49 
 24801      3400
 24802              	.LASF35:
 24803 0221 5F5A4E31 		.string	"_ZN11Metaphrasis21convertBufferToRGB565EPjtt"
 24803      314D6574 
 24803      61706872 
 24803      61736973 
 24803      3231636F 
 24804              	.LASF53:
 24805 024e 72676261 		.string	"rgba"
 24805      00
 24806              	.LASF49:
 24807 0253 64617461 		.string	"dataBufferRGB5A3"
 24807      42756666 
 24807      65725247 
 24807      42354133 
 24807      00
 24808              	.LASF54:
 24809 0264 64617461 		.string	"dataBufferRGBA8"
 24809      42756666 
 24809      65725247 
 24809      42413800 
 24810              	.LASF20:
 24811 0274 6C6F6E67 		.string	"long int"
 24811      20696E74 
 24811      00
 24812              	.LASF26:
 24813 027d 5F5A4E31 		.string	"_ZN11Metaphrasis17convertBufferToI8EPjtt"
 24813      314D6574 
 24813      61706872 
 24813      61736973 
 24813      3137636F 
 24814              	.LASF6:
 24815 02a6 5F5F7569 		.string	"__uint8_t"
 24815      6E74385F 
 24815      7400
 24816              	.LASF55:
 24817 02b0 626C6F63 		.string	"block"
 24817      6B00
 24818              	.LASF52:
 24819 02b6 64617461 		.string	"dataBufferRGB565"
 24819      42756666 
 24819      65725247 
 24819      42353635 
 24819      00
 24820              	.LASF34:
 24821 02c7 636F6E76 		.string	"convertBufferToRGB5A3"
 24821      65727442 
 24821      75666665 
 24821      72546F52 
 24821      47423541 
 24822              	.LASF46:
 24823 02dd 62756666 		.string	"bufferWidth"
 24823      65725769 
 24823      64746800 
 24824              	.LASF19:
 24825 02e9 6C6F6E67 		.string	"long double"
 24825      20646F75 
 24825      626C6500 
 24826              	.LASF3:
 24827 02f5 756E7369 		.string	"unsigned char"
 24827      676E6564 
 24827      20636861 
 24827      7200
 24828              	.LASF77:
 24829 0303 636F6E76 		.string	"convertRGBAToRGB5A3"
 24829      65727452 
 24829      47424154 
 24829      6F524742 
 24829      35413300 
 24830              	.LASF33:
 24831 0317 636F6E76 		.string	"convertBufferToRGB565"
 24831      65727442 
 24831      75666665 
 24831      72546F52 
 24831      47423536 
 24832              	.LASF4:
 24833 032d 7369676E 		.string	"signed char"
 24833      65642063 
 24833      68617200 
 24834              	.LASF31:
 24835 0339 636F6E76 		.string	"convertBufferToRGBA8"
 24835      65727442 
 24835      75666665 
 24835      72546F52 
 24835      47424138 
 24836              	.LASF1:
 24837 034e 6C6F6E67 		.string	"long long unsigned int"
 24837      206C6F6E 
 24837      6720756E 
 24837      7369676E 
 24837      65642069 
 24838              	.LASF50:
 24839 0365 726F7773 		.string	"rows"
 24839      00
 24840              	.LASF11:
 24841 036a 75696E74 		.string	"uint16_t"
 24841      31365F74 
 24841      00
 24842              	.LASF27:
 24843 0373 636F6E76 		.string	"convertBufferToIA4"
 24843      65727442 
 24843      75666665 
 24843      72546F49 
 24843      413400
 24844              	.LASF23:
 24845 0386 5F5A4E31 		.string	"_ZN11MetaphrasisC4Ev"
 24845      314D6574 
 24845      61706872 
 24845      61736973 
 24845      43344576 
 24846              	.LASF17:
 24847 039b 6C6F6E67 		.string	"long unsigned int"
 24847      20756E73 
 24847      69676E65 
 24847      6420696E 
 24847      7400
 24848              	.LASF41:
 24849 03ad 636F6E76 		.string	"convertRGBAToRGB565"
 24849      65727452 
 24849      47424154 
 24849      6F524742 
 24849      35363500 
 24850              	.LASF29:
 24851 03c1 636F6E76 		.string	"convertBufferToIA8"
 24851      65727442 
 24851      75666665 
 24851      72546F49 
 24851      413800
 24852              	.LASF40:
 24853 03d4 5F5A4E31 		.string	"_ZN11Metaphrasis16convertRGBAToIA8Ej"
 24853      314D6574 
 24853      61706872 
 24853      61736973 
 24853      3136636F 
 24854              	.LASF2:
 24855 03f9 73686F72 		.string	"short unsigned int"
 24855      7420756E 
 24855      7369676E 
 24855      65642069 
 24855      6E7400
 24856              	.LASF70:
 24857 040c 463A2F47 		.string	"F:/GameModding/MarioKartWii/Mods/Distro/RetroRewind6/dev/Launcher/RRLauncher/launcher/lib
 24857      616D654D 
 24857      6F646469 
 24857      6E672F4D 
 24857      6172696F 
 24858              	.LASF21:
 24859 0480 4D657461 		.string	"Metaphrasis"
 24859      70687261 
 24859      73697300 
 24860              	.LASF15:
 24861 048c 63686172 		.string	"char"
 24861      00
 24862              	.LASF28:
 24863 0491 5F5A4E31 		.string	"_ZN11Metaphrasis18convertBufferToIA4EPjtt"
 24863      314D6574 
 24863      61706872 
 24863      61736973 
 24863      3138636F 
 24864              	.LASF45:
 24865 04bb 72676261 		.string	"rgbaBuffer"
 24865      42756666 
 24865      657200
 24866              	.LASF66:
 24867 04c6 5F5A646C 		.string	"_ZdlPvj"
 24867      50766A00 
 24868              	.LASF61:
 24869 04ce 5F5F696E 		.string	"__in_chrg"
 24869      5F636872 
 24869      6700
 24870              	.LASF60:
 24871 04d8 74686973 		.string	"this"
 24871      00
 24872              	.LASF57:
 24873 04dd 64617461 		.string	"dataBufferIA4"
 24873      42756666 
 24873      65724941 
 24873      3400
 24874              	.LASF56:
 24875 04eb 64617461 		.string	"dataBufferIA8"
 24875      42756666 
 24875      65724941 
 24875      3800
 24876              	.LASF65:
 24877 04f9 5F5A4E31 		.string	"_ZN11Metaphrasis19convertRGBAToRGB5A3Ej"
 24877      314D6574 
 24877      61706872 
 24877      61736973 
 24877      3139636F 
 24878              	.LASF78:
 24879 0521 5F5F7674 		.string	"__vtbl_ptr_type"
 24879      626C5F70 
 24879      74725F74 
 24879      79706500 
 24880              	.LASF42:
 24881 0531 5F5A4E31 		.string	"_ZN11Metaphrasis19convertRGBAToRGB565Ej"
 24881      314D6574 
 24881      61706872 
 24881      61736973 
 24881      3139636F 
 24882              	.LASF68:
 24883 0559 6F706572 		.string	"operator delete"
 24883      61746F72 
 24883      2064656C 
 24883      65746500 
 24884              	.LASF64:
 24885 0569 5F5A4E31 		.string	"_ZN11MetaphrasisC2Ev"
 24885      314D6574 
 24885      61706872 
 24885      61736973 
 24885      43324576 
 24886              	.LASF69:
 24887 057e 474E5520 		.string	"GNU C++17 13.1.0 -mcall-sysv -mrvl -mcpu=750 -meabi -mhard-float -g -O2 -O3 -fdata-sectio
 24887      432B2B31 
 24887      37203133 
 24887      2E312E30 
 24887      202D6D63 
 24888              	.LASF48:
 24889 05ee 62756666 		.string	"bufferSize"
 24889      65725369 
 24889      7A6500
 24890              	.LASF76:
 24891 05f9 5F5A4E31 		.string	"_ZN11MetaphrasisD4Ev"
 24891      314D6574 
 24891      61706872 
 24891      61736973 
 24891      44344576 
 24892              	.LASF43:
 24893 060e 6D656D73 		.string	"memset"
 24893      657400
 24894              	.LASF75:
 24895 0615 7E4D6574 		.string	"~Metaphrasis"
 24895      61706872 
 24895      61736973 
 24895      00
 24896              	.LASF39:
 24897 0622 636F6E76 		.string	"convertRGBAToIA8"
 24897      65727452 
 24897      47424154 
 24897      6F494138 
 24897      00
 24898              	.LASF14:
 24899 0633 646F7562 		.string	"double"
 24899      6C6500
 24900              	.LASF58:
 24901 063a 64617461 		.string	"dataBufferI8"
 24901      42756666 
 24901      65724938 
 24901      00
 24902              	.LASF0:
 24903 0647 756E7369 		.string	"unsigned int"
 24903      676E6564 
 24903      20696E74 
 24903      00
 24904              	.LASF24:
 24905 0654 5F5A4E31 		.string	"_ZN11Metaphrasis17convertBufferToI4EPjtt"
 24905      314D6574 
 24905      61706872 
 24905      61736973 
 24905      3137636F 
 24906              	.LASF47:
 24907 067d 62756666 		.string	"bufferHeight"
 24907      65724865 
 24907      69676874 
 24907      00
 24908              	.LASF44:
 24909 068a 6D656D61 		.string	"memalign"
 24909      6C69676E 
 24909      00
 24910              		.ident	"GCC: (devkitPPC release 45.2) 13.1.0"
