   1              		.file	"ssl.cpp"
   2              		.machine ppc
   3              		.section	".text"
   4              	.Ltext0:
   5              		.file 1 "F:/GameModding/MarioKartWii/Mods/Distro/RetroRewind6/dev/Launcher/RRLauncher/launcher/sou
   6              		.section	.text._ZN3SSLC2EPKc,"ax",@progbits
   7              		.align 2
   8              		.globl _ZN3SSLC2EPKc
   9              		.type	_ZN3SSLC2EPKc, @function
  10              	_ZN3SSLC2EPKc:
  11              	.LVL0:
  12              	.LFB84:
  13              		.loc 1 31 1 view -0
  14              		.cfi_startproc
  15              	.LBB2:
  16              		.loc 1 33 2 view .LVU1
  17              	.LBE2:
  18              		.loc 1 31 1 is_stmt 0 view .LVU2
  19 0000 9421FFD8 		stwu 1,-40(1)
  20              		.cfi_def_cfa_offset 40
  21 0004 7C0802A6 		mflr 0
  22 0008 93C10020 		stw 30,32(1)
  23              		.cfi_register 65, 0
  24              		.cfi_offset 30, -8
  25              	.LBB9:
  26              		.loc 1 33 16 view .LVU3
  27 000c 3FC00000 		lis 30,_ZL9__ssl_hid@ha
  28              		.loc 1 33 2 view .LVU4
  29 0010 813E0000 		lwz 9,_ZL9__ssl_hid@l(30)
  30              	.LBE9:
  31              		.loc 1 31 1 view .LVU5
  32 0014 93A1001C 		stw 29,28(1)
  33              		.cfi_offset 29, -12
  34 0018 7C9D2378 		mr 29,4
  35              	.LBB10:
  36              		.loc 1 33 2 view .LVU6
  37 001c 2C090000 		cmpwi 0,9,0
  38              	.LBE10:
  39              		.loc 1 31 1 view .LVU7
  40 0020 93E10024 		stw 31,36(1)
  41 0024 9001002C 		stw 0,44(1)
  42              		.cfi_offset 31, -4
  43              		.cfi_offset 65, 4
  44              		.loc 1 31 1 view .LVU8
  45 0028 7C7F1B78 		mr 31,3
  46              	.LBB11:
  47              		.loc 1 33 2 view .LVU9
  48 002c 41800110 		blt- 0,.L16
  49              	.LVL1:
  50              	.L2:
  51              		.loc 1 37 2 is_stmt 1 view .LVU10
  52              		.loc 1 37 34 is_stmt 0 view .LVU11
  53 0030 393F001F 		addi 9,31,31
  54              		.loc 1 42 21 view .LVU12
  55 0034 38A00000 		li 5,0
  56              		.loc 1 37 38 view .LVU13
  57 0038 55290034 		rlwinm 9,9,0,0,26
  58              		.loc 1 42 21 view .LVU14
  59 003c 38800001 		li 4,1
  60              		.loc 1 39 23 view .LVU15
  61 0040 39090020 		addi 8,9,32
  62              		.loc 1 40 22 view .LVU16
  63 0044 39490040 		addi 10,9,64
  64              		.loc 1 37 7 view .LVU17
  65 0048 913F0160 		stw 9,352(31)
  66              		.loc 1 38 2 is_stmt 1 view .LVU18
  67              		.loc 1 42 21 is_stmt 0 view .LVU19
  68 004c 38600002 		li 3,2
  69              		.loc 1 38 8 view .LVU20
  70 0050 913F0164 		stw 9,356(31)
  71              		.loc 1 39 2 is_stmt 1 view .LVU21
  72              		.loc 1 39 9 is_stmt 0 view .LVU22
  73 0054 911F0168 		stw 8,360(31)
  74              		.loc 1 40 2 is_stmt 1 view .LVU23
  75              		.loc 1 40 14 is_stmt 0 view .LVU24
  76 0058 915F016C 		stw 10,364(31)
  77              		.loc 1 42 2 is_stmt 1 view .LVU25
  78              		.loc 1 42 21 is_stmt 0 view .LVU26
  79 005c 48000001 		bl net_socket
  80              	.LVL2:
  81              	.LBB3:
  82              		.loc 1 43 2 view .LVU27
  83 0060 2C030000 		cmpwi 0,3,0
  84              	.LBE3:
  85              		.loc 1 42 9 discriminator 1 view .LVU28
  86 0064 907F0170 		stw 3,368(31)
  87              		.loc 1 43 2 is_stmt 1 view .LVU29
  88              	.LBB6:
  89 0068 4080002C 		bge- 0,.L17
  90              	.L3:
  91              	.LBE6:
  92              		.loc 1 66 2 view .LVU30
  93              		.loc 1 66 17 is_stmt 0 view .LVU31
  94 006c 813F016C 		lwz 9,364(31)
  95 0070 3940FFFF 		li 10,-1
  96              	.LBE11:
  97              		.loc 1 67 1 view .LVU32
  98 0074 8001002C 		lwz 0,44(1)
  99              	.LBB12:
 100              		.loc 1 66 17 view .LVU33
 101 0078 91490000 		stw 10,0(9)
 102              	.LBE12:
 103              		.loc 1 67 1 view .LVU34
 104 007c 83A1001C 		lwz 29,28(1)
 105              	.LVL3:
 106              		.loc 1 67 1 view .LVU35
 107 0080 7C0803A6 		mtlr 0
 108              		.cfi_remember_state
 109              		.cfi_restore 65
 110 0084 83C10020 		lwz 30,32(1)
 111 0088 83E10024 		lwz 31,36(1)
 112              	.LVL4:
 113              		.loc 1 67 1 view .LVU36
 114 008c 38210028 		addi 1,1,40
 115              		.cfi_restore 31
 116              		.cfi_restore 30
 117              		.cfi_restore 29
 118              		.cfi_def_cfa_offset 0
 119 0090 4E800020 		blr
 120              	.LVL5:
 121              	.L17:
 122              		.cfi_restore_state
 123              	.LBB13:
 124              	.LBB7:
 125              	.LBB4:
 126              		.loc 1 45 3 is_stmt 1 view .LVU37
 127              		.loc 1 46 3 view .LVU38
 128              		.loc 1 48 3 view .LVU39
 129              		.loc 1 50 3 is_stmt 0 view .LVU40
 130 0094 811F0160 		lwz 8,352(31)
 131              		.loc 1 50 13 view .LVU41
 132 0098 38E00000 		li 7,0
 133              		.loc 1 48 20 view .LVU42
 134 009c 39400002 		li 10,2
 135              		.loc 1 49 18 view .LVU43
 136 00a0 392001BB 		li 9,443
 137              		.loc 1 50 13 view .LVU44
 138 00a4 98E800FF 		stb 7,255(8)
 139              		.loc 1 51 10 view .LVU45
 140 00a8 38A000FF 		li 5,255
 141 00ac 7FA4EB78 		mr 4,29
 142              		.loc 1 48 20 view .LVU46
 143 00b0 99410009 		stb 10,9(1)
 144              		.loc 1 49 3 is_stmt 1 view .LVU47
 145              		.loc 1 51 10 is_stmt 0 view .LVU48
 146 00b4 807F0160 		lwz 3,352(31)
 147              		.loc 1 49 18 view .LVU49
 148 00b8 B121000A 		sth 9,10(1)
 149              		.loc 1 50 3 is_stmt 1 view .LVU50
 150              		.loc 1 51 3 view .LVU51
 151              		.loc 1 51 10 is_stmt 0 view .LVU52
 152 00bc 48000001 		bl strncpy
 153              	.LVL6:
 154              		.loc 1 53 3 is_stmt 1 view .LVU53
 155              		.loc 1 53 29 is_stmt 0 view .LVU54
 156 00c0 7FA3EB78 		mr 3,29
 157 00c4 48000001 		bl net_gethostbyname
 158              	.LVL7:
 159              		.loc 1 54 3 is_stmt 1 view .LVU55
 160 00c8 2C030000 		cmpwi 0,3,0
 161              		.loc 1 54 3 is_stmt 0 view .LVU56
 162 00cc 41820018 		beq- 0,.L4
 163              		.loc 1 54 68 discriminator 1 view .LVU57
 164 00d0 81430008 		lwz 10,8(3)
 165 00d4 3D200002 		lis 9,0x2
 166 00d8 61290004 		ori 9,9,0x4
 167 00dc 7C0A4800 		cmpw 0,10,9
 168 00e0 41820070 		beq- 0,.L18
 169              	.L4:
 170              		.loc 1 55 4 is_stmt 1 view .LVU58
 171              		.loc 1 55 26 is_stmt 0 view .LVU59
 172 00e4 39200000 		li 9,0
 173 00e8 9121000C 		stw 9,12(1)
 174              	.LVL8:
 175              	.L6:
 176              		.loc 1 59 3 is_stmt 1 view .LVU60
 177              		.loc 1 59 18 is_stmt 0 view .LVU61
 178 00ec 807F0170 		lwz 3,368(31)
 179 00f0 38A00010 		li 5,16
 180 00f4 38810008 		addi 4,1,8
 181 00f8 48000001 		bl net_connect
 182              	.LVL9:
 183              		.loc 1 59 3 discriminator 1 view .LVU62
 184 00fc 2C030000 		cmpwi 0,3,0
 185 0100 4080FF6C 		bge+ 0,.L3
 186              		.loc 1 61 4 is_stmt 1 view .LVU63
 187              		.loc 1 61 13 is_stmt 0 view .LVU64
 188 0104 807F0170 		lwz 3,368(31)
 189 0108 48000001 		bl net_close
 190              	.LVL10:
 191              		.loc 1 62 4 is_stmt 1 view .LVU65
 192              		.loc 1 62 11 is_stmt 0 view .LVU66
 193 010c 3920FFFF 		li 9,-1
 194 0110 913F0170 		stw 9,368(31)
 195              	.LBE4:
 196              	.LBE7:
 197              		.loc 1 66 2 is_stmt 1 view .LVU67
 198              		.loc 1 66 17 is_stmt 0 view .LVU68
 199 0114 3940FFFF 		li 10,-1
 200 0118 813F016C 		lwz 9,364(31)
 201              	.LBE13:
 202              		.loc 1 67 1 view .LVU69
 203 011c 8001002C 		lwz 0,44(1)
 204              	.LBB14:
 205              		.loc 1 66 17 view .LVU70
 206 0120 91490000 		stw 10,0(9)
 207              	.LBE14:
 208              		.loc 1 67 1 view .LVU71
 209 0124 83A1001C 		lwz 29,28(1)
 210              	.LVL11:
 211              		.loc 1 67 1 view .LVU72
 212 0128 7C0803A6 		mtlr 0
 213              		.cfi_remember_state
 214              		.cfi_restore 65
 215 012c 83C10020 		lwz 30,32(1)
 216 0130 83E10024 		lwz 31,36(1)
 217              	.LVL12:
 218              		.loc 1 67 1 view .LVU73
 219 0134 38210028 		addi 1,1,40
 220              		.cfi_restore 31
 221              		.cfi_restore 30
 222              		.cfi_restore 29
 223              		.cfi_def_cfa_offset 0
 224 0138 4E800020 		blr
 225              	.LVL13:
 226              	.L16:
 227              		.cfi_restore_state
 228              	.LBB15:
 229              		.loc 1 34 3 is_stmt 1 view .LVU74
 230              		.loc 1 34 28 is_stmt 0 view .LVU75
 231 013c 38600000 		li 3,0
 232              	.LVL14:
 233              		.loc 1 34 28 view .LVU76
 234 0140 60638000 		ori 3,3,0x8000
 235 0144 48000001 		bl iosCreateHeap
 236              	.LVL15:
 237              		.loc 1 34 13 discriminator 1 view .LVU77
 238 0148 907E0000 		stw 3,_ZL9__ssl_hid@l(30)
 239 014c 4BFFFEE4 		b .L2
 240              	.LVL16:
 241              	.L18:
 242              	.LBB8:
 243              	.LBB5:
 244              		.loc 1 54 112 discriminator 2 view .LVU78
 245 0150 8123000C 		lwz 9,12(3)
 246              		.loc 1 54 101 discriminator 2 view .LVU79
 247 0154 2C090000 		cmpwi 0,9,0
 248 0158 41A2FF8C 		beq- 0,.L4
 249              		.loc 1 54 154 discriminator 3 view .LVU80
 250 015c 80890000 		lwz 4,0(9)
 251              		.loc 1 54 130 discriminator 3 view .LVU81
 252 0160 2C040000 		cmpwi 0,4,0
 253 0164 41A2FF80 		beq- 0,.L4
 254              		.loc 1 57 4 is_stmt 1 view .LVU82
 255              		.loc 1 57 10 is_stmt 0 view .LVU83
 256 0168 A0A3000A 		lhz 5,10(3)
 257 016c 3861000C 		addi 3,1,12
 258              	.LVL17:
 259              		.loc 1 57 10 view .LVU84
 260 0170 48000001 		bl memcpy
 261              	.LVL18:
 262 0174 4BFFFF78 		b .L6
 263              	.LBE5:
 264              	.LBE8:
 265              	.LBE15:
 266              		.cfi_endproc
 267              	.LFE84:
 268              		.size	_ZN3SSLC2EPKc, .-_ZN3SSLC2EPKc
 269              		.globl _ZN3SSLC1EPKc
 270              		.set	_ZN3SSLC1EPKc,_ZN3SSLC2EPKc
 271              		.section	.rodata._ZN3SSLD2Ev.str1.4,"aMS",@progbits,1
 272              		.align 2
 273              	.LC0:
 274 0000 643A6400 		.string	"d:d"
 275              		.section	.text._ZN3SSLD2Ev,"ax",@progbits
 276              		.align 2
 277              		.globl _ZN3SSLD2Ev
 278              		.type	_ZN3SSLD2Ev, @function
 279              	_ZN3SSLD2Ev:
 280              	.LVL19:
 281              	.LFB87:
 282              		.loc 1 69 1 is_stmt 1 view -0
 283              		.cfi_startproc
 284              		.cfi_personality 0,__gxx_personality_v0
 285              		.cfi_lsda 0,.LLSDA87
 286              	.LBB16:
 287              		.loc 1 71 2 view .LVU86
 288              	.LBB17:
 289              		.loc 1 71 19 is_stmt 0 view .LVU87
 290 0000 8123016C 		lwz 9,364(3)
 291              	.LBE17:
 292              	.LBE16:
 293              		.loc 1 69 1 view .LVU88
 294 0004 9421FFF0 		stwu 1,-16(1)
 295              		.cfi_def_cfa_offset 16
 296              	.LBB22:
 297              	.LBB19:
 298              		.loc 1 71 2 view .LVU89
 299 0008 81290000 		lwz 9,0(9)
 300              	.LBE19:
 301              	.LBE22:
 302              		.loc 1 69 1 view .LVU90
 303 000c 93E1000C 		stw 31,12(1)
 304              		.cfi_offset 31, -4
 305 0010 7C7F1B78 		mr 31,3
 306              	.LBB23:
 307              	.LBB20:
 308              		.loc 1 71 2 view .LVU91
 309 0014 2C090000 		cmpwi 0,9,0
 310 0018 41810030 		bgt- 0,.L26
 311              	.LVL20:
 312              	.L21:
 313              		.loc 1 71 2 view .LVU92
 314              	.LBE20:
 315              		.loc 1 82 2 is_stmt 1 view .LVU93
 316              		.loc 1 82 6 is_stmt 0 view .LVU94
 317 001c 807F0170 		lwz 3,368(31)
 318              		.loc 1 82 2 view .LVU95
 319 0020 2C030000 		cmpwi 0,3,0
 320 0024 41A00018 		blt+ 0,.L19
 321 0028 7C0802A6 		mflr 0
 322              		.cfi_register 65, 0
 323 002c 90010014 		stw 0,20(1)
 324              		.cfi_offset 65, 4
 325              		.loc 1 83 3 is_stmt 1 view .LVU96
 326              		.loc 1 83 12 is_stmt 0 view .LVU97
 327 0030 48000001 		bl net_close
 328              	.LVL21:
 329 0034 80010014 		lwz 0,20(1)
 330 0038 7C0803A6 		mtlr 0
 331              		.cfi_restore 65
 332              	.L19:
 333              	.LBE23:
 334              		.loc 1 84 1 view .LVU98
 335 003c 83E1000C 		lwz 31,12(1)
 336              	.LVL22:
 337              		.loc 1 84 1 view .LVU99
 338 0040 38210010 		addi 1,1,16
 339              		.cfi_remember_state
 340              		.cfi_restore 31
 341              		.cfi_def_cfa_offset 0
 342 0044 4E800020 		blr
 343              	.LVL23:
 344              	.L26:
 345              		.cfi_restore_state
 346              	.LBB24:
 347              	.LBB21:
 348              	.LBB18:
 349              		.loc 1 73 3 is_stmt 1 view .LVU100
 350              		.loc 1 73 20 is_stmt 0 view .LVU101
 351 0048 3C600000 		lis 3,_ZL7ssl_dev@ha
 352              	.LVL24:
 353              		.loc 1 73 20 view .LVU102
 354 004c 7C0802A6 		mflr 0
 355              		.cfi_register 65, 0
 356 0050 38800000 		li 4,0
 357 0054 38630000 		la 3,_ZL7ssl_dev@l(3)
 358 0058 93C10008 		stw 30,8(1)
 359              		.cfi_offset 30, -8
 360 005c 90010014 		stw 0,20(1)
 361              		.cfi_offset 65, 4
 362              		.loc 1 73 20 view .LVU103
 363 0060 48000001 		bl IOS_Open
 364              	.LVL25:
 365              		.loc 1 74 3 is_stmt 1 view .LVU104
 366 0064 7C7E1B79 		mr. 30,3
 367 0068 40800014 		bge- 0,.L27
 368 006c 80010014 		lwz 0,20(1)
 369 0070 83C10008 		lwz 30,8(1)
 370              		.cfi_remember_state
 371              		.cfi_restore 30
 372 0074 7C0803A6 		mtlr 0
 373              		.cfi_restore 65
 374 0078 4BFFFFA4 		b .L21
 375              	.L27:
 376              		.cfi_restore_state
 377              		.loc 1 76 4 view .LVU105
 378 007c 80FF0168 		lwz 7,360(31)
 379              		.loc 1 76 14 is_stmt 0 view .LVU106
 380 0080 3940FFFF 		li 10,-1
 381              		.loc 1 77 20 view .LVU107
 382 0084 3D200000 		lis 9,_ZL9__ssl_hid@ha
 383 0088 3CC00000 		lis 6,.LC0@ha
 384              		.loc 1 76 14 view .LVU108
 385 008c 91470000 		stw 10,0(7)
 386              		.loc 1 77 4 is_stmt 1 view .LVU109
 387              		.loc 1 77 20 is_stmt 0 view .LVU110
 388 0090 7FC4F378 		mr 4,30
 389 0094 80690000 		lwz 3,_ZL9__ssl_hid@l(9)
 390              	.LVL26:
 391              		.loc 1 77 20 view .LVU111
 392 0098 38C60000 		la 6,.LC0@l(6)
 393 009c 813F016C 		lwz 9,364(31)
 394 00a0 39400020 		li 10,32
 395 00a4 39000020 		li 8,32
 396 00a8 38A00006 		li 5,6
 397 00ac 4CC63182 		crxor 6,6,6
 398 00b0 48000001 		bl IOS_IoctlvFormat
 399              	.LVL27:
 400              		.loc 1 78 4 is_stmt 1 view .LVU112
 401              		.loc 1 78 13 is_stmt 0 view .LVU113
 402 00b4 7FC3F378 		mr 3,30
 403 00b8 48000001 		bl IOS_Close
 404              	.LVL28:
 405 00bc 80010014 		lwz 0,20(1)
 406 00c0 83C10008 		lwz 30,8(1)
 407              		.cfi_restore 30
 408              	.LVL29:
 409              		.loc 1 78 13 view .LVU114
 410 00c4 7C0803A6 		mtlr 0
 411              		.cfi_restore 65
 412 00c8 4BFFFF54 		b .L21
 413              	.LBE18:
 414              	.LBE21:
 415              	.LBE24:
 416              		.cfi_endproc
 417              	.LFE87:
 418              		.globl __gxx_personality_v0
 419              		.section	.gcc_except_table._ZN3SSLD2Ev,"a",@progbits
 420              	.LLSDA87:
 421 0000 FF       		.byte	0xff
 422 0001 FF       		.byte	0xff
 423 0002 01       		.byte	0x1
 424 0003 00       		.uleb128 .LLSDACSE87-.LLSDACSB87
 425              	.LLSDACSB87:
 426              	.LLSDACSE87:
 427              		.section	.text._ZN3SSLD2Ev
 428              		.size	_ZN3SSLD2Ev, .-_ZN3SSLD2Ev
 429              		.globl _ZN3SSLD1Ev
 430              		.set	_ZN3SSLD1Ev,_ZN3SSLD2Ev
 431              		.section	.rodata._ZN3SSL9SetVerifyEi.str1.4,"aMS",@progbits,1
 432              		.align 2
 433              	.LC1:
 434 0000 643A6464 		.string	"d:dd"
 434      00
 435              		.section	.text._ZN3SSL9SetVerifyEi,"ax",@progbits
 436              		.align 2
 437              		.globl _ZN3SSL9SetVerifyEi
 438              		.type	_ZN3SSL9SetVerifyEi, @function
 439              	_ZN3SSL9SetVerifyEi:
 440              	.LVL30:
 441              	.LFB89:
 442              		.loc 1 87 1 is_stmt 1 view -0
 443              		.cfi_startproc
 444              		.loc 1 88 2 view .LVU116
 445              		.loc 1 90 2 view .LVU117
 446              		.loc 1 87 1 is_stmt 0 view .LVU118
 447 0000 9421FFE0 		stwu 1,-32(1)
 448              		.cfi_def_cfa_offset 32
 449 0004 93E1001C 		stw 31,28(1)
 450              		.cfi_offset 31, -4
 451              		.loc 1 90 6 view .LVU119
 452 0008 83E30170 		lwz 31,368(3)
 453              		.loc 1 90 2 view .LVU120
 454 000c 2C1F0000 		cmpwi 0,31,0
 455 0010 41800024 		blt- 0,.L28
 456              		.loc 1 93 19 view .LVU121
 457 0014 8123016C 		lwz 9,364(3)
 458              		.loc 1 94 10 view .LVU122
 459 0018 3BE00000 		li 31,0
 460 001c 93C10018 		stw 30,24(1)
 461              		.cfi_offset 30, -8
 462 0020 7C7E1B78 		mr 30,3
 463              		.loc 1 93 2 is_stmt 1 view .LVU123
 464 0024 81290000 		lwz 9,0(9)
 465 0028 2C090000 		cmpwi 0,9,0
 466 002c 41800018 		blt- 0,.L34
 467 0030 83C10018 		lwz 30,24(1)
 468              		.cfi_restore 30
 469              	.L28:
 470              		.loc 1 105 1 is_stmt 0 view .LVU124
 471 0034 7FE3FB78 		mr 3,31
 472              	.LVL31:
 473              		.loc 1 105 1 view .LVU125
 474 0038 83E1001C 		lwz 31,28(1)
 475 003c 38210020 		addi 1,1,32
 476              		.cfi_restore 31
 477              		.cfi_def_cfa_offset 0
 478 0040 4E800020 		blr
 479              	.LVL32:
 480              	.L34:
 481              		.cfi_def_cfa_offset 32
 482              		.cfi_offset 30, -8
 483              		.cfi_offset 31, -4
 484              		.loc 1 96 2 is_stmt 1 view .LVU126
 485              		.loc 1 96 15 is_stmt 0 view .LVU127
 486 0044 3C600000 		lis 3,_ZL7ssl_dev@ha
 487              	.LVL33:
 488              		.loc 1 96 15 view .LVU128
 489 0048 93A10014 		stw 29,20(1)
 490              		.cfi_offset 29, -12
 491 004c 7C0802A6 		mflr 0
 492              		.cfi_register 65, 0
 493 0050 7C9D2378 		mr 29,4
 494 0054 38630000 		la 3,_ZL7ssl_dev@l(3)
 495 0058 38800000 		li 4,0
 496              	.LVL34:
 497              		.loc 1 96 15 view .LVU129
 498 005c 90010024 		stw 0,36(1)
 499              		.cfi_offset 65, 4
 500              		.loc 1 96 15 view .LVU130
 501 0060 48000001 		bl IOS_Open
 502              	.LVL35:
 503              		.loc 1 97 2 is_stmt 1 view .LVU131
 504 0064 7C7F1B79 		mr. 31,3
 505 0068 41800078 		blt- 0,.L33
 506              		.loc 1 100 2 view .LVU132
 507 006c 813E0168 		lwz 9,360(30)
 508              		.loc 1 101 24 is_stmt 0 view .LVU133
 509 0070 3D400000 		lis 10,_ZL9__ssl_hid@ha
 510 0074 80FE0160 		lwz 7,352(30)
 511 0078 39000100 		li 8,256
 512              		.loc 1 100 12 view .LVU134
 513 007c 93A90000 		stw 29,0(9)
 514              		.loc 1 101 2 is_stmt 1 view .LVU135
 515              		.loc 1 101 24 is_stmt 0 view .LVU136
 516 0080 3CC00000 		lis 6,.LC1@ha
 517 0084 90E10008 		stw 7,8(1)
 518 0088 7FE4FB78 		mr 4,31
 519 008c 806A0000 		lwz 3,_ZL9__ssl_hid@l(10)
 520              	.LVL36:
 521              		.loc 1 101 24 view .LVU137
 522 0090 38C60000 		la 6,.LC1@l(6)
 523 0094 80FE016C 		lwz 7,364(30)
 524 0098 39400020 		li 10,32
 525 009c 9101000C 		stw 8,12(1)
 526 00a0 38A00001 		li 5,1
 527 00a4 39000020 		li 8,32
 528 00a8 4CC63182 		crxor 6,6,6
 529 00ac 48000001 		bl IOS_IoctlvFormat
 530              	.LVL37:
 531              		.loc 1 101 24 view .LVU138
 532 00b0 7C691B78 		mr 9,3
 533              		.loc 1 103 11 view .LVU139
 534 00b4 7FE3FB78 		mr 3,31
 535              		.loc 1 101 24 view .LVU140
 536 00b8 7D3F4B78 		mr 31,9
 537              	.LVL38:
 538              		.loc 1 103 2 is_stmt 1 view .LVU141
 539              		.loc 1 103 11 is_stmt 0 view .LVU142
 540 00bc 48000001 		bl IOS_Close
 541              	.LVL39:
 542              		.loc 1 104 2 is_stmt 1 view .LVU143
 543              		.loc 1 103 11 is_stmt 0 view .LVU144
 544 00c0 80010024 		lwz 0,36(1)
 545              		.loc 1 105 1 view .LVU145
 546 00c4 7FE3FB78 		mr 3,31
 547              		.loc 1 103 11 view .LVU146
 548 00c8 83A10014 		lwz 29,20(1)
 549              		.cfi_remember_state
 550              		.cfi_restore 29
 551              	.LVL40:
 552              		.loc 1 103 11 view .LVU147
 553 00cc 83C10018 		lwz 30,24(1)
 554              		.cfi_restore 30
 555              	.LVL41:
 556              		.loc 1 103 11 view .LVU148
 557 00d0 7C0803A6 		mtlr 0
 558              		.cfi_restore 65
 559              		.loc 1 105 1 view .LVU149
 560 00d4 83E1001C 		lwz 31,28(1)
 561              	.LVL42:
 562              		.loc 1 105 1 view .LVU150
 563 00d8 38210020 		addi 1,1,32
 564              		.cfi_restore 31
 565              		.cfi_def_cfa_offset 0
 566 00dc 4E800020 		blr
 567              	.LVL43:
 568              	.L33:
 569              		.cfi_restore_state
 570              		.loc 1 105 1 view .LVU151
 571 00e0 80010024 		lwz 0,36(1)
 572 00e4 7FE3FB78 		mr 3,31
 573              	.LVL44:
 574              		.loc 1 105 1 view .LVU152
 575 00e8 83A10014 		lwz 29,20(1)
 576              		.cfi_restore 29
 577              	.LVL45:
 578              		.loc 1 105 1 view .LVU153
 579 00ec 83C10018 		lwz 30,24(1)
 580              		.cfi_restore 30
 581              	.LVL46:
 582              		.loc 1 105 1 view .LVU154
 583 00f0 7C0803A6 		mtlr 0
 584              		.cfi_restore 65
 585 00f4 83E1001C 		lwz 31,28(1)
 586              	.LVL47:
 587              		.loc 1 105 1 view .LVU155
 588 00f8 38210020 		addi 1,1,32
 589              		.cfi_restore 31
 590              		.cfi_def_cfa_offset 0
 591 00fc 4E800020 		blr
 592              		.cfi_endproc
 593              	.LFE89:
 594              		.size	_ZN3SSL9SetVerifyEi, .-_ZN3SSL9SetVerifyEi
 595              		.section	.text._ZN3SSL20SetBuiltinClientCertEj,"ax",@progbits
 596              		.align 2
 597              		.globl _ZN3SSL20SetBuiltinClientCertEj
 598              		.type	_ZN3SSL20SetBuiltinClientCertEj, @function
 599              	_ZN3SSL20SetBuiltinClientCertEj:
 600              	.LVL48:
 601              	.LFB90:
 602              		.loc 1 108 1 is_stmt 1 view -0
 603              		.cfi_startproc
 604              		.loc 1 109 2 view .LVU157
 605              		.loc 1 111 2 view .LVU158
 606              		.loc 1 108 1 is_stmt 0 view .LVU159
 607 0000 9421FFE0 		stwu 1,-32(1)
 608              		.cfi_def_cfa_offset 32
 609              		.loc 1 111 19 view .LVU160
 610 0004 8123016C 		lwz 9,364(3)
 611              		.loc 1 108 1 view .LVU161
 612 0008 93E1001C 		stw 31,28(1)
 613              		.cfi_offset 31, -4
 614              		.loc 1 111 19 view .LVU162
 615 000c 83E90000 		lwz 31,0(9)
 616              		.loc 1 111 2 view .LVU163
 617 0010 2C1F0000 		cmpwi 0,31,0
 618 0014 418000A8 		blt- 0,.L35
 619              		.loc 1 114 2 is_stmt 1 view .LVU164
 620 0018 93C10018 		stw 30,24(1)
 621              		.cfi_offset 30, -8
 622 001c 7C7E1B78 		mr 30,3
 623              		.loc 1 114 15 is_stmt 0 view .LVU165
 624 0020 3C600000 		lis 3,_ZL7ssl_dev@ha
 625              	.LVL49:
 626              		.loc 1 114 15 view .LVU166
 627 0024 93A10014 		stw 29,20(1)
 628              		.cfi_offset 29, -12
 629 0028 7C0802A6 		mflr 0
 630              		.cfi_register 65, 0
 631 002c 7C9D2378 		mr 29,4
 632 0030 38630000 		la 3,_ZL7ssl_dev@l(3)
 633 0034 38800000 		li 4,0
 634              	.LVL50:
 635              		.loc 1 114 15 view .LVU167
 636 0038 90010024 		stw 0,36(1)
 637              		.cfi_offset 65, 4
 638              		.loc 1 114 15 view .LVU168
 639 003c 48000001 		bl IOS_Open
 640              	.LVL51:
 641              		.loc 1 115 2 is_stmt 1 view .LVU169
 642 0040 7C7F1B79 		mr. 31,3
 643 0044 41800088 		blt- 0,.L39
 644              		.loc 1 118 2 view .LVU170
 645              		.loc 1 119 2 is_stmt 0 view .LVU171
 646 0048 813E0164 		lwz 9,356(30)
 647              		.loc 1 118 12 view .LVU172
 648 004c 38C0FFFF 		li 6,-1
 649              		.loc 1 118 2 view .LVU173
 650 0050 80FE0168 		lwz 7,360(30)
 651              		.loc 1 120 24 view .LVU174
 652 0054 39400020 		li 10,32
 653 0058 3D000000 		lis 8,_ZL9__ssl_hid@ha
 654 005c 38A0000E 		li 5,14
 655              		.loc 1 118 12 view .LVU175
 656 0060 90C70000 		stw 6,0(7)
 657              		.loc 1 119 2 is_stmt 1 view .LVU176
 658              		.loc 1 120 24 is_stmt 0 view .LVU177
 659 0064 3CC00000 		lis 6,.LC1@ha
 660              		.loc 1 119 11 view .LVU178
 661 0068 93A90000 		stw 29,0(9)
 662              		.loc 1 120 2 is_stmt 1 view .LVU179
 663              		.loc 1 120 24 is_stmt 0 view .LVU180
 664 006c 38C60000 		la 6,.LC1@l(6)
 665 0070 91210008 		stw 9,8(1)
 666 0074 7FE4FB78 		mr 4,31
 667 0078 9141000C 		stw 10,12(1)
 668 007c 80680000 		lwz 3,_ZL9__ssl_hid@l(8)
 669              	.LVL52:
 670              		.loc 1 120 24 view .LVU181
 671 0080 39000020 		li 8,32
 672 0084 813E016C 		lwz 9,364(30)
 673 0088 4CC63182 		crxor 6,6,6
 674 008c 48000001 		bl IOS_IoctlvFormat
 675              	.LVL53:
 676              		.loc 1 121 2 is_stmt 1 view .LVU182
 677 0090 7C7D1B79 		mr. 29,3
 678              	.LVL54:
 679              		.loc 1 121 2 is_stmt 0 view .LVU183
 680 0094 4082000C 		bne- 0,.L37
 681              		.loc 1 122 3 is_stmt 1 view .LVU184
 682              		.loc 1 122 7 is_stmt 0 view .LVU185
 683 0098 813E0168 		lwz 9,360(30)
 684 009c 83A90000 		lwz 29,0(9)
 685              	.LVL55:
 686              	.L37:
 687              		.loc 1 124 2 is_stmt 1 view .LVU186
 688              		.loc 1 124 11 is_stmt 0 view .LVU187
 689 00a0 7FE3FB78 		mr 3,31
 690              		.loc 1 125 9 view .LVU188
 691 00a4 7FBFEB78 		mr 31,29
 692              	.LVL56:
 693              		.loc 1 124 11 view .LVU189
 694 00a8 48000001 		bl IOS_Close
 695              	.LVL57:
 696              		.loc 1 125 2 is_stmt 1 view .LVU190
 697              		.loc 1 125 9 is_stmt 0 view .LVU191
 698 00ac 80010024 		lwz 0,36(1)
 699 00b0 83A10014 		lwz 29,20(1)
 700              		.cfi_restore 29
 701              	.LVL58:
 702              		.loc 1 125 9 view .LVU192
 703 00b4 83C10018 		lwz 30,24(1)
 704              		.cfi_restore 30
 705              	.LVL59:
 706              		.loc 1 125 9 view .LVU193
 707 00b8 7C0803A6 		mtlr 0
 708              		.cfi_restore 65
 709              	.LVL60:
 710              	.L35:
 711              		.loc 1 126 1 view .LVU194
 712 00bc 7FE3FB78 		mr 3,31
 713 00c0 83E1001C 		lwz 31,28(1)
 714 00c4 38210020 		addi 1,1,32
 715              		.cfi_restore 31
 716              		.cfi_def_cfa_offset 0
 717 00c8 4E800020 		blr
 718              	.LVL61:
 719              	.L39:
 720              		.cfi_def_cfa_offset 32
 721              		.cfi_offset 29, -12
 722              		.cfi_offset 30, -8
 723              		.cfi_offset 31, -4
 724              		.cfi_offset 65, 4
 725              		.loc 1 126 1 view .LVU195
 726 00cc 80010024 		lwz 0,36(1)
 727 00d0 7FE3FB78 		mr 3,31
 728              	.LVL62:
 729              		.loc 1 126 1 view .LVU196
 730 00d4 83A10014 		lwz 29,20(1)
 731              		.cfi_restore 29
 732              	.LVL63:
 733              		.loc 1 126 1 view .LVU197
 734 00d8 83C10018 		lwz 30,24(1)
 735              		.cfi_restore 30
 736              	.LVL64:
 737              		.loc 1 126 1 view .LVU198
 738 00dc 7C0803A6 		mtlr 0
 739              		.cfi_restore 65
 740 00e0 83E1001C 		lwz 31,28(1)
 741              	.LVL65:
 742              		.loc 1 126 1 view .LVU199
 743 00e4 38210020 		addi 1,1,32
 744              		.cfi_restore 31
 745              		.cfi_def_cfa_offset 0
 746 00e8 4E800020 		blr
 747              		.cfi_endproc
 748              	.LFE90:
 749              		.size	_ZN3SSL20SetBuiltinClientCertEj, .-_ZN3SSL20SetBuiltinClientCertEj
 750              		.section	.text._ZN3SSL16SetBuiltinRootCAEj,"ax",@progbits
 751              		.align 2
 752              		.globl _ZN3SSL16SetBuiltinRootCAEj
 753              		.type	_ZN3SSL16SetBuiltinRootCAEj, @function
 754              	_ZN3SSL16SetBuiltinRootCAEj:
 755              	.LVL66:
 756              	.LFB91:
 757              		.loc 1 129 1 is_stmt 1 view -0
 758              		.cfi_startproc
 759              		.loc 1 130 2 view .LVU201
 760              		.loc 1 132 2 view .LVU202
 761              		.loc 1 129 1 is_stmt 0 view .LVU203
 762 0000 9421FFE0 		stwu 1,-32(1)
 763              		.cfi_def_cfa_offset 32
 764              		.loc 1 132 19 view .LVU204
 765 0004 8123016C 		lwz 9,364(3)
 766              		.loc 1 129 1 view .LVU205
 767 0008 93E1001C 		stw 31,28(1)
 768              		.cfi_offset 31, -4
 769              		.loc 1 132 19 view .LVU206
 770 000c 83E90000 		lwz 31,0(9)
 771              		.loc 1 132 2 view .LVU207
 772 0010 2C1F0000 		cmpwi 0,31,0
 773 0014 418000A8 		blt- 0,.L40
 774              		.loc 1 135 2 is_stmt 1 view .LVU208
 775 0018 93C10018 		stw 30,24(1)
 776              		.cfi_offset 30, -8
 777 001c 7C7E1B78 		mr 30,3
 778              		.loc 1 135 15 is_stmt 0 view .LVU209
 779 0020 3C600000 		lis 3,_ZL7ssl_dev@ha
 780              	.LVL67:
 781              		.loc 1 135 15 view .LVU210
 782 0024 93A10014 		stw 29,20(1)
 783              		.cfi_offset 29, -12
 784 0028 7C0802A6 		mflr 0
 785              		.cfi_register 65, 0
 786 002c 7C9D2378 		mr 29,4
 787 0030 38630000 		la 3,_ZL7ssl_dev@l(3)
 788 0034 38800000 		li 4,0
 789              	.LVL68:
 790              		.loc 1 135 15 view .LVU211
 791 0038 90010024 		stw 0,36(1)
 792              		.cfi_offset 65, 4
 793              		.loc 1 135 15 view .LVU212
 794 003c 48000001 		bl IOS_Open
 795              	.LVL69:
 796              		.loc 1 136 2 is_stmt 1 view .LVU213
 797 0040 7C7F1B79 		mr. 31,3
 798 0044 41800088 		blt- 0,.L44
 799              		.loc 1 139 2 view .LVU214
 800              		.loc 1 140 2 is_stmt 0 view .LVU215
 801 0048 813E0164 		lwz 9,356(30)
 802              		.loc 1 139 12 view .LVU216
 803 004c 38C0FFFF 		li 6,-1
 804              		.loc 1 139 2 view .LVU217
 805 0050 80FE0168 		lwz 7,360(30)
 806              		.loc 1 141 24 view .LVU218
 807 0054 39400020 		li 10,32
 808 0058 3D000000 		lis 8,_ZL9__ssl_hid@ha
 809 005c 38A0000D 		li 5,13
 810              		.loc 1 139 12 view .LVU219
 811 0060 90C70000 		stw 6,0(7)
 812              		.loc 1 140 2 is_stmt 1 view .LVU220
 813              		.loc 1 141 24 is_stmt 0 view .LVU221
 814 0064 3CC00000 		lis 6,.LC1@ha
 815              		.loc 1 140 11 view .LVU222
 816 0068 93A90000 		stw 29,0(9)
 817              		.loc 1 141 2 is_stmt 1 view .LVU223
 818              		.loc 1 141 24 is_stmt 0 view .LVU224
 819 006c 38C60000 		la 6,.LC1@l(6)
 820 0070 91210008 		stw 9,8(1)
 821 0074 7FE4FB78 		mr 4,31
 822 0078 9141000C 		stw 10,12(1)
 823 007c 80680000 		lwz 3,_ZL9__ssl_hid@l(8)
 824              	.LVL70:
 825              		.loc 1 141 24 view .LVU225
 826 0080 39000020 		li 8,32
 827 0084 813E016C 		lwz 9,364(30)
 828 0088 4CC63182 		crxor 6,6,6
 829 008c 48000001 		bl IOS_IoctlvFormat
 830              	.LVL71:
 831              		.loc 1 142 2 is_stmt 1 view .LVU226
 832 0090 7C7D1B79 		mr. 29,3
 833              	.LVL72:
 834              		.loc 1 142 2 is_stmt 0 view .LVU227
 835 0094 4082000C 		bne- 0,.L42
 836              		.loc 1 143 3 is_stmt 1 view .LVU228
 837              		.loc 1 143 7 is_stmt 0 view .LVU229
 838 0098 813E0168 		lwz 9,360(30)
 839 009c 83A90000 		lwz 29,0(9)
 840              	.LVL73:
 841              	.L42:
 842              		.loc 1 145 2 is_stmt 1 view .LVU230
 843              		.loc 1 145 11 is_stmt 0 view .LVU231
 844 00a0 7FE3FB78 		mr 3,31
 845              		.loc 1 146 9 view .LVU232
 846 00a4 7FBFEB78 		mr 31,29
 847              	.LVL74:
 848              		.loc 1 145 11 view .LVU233
 849 00a8 48000001 		bl IOS_Close
 850              	.LVL75:
 851              		.loc 1 146 2 is_stmt 1 view .LVU234
 852              		.loc 1 146 9 is_stmt 0 view .LVU235
 853 00ac 80010024 		lwz 0,36(1)
 854 00b0 83A10014 		lwz 29,20(1)
 855              		.cfi_restore 29
 856              	.LVL76:
 857              		.loc 1 146 9 view .LVU236
 858 00b4 83C10018 		lwz 30,24(1)
 859              		.cfi_restore 30
 860              	.LVL77:
 861              		.loc 1 146 9 view .LVU237
 862 00b8 7C0803A6 		mtlr 0
 863              		.cfi_restore 65
 864              	.LVL78:
 865              	.L40:
 866              		.loc 1 147 1 view .LVU238
 867 00bc 7FE3FB78 		mr 3,31
 868 00c0 83E1001C 		lwz 31,28(1)
 869 00c4 38210020 		addi 1,1,32
 870              		.cfi_restore 31
 871              		.cfi_def_cfa_offset 0
 872 00c8 4E800020 		blr
 873              	.LVL79:
 874              	.L44:
 875              		.cfi_def_cfa_offset 32
 876              		.cfi_offset 29, -12
 877              		.cfi_offset 30, -8
 878              		.cfi_offset 31, -4
 879              		.cfi_offset 65, 4
 880              		.loc 1 147 1 view .LVU239
 881 00cc 80010024 		lwz 0,36(1)
 882 00d0 7FE3FB78 		mr 3,31
 883              	.LVL80:
 884              		.loc 1 147 1 view .LVU240
 885 00d4 83A10014 		lwz 29,20(1)
 886              		.cfi_restore 29
 887              	.LVL81:
 888              		.loc 1 147 1 view .LVU241
 889 00d8 83C10018 		lwz 30,24(1)
 890              		.cfi_restore 30
 891              	.LVL82:
 892              		.loc 1 147 1 view .LVU242
 893 00dc 7C0803A6 		mtlr 0
 894              		.cfi_restore 65
 895 00e0 83E1001C 		lwz 31,28(1)
 896              	.LVL83:
 897              		.loc 1 147 1 view .LVU243
 898 00e4 38210020 		addi 1,1,32
 899              		.cfi_restore 31
 900              		.cfi_def_cfa_offset 0
 901 00e8 4E800020 		blr
 902              		.cfi_endproc
 903              	.LFE91:
 904              		.size	_ZN3SSL16SetBuiltinRootCAEj, .-_ZN3SSL16SetBuiltinRootCAEj
 905              		.section	.text._ZN3SSL9SetRootCAEPKvj,"ax",@progbits
 906              		.align 2
 907              		.globl _ZN3SSL9SetRootCAEPKvj
 908              		.type	_ZN3SSL9SetRootCAEPKvj, @function
 909              	_ZN3SSL9SetRootCAEPKvj:
 910              	.LVL84:
 911              	.LFB92:
 912              		.loc 1 150 1 is_stmt 1 view -0
 913              		.cfi_startproc
 914              		.loc 1 151 2 view .LVU245
 915              		.loc 1 152 2 view .LVU246
 916              		.loc 1 154 2 view .LVU247
 917              		.loc 1 150 1 is_stmt 0 view .LVU248
 918 0000 9421FFD0 		stwu 1,-48(1)
 919              		.cfi_def_cfa_offset 48
 920              		.loc 1 154 19 view .LVU249
 921 0004 8123016C 		lwz 9,364(3)
 922              		.loc 1 150 1 view .LVU250
 923 0008 93C10028 		stw 30,40(1)
 924              		.cfi_offset 30, -8
 925              		.loc 1 154 19 view .LVU251
 926 000c 83C90000 		lwz 30,0(9)
 927              		.loc 1 154 2 view .LVU252
 928 0010 2C1E0000 		cmpwi 0,30,0
 929 0014 418000F4 		blt- 0,.L45
 930              		.loc 1 157 2 is_stmt 1 view .LVU253
 931 0018 93210014 		stw 25,20(1)
 932              		.cfi_offset 25, -28
 933              		.loc 1 157 17 is_stmt 0 view .LVU254
 934 001c 3F200000 		lis 25,_ZL9__ssl_hid@ha
 935 0020 93E1002C 		stw 31,44(1)
 936              		.cfi_offset 31, -4
 937 0024 7C7F1B78 		mr 31,3
 938 0028 80790000 		lwz 3,_ZL9__ssl_hid@l(25)
 939              	.LVL85:
 940              		.loc 1 157 17 view .LVU255
 941 002c 7C0802A6 		mflr 0
 942              		.cfi_register 65, 0
 943 0030 9361001C 		stw 27,28(1)
 944              		.cfi_offset 27, -20
 945 0034 7C9B2378 		mr 27,4
 946 0038 7CA42B78 		mr 4,5
 947              	.LVL86:
 948              		.loc 1 157 17 view .LVU256
 949 003c 93810020 		stw 28,32(1)
 950              		.cfi_offset 28, -16
 951 0040 93A10024 		stw 29,36(1)
 952              		.cfi_offset 29, -12
 953 0044 7CBD2B78 		mr 29,5
 954 0048 90010034 		stw 0,52(1)
 955              		.cfi_offset 65, 4
 956 004c 48000001 		bl iosAlloc
 957              	.LVL87:
 958              		.loc 1 158 2 is_stmt 1 view .LVU257
 959 0050 7C7C1B79 		mr. 28,3
 960 0054 418200E0 		beq- 0,.L49
 961              		.loc 1 161 2 view .LVU258
 962              		.loc 1 161 15 is_stmt 0 view .LVU259
 963 0058 3C600000 		lis 3,_ZL7ssl_dev@ha
 964              	.LVL88:
 965              		.loc 1 161 15 view .LVU260
 966 005c 38800000 		li 4,0
 967 0060 38630000 		la 3,_ZL7ssl_dev@l(3)
 968 0064 93410018 		stw 26,24(1)
 969              		.cfi_offset 26, -24
 970              		.loc 1 161 15 view .LVU261
 971 0068 48000001 		bl IOS_Open
 972              	.LVL89:
 973              		.loc 1 162 2 is_stmt 1 view .LVU262
 974 006c 7C7A1B79 		mr. 26,3
 975 0070 418000A8 		blt- 0,.L52
 976              		.loc 1 168 2 view .LVU263
 977              		.loc 1 168 12 is_stmt 0 view .LVU264
 978 0074 813F0168 		lwz 9,360(31)
 979 0078 3940FFFF 		li 10,-1
 980              		.loc 1 169 8 view .LVU265
 981 007c 7F64DB78 		mr 4,27
 982 0080 7FA5EB78 		mr 5,29
 983              		.loc 1 168 12 view .LVU266
 984 0084 91490000 		stw 10,0(9)
 985              		.loc 1 169 2 is_stmt 1 view .LVU267
 986              		.loc 1 169 8 is_stmt 0 view .LVU268
 987 0088 7F83E378 		mr 3,28
 988              	.LVL90:
 989              		.loc 1 169 8 view .LVU269
 990 008c 48000001 		bl memcpy
 991              	.LVL91:
 992              		.loc 1 171 2 is_stmt 1 view .LVU270
 993              		.loc 1 171 24 is_stmt 0 view .LVU271
 994 0090 93A1000C 		stw 29,12(1)
 995 0094 93810008 		stw 28,8(1)
 996 0098 3CC00000 		lis 6,.LC1@ha
 997 009c 80790000 		lwz 3,_ZL9__ssl_hid@l(25)
 998 00a0 7F44D378 		mr 4,26
 999 00a4 813F016C 		lwz 9,364(31)
 1000 00a8 38C60000 		la 6,.LC1@l(6)
 1001 00ac 80FF0168 		lwz 7,360(31)
 1002 00b0 39400020 		li 10,32
 1003 00b4 39000020 		li 8,32
 1004 00b8 38A0000A 		li 5,10
 1005 00bc 4CC63182 		crxor 6,6,6
 1006 00c0 48000001 		bl IOS_IoctlvFormat
 1007              	.LVL92:
 1008              		.loc 1 172 2 is_stmt 1 view .LVU272
 1009 00c4 7C7E1B79 		mr. 30,3
 1010 00c8 4082000C 		bne- 0,.L48
 1011              		.loc 1 173 3 view .LVU273
 1012              		.loc 1 173 7 is_stmt 0 view .LVU274
 1013 00cc 813F0168 		lwz 9,360(31)
 1014 00d0 83C90000 		lwz 30,0(9)
 1015              	.LVL93:
 1016              	.L48:
 1017              		.loc 1 175 2 is_stmt 1 view .LVU275
 1018              		.loc 1 175 9 is_stmt 0 view .LVU276
 1019 00d4 80790000 		lwz 3,_ZL9__ssl_hid@l(25)
 1020 00d8 7F84E378 		mr 4,28
 1021 00dc 48000001 		bl iosFree
 1022              	.LVL94:
 1023              		.loc 1 176 2 is_stmt 1 view .LVU277
 1024              		.loc 1 176 11 is_stmt 0 view .LVU278
 1025 00e0 7F43D378 		mr 3,26
 1026 00e4 48000001 		bl IOS_Close
 1027              	.LVL95:
 1028              		.loc 1 177 2 is_stmt 1 view .LVU279
 1029              		.loc 1 177 9 is_stmt 0 view .LVU280
 1030 00e8 83210014 		lwz 25,20(1)
 1031              		.cfi_restore 25
 1032 00ec 83410018 		lwz 26,24(1)
 1033              		.cfi_restore 26
 1034              	.LVL96:
 1035              	.L51:
 1036              		.loc 1 159 11 view .LVU281
 1037 00f0 80010034 		lwz 0,52(1)
 1038 00f4 8361001C 		lwz 27,28(1)
 1039              		.cfi_restore 27
 1040              	.LVL97:
 1041              		.loc 1 159 11 view .LVU282
 1042 00f8 83810020 		lwz 28,32(1)
 1043              		.cfi_restore 28
 1044              	.LVL98:
 1045              		.loc 1 159 11 view .LVU283
 1046 00fc 7C0803A6 		mtlr 0
 1047              		.cfi_restore 65
 1048 0100 83A10024 		lwz 29,36(1)
 1049              		.cfi_restore 29
 1050              	.LVL99:
 1051              		.loc 1 159 11 view .LVU284
 1052 0104 83E1002C 		lwz 31,44(1)
 1053              		.cfi_restore 31
 1054              	.LVL100:
 1055              	.L45:
 1056              		.loc 1 178 1 view .LVU285
 1057 0108 7FC3F378 		mr 3,30
 1058 010c 83C10028 		lwz 30,40(1)
 1059 0110 38210030 		addi 1,1,48
 1060              		.cfi_restore 30
 1061              		.cfi_def_cfa_offset 0
 1062 0114 4E800020 		blr
 1063              	.LVL101:
 1064              	.L52:
 1065              		.cfi_def_cfa_offset 48
 1066              		.cfi_offset 25, -28
 1067              		.cfi_offset 26, -24
 1068              		.cfi_offset 27, -20
 1069              		.cfi_offset 28, -16
 1070              		.cfi_offset 29, -12
 1071              		.cfi_offset 30, -8
 1072              		.cfi_offset 31, -4
 1073              		.cfi_offset 65, 4
 1074              		.loc 1 164 3 is_stmt 1 view .LVU286
 1075              		.loc 1 164 10 is_stmt 0 view .LVU287
 1076 0118 80790000 		lwz 3,_ZL9__ssl_hid@l(25)
 1077              	.LVL102:
 1078              		.loc 1 164 10 view .LVU288
 1079 011c 7F84E378 		mr 4,28
 1080              		.loc 1 165 10 view .LVU289
 1081 0120 7F5ED378 		mr 30,26
 1082              		.loc 1 164 10 view .LVU290
 1083 0124 48000001 		bl iosFree
 1084              	.LVL103:
 1085              		.loc 1 165 3 is_stmt 1 view .LVU291
 1086              		.loc 1 165 10 is_stmt 0 view .LVU292
 1087 0128 83210014 		lwz 25,20(1)
 1088              		.cfi_restore 25
 1089 012c 83410018 		lwz 26,24(1)
 1090              		.cfi_restore 26
 1091              	.LVL104:
 1092              		.loc 1 165 10 view .LVU293
 1093 0130 4BFFFFC0 		b .L51
 1094              	.LVL105:
 1095              	.L49:
 1096              		.cfi_offset 25, -28
 1097              		.loc 1 159 11 view .LVU294
 1098 0134 83210014 		lwz 25,20(1)
 1099              		.cfi_restore 25
 1100 0138 3BC0FFF4 		li 30,-12
 1101 013c 4BFFFFB4 		b .L51
 1102              		.cfi_endproc
 1103              	.LFE92:
 1104              		.size	_ZN3SSL9SetRootCAEPKvj, .-_ZN3SSL9SetRootCAEPKvj
 1105              		.section	.text._ZN3SSL7ConnectEv,"ax",@progbits
 1106              		.align 2
 1107              		.globl _ZN3SSL7ConnectEv
 1108              		.type	_ZN3SSL7ConnectEv, @function
 1109              	_ZN3SSL7ConnectEv:
 1110              	.LVL106:
 1111              	.LFB93:
 1112              		.loc 1 181 1 is_stmt 1 view -0
 1113              		.cfi_startproc
 1114              		.loc 1 182 2 view .LVU296
 1115              		.loc 1 184 2 view .LVU297
 1116              		.loc 1 181 1 is_stmt 0 view .LVU298
 1117 0000 9421FFE0 		stwu 1,-32(1)
 1118              		.cfi_def_cfa_offset 32
 1119              		.loc 1 184 19 view .LVU299
 1120 0004 8123016C 		lwz 9,364(3)
 1121              		.loc 1 181 1 view .LVU300
 1122 0008 93E1001C 		stw 31,28(1)
 1123              		.cfi_offset 31, -4
 1124              		.loc 1 184 19 view .LVU301
 1125 000c 83E90000 		lwz 31,0(9)
 1126              		.loc 1 184 2 view .LVU302
 1127 0010 2C1F0000 		cmpwi 0,31,0
 1128 0014 418000AC 		blt- 0,.L53
 1129              		.loc 1 187 2 is_stmt 1 view .LVU303
 1130 0018 93C10018 		stw 30,24(1)
 1131              		.cfi_offset 30, -8
 1132 001c 7C7E1B78 		mr 30,3
 1133              		.loc 1 187 15 is_stmt 0 view .LVU304
 1134 0020 3C600000 		lis 3,_ZL7ssl_dev@ha
 1135              	.LVL107:
 1136              		.loc 1 187 15 view .LVU305
 1137 0024 7C0802A6 		mflr 0
 1138              		.cfi_register 65, 0
 1139 0028 38800000 		li 4,0
 1140 002c 38630000 		la 3,_ZL7ssl_dev@l(3)
 1141 0030 90010024 		stw 0,36(1)
 1142              		.cfi_offset 65, 4
 1143 0034 48000001 		bl IOS_Open
 1144              	.LVL108:
 1145              		.loc 1 188 2 is_stmt 1 view .LVU306
 1146 0038 7C7F1B79 		mr. 31,3
 1147 003c 41800094 		blt- 0,.L57
 1148              		.loc 1 191 2 view .LVU307
 1149 0040 80FE0168 		lwz 7,360(30)
 1150              		.loc 1 191 12 is_stmt 0 view .LVU308
 1151 0044 3940FFFF 		li 10,-1
 1152              		.loc 1 192 2 view .LVU309
 1153 0048 811E0164 		lwz 8,356(30)
 1154              		.loc 1 194 24 view .LVU310
 1155 004c 3D200000 		lis 9,_ZL9__ssl_hid@ha
 1156 0050 93A10014 		stw 29,20(1)
 1157              		.cfi_offset 29, -12
 1158              		.loc 1 194 24 view .LVU311
 1159 0054 38A00020 		li 5,32
 1160              		.loc 1 191 12 view .LVU312
 1161 0058 91470000 		stw 10,0(7)
 1162              		.loc 1 192 2 is_stmt 1 view .LVU313
 1163              		.loc 1 194 24 is_stmt 0 view .LVU314
 1164 005c 3CC00000 		lis 6,.LC1@ha
 1165 0060 80690000 		lwz 3,_ZL9__ssl_hid@l(9)
 1166              	.LVL109:
 1167              		.loc 1 194 24 view .LVU315
 1168 0064 38C60000 		la 6,.LC1@l(6)
 1169              		.loc 1 192 11 view .LVU316
 1170 0068 815E0170 		lwz 10,368(30)
 1171              		.loc 1 194 24 view .LVU317
 1172 006c 7FE4FB78 		mr 4,31
 1173 0070 813E016C 		lwz 9,364(30)
 1174              		.loc 1 192 11 view .LVU318
 1175 0074 91480000 		stw 10,0(8)
 1176              		.loc 1 194 2 is_stmt 1 view .LVU319
 1177              		.loc 1 194 24 is_stmt 0 view .LVU320
 1178 0078 39400020 		li 10,32
 1179 007c 91010008 		stw 8,8(1)
 1180 0080 39000020 		li 8,32
 1181 0084 90A1000C 		stw 5,12(1)
 1182 0088 38A00002 		li 5,2
 1183 008c 4CC63182 		crxor 6,6,6
 1184 0090 48000001 		bl IOS_IoctlvFormat
 1185              	.LVL110:
 1186              		.loc 1 195 2 is_stmt 1 view .LVU321
 1187 0094 7C7D1B79 		mr. 29,3
 1188 0098 4082000C 		bne- 0,.L55
 1189              		.loc 1 196 3 view .LVU322
 1190              		.loc 1 196 7 is_stmt 0 view .LVU323
 1191 009c 813E0168 		lwz 9,360(30)
 1192 00a0 83A90000 		lwz 29,0(9)
 1193              	.LVL111:
 1194              	.L55:
 1195              		.loc 1 198 2 is_stmt 1 view .LVU324
 1196              		.loc 1 198 11 is_stmt 0 view .LVU325
 1197 00a4 7FE3FB78 		mr 3,31
 1198              		.loc 1 199 9 view .LVU326
 1199 00a8 7FBFEB78 		mr 31,29
 1200              	.LVL112:
 1201              		.loc 1 198 11 view .LVU327
 1202 00ac 48000001 		bl IOS_Close
 1203              	.LVL113:
 1204              		.loc 1 199 2 is_stmt 1 view .LVU328
 1205              		.loc 1 199 9 is_stmt 0 view .LVU329
 1206 00b0 80010024 		lwz 0,36(1)
 1207 00b4 83A10014 		lwz 29,20(1)
 1208              		.cfi_restore 29
 1209              	.LVL114:
 1210              		.loc 1 199 9 view .LVU330
 1211 00b8 83C10018 		lwz 30,24(1)
 1212              		.cfi_restore 30
 1213              	.LVL115:
 1214              		.loc 1 199 9 view .LVU331
 1215 00bc 7C0803A6 		mtlr 0
 1216              		.cfi_restore 65
 1217              	.LVL116:
 1218              	.L53:
 1219              		.loc 1 200 1 view .LVU332
 1220 00c0 7FE3FB78 		mr 3,31
 1221 00c4 83E1001C 		lwz 31,28(1)
 1222 00c8 38210020 		addi 1,1,32
 1223              		.cfi_restore 31
 1224              		.cfi_def_cfa_offset 0
 1225 00cc 4E800020 		blr
 1226              	.LVL117:
 1227              	.L57:
 1228              		.cfi_def_cfa_offset 32
 1229              		.cfi_offset 30, -8
 1230              		.cfi_offset 31, -4
 1231              		.cfi_offset 65, 4
 1232              		.loc 1 200 1 view .LVU333
 1233 00d0 80010024 		lwz 0,36(1)
 1234 00d4 7FE3FB78 		mr 3,31
 1235              	.LVL118:
 1236              		.loc 1 200 1 view .LVU334
 1237 00d8 83C10018 		lwz 30,24(1)
 1238              		.cfi_restore 30
 1239              	.LVL119:
 1240              		.loc 1 200 1 view .LVU335
 1241 00dc 83E1001C 		lwz 31,28(1)
 1242              	.LVL120:
 1243              		.loc 1 200 1 view .LVU336
 1244 00e0 7C0803A6 		mtlr 0
 1245              		.cfi_restore 65
 1246 00e4 38210020 		addi 1,1,32
 1247              		.cfi_restore 31
 1248              		.cfi_def_cfa_offset 0
 1249 00e8 4E800020 		blr
 1250              		.cfi_endproc
 1251              	.LFE93:
 1252              		.size	_ZN3SSL7ConnectEv, .-_ZN3SSL7ConnectEv
 1253              		.section	.text._ZN3SSL9HandshakeEv,"ax",@progbits
 1254              		.align 2
 1255              		.globl _ZN3SSL9HandshakeEv
 1256              		.type	_ZN3SSL9HandshakeEv, @function
 1257              	_ZN3SSL9HandshakeEv:
 1258              	.LVL121:
 1259              	.LFB94:
 1260              		.loc 1 203 1 is_stmt 1 view -0
 1261              		.cfi_startproc
 1262              		.loc 1 204 2 view .LVU338
 1263              		.loc 1 206 2 view .LVU339
 1264              		.loc 1 203 1 is_stmt 0 view .LVU340
 1265 0000 9421FFE8 		stwu 1,-24(1)
 1266              		.cfi_def_cfa_offset 24
 1267              		.loc 1 206 19 view .LVU341
 1268 0004 8123016C 		lwz 9,364(3)
 1269              		.loc 1 203 1 view .LVU342
 1270 0008 93E10014 		stw 31,20(1)
 1271              		.cfi_offset 31, -4
 1272              		.loc 1 206 19 view .LVU343
 1273 000c 83E90000 		lwz 31,0(9)
 1274              		.loc 1 206 2 view .LVU344
 1275 0010 2C1F0000 		cmpwi 0,31,0
 1276 0014 41800094 		blt- 0,.L58
 1277              		.loc 1 209 2 is_stmt 1 view .LVU345
 1278 0018 93C10010 		stw 30,16(1)
 1279              		.cfi_offset 30, -8
 1280 001c 7C7E1B78 		mr 30,3
 1281              		.loc 1 209 15 is_stmt 0 view .LVU346
 1282 0020 3C600000 		lis 3,_ZL7ssl_dev@ha
 1283              	.LVL122:
 1284              		.loc 1 209 15 view .LVU347
 1285 0024 7C0802A6 		mflr 0
 1286              		.cfi_register 65, 0
 1287 0028 38800000 		li 4,0
 1288 002c 38630000 		la 3,_ZL7ssl_dev@l(3)
 1289 0030 9001001C 		stw 0,28(1)
 1290              		.cfi_offset 65, 4
 1291 0034 48000001 		bl IOS_Open
 1292              	.LVL123:
 1293              		.loc 1 210 2 is_stmt 1 view .LVU348
 1294 0038 7C7F1B79 		mr. 31,3
 1295 003c 4180007C 		blt- 0,.L62
 1296              		.loc 1 213 2 view .LVU349
 1297 0040 80FE0168 		lwz 7,360(30)
 1298              		.loc 1 213 12 is_stmt 0 view .LVU350
 1299 0044 3940FFFF 		li 10,-1
 1300              		.loc 1 215 24 view .LVU351
 1301 0048 3D200000 		lis 9,_ZL9__ssl_hid@ha
 1302 004c 93A1000C 		stw 29,12(1)
 1303              		.cfi_offset 29, -12
 1304              		.loc 1 215 24 view .LVU352
 1305 0050 80690000 		lwz 3,_ZL9__ssl_hid@l(9)
 1306              	.LVL124:
 1307              		.loc 1 215 24 view .LVU353
 1308 0054 3CC00000 		lis 6,.LC0@ha
 1309              		.loc 1 213 12 view .LVU354
 1310 0058 91470000 		stw 10,0(7)
 1311              		.loc 1 215 2 is_stmt 1 view .LVU355
 1312              		.loc 1 215 24 is_stmt 0 view .LVU356
 1313 005c 38C60000 		la 6,.LC0@l(6)
 1314 0060 813E016C 		lwz 9,364(30)
 1315 0064 39400020 		li 10,32
 1316 0068 39000020 		li 8,32
 1317 006c 38A00003 		li 5,3
 1318 0070 7FE4FB78 		mr 4,31
 1319 0074 4CC63182 		crxor 6,6,6
 1320 0078 48000001 		bl IOS_IoctlvFormat
 1321              	.LVL125:
 1322              		.loc 1 216 2 is_stmt 1 view .LVU357
 1323 007c 7C7D1B79 		mr. 29,3
 1324 0080 4082000C 		bne- 0,.L60
 1325              		.loc 1 217 3 view .LVU358
 1326              		.loc 1 217 7 is_stmt 0 view .LVU359
 1327 0084 813E0168 		lwz 9,360(30)
 1328 0088 83A90000 		lwz 29,0(9)
 1329              	.LVL126:
 1330              	.L60:
 1331              		.loc 1 224 2 is_stmt 1 view .LVU360
 1332              		.loc 1 224 11 is_stmt 0 view .LVU361
 1333 008c 7FE3FB78 		mr 3,31
 1334              		.loc 1 225 9 view .LVU362
 1335 0090 7FBFEB78 		mr 31,29
 1336              	.LVL127:
 1337              		.loc 1 224 11 view .LVU363
 1338 0094 48000001 		bl IOS_Close
 1339              	.LVL128:
 1340              		.loc 1 225 2 is_stmt 1 view .LVU364
 1341              		.loc 1 225 9 is_stmt 0 view .LVU365
 1342 0098 8001001C 		lwz 0,28(1)
 1343 009c 83A1000C 		lwz 29,12(1)
 1344              		.cfi_restore 29
 1345              	.LVL129:
 1346              		.loc 1 225 9 view .LVU366
 1347 00a0 83C10010 		lwz 30,16(1)
 1348              		.cfi_restore 30
 1349              	.LVL130:
 1350              		.loc 1 225 9 view .LVU367
 1351 00a4 7C0803A6 		mtlr 0
 1352              		.cfi_restore 65
 1353              	.LVL131:
 1354              	.L58:
 1355              		.loc 1 226 1 view .LVU368
 1356 00a8 7FE3FB78 		mr 3,31
 1357 00ac 83E10014 		lwz 31,20(1)
 1358 00b0 38210018 		addi 1,1,24
 1359              		.cfi_restore 31
 1360              		.cfi_def_cfa_offset 0
 1361 00b4 4E800020 		blr
 1362              	.LVL132:
 1363              	.L62:
 1364              		.cfi_def_cfa_offset 24
 1365              		.cfi_offset 30, -8
 1366              		.cfi_offset 31, -4
 1367              		.cfi_offset 65, 4
 1368              		.loc 1 226 1 view .LVU369
 1369 00b8 8001001C 		lwz 0,28(1)
 1370 00bc 7FE3FB78 		mr 3,31
 1371              	.LVL133:
 1372              		.loc 1 226 1 view .LVU370
 1373 00c0 83C10010 		lwz 30,16(1)
 1374              		.cfi_restore 30
 1375              	.LVL134:
 1376              		.loc 1 226 1 view .LVU371
 1377 00c4 83E10014 		lwz 31,20(1)
 1378              	.LVL135:
 1379              		.loc 1 226 1 view .LVU372
 1380 00c8 7C0803A6 		mtlr 0
 1381              		.cfi_restore 65
 1382 00cc 38210018 		addi 1,1,24
 1383              		.cfi_restore 31
 1384              		.cfi_def_cfa_offset 0
 1385 00d0 4E800020 		blr
 1386              		.cfi_endproc
 1387              	.LFE94:
 1388              		.size	_ZN3SSL9HandshakeEv, .-_ZN3SSL9HandshakeEv
 1389              		.section	.text._ZN3SSL5WriteEPKvj,"ax",@progbits
 1390              		.align 2
 1391              		.globl _ZN3SSL5WriteEPKvj
 1392              		.type	_ZN3SSL5WriteEPKvj, @function
 1393              	_ZN3SSL5WriteEPKvj:
 1394              	.LVL136:
 1395              	.LFB95:
 1396              		.loc 1 229 1 is_stmt 1 view -0
 1397              		.cfi_startproc
 1398              		.loc 1 230 2 view .LVU374
 1399              		.loc 1 231 2 view .LVU375
 1400              		.loc 1 229 1 is_stmt 0 view .LVU376
 1401 0000 9421FFB8 		stwu 1,-72(1)
 1402              		.cfi_def_cfa_offset 72
 1403 0004 7D800026 		mfcr 12
 1404 0008 93C10040 		stw 30,64(1)
 1405              		.cfi_offset 30, -8
 1406              		.loc 1 235 2 view .LVU377
 1407 000c 7CBE2B79 		mr. 30,5
 1408              	.LVL137:
 1409              		.loc 1 232 2 is_stmt 1 view .LVU378
 1410              		.loc 1 233 2 view .LVU379
 1411              		.loc 1 235 2 view .LVU380
 1412              		.loc 1 229 1 is_stmt 0 view .LVU381
 1413 0010 93E10044 		stw 31,68(1)
 1414              		.cfi_offset 31, -4
 1415              		.loc 1 236 10 view .LVU382
 1416 0014 3BE00000 		li 31,0
 1417              		.loc 1 229 1 view .LVU383
 1418 0018 91810014 		stw 12,20(1)
 1419              		.cfi_offset 70, -52
 1420              		.loc 1 235 2 view .LVU384
 1421 001c 41820160 		beq- 0,.L63
 1422              		.loc 1 238 19 view .LVU385
 1423 0020 8123016C 		lwz 9,364(3)
 1424 0024 93810038 		stw 28,56(1)
 1425              		.cfi_offset 28, -16
 1426 0028 7C7C1B78 		mr 28,3
 1427              		.loc 1 238 2 is_stmt 1 view .LVU386
 1428              		.loc 1 238 19 is_stmt 0 view .LVU387
 1429 002c 83E90000 		lwz 31,0(9)
 1430              		.loc 1 238 2 view .LVU388
 1431 0030 2C1F0000 		cmpwi 0,31,0
 1432 0034 41800164 		blt- 0,.L74
 1433              		.loc 1 241 2 is_stmt 1 view .LVU389
 1434              		.loc 1 241 44 is_stmt 0 view .LVU390
 1435 0038 2A1E0100 		cmplwi 4,30,256
 1436 003c 7C0802A6 		mflr 0
 1437              		.cfi_register 65, 0
 1438 0040 93410030 		stw 26,48(1)
 1439              		.cfi_offset 26, -24
 1440 0044 7C9A2378 		mr 26,4
 1441 0048 9001004C 		stw 0,76(1)
 1442              		.cfi_offset 65, 4
 1443 004c 7FC4F378 		mr 4,30
 1444              	.LVL138:
 1445              		.loc 1 241 44 view .LVU391
 1446 0050 92A1001C 		stw 21,28(1)
 1447              		.cfi_offset 21, -44
 1448 0054 93610034 		stw 27,52(1)
 1449              		.cfi_offset 27, -20
 1450 0058 41910160 		bgt- 4,.L76
 1451              	.L65:
 1452              		.loc 1 241 19 view .LVU392
 1453 005c 3EA00000 		lis 21,_ZL9__ssl_hid@ha
 1454 0060 80750000 		lwz 3,_ZL9__ssl_hid@l(21)
 1455              	.LVL139:
 1456              		.loc 1 241 19 view .LVU393
 1457 0064 48000001 		bl iosAlloc
 1458              	.LVL140:
 1459              		.loc 1 242 2 is_stmt 1 view .LVU394
 1460 0068 7C7B1B79 		mr. 27,3
 1461 006c 41820184 		beq- 0,.L71
 1462              		.loc 1 245 2 view .LVU395
 1463              		.loc 1 245 15 is_stmt 0 view .LVU396
 1464 0070 3C600000 		lis 3,_ZL7ssl_dev@ha
 1465              	.LVL141:
 1466              		.loc 1 245 15 view .LVU397
 1467 0074 38800000 		li 4,0
 1468 0078 38630000 		la 3,_ZL7ssl_dev@l(3)
 1469 007c 93010028 		stw 24,40(1)
 1470              		.cfi_offset 24, -32
 1471 0080 48000001 		bl IOS_Open
 1472              	.LVL142:
 1473              		.loc 1 246 2 is_stmt 1 view .LVU398
 1474 0084 7C781B79 		mr. 24,3
 1475 0088 41800138 		blt- 0,.L66
 1476 008c 92E10024 		stw 23,36(1)
 1477              		.cfi_offset 23, -36
 1478 0090 3EE00000 		lis 23,.LC1@ha
 1479 0094 9321002C 		stw 25,44(1)
 1480              		.cfi_offset 25, -28
 1481 0098 3AF70000 		la 23,.LC1@l(23)
 1482 009c 93A1003C 		stw 29,60(1)
 1483              		.cfi_offset 29, -12
 1484              		.loc 1 233 6 is_stmt 0 view .LVU399
 1485 00a0 3BE00000 		li 31,0
 1486              	.LBB25:
 1487              		.loc 1 255 3 view .LVU400
 1488 00a4 813C0168 		lwz 9,360(28)
 1489 00a8 92810018 		stw 20,24(1)
 1490              		.cfi_offset 20, -48
 1491 00ac 3A950000 		la 20,_ZL9__ssl_hid@l(21)
 1492 00b0 92C10020 		stw 22,32(1)
 1493              		.cfi_offset 22, -40
 1494              		.loc 1 255 13 view .LVU401
 1495 00b4 3AC0FFFF 		li 22,-1
 1496              	.LVL143:
 1497              	.L67:
 1498              		.loc 1 254 3 is_stmt 1 view .LVU402
 1499              		.loc 1 256 9 is_stmt 0 view .LVU403
 1500 00b8 7C9AFA14 		add 4,26,31
 1501 00bc 7F63DB78 		mr 3,27
 1502              		.loc 1 256 25 view .LVU404
 1503 00c0 7FF9FB78 		mr 25,31
 1504              		.loc 1 254 10 view .LVU405
 1505 00c4 7FDDF378 		mr 29,30
 1506 00c8 40910008 		ble- 4,.L68
 1507              	.LVL144:
 1508              		.loc 1 254 10 view .LVU406
 1509 00cc 3BA00100 		li 29,256
 1510              	.L68:
 1511              	.LVL145:
 1512              		.loc 1 255 3 is_stmt 1 view .LVU407
 1513              		.loc 1 255 13 is_stmt 0 view .LVU408
 1514 00d0 92C90000 		stw 22,0(9)
 1515              		.loc 1 256 3 is_stmt 1 view .LVU409
 1516              		.loc 1 256 9 is_stmt 0 view .LVU410
 1517 00d4 7FA5EB78 		mr 5,29
 1518 00d8 48000001 		bl memcpy
 1519              	.LVL146:
 1520              		.loc 1 257 3 is_stmt 1 view .LVU411
 1521              		.loc 1 257 25 is_stmt 0 view .LVU412
 1522 00dc 93A1000C 		stw 29,12(1)
 1523 00e0 93610008 		stw 27,8(1)
 1524 00e4 39400020 		li 10,32
 1525 00e8 7EE6BB78 		mr 6,23
 1526 00ec 7F04C378 		mr 4,24
 1527 00f0 813C016C 		lwz 9,364(28)
 1528 00f4 39000020 		li 8,32
 1529 00f8 80FC0168 		lwz 7,360(28)
 1530 00fc 38A00005 		li 5,5
 1531 0100 80740000 		lwz 3,0(20)
 1532 0104 4CC63182 		crxor 6,6,6
 1533 0108 48000001 		bl IOS_IoctlvFormat
 1534              	.LVL147:
 1535              		.loc 1 260 4 is_stmt 1 view .LVU413
 1536              		.loc 1 266 4 view .LVU414
 1537              		.loc 1 258 3 view .LVU415
 1538              		.loc 1 267 4 is_stmt 0 view .LVU416
 1539 010c 7FDDF051 		subf. 30,29,30
 1540              	.LVL148:
 1541              		.loc 1 258 3 view .LVU417
 1542 0110 2F830000 		cmpwi 7,3,0
 1543 0114 7C7F1B78 		mr 31,3
 1544              	.LVL149:
 1545              		.loc 1 258 3 view .LVU418
 1546 0118 409E0020 		bne- 7,.L69
 1547              		.loc 1 260 8 view .LVU419
 1548 011c 813C0168 		lwz 9,360(28)
 1549 0120 2A1E0100 		cmplwi 4,30,256
 1550              		.loc 1 260 16 view .LVU420
 1551 0124 83E90000 		lwz 31,0(9)
 1552              		.loc 1 260 4 view .LVU421
 1553 0128 2F9F0000 		cmpwi 7,31,0
 1554 012c 419C000C 		blt- 7,.L69
 1555              		.loc 1 266 12 view .LVU422
 1556 0130 7FF9EA14 		add 31,25,29
 1557              	.LVL150:
 1558              		.loc 1 267 4 is_stmt 1 view .LVU423
 1559              		.loc 1 267 4 is_stmt 0 view .LVU424
 1560 0134 40A2FF84 		bne- 0,.L67
 1561              	.LVL151:
 1562              	.L69:
 1563              		.loc 1 267 4 view .LVU425
 1564              	.LBE25:
 1565              		.loc 1 274 2 is_stmt 1 view .LVU426
 1566              		.loc 1 274 9 is_stmt 0 view .LVU427
 1567 0138 80750000 		lwz 3,_ZL9__ssl_hid@l(21)
 1568 013c 7F64DB78 		mr 4,27
 1569 0140 48000001 		bl iosFree
 1570              	.LVL152:
 1571              		.loc 1 275 2 is_stmt 1 view .LVU428
 1572              		.loc 1 275 11 is_stmt 0 view .LVU429
 1573 0144 7F03C378 		mr 3,24
 1574 0148 48000001 		bl IOS_Close
 1575              	.LVL153:
 1576              		.loc 1 276 2 is_stmt 1 view .LVU430
 1577              		.loc 1 276 9 is_stmt 0 view .LVU431
 1578 014c 8001004C 		lwz 0,76(1)
 1579 0150 82810018 		lwz 20,24(1)
 1580              		.cfi_restore 20
 1581 0154 82A1001C 		lwz 21,28(1)
 1582              		.cfi_restore 21
 1583 0158 7C0803A6 		mtlr 0
 1584              		.cfi_restore 65
 1585 015c 82C10020 		lwz 22,32(1)
 1586              		.cfi_restore 22
 1587 0160 82E10024 		lwz 23,36(1)
 1588              		.cfi_restore 23
 1589 0164 83010028 		lwz 24,40(1)
 1590              		.cfi_restore 24
 1591              	.LVL154:
 1592              		.loc 1 276 9 view .LVU432
 1593 0168 8321002C 		lwz 25,44(1)
 1594              		.cfi_restore 25
 1595 016c 83410030 		lwz 26,48(1)
 1596              		.cfi_restore 26
 1597              	.LVL155:
 1598              		.loc 1 276 9 view .LVU433
 1599 0170 83610034 		lwz 27,52(1)
 1600              		.cfi_restore 27
 1601              	.LVL156:
 1602              		.loc 1 276 9 view .LVU434
 1603 0174 83810038 		lwz 28,56(1)
 1604              		.cfi_restore 28
 1605              	.LVL157:
 1606              		.loc 1 276 9 view .LVU435
 1607 0178 83A1003C 		lwz 29,60(1)
 1608              		.cfi_restore 29
 1609              	.LVL158:
 1610              	.L63:
 1611              		.loc 1 277 1 view .LVU436
 1612 017c 81810014 		lwz 12,20(1)
 1613              		.cfi_register 70, 12
 1614 0180 7FE3FB78 		mr 3,31
 1615 0184 83C10040 		lwz 30,64(1)
 1616 0188 83E10044 		lwz 31,68(1)
 1617 018c 7D808120 		mtcrf 8,12
 1618              		.cfi_restore 70
 1619 0190 38210048 		addi 1,1,72
 1620              		.cfi_restore 31
 1621              		.cfi_restore 30
 1622              		.cfi_def_cfa_offset 0
 1623 0194 4E800020 		blr
 1624              	.LVL159:
 1625              	.L74:
 1626              		.cfi_def_cfa_offset 72
 1627              		.cfi_offset 28, -16
 1628              		.cfi_offset 30, -8
 1629              		.cfi_offset 31, -4
 1630              		.cfi_offset 70, -52
 1631              		.loc 1 277 1 view .LVU437
 1632 0198 81810014 		lwz 12,20(1)
 1633              		.cfi_register 70, 12
 1634 019c 7FE3FB78 		mr 3,31
 1635              	.LVL160:
 1636              		.loc 1 277 1 view .LVU438
 1637 01a0 83810038 		lwz 28,56(1)
 1638              		.cfi_restore 28
 1639              	.LVL161:
 1640              		.loc 1 277 1 view .LVU439
 1641 01a4 83C10040 		lwz 30,64(1)
 1642 01a8 7D808120 		mtcrf 8,12
 1643              		.cfi_restore 70
 1644 01ac 83E10044 		lwz 31,68(1)
 1645 01b0 38210048 		addi 1,1,72
 1646              		.cfi_restore 31
 1647              		.cfi_restore 30
 1648              		.cfi_def_cfa_offset 0
 1649 01b4 4E800020 		blr
 1650              	.LVL162:
 1651              	.L76:
 1652              		.cfi_def_cfa_offset 72
 1653              		.cfi_offset 21, -44
 1654              		.cfi_offset 26, -24
 1655              		.cfi_offset 27, -20
 1656              		.cfi_offset 28, -16
 1657              		.cfi_offset 30, -8
 1658              		.cfi_offset 31, -4
 1659              		.cfi_offset 65, 4
 1660              		.cfi_offset 70, -52
 1661              		.loc 1 241 44 view .LVU440
 1662 01b8 38800100 		li 4,256
 1663              	.LVL163:
 1664              		.loc 1 241 44 view .LVU441
 1665 01bc 4BFFFEA0 		b .L65
 1666              	.LVL164:
 1667              	.L66:
 1668              		.cfi_offset 24, -32
 1669              		.loc 1 248 3 is_stmt 1 view .LVU442
 1670              		.loc 1 248 10 is_stmt 0 view .LVU443
 1671 01c0 80750000 		lwz 3,_ZL9__ssl_hid@l(21)
 1672              	.LVL165:
 1673              		.loc 1 248 10 view .LVU444
 1674 01c4 7F64DB78 		mr 4,27
 1675              		.loc 1 249 10 view .LVU445
 1676 01c8 7F1FC378 		mr 31,24
 1677              		.loc 1 248 10 view .LVU446
 1678 01cc 48000001 		bl iosFree
 1679              	.LVL166:
 1680              		.loc 1 249 3 is_stmt 1 view .LVU447
 1681              		.loc 1 249 10 is_stmt 0 view .LVU448
 1682 01d0 82A1001C 		lwz 21,28(1)
 1683              		.cfi_restore 21
 1684 01d4 83010028 		lwz 24,40(1)
 1685              		.cfi_restore 24
 1686              	.LVL167:
 1687              	.L75:
 1688              		.loc 1 243 11 view .LVU449
 1689 01d8 8001004C 		lwz 0,76(1)
 1690 01dc 83410030 		lwz 26,48(1)
 1691              		.cfi_restore 26
 1692              	.LVL168:
 1693              		.loc 1 243 11 view .LVU450
 1694 01e0 83610034 		lwz 27,52(1)
 1695              		.cfi_restore 27
 1696              	.LVL169:
 1697              		.loc 1 243 11 view .LVU451
 1698 01e4 7C0803A6 		mtlr 0
 1699              		.cfi_restore 65
 1700 01e8 83810038 		lwz 28,56(1)
 1701              		.cfi_restore 28
 1702              	.LVL170:
 1703              		.loc 1 243 11 view .LVU452
 1704 01ec 4BFFFF90 		b .L63
 1705              	.LVL171:
 1706              	.L71:
 1707              		.cfi_offset 21, -44
 1708              		.cfi_offset 26, -24
 1709              		.cfi_offset 27, -20
 1710              		.cfi_offset 28, -16
 1711              		.cfi_offset 65, 4
 1712              		.loc 1 243 11 view .LVU453
 1713 01f0 82A1001C 		lwz 21,28(1)
 1714              		.cfi_restore 21
 1715 01f4 3BE0FFF4 		li 31,-12
 1716 01f8 4BFFFFE0 		b .L75
 1717              		.cfi_endproc
 1718              	.LFE95:
 1719              		.size	_ZN3SSL5WriteEPKvj, .-_ZN3SSL5WriteEPKvj
 1720              		.section	.rodata._ZN3SSL4ReadEPvj.str1.4,"aMS",@progbits,1
 1721              		.align 2
 1722              	.LC2:
 1723 0000 64643A64 		.string	"dd:d"
 1723      00
 1724              		.section	.text._ZN3SSL4ReadEPvj,"ax",@progbits
 1725              		.align 2
 1726              		.globl _ZN3SSL4ReadEPvj
 1727              		.type	_ZN3SSL4ReadEPvj, @function
 1728              	_ZN3SSL4ReadEPvj:
 1729              	.LVL172:
 1730              	.LFB96:
 1731              		.loc 1 280 1 is_stmt 1 view -0
 1732              		.cfi_startproc
 1733              		.loc 1 281 2 view .LVU455
 1734              		.loc 1 282 2 view .LVU456
 1735              		.loc 1 284 2 view .LVU457
 1736 0000 28052000 		cmplwi 0,5,8192
 1737              		.loc 1 280 1 is_stmt 0 view .LVU458
 1738 0004 9421FFD0 		stwu 1,-48(1)
 1739              		.cfi_def_cfa_offset 48
 1740 0008 9361001C 		stw 27,28(1)
 1741              		.cfi_offset 27, -20
 1742 000c 7C9B2378 		mr 27,4
 1743 0010 93A10024 		stw 29,36(1)
 1744              		.cfi_offset 29, -12
 1745 0014 7C7D1B78 		mr 29,3
 1746 0018 93C10028 		stw 30,40(1)
 1747 001c 93E1002C 		stw 31,44(1)
 1748              		.cfi_offset 30, -8
 1749              		.cfi_offset 31, -4
 1750              		.loc 1 284 2 view .LVU459
 1751 0020 418100F8 		bgt- 0,.L82
 1752              		.loc 1 287 2 view .LVU460
 1753 0024 2C050000 		cmpwi 0,5,0
 1754 0028 7CBF2B78 		mr 31,5
 1755              		.loc 1 287 2 is_stmt 1 view .LVU461
 1756              		.loc 1 288 10 is_stmt 0 view .LVU462
 1757 002c 3BC00000 		li 30,0
 1758              		.loc 1 287 2 view .LVU463
 1759 0030 418200CC 		beq- 0,.L77
 1760              	.LVL173:
 1761              		.loc 1 290 2 is_stmt 1 view .LVU464
 1762              		.loc 1 290 19 is_stmt 0 view .LVU465
 1763 0034 813D016C 		lwz 9,364(29)
 1764 0038 83C90000 		lwz 30,0(9)
 1765              		.loc 1 290 2 view .LVU466
 1766 003c 2C1E0000 		cmpwi 0,30,0
 1767 0040 418000BC 		blt- 0,.L77
 1768              	.L90:
 1769              		.loc 1 293 2 is_stmt 1 view .LVU467
 1770 0044 93210014 		stw 25,20(1)
 1771              		.cfi_offset 25, -28
 1772              		.loc 1 293 19 is_stmt 0 view .LVU468
 1773 0048 3F200000 		lis 25,_ZL9__ssl_hid@ha
 1774 004c 80790000 		lwz 3,_ZL9__ssl_hid@l(25)
 1775              	.LVL174:
 1776              		.loc 1 293 19 view .LVU469
 1777 0050 7C0802A6 		mflr 0
 1778              		.cfi_register 65, 0
 1779 0054 7FE4FB78 		mr 4,31
 1780              	.LVL175:
 1781              		.loc 1 293 19 view .LVU470
 1782 0058 93410018 		stw 26,24(1)
 1783              		.cfi_offset 26, -24
 1784 005c 90010034 		stw 0,52(1)
 1785              		.cfi_offset 65, 4
 1786 0060 48000001 		bl iosAlloc
 1787              	.LVL176:
 1788              		.loc 1 294 2 is_stmt 1 view .LVU471
 1789 0064 7C7A1B79 		mr. 26,3
 1790 0068 418200F8 		beq- 0,.L84
 1791              		.loc 1 297 2 view .LVU472
 1792              		.loc 1 297 15 is_stmt 0 view .LVU473
 1793 006c 3C600000 		lis 3,_ZL7ssl_dev@ha
 1794              	.LVL177:
 1795              		.loc 1 297 15 view .LVU474
 1796 0070 38800000 		li 4,0
 1797 0074 38630000 		la 3,_ZL7ssl_dev@l(3)
 1798 0078 93810020 		stw 28,32(1)
 1799              		.cfi_offset 28, -16
 1800              		.loc 1 297 15 view .LVU475
 1801 007c 48000001 		bl IOS_Open
 1802              	.LVL178:
 1803              		.loc 1 298 2 is_stmt 1 view .LVU476
 1804 0080 7C7C1B79 		mr. 28,3
 1805 0084 418000AC 		blt- 0,.L88
 1806              		.loc 1 304 2 view .LVU477
 1807              		.loc 1 305 24 is_stmt 0 view .LVU478
 1808 0088 815D016C 		lwz 10,364(29)
 1809              		.loc 1 304 12 view .LVU479
 1810 008c 3900FFFF 		li 8,-1
 1811              		.loc 1 304 2 view .LVU480
 1812 0090 80FD0168 		lwz 7,360(29)
 1813              		.loc 1 305 24 view .LVU481
 1814 0094 39200020 		li 9,32
 1815 0098 80790000 		lwz 3,_ZL9__ssl_hid@l(25)
 1816              	.LVL179:
 1817              		.loc 1 305 24 view .LVU482
 1818 009c 3CC00000 		lis 6,.LC2@ha
 1819              		.loc 1 304 12 view .LVU483
 1820 00a0 91070000 		stw 8,0(7)
 1821              		.loc 1 305 2 is_stmt 1 view .LVU484
 1822              		.loc 1 305 24 is_stmt 0 view .LVU485
 1823 00a4 38C60000 		la 6,.LC2@l(6)
 1824 00a8 91410008 		stw 10,8(1)
 1825 00ac 39000020 		li 8,32
 1826 00b0 9121000C 		stw 9,12(1)
 1827 00b4 7FEAFB78 		mr 10,31
 1828 00b8 7F49D378 		mr 9,26
 1829 00bc 38A00004 		li 5,4
 1830 00c0 7F84E378 		mr 4,28
 1831 00c4 4CC63182 		crxor 6,6,6
 1832 00c8 48000001 		bl IOS_IoctlvFormat
 1833              	.LVL180:
 1834              		.loc 1 306 2 is_stmt 1 view .LVU486
 1835 00cc 7C7E1B79 		mr. 30,3
 1836 00d0 41820074 		beq- 0,.L89
 1837              	.LVL181:
 1838              	.L81:
 1839              		.loc 1 312 2 view .LVU487
 1840              		.loc 1 312 9 is_stmt 0 view .LVU488
 1841 00d4 80790000 		lwz 3,_ZL9__ssl_hid@l(25)
 1842 00d8 7F44D378 		mr 4,26
 1843 00dc 48000001 		bl iosFree
 1844              	.LVL182:
 1845              		.loc 1 313 2 is_stmt 1 view .LVU489
 1846              		.loc 1 313 11 is_stmt 0 view .LVU490
 1847 00e0 7F83E378 		mr 3,28
 1848 00e4 48000001 		bl IOS_Close
 1849              	.LVL183:
 1850              	.L87:
 1851              		.loc 1 314 2 is_stmt 1 view .LVU491
 1852              		.loc 1 314 9 is_stmt 0 view .LVU492
 1853 00e8 80010034 		lwz 0,52(1)
 1854 00ec 83210014 		lwz 25,20(1)
 1855              		.cfi_restore 25
 1856 00f0 83410018 		lwz 26,24(1)
 1857              		.cfi_restore 26
 1858              	.LVL184:
 1859              		.loc 1 314 9 view .LVU493
 1860 00f4 7C0803A6 		mtlr 0
 1861              		.cfi_restore 65
 1862 00f8 83810020 		lwz 28,32(1)
 1863              		.cfi_restore 28
 1864              	.LVL185:
 1865              	.L77:
 1866              		.loc 1 315 1 view .LVU494
 1867 00fc 7FC3F378 		mr 3,30
 1868 0100 8361001C 		lwz 27,28(1)
 1869              	.LVL186:
 1870              		.loc 1 315 1 view .LVU495
 1871 0104 83A10024 		lwz 29,36(1)
 1872              	.LVL187:
 1873              		.loc 1 315 1 view .LVU496
 1874 0108 83C10028 		lwz 30,40(1)
 1875 010c 83E1002C 		lwz 31,44(1)
 1876 0110 38210030 		addi 1,1,48
 1877              		.cfi_remember_state
 1878              		.cfi_restore 31
 1879              		.cfi_restore 30
 1880              		.cfi_restore 29
 1881              		.cfi_restore 27
 1882              		.cfi_def_cfa_offset 0
 1883 0114 4E800020 		blr
 1884              	.LVL188:
 1885              	.L82:
 1886              		.cfi_restore_state
 1887              		.loc 1 290 19 view .LVU497
 1888 0118 813D016C 		lwz 9,364(29)
 1889              		.loc 1 285 10 view .LVU498
 1890 011c 3BE02000 		li 31,8192
 1891              	.LVL189:
 1892              		.loc 1 290 2 is_stmt 1 view .LVU499
 1893              		.loc 1 290 19 is_stmt 0 view .LVU500
 1894 0120 83C90000 		lwz 30,0(9)
 1895              		.loc 1 290 2 view .LVU501
 1896 0124 2C1E0000 		cmpwi 0,30,0
 1897 0128 4080FF1C 		bge+ 0,.L90
 1898 012c 4BFFFFD0 		b .L77
 1899              	.LVL190:
 1900              	.L88:
 1901              		.cfi_offset 25, -28
 1902              		.cfi_offset 26, -24
 1903              		.cfi_offset 28, -16
 1904              		.cfi_offset 65, 4
 1905              		.loc 1 300 3 is_stmt 1 view .LVU502
 1906              		.loc 1 300 10 is_stmt 0 view .LVU503
 1907 0130 80790000 		lwz 3,_ZL9__ssl_hid@l(25)
 1908              	.LVL191:
 1909              		.loc 1 300 10 view .LVU504
 1910 0134 7F44D378 		mr 4,26
 1911              		.loc 1 301 10 view .LVU505
 1912 0138 7F9EE378 		mr 30,28
 1913              		.loc 1 300 10 view .LVU506
 1914 013c 48000001 		bl iosFree
 1915              	.LVL192:
 1916              		.loc 1 301 3 is_stmt 1 view .LVU507
 1917 0140 4BFFFFA8 		b .L87
 1918              	.LVL193:
 1919              	.L89:
 1920              		.loc 1 308 3 view .LVU508
 1921              		.loc 1 308 7 is_stmt 0 view .LVU509
 1922 0144 813D0168 		lwz 9,360(29)
 1923              		.loc 1 309 9 view .LVU510
 1924 0148 7F63DB78 		mr 3,27
 1925              	.LVL194:
 1926              		.loc 1 309 9 view .LVU511
 1927 014c 7F44D378 		mr 4,26
 1928              		.loc 1 308 7 view .LVU512
 1929 0150 83C90000 		lwz 30,0(9)
 1930              	.LVL195:
 1931              		.loc 1 309 3 is_stmt 1 view .LVU513
 1932              		.loc 1 309 9 is_stmt 0 view .LVU514
 1933 0154 7FC5F378 		mr 5,30
 1934 0158 48000001 		bl memcpy
 1935              	.LVL196:
 1936 015c 4BFFFF78 		b .L81
 1937              	.LVL197:
 1938              	.L84:
 1939              		.cfi_restore 28
 1940              		.loc 1 295 11 view .LVU515
 1941 0160 80010034 		lwz 0,52(1)
 1942 0164 3BC0FFF4 		li 30,-12
 1943 0168 83210014 		lwz 25,20(1)
 1944              		.cfi_restore 25
 1945 016c 83410018 		lwz 26,24(1)
 1946              		.cfi_restore 26
 1947 0170 7C0803A6 		mtlr 0
 1948              		.cfi_restore 65
 1949 0174 4BFFFF88 		b .L77
 1950              		.cfi_endproc
 1951              	.LFE96:
 1952              		.size	_ZN3SSL4ReadEPvj, .-_ZN3SSL4ReadEPvj
 1953              		.section	.data._ZL9__ssl_hid,"aw"
 1954              		.align 2
 1955              		.type	_ZL9__ssl_hid, @object
 1956              		.size	_ZL9__ssl_hid, 4
 1957              	_ZL9__ssl_hid:
 1958 0000 FFFFFFFF 		.long	-1
 1959              		.section	.rodata._ZL7ssl_dev,"a"
 1960              		.align 2
 1961              		.type	_ZL7ssl_dev, @object
 1962              		.size	_ZL7ssl_dev, 13
 1963              	_ZL7ssl_dev:
 1964 0000 2F646576 		.string	"/dev/net/ssl"
 1964      2F6E6574 
 1964      2F73736C 
 1964      00
 1965              		.section	".text"
 1966              	.Letext0:
 1967              		.file 2 "C:/devkitPro/devkitPPC/powerpc-eabi/include/machine/_default_types.h"
 1968              		.file 3 "C:/devkitPro/devkitPPC/powerpc-eabi/include/sys/_stdint.h"
 1969              		.file 4 "C:/devkitPro/libogc/include/gctypes.h"
 1970              		.file 5 "C:/devkitPro/devkitPPC/lib/gcc/powerpc-eabi/13.1.0/include/stddef.h"
 1971              		.file 6 "F:/GameModding/MarioKartWii/Mods/Distro/RetroRewind6/dev/Launcher/RRLauncher/launcher/inc
 1972              		.file 7 "C:/devkitPro/libogc/include/network.h"
 1973              		.file 8 "C:/devkitPro/libogc/include/ogc/ipc.h"
 1974              		.file 9 "C:/devkitPro/devkitPPC/powerpc-eabi/include/string.h"