   1              		.file	"video.cpp"
   2              		.machine ppc
   3              		.section	".text"
   4              	.Ltext0:
   5              		.file 1 "F:/GameModding/MarioKartWii/Mods/Distro/RetroRewind6/dev/Launcher/RRLauncher/launcher/lib
   6              		.section	.text._Z15ResetVideo_Menuv,"ax",@progbits
   7              		.align 2
   8              		.globl _Z15ResetVideo_Menuv
   9              		.type	_Z15ResetVideo_Menuv, @function
  10              	_Z15ResetVideo_Menuv:
  11              	.LFB2343:
  12              		.loc 1 36 1 view -0
  13              		.cfi_startproc
  14              		.loc 1 37 2 view .LVU1
  15              		.loc 1 38 2 view .LVU2
  16              		.loc 1 39 2 view .LVU3
  17              		.loc 1 41 2 view .LVU4
  18              		.loc 1 36 1 is_stmt 0 view .LVU5
  19 0000 9421FF90 		stwu 1,-112(1)
  20              		.cfi_def_cfa_offset 112
  21 0004 7C0802A6 		mflr 0
  22 0008 93E10064 		stw 31,100(1)
  23              		.cfi_register 65, 0
  24              		.cfi_offset 31, -12
  25              		.loc 1 41 18 view .LVU6
  26 000c 3FE00000 		lis 31,_ZL5vmode@ha
  27 0010 807F0000 		lwz 3,_ZL5vmode@l(31)
  28              		.loc 1 36 1 view .LVU7
  29 0014 90010074 		stw 0,116(1)
  30 0018 DBE10068 		stfd 31,104(1)
  31 001c 93C10060 		stw 30,96(1)
  32              		.cfi_offset 65, 4
  33              		.cfi_offset 63, -8
  34              		.cfi_offset 30, -16
  35              		.loc 1 41 18 view .LVU8
  36 0020 48000001 		bl VIDEO_Configure
  37              	.LVL0:
  38              		.loc 1 42 2 is_stmt 1 view .LVU9
  39              		.loc 1 42 13 is_stmt 0 view .LVU10
  40 0024 48000001 		bl VIDEO_Flush
  41              	.LVL1:
  42              		.loc 1 43 2 is_stmt 1 view .LVU11
  43              		.loc 1 43 17 is_stmt 0 view .LVU12
  44 0028 48000001 		bl VIDEO_WaitVSync
  45              	.LVL2:
  46              		.loc 1 44 2 is_stmt 1 view .LVU13
  47              		.loc 1 44 13 is_stmt 0 view .LVU14
  48 002c 813F0000 		lwz 9,_ZL5vmode@l(31)
  49              		.loc 1 44 22 view .LVU15
  50 0030 81290000 		lwz 9,0(9)
  51              		.loc 1 44 2 view .LVU16
  52 0034 71290001 		andi. 9,9,0x1
  53 0038 41A2000C 		beq+ 0,.L2
  54 003c 480002BC 		b .L12
  55              	.L4:
  56              		.loc 1 48 19 view .LVU17
  57 0040 48000001 		bl VIDEO_WaitVSync
  58              	.LVL3:
  59              	.L2:
  60              		.loc 1 47 28 is_stmt 1 view .LVU18
  61 0044 48000001 		bl VIDEO_GetNextField
  62              	.LVL4:
  63              		.loc 1 48 4 view .LVU19
  64              		.loc 1 47 28 is_stmt 0 discriminator 1 view .LVU20
  65 0048 2C030000 		cmpwi 0,3,0
  66 004c 4082FFF4 		bne+ 0,.L4
  67              	.L3:
  68              		.loc 1 51 2 is_stmt 1 view .LVU21
  69              		.loc 1 52 18 is_stmt 0 view .LVU22
  70 0050 3C8000FF 		lis 4,0xff
  71              		.loc 1 51 10 view .LVU23
  72 0054 392000FF 		li 9,255
  73              	.LVL5:
  74              		.loc 1 52 2 is_stmt 1 view .LVU24
  75              		.loc 1 52 18 is_stmt 0 view .LVU25
  76 0058 6084FFFF 		ori 4,4,0xffff
  77 005c 38610048 		addi 3,1,72
  78              	.LVL6:
  79              		.loc 1 52 18 view .LVU26
  80 0060 91210048 		stw 9,72(1)
  81 0064 48000001 		bl GX_SetCopyClear
  82              	.LVL7:
  83              		.loc 1 54 2 is_stmt 1 view .LVU27
  84              		.loc 1 54 29 is_stmt 0 view .LVU28
  85 0068 813F0000 		lwz 9,_ZL5vmode@l(31)
  86 006c A0890008 		lhz 4,8(9)
  87 0070 A0690006 		lhz 3,6(9)
  88 0074 48000001 		bl GX_GetYScaleFactor
  89              	.LVL8:
  90              		.loc 1 55 2 is_stmt 1 view .LVU29
  91              		.loc 1 55 34 is_stmt 0 view .LVU30
  92 0078 48000001 		bl GX_SetDispCopyYScale
  93              	.LVL9:
  94              		.loc 1 56 27 view .LVU31
  95 007c 813F0000 		lwz 9,_ZL5vmode@l(31)
  96              		.loc 1 55 34 view .LVU32
  97 0080 7C7E1B78 		mr 30,3
  98              		.loc 1 56 15 view .LVU33
  99 0084 38800000 		li 4,0
 100 0088 A0C90006 		lhz 6,6(9)
 101 008c 38600000 		li 3,0
 102              	.LVL10:
 103              		.loc 1 56 2 is_stmt 1 view .LVU34
 104              		.loc 1 56 15 is_stmt 0 view .LVU35
 105 0090 A0A90004 		lhz 5,4(9)
 106 0094 48000001 		bl GX_SetScissor
 107              	.LVL11:
 108              		.loc 1 57 2 is_stmt 1 view .LVU36
 109              		.loc 1 57 19 is_stmt 0 view .LVU37
 110 0098 813F0000 		lwz 9,_ZL5vmode@l(31)
 111 009c 38800000 		li 4,0
 112 00a0 38600000 		li 3,0
 113 00a4 A0C90006 		lhz 6,6(9)
 114 00a8 A0A90004 		lhz 5,4(9)
 115 00ac 48000001 		bl GX_SetDispCopySrc
 116              	.LVL12:
 117              		.loc 1 58 2 is_stmt 1 view .LVU38
 118              		.loc 1 58 19 is_stmt 0 view .LVU39
 119 00b0 813F0000 		lwz 9,_ZL5vmode@l(31)
 120 00b4 57C4043E 		rlwinm 4,30,0,0xffff
 121 00b8 A0690004 		lhz 3,4(9)
 122 00bc 48000001 		bl GX_SetDispCopyDst
 123              	.LVL13:
 124              		.loc 1 59 2 is_stmt 1 view .LVU40
 125              		.loc 1 59 18 is_stmt 0 view .LVU41
 126 00c0 809F0000 		lwz 4,_ZL5vmode@l(31)
 127 00c4 38A00001 		li 5,1
 128 00c8 88640019 		lbz 3,25(4)
 129 00cc 38C40032 		addi 6,4,50
 130 00d0 3884001A 		addi 4,4,26
 131 00d4 48000001 		bl GX_SetCopyFilter
 132              	.LVL14:
 133              		.loc 1 60 2 is_stmt 1 view .LVU42
 134              		.loc 1 60 17 is_stmt 0 view .LVU43
 135 00d8 813F0000 		lwz 9,_ZL5vmode@l(31)
 136              		.loc 1 60 69 view .LVU44
 137 00dc A0890008 		lhz 4,8(9)
 138              		.loc 1 60 50 view .LVU45
 139 00e0 A1490010 		lhz 10,16(9)
 140              		.loc 1 60 61 view .LVU46
 141 00e4 5484083C 		slwi 4,4,1
 142              		.loc 1 60 17 discriminator 4 view .LVU47
 143 00e8 88690018 		lbz 3,24(9)
 144 00ec 7C845278 		xor 4,4,10
 145 00f0 7C840034 		cntlzw 4,4
 146 00f4 5484D97E 		srwi 4,4,5
 147 00f8 48000001 		bl GX_SetFieldMode
 148              	.LVL15:
 149              		.loc 1 62 2 is_stmt 1 view .LVU48
 150              		.loc 1 62 13 is_stmt 0 view .LVU49
 151 00fc 813F0000 		lwz 9,_ZL5vmode@l(31)
 152              		.loc 1 63 17 view .LVU50
 153 0100 38800000 		li 4,0
 154              		.loc 1 62 2 view .LVU51
 155 0104 89290019 		lbz 9,25(9)
 156 0108 2C090000 		cmpwi 0,9,0
 157 010c 418201E0 		beq- 0,.L5
 158              		.loc 1 63 3 is_stmt 1 view .LVU52
 159              		.loc 1 63 17 is_stmt 0 view .LVU53
 160 0110 38600002 		li 3,2
 161 0114 48000001 		bl GX_SetPixelFmt
 162              	.LVL16:
 163              	.L6:
 164              		.loc 1 69 2 is_stmt 1 view .LVU54
 165              		.loc 1 69 17 is_stmt 0 view .LVU55
 166 0118 48000001 		bl GX_ClearVtxDesc
 167              	.LVL17:
 168              		.loc 1 70 2 is_stmt 1 view .LVU56
 169              		.loc 1 88 15 is_stmt 0 view .LVU57
 170 011c 3FC00000 		lis 30,_ZL13GXmodelView2D@ha
 171              	.LVL18:
 172              		.loc 1 70 17 view .LVU58
 173 0120 48000001 		bl GX_InvVtxCache
 174              	.LVL19:
 175              		.loc 1 71 2 is_stmt 1 view .LVU59
 176              		.loc 1 88 15 is_stmt 0 view .LVU60
 177 0124 3BDE0000 		la 30,_ZL13GXmodelView2D@l(30)
 178              		.loc 1 71 21 view .LVU61
 179 0128 48000001 		bl GX_InvalidateTexAll
 180              	.LVL20:
 181              		.loc 1 73 2 is_stmt 1 view .LVU62
 182              		.loc 1 73 15 is_stmt 0 view .LVU63
 183 012c 38800000 		li 4,0
 184 0130 3860000D 		li 3,13
 185 0134 48000001 		bl GX_SetVtxDesc
 186              	.LVL21:
 187              		.loc 1 74 2 is_stmt 1 view .LVU64
 188              		.loc 1 74 15 is_stmt 0 view .LVU65
 189 0138 38800001 		li 4,1
 190 013c 38600009 		li 3,9
 191 0140 48000001 		bl GX_SetVtxDesc
 192              	.LVL22:
 193              		.loc 1 75 2 is_stmt 1 view .LVU66
 194              		.loc 1 75 16 is_stmt 0 view .LVU67
 195 0144 38800001 		li 4,1
 196 0148 3860000B 		li 3,11
 197 014c 48000001 		bl GX_SetVtxDesc
 198              	.LVL23:
 199              		.loc 1 77 2 is_stmt 1 view .LVU68
 200              		.loc 1 77 19 is_stmt 0 view .LVU69
 201 0150 38E00000 		li 7,0
 202 0154 38C00004 		li 6,4
 203 0158 38A00001 		li 5,1
 204 015c 38800009 		li 4,9
 205 0160 38600000 		li 3,0
 206 0164 48000001 		bl GX_SetVtxAttrFmt
 207              	.LVL24:
 208              		.loc 1 78 2 is_stmt 1 view .LVU70
 209              		.loc 1 78 19 is_stmt 0 view .LVU71
 210 0168 38E00000 		li 7,0
 211 016c 38C00005 		li 6,5
 212 0170 38A00001 		li 5,1
 213 0174 3880000B 		li 4,11
 214 0178 38600000 		li 3,0
 215 017c 48000001 		bl GX_SetVtxAttrFmt
 216              	.LVL25:
 217              		.loc 1 79 2 is_stmt 1 view .LVU72
 218              		.loc 1 79 18 is_stmt 0 view .LVU73
 219 0180 38E00000 		li 7,0
 220 0184 38C00004 		li 6,4
 221 0188 38A00001 		li 5,1
 222 018c 3880000D 		li 4,13
 223 0190 38600000 		li 3,0
 224 0194 48000001 		bl GX_SetVtxAttrFmt
 225              	.LVL26:
 226              		.loc 1 80 2 is_stmt 1 view .LVU74
 227              		.loc 1 80 14 is_stmt 0 view .LVU75
 228 0198 38A00001 		li 5,1
 229 019c 38800003 		li 4,3
 230 01a0 38600000 		li 3,0
 231 01a4 48000001 		bl GX_SetZMode
 232              	.LVL27:
 233              		.loc 1 82 2 is_stmt 1 view .LVU76
 234              		.loc 1 82 16 is_stmt 0 view .LVU77
 235 01a8 38600001 		li 3,1
 236 01ac 48000001 		bl GX_SetNumChans
 237              	.LVL28:
 238              		.loc 1 83 2 is_stmt 1 view .LVU78
 239              		.loc 1 83 18 is_stmt 0 view .LVU79
 240 01b0 38600001 		li 3,1
 241 01b4 48000001 		bl GX_SetNumTexGens
 242              	.LVL29:
 243              		.loc 1 84 2 is_stmt 1 view .LVU80
 244              		.loc 1 84 14 is_stmt 0 view .LVU81
 245 01b8 38800004 		li 4,4
 246 01bc 38600000 		li 3,0
 247 01c0 48000001 		bl GX_SetTevOp
 248              	.LVL30:
 249              		.loc 1 85 2 is_stmt 1 view .LVU82
 250              		.loc 1 85 16 is_stmt 0 view .LVU83
 251 01c4 38C00004 		li 6,4
 252 01c8 38A00000 		li 5,0
 253 01cc 38800000 		li 4,0
 254 01d0 38600000 		li 3,0
 255 01d4 48000001 		bl GX_SetTevOrder
 256              	.LVL31:
 257              		.loc 1 86 2 is_stmt 1 view .LVU84
 258              		.loc 1 86 19 is_stmt 0 view .LVU85
 259 01d8 38C0003C 		li 6,60
 260 01dc 38A00004 		li 5,4
 261 01e0 38800001 		li 4,1
 262 01e4 38600000 		li 3,0
 263 01e8 48000001 		bl GX_SetTexCoordGen
 264              	.LVL32:
 265              		.loc 1 88 2 is_stmt 1 view .LVU86
 266              		.loc 1 88 15 is_stmt 0 view .LVU87
 267 01ec 7FC3F378 		mr 3,30
 268 01f0 48000001 		bl ps_guMtxIdentity
 269              	.LVL33:
 270              		.loc 1 89 2 is_stmt 1 view .LVU88
 271              		.loc 1 89 18 is_stmt 0 view .LVU89
 272 01f4 3D200000 		lis 9,.LC1@ha
 273 01f8 C3E90000 		lfs 31,.LC1@l(9)
 274 01fc 3D200000 		lis 9,.LC0@ha
 275 0200 C0690000 		lfs 3,.LC0@l(9)
 276 0204 7FC4F378 		mr 4,30
 277 0208 FC40F890 		fmr 2,31
 278 020c 7FC3F378 		mr 3,30
 279 0210 FC20F890 		fmr 1,31
 280 0214 48000001 		bl ps_guMtxTransApply
 281              	.LVL34:
 282              		.loc 1 90 2 is_stmt 1 view .LVU90
 283              		.loc 1 90 18 is_stmt 0 view .LVU91
 284 0218 38800000 		li 4,0
 285 021c 7FC3F378 		mr 3,30
 286 0220 48000001 		bl GX_LoadPosMtxImm
 287              	.LVL35:
 288              		.loc 1 92 2 is_stmt 1 view .LVU92
 289              		.loc 1 92 9 is_stmt 0 view .LVU93
 290 0224 FCA0F890 		fmr 5,31
 291 0228 FC60F890 		fmr 3,31
 292 022c 3D000000 		lis 8,.LC2@ha
 293 0230 FC20F890 		fmr 1,31
 294 0234 3D400000 		lis 10,.LC3@ha
 295 0238 3D200000 		lis 9,.LC4@ha
 296 023c C0C80000 		lfs 6,.LC2@l(8)
 297 0240 C08A0000 		lfs 4,.LC3@l(10)
 298 0244 38610008 		addi 3,1,8
 299 0248 C0490000 		lfs 2,.LC4@l(9)
 300 024c 48000001 		bl guOrtho
 301              	.LVL36:
 302              		.loc 1 93 2 is_stmt 1 view .LVU94
 303              		.loc 1 93 22 is_stmt 0 view .LVU95
 304 0250 38610008 		addi 3,1,8
 305 0254 38800001 		li 4,1
 306 0258 48000001 		bl GX_LoadProjectionMtx
 307              	.LVL37:
 308              		.loc 1 95 2 is_stmt 1 view .LVU96
 309              		.loc 1 95 28 is_stmt 0 view .LVU97
 310 025c 815F0000 		lwz 10,_ZL5vmode@l(31)
 311              		.loc 1 95 16 view .LVU98
 312 0260 3D000000 		lis 8,.LC7@ha
 313 0264 3D204330 		lis 9,0x4330
 314 0268 C0080000 		lfs 0,.LC7@l(8)
 315 026c FCA0F890 		fmr 5,31
 316 0270 A10A0006 		lhz 8,6(10)
 317 0274 FC40F890 		fmr 2,31
 318 0278 91210050 		stw 9,80(1)
 319 027c FC20F890 		fmr 1,31
 320 0280 91010054 		stw 8,84(1)
 321 0284 3D000000 		lis 8,.LC5@ha
 322 0288 C0C80000 		lfs 6,.LC5@l(8)
 323 028c A14A0004 		lhz 10,4(10)
 324 0290 C9810050 		lfd 12,80(1)
 325 0294 91210058 		stw 9,88(1)
 326 0298 9141005C 		stw 10,92(1)
 327 029c FC8C0028 		fsub 4,12,0
 328 02a0 C9810058 		lfd 12,88(1)
 329 02a4 FC802018 		frsp 4,4
 330 02a8 FC6C0028 		fsub 3,12,0
 331 02ac FC601818 		frsp 3,3
 332 02b0 48000001 		bl GX_SetViewport
 333              	.LVL38:
 334              		.loc 1 96 2 is_stmt 1 view .LVU99
 335              		.loc 1 96 17 is_stmt 0 view .LVU100
 336 02b4 38C00000 		li 6,0
 337 02b8 38A00005 		li 5,5
 338 02bc 38800004 		li 4,4
 339 02c0 38600001 		li 3,1
 340 02c4 48000001 		bl GX_SetBlendMode
 341              	.LVL39:
 342              		.loc 1 97 2 is_stmt 1 view .LVU101
 343              		.loc 1 97 19 is_stmt 0 view .LVU102
 344 02c8 38600001 		li 3,1
 345 02cc 48000001 		bl GX_SetAlphaUpdate
 346              	.LVL40:
 347              		.loc 1 98 1 view .LVU103
 348 02d0 80010074 		lwz 0,116(1)
 349 02d4 83C10060 		lwz 30,96(1)
 350 02d8 83E10064 		lwz 31,100(1)
 351 02dc 7C0803A6 		mtlr 0
 352              		.cfi_remember_state
 353              		.cfi_restore 65
 354 02e0 CBE10068 		lfd 31,104(1)
 355 02e4 38210070 		addi 1,1,112
 356              		.cfi_restore 63
 357              		.cfi_restore 31
 358              		.cfi_restore 30
 359              		.cfi_def_cfa_offset 0
 360 02e8 4E800020 		blr
 361              	.LVL41:
 362              	.L5:
 363              		.cfi_restore_state
 364              		.loc 1 65 3 is_stmt 1 view .LVU104
 365              		.loc 1 65 17 is_stmt 0 view .LVU105
 366 02ec 38600000 		li 3,0
 367 02f0 48000001 		bl GX_SetPixelFmt
 368              	.LVL42:
 369 02f4 4BFFFE24 		b .L6
 370              	.LVL43:
 371              	.L12:
 372              		.loc 1 45 3 is_stmt 1 view .LVU106
 373              		.loc 1 45 18 is_stmt 0 view .LVU107
 374 02f8 48000001 		bl VIDEO_WaitVSync
 375              	.LVL44:
 376 02fc 4BFFFD54 		b .L3
 377              		.cfi_endproc
 378              	.LFE2343:
 379              		.size	_Z15ResetVideo_Menuv, .-_Z15ResetVideo_Menuv
 380              		.section	.rodata._Z9InitVideov.str1.4,"aMS",@progbits,1
 381              		.align 2
 382              	.LC17:
 383 0000 0A0A00   		.string	"\n\n"
 384              		.section	.text._Z9InitVideov,"ax",@progbits
 385              		.align 2
 386              		.globl _Z9InitVideov
 387              		.type	_Z9InitVideov, @function
 388              	_Z9InitVideov:
 389              	.LFB2344:
 390              		.loc 1 109 1 is_stmt 1 view -0
 391              		.cfi_startproc
 392              		.loc 1 110 2 view .LVU109
 393              		.loc 1 109 1 is_stmt 0 view .LVU110
 394 0000 9421FFE0 		stwu 1,-32(1)
 395              		.cfi_def_cfa_offset 32
 396 0004 7C0802A6 		mflr 0
 397 0008 90010024 		stw 0,36(1)
 398 000c 93E1001C 		stw 31,28(1)
 399              		.cfi_offset 65, 4
 400              		.cfi_offset 31, -4
 401              		.loc 1 111 8 discriminator 1 view .LVU111
 402 0010 3FE00000 		lis 31,_ZL5vmode@ha
 403              		.loc 1 109 1 view .LVU112
 404 0014 93A10014 		stw 29,20(1)
 405 0018 93C10018 		stw 30,24(1)
 406              		.cfi_offset 29, -12
 407              		.cfi_offset 30, -8
 408              		.loc 1 110 12 view .LVU113
 409 001c 48000001 		bl VIDEO_Init
 410              	.LVL45:
 411              		.loc 1 111 2 is_stmt 1 view .LVU114
 412              		.loc 1 111 32 is_stmt 0 view .LVU115
 413 0020 38600000 		li 3,0
 414 0024 48000001 		bl VIDEO_GetPreferredMode
 415              	.LVL46:
 416              		.loc 1 111 8 discriminator 1 view .LVU116
 417 0028 907F0000 		stw 3,_ZL5vmode@l(31)
 418              		.loc 1 114 2 is_stmt 1 view .LVU117
 419              		.loc 1 114 24 is_stmt 0 view .LVU118
 420 002c 48000001 		bl CONF_GetAspectRatio
 421              	.LVL47:
 422              		.loc 1 114 2 discriminator 1 view .LVU119
 423 0030 2C030001 		cmpwi 0,3,1
 424              		.loc 1 115 10 view .LVU120
 425 0034 807F0000 		lwz 3,_ZL5vmode@l(31)
 426              		.loc 1 114 2 discriminator 1 view .LVU121
 427 0038 40A2000C 		bne+ 0,.L15
 428              		.loc 1 115 3 is_stmt 1 view .LVU122
 429              		.loc 1 115 18 is_stmt 0 view .LVU123
 430 003c 392002D0 		li 9,720
 431 0040 B123000E 		sth 9,14(3)
 432              	.L15:
 433              		.loc 1 117 2 is_stmt 1 view .LVU124
 434              		.loc 1 117 18 is_stmt 0 view .LVU125
 435 0044 48000001 		bl VIDEO_Configure
 436              	.LVL48:
 437              		.loc 1 119 2 is_stmt 1 view .LVU126
 438              		.loc 1 123 19 is_stmt 0 view .LVU127
 439 0048 807F0000 		lwz 3,_ZL5vmode@l(31)
 440              		.loc 1 119 15 view .LVU128
 441 004c 3D000000 		lis 8,screenheight@ha
 442 0050 38E001E0 		li 7,480
 443              		.loc 1 120 14 view .LVU129
 444 0054 39400340 		li 10,832
 445 0058 3D200000 		lis 9,screenwidth@ha
 446              		.loc 1 119 15 view .LVU130
 447 005c 90E80000 		stw 7,screenheight@l(8)
 448              		.loc 1 120 2 is_stmt 1 view .LVU131
 449              		.loc 1 123 9 is_stmt 0 discriminator 1 view .LVU132
 450 0060 3FC00000 		lis 30,_ZL3xfb@ha
 451              		.loc 1 120 14 view .LVU133
 452 0064 91490000 		stw 10,screenwidth@l(9)
 453              		.loc 1 123 2 is_stmt 1 view .LVU134
 454              		.loc 1 123 19 is_stmt 0 view .LVU135
 455 0068 48000001 		bl SYS_AllocateFramebuffer
 456              	.LVL49:
 457 006c 7C691B78 		mr 9,3
 458              		.loc 1 124 19 view .LVU136
 459 0070 807F0000 		lwz 3,_ZL5vmode@l(31)
 460              		.loc 1 123 19 discriminator 1 view .LVU137
 461 0074 3D294000 		addis 9,9,0x4000
 462              		.loc 1 123 9 discriminator 1 view .LVU138
 463 0078 3BBE0000 		la 29,_ZL3xfb@l(30)
 464 007c 913E0000 		stw 9,_ZL3xfb@l(30)
 465              		.loc 1 124 2 is_stmt 1 view .LVU139
 466              		.loc 1 124 19 is_stmt 0 view .LVU140
 467 0080 48000001 		bl SYS_AllocateFramebuffer
 468              	.LVL50:
 469              		.loc 1 127 35 view .LVU141
 470 0084 815F0000 		lwz 10,_ZL5vmode@l(31)
 471              		.loc 1 124 19 discriminator 1 view .LVU142
 472 0088 3D234000 		addis 9,3,0x4000
 473              		.loc 1 127 11 view .LVU143
 474 008c 807E0000 		lwz 3,_ZL3xfb@l(30)
 475 0090 38A00040 		li 5,64
 476 0094 A0CA0004 		lhz 6,4(10)
 477 0098 38800014 		li 4,20
 478 009c A0EA0008 		lhz 7,8(10)
 479 00a0 54C8083C 		slwi 8,6,1
 480              		.loc 1 124 9 discriminator 1 view .LVU144
 481 00a4 913D0004 		stw 9,4(29)
 482              		.loc 1 127 2 is_stmt 1 view .LVU145
 483              		.loc 1 127 11 is_stmt 0 view .LVU146
 484 00a8 48000001 		bl CON_Init
 485              	.LVL51:
 486              		.loc 1 129 2 is_stmt 1 view .LVU147
 487              		.loc 1 129 8 is_stmt 0 view .LVU148
 488 00ac 3C600000 		lis 3,.LC17@ha
 489 00b0 38630000 		la 3,.LC17@l(3)
 490 00b4 48000001 		bl puts
 491              	.LVL52:
 492              		.loc 1 132 2 is_stmt 1 view .LVU149
 493              		.loc 1 132 25 is_stmt 0 view .LVU150
 494 00b8 809E0000 		lwz 4,_ZL3xfb@l(30)
 495 00bc 807F0000 		lwz 3,_ZL5vmode@l(31)
 496 00c0 3CA01080 		lis 5,0x1080
 497 00c4 60A51080 		ori 5,5,0x1080
 498 00c8 48000001 		bl VIDEO_ClearFrameBuffer
 499              	.LVL53:
 500              		.loc 1 133 2 is_stmt 1 view .LVU151
 501              		.loc 1 133 25 is_stmt 0 view .LVU152
 502 00cc 809D0004 		lwz 4,4(29)
 503 00d0 807F0000 		lwz 3,_ZL5vmode@l(31)
 504 00d4 3CA01080 		lis 5,0x1080
 505 00d8 60A51080 		ori 5,5,0x1080
 506 00dc 48000001 		bl VIDEO_ClearFrameBuffer
 507              	.LVL54:
 508              		.loc 1 134 2 is_stmt 1 view .LVU153
 509              		.loc 1 134 27 is_stmt 0 view .LVU154
 510 00e0 807E0000 		lwz 3,_ZL3xfb@l(30)
 511 00e4 48000001 		bl VIDEO_SetNextFramebuffer
 512              	.LVL55:
 513              		.loc 1 136 2 is_stmt 1 view .LVU155
 514              		.loc 1 136 17 is_stmt 0 view .LVU156
 515 00e8 38600000 		li 3,0
 516 00ec 48000001 		bl VIDEO_SetBlack
 517              	.LVL56:
 518              		.loc 1 137 2 is_stmt 1 view .LVU157
 519              		.loc 1 137 14 is_stmt 0 view .LVU158
 520 00f0 48000001 		bl VIDEO_Flush
 521              	.LVL57:
 522              		.loc 1 138 2 is_stmt 1 view .LVU159
 523              		.loc 1 138 18 is_stmt 0 view .LVU160
 524 00f4 48000001 		bl VIDEO_WaitVSync
 525              	.LVL58:
 526              		.loc 1 139 2 is_stmt 1 view .LVU161
 527              		.loc 1 139 13 is_stmt 0 view .LVU162
 528 00f8 813F0000 		lwz 9,_ZL5vmode@l(31)
 529              		.loc 1 139 22 view .LVU163
 530 00fc 81290000 		lwz 9,0(9)
 531              		.loc 1 139 2 view .LVU164
 532 0100 71290001 		andi. 9,9,0x1
 533 0104 40820068 		bne- 0,.L21
 534              	.L16:
 535              		.loc 1 143 2 is_stmt 1 view .LVU165
 536              		.loc 1 144 9 is_stmt 0 view .LVU166
 537 0108 3D200000 		lis 9,_ZL7gp_fifo@ha
 538 010c 3CA00004 		lis 5,0x4
 539 0110 39290000 		la 9,_ZL7gp_fifo@l(9)
 540 0114 38800000 		li 4,0
 541 0118 7D234B78 		mr 3,9
 542              		.loc 1 143 10 view .LVU167
 543 011c 3BE000FF 		li 31,255
 544              	.LVL59:
 545              		.loc 1 144 2 is_stmt 1 view .LVU168
 546              		.loc 1 144 9 is_stmt 0 view .LVU169
 547 0120 48000001 		bl memset
 548              	.LVL60:
 549              		.loc 1 145 2 is_stmt 1 view .LVU170
 550              		.loc 1 145 10 is_stmt 0 view .LVU171
 551 0124 3C800004 		lis 4,0x4
 552 0128 48000001 		bl GX_Init
 553              	.LVL61:
 554              		.loc 1 146 2 is_stmt 1 view .LVU172
 555              		.loc 1 146 18 is_stmt 0 view .LVU173
 556 012c 3C8000FF 		lis 4,0xff
 557 0130 38610008 		addi 3,1,8
 558 0134 6084FFFF 		ori 4,4,0xffff
 559              	.LVL62:
 560              		.loc 1 146 18 view .LVU174
 561 0138 93E10008 		stw 31,8(1)
 562 013c 48000001 		bl GX_SetCopyClear
 563              	.LVL63:
 564              		.loc 1 147 2 is_stmt 1 view .LVU175
 565              		.loc 1 147 22 is_stmt 0 view .LVU176
 566 0140 38600000 		li 3,0
 567 0144 48000001 		bl GX_SetDispCopyGamma
 568              	.LVL64:
 569              		.loc 1 148 2 is_stmt 1 view .LVU177
 570              		.loc 1 148 17 is_stmt 0 view .LVU178
 571 0148 38600000 		li 3,0
 572 014c 48000001 		bl GX_SetCullMode
 573              	.LVL65:
 574              		.loc 1 150 2 is_stmt 1 view .LVU179
 575              		.loc 1 152 1 is_stmt 0 view .LVU180
 576 0150 80010024 		lwz 0,36(1)
 577 0154 83A10014 		lwz 29,20(1)
 578 0158 83C10018 		lwz 30,24(1)
 579 015c 7C0803A6 		mtlr 0
 580              		.cfi_remember_state
 581              		.cfi_restore 65
 582 0160 83E1001C 		lwz 31,28(1)
 583              	.LVL66:
 584              		.loc 1 152 1 view .LVU181
 585 0164 38210020 		addi 1,1,32
 586              		.cfi_restore 31
 587              		.cfi_restore 30
 588              		.cfi_restore 29
 589              		.cfi_def_cfa_offset 0
 590              		.loc 1 150 17 view .LVU182
 591 0168 48000000 		b _Z15ResetVideo_Menuv
 592              	.LVL67:
 593              	.L21:
 594              		.cfi_restore_state
 595              		.loc 1 140 3 is_stmt 1 view .LVU183
 596              		.loc 1 140 19 is_stmt 0 view .LVU184
 597 016c 48000001 		bl VIDEO_WaitVSync
 598              	.LVL68:
 599 0170 4BFFFF98 		b .L16
 600              		.cfi_endproc
 601              	.LFE2344:
 602              		.size	_Z9InitVideov, .-_Z9InitVideov
 603              		.section	.text._Z6StopGXv,"ax",@progbits
 604              		.align 2
 605              		.globl _Z6StopGXv
 606              		.type	_Z6StopGXv, @function
 607              	_Z6StopGXv:
 608              	.LFB2345:
 609              		.loc 1 160 1 is_stmt 1 view -0
 610              		.cfi_startproc
 611              		.loc 1 161 2 view .LVU186
 612              		.loc 1 160 1 is_stmt 0 view .LVU187
 613 0000 9421FFF8 		stwu 1,-8(1)
 614              		.cfi_def_cfa_offset 8
 615 0004 7C0802A6 		mflr 0
 616 0008 9001000C 		stw 0,12(1)
 617              		.cfi_offset 65, 4
 618              		.loc 1 161 15 view .LVU188
 619 000c 48000001 		bl GX_AbortFrame
 620              	.LVL69:
 621              		.loc 1 162 2 is_stmt 1 view .LVU189
 622              		.loc 1 162 10 is_stmt 0 view .LVU190
 623 0010 48000001 		bl GX_Flush
 624              	.LVL70:
 625              		.loc 1 164 2 is_stmt 1 view .LVU191
 626              		.loc 1 164 16 is_stmt 0 view .LVU192
 627 0014 38600001 		li 3,1
 628 0018 48000001 		bl VIDEO_SetBlack
 629              	.LVL71:
 630              		.loc 1 165 2 is_stmt 1 view .LVU193
 631              		.loc 1 166 1 is_stmt 0 view .LVU194
 632 001c 8001000C 		lwz 0,12(1)
 633 0020 38210008 		addi 1,1,8
 634              		.cfi_def_cfa_offset 0
 635 0024 7C0803A6 		mtlr 0
 636              		.cfi_restore 65
 637              		.loc 1 165 13 view .LVU195
 638 0028 48000000 		b VIDEO_Flush
 639              	.LVL72:
 640              		.cfi_endproc
 641              	.LFE2345:
 642              		.size	_Z6StopGXv, .-_Z6StopGXv
 643              		.section	.text._Z11Menu_Renderv,"ax",@progbits
 644              		.align 2
 645              		.globl _Z11Menu_Renderv
 646              		.type	_Z11Menu_Renderv, @function
 647              	_Z11Menu_Renderv:
 648              	.LFB2346:
 649              		.loc 1 174 1 is_stmt 1 view -0
 650              		.cfi_startproc
 651              		.loc 1 175 2 view .LVU197
 652              		.loc 1 174 1 is_stmt 0 view .LVU198
 653 0000 9421FFF0 		stwu 1,-16(1)
 654              		.cfi_def_cfa_offset 16
 655 0004 7C0802A6 		mflr 0
 656              		.loc 1 176 13 view .LVU199
 657 0008 38A00001 		li 5,1
 658 000c 38800003 		li 4,3
 659              		.loc 1 174 1 view .LVU200
 660 0010 93C10008 		stw 30,8(1)
 661              		.cfi_register 65, 0
 662              		.cfi_offset 30, -8
 663              		.loc 1 175 10 view .LVU201
 664 0014 3FC00000 		lis 30,_ZL7whichfb@ha
 665 0018 813E0000 		lwz 9,_ZL7whichfb@l(30)
 666              		.loc 1 176 13 view .LVU202
 667 001c 38600001 		li 3,1
 668              		.loc 1 174 1 view .LVU203
 669 0020 90010014 		stw 0,20(1)
 670              		.loc 1 175 10 view .LVU204
 671 0024 69290001 		xori 9,9,0x1
 672              		.loc 1 174 1 view .LVU205
 673 0028 93E1000C 		stw 31,12(1)
 674              		.cfi_offset 65, 4
 675              		.cfi_offset 31, -4
 676              		.loc 1 175 10 view .LVU206
 677 002c 913E0000 		stw 9,_ZL7whichfb@l(30)
 678              		.loc 1 176 2 is_stmt 1 view .LVU207
 679              		.loc 1 176 13 is_stmt 0 view .LVU208
 680 0030 48000001 		bl GX_SetZMode
 681              	.LVL73:
 682              		.loc 1 177 2 is_stmt 1 view .LVU209
 683              		.loc 1 177 19 is_stmt 0 view .LVU210
 684 0034 38600001 		li 3,1
 685              		.loc 1 178 25 view .LVU211
 686 0038 3FE00000 		lis 31,_ZL3xfb@ha
 687              		.loc 1 177 19 view .LVU212
 688 003c 48000001 		bl GX_SetColorUpdate
 689              	.LVL74:
 690              		.loc 1 178 2 is_stmt 1 view .LVU213
 691              		.loc 1 178 25 is_stmt 0 view .LVU214
 692 0040 813E0000 		lwz 9,_ZL7whichfb@l(30)
 693 0044 3BFF0000 		la 31,_ZL3xfb@l(31)
 694              		.loc 1 178 13 view .LVU215
 695 0048 38800001 		li 4,1
 696              		.loc 1 178 25 view .LVU216
 697 004c 5529103A 		slwi 9,9,2
 698              		.loc 1 178 13 view .LVU217
 699 0050 7C7F482E 		lwzx 3,31,9
 700 0054 48000001 		bl GX_CopyDisp
 701              	.LVL75:
 702              		.loc 1 179 2 is_stmt 1 view .LVU218
 703              		.loc 1 179 13 is_stmt 0 view .LVU219
 704 0058 48000001 		bl GX_DrawDone
 705              	.LVL76:
 706              		.loc 1 180 2 is_stmt 1 view .LVU220
 707              		.loc 1 180 38 is_stmt 0 view .LVU221
 708 005c 813E0000 		lwz 9,_ZL7whichfb@l(30)
 709 0060 5529103A 		slwi 9,9,2
 710              		.loc 1 180 26 view .LVU222
 711 0064 7C7F482E 		lwzx 3,31,9
 712 0068 48000001 		bl VIDEO_SetNextFramebuffer
 713              	.LVL77:
 714              		.loc 1 181 2 is_stmt 1 view .LVU223
 715              		.loc 1 181 13 is_stmt 0 view .LVU224
 716 006c 48000001 		bl VIDEO_Flush
 717              	.LVL78:
 718              		.loc 1 182 2 is_stmt 1 view .LVU225
 719              		.loc 1 182 17 is_stmt 0 view .LVU226
 720 0070 48000001 		bl VIDEO_WaitVSync
 721              	.LVL79:
 722              		.loc 1 183 2 is_stmt 1 view .LVU227
 723              		.loc 1 183 12 is_stmt 0 view .LVU228
 724 0074 3D400000 		lis 10,FrameTimer@ha
 725 0078 812A0000 		lwz 9,FrameTimer@l(10)
 726              		.loc 1 184 1 view .LVU229
 727 007c 80010014 		lwz 0,20(1)
 728              		.loc 1 183 12 view .LVU230
 729 0080 39290001 		addi 9,9,1
 730              		.loc 1 184 1 view .LVU231
 731 0084 83C10008 		lwz 30,8(1)
 732              		.loc 1 183 12 view .LVU232
 733 0088 912A0000 		stw 9,FrameTimer@l(10)
 734              		.loc 1 184 1 view .LVU233
 735 008c 7C0803A6 		mtlr 0
 736              		.cfi_restore 65
 737 0090 83E1000C 		lwz 31,12(1)
 738 0094 38210010 		addi 1,1,16
 739              		.cfi_restore 31
 740              		.cfi_restore 30
 741              		.cfi_def_cfa_offset 0
 742 0098 4E800020 		blr
 743              		.cfi_endproc
 744              	.LFE2346:
 745              		.size	_Z11Menu_Renderv, .-_Z11Menu_Renderv
 746              		.section	.text._Z12Menu_DrawImgffttPhfffh,"ax",@progbits
 747              		.align 2
 748              		.globl _Z12Menu_DrawImgffttPhfffh
 749              		.type	_Z12Menu_DrawImgffttPhfffh, @function
 750              	_Z12Menu_DrawImgffttPhfffh:
 751              	.LVL80:
 752              	.LFB2347:
 753              		.loc 1 193 1 is_stmt 1 view -0
 754              		.cfi_startproc
 755              		.loc 1 194 2 view .LVU235
 756 0000 2C050000 		cmpwi 0,5,0
 757              		.loc 1 194 2 is_stmt 0 view .LVU236
 758 0004 4D820020 		beqlr- 0
 759              		.loc 1 197 2 is_stmt 1 view .LVU237
 760              		.loc 1 199 2 view .LVU238
 761              		.loc 1 193 1 is_stmt 0 view .LVU239
 762 0008 9421FE78 		stwu 1,-392(1)
 763              		.cfi_def_cfa_offset 392
 764 000c 7C0802A6 		mflr 0
 765              		.loc 1 199 15 view .LVU240
 766 0010 39000000 		li 8,0
 767 0014 38E00006 		li 7,6
 768              		.loc 1 193 1 view .LVU241
 769 0018 93810148 		stw 28,328(1)
 770              		.cfi_register 65, 0
 771              		.cfi_offset 28, -64
 772 001c 7C7C1B78 		mr 28,3
 773 0020 93A1014C 		stw 29,332(1)
 774              		.cfi_offset 29, -60
 775 0024 7C9D2378 		mr 29,4
 776 0028 93C10150 		stw 30,336(1)
 777              		.loc 1 199 15 view .LVU242
 778 002c 39400000 		li 10,0
 779              		.cfi_offset 30, -56
 780 0030 7CDE3378 		mr 30,6
 781 0034 39200000 		li 9,0
 782 0038 7FA6EB78 		mr 6,29
 783              	.LVL81:
 784              		.loc 1 199 15 view .LVU243
 785 003c 7CA42B78 		mr 4,5
 786              	.LVL82:
 787              		.loc 1 199 15 view .LVU244
 788 0040 386100C8 		addi 3,1,200
 789              	.LVL83:
 790              		.loc 1 199 15 view .LVU245
 791 0044 7F85E378 		mr 5,28
 792              	.LVL84:
 793              		.loc 1 193 1 view .LVU246
 794 0048 9001018C 		stw 0,396(1)
 795              		.loc 1 207 8 view .LVU247
 796 004c 6F9C8000 		xoris 28,28,0x8000
 797              	.LVL85:
 798              		.loc 1 193 1 view .LVU248
 799 0050 DB410158 		stfd 26,344(1)
 800              		.cfi_offset 65, 4
 801              		.cfi_offset 58, -48
 802 0054 FF401890 		fmr 26,3
 803 0058 DB610160 		stfd 27,352(1)
 804              		.cfi_offset 59, -40
 805 005c FF601090 		fmr 27,2
 806 0060 DB810168 		stfd 28,360(1)
 807              		.cfi_offset 60, -32
 808 0064 FF800890 		fmr 28,1
 809 0068 DBA10170 		stfd 29,368(1)
 810              		.loc 1 208 9 view .LVU249
 811 006c 6FBD8000 		xoris 29,29,0x8000
 812              		.loc 1 193 1 view .LVU250
 813 0070 DBC10178 		stfd 30,376(1)
 814              		.cfi_offset 61, -24
 815              		.cfi_offset 62, -16
 816 0074 FFC02890 		fmr 30,5
 817 0078 DBE10180 		stfd 31,384(1)
 818              		.cfi_offset 63, -8
 819 007c FFE02090 		fmr 31,4
 820 0080 93610144 		stw 27,324(1)
 821              		.cfi_offset 27, -68
 822              		.loc 1 216 14 view .LVU251
 823 0084 3F600000 		lis 27,_ZL13GXmodelView2D@ha
 824              		.loc 1 193 1 view .LVU252
 825 0088 93E10154 		stw 31,340(1)
 826              		.cfi_offset 31, -52
 827              		.loc 1 199 15 view .LVU253
 828 008c 48000001 		bl GX_InitTexObj
 829              	.LVL86:
 830              		.loc 1 200 2 is_stmt 1 view .LVU254
 831              		.loc 1 200 15 is_stmt 0 view .LVU255
 832 0090 386100C8 		addi 3,1,200
 833 0094 38800000 		li 4,0
 834 0098 48000001 		bl GX_LoadTexObj
 835              	.LVL87:
 836              		.loc 1 201 2 is_stmt 1 view .LVU256
 837              		.loc 1 207 8 is_stmt 0 view .LVU257
 838 009c 3FE04330 		lis 31,0x4330
 839              		.loc 1 201 21 view .LVU258
 840 00a0 48000001 		bl GX_InvalidateTexAll
 841              	.LVL88:
 842              		.loc 1 203 2 is_stmt 1 view .LVU259
 843              		.loc 1 203 14 is_stmt 0 view .LVU260
 844 00a4 38800000 		li 4,0
 845 00a8 38600000 		li 3,0
 846              		.loc 1 216 14 view .LVU261
 847 00ac 3B7B0000 		la 27,_ZL13GXmodelView2D@l(27)
 848              		.loc 1 203 14 view .LVU262
 849 00b0 48000001 		bl GX_SetTevOp
 850              	.LVL89:
 851              		.loc 1 204 2 is_stmt 1 view .LVU263
 852              		.loc 1 204 16 is_stmt 0 view .LVU264
 853 00b4 38800001 		li 4,1
 854 00b8 3860000D 		li 3,13
 855 00bc 48000001 		bl GX_SetVtxDesc
 856              	.LVL90:
 857              		.loc 1 206 2 is_stmt 1 view .LVU265
 858              		.loc 1 207 2 view .LVU266
 859              		.loc 1 207 8 is_stmt 0 view .LVU267
 860 00c0 938100FC 		stw 28,252(1)
 861 00c4 93E100F8 		stw 31,248(1)
 862 00c8 3D400000 		lis 10,.LC19@ha
 863 00cc C3AA0000 		lfs 29,.LC19@l(10)
 864 00d0 3D200000 		lis 9,.LC21@ha
 865              		.loc 1 208 9 view .LVU268
 866 00d4 93A10104 		stw 29,260(1)
 867              		.loc 1 209 16 view .LVU269
 868 00d8 38610068 		addi 3,1,104
 869              		.loc 1 208 9 view .LVU270
 870 00dc 93E10100 		stw 31,256(1)
 871              		.loc 1 207 8 view .LVU271
 872 00e0 C80100F8 		lfd 0,248(1)
 873 00e4 C1690000 		lfs 11,.LC21@l(9)
 874 00e8 39210138 		addi 9,1,312
 875 00ec FD80E828 		fsub 12,0,29
 876              		.loc 1 208 9 view .LVU272
 877 00f0 C8010100 		lfd 0,256(1)
 878 00f4 FC00E828 		fsub 0,0,29
 879              		.loc 1 207 8 view .LVU273
 880 00f8 FD8C02F2 		fmul 12,12,11
 881              		.loc 1 208 9 view .LVU274
 882 00fc FC0002F2 		fmul 0,0,11
 883              		.loc 1 207 8 view .LVU275
 884 0100 FD80601E 		fctiwz 12,12
 885              		.loc 1 208 9 view .LVU276
 886 0104 FC00001E 		fctiwz 0,0
 887              		.loc 1 207 8 view .LVU277
 888 0108 7D804FAE 		stfiwx 12,0,9
 889              		.loc 1 208 9 view .LVU278
 890 010c 3921013C 		addi 9,1,316
 891 0110 7C004FAE 		stfiwx 0,0,9
 892              		.loc 1 207 8 view .LVU279
 893 0114 83810138 		lwz 28,312(1)
 894              	.LVL91:
 895              		.loc 1 208 9 view .LVU280
 896 0118 83A1013C 		lwz 29,316(1)
 897              	.LVL92:
 898              		.loc 1 209 16 view .LVU281
 899 011c 48000001 		bl ps_guMtxIdentity
 900              	.LVL93:
 901              		.loc 1 210 17 view .LVU282
 902 0120 3D200000 		lis 9,.LC5@ha
 903 0124 FC40F090 		fmr 2,30
 904 0128 C3C90000 		lfs 30,.LC5@l(9)
 905              	.LVL94:
 906              		.loc 1 210 17 view .LVU283
 907 012c FC20F890 		fmr 1,31
 908 0130 38810068 		addi 4,1,104
 909              		.loc 1 208 9 view .LVU284
 910 0134 57BD043E 		rlwinm 29,29,0,0xffff
 911              		.loc 1 210 17 view .LVU285
 912 0138 FC60F090 		fmr 3,30
 913 013c 7C832378 		mr 3,4
 914              		.loc 1 207 8 view .LVU286
 915 0140 579C043E 		rlwinm 28,28,0,0xffff
 916              	.LVL95:
 917              		.loc 1 208 2 is_stmt 1 view .LVU287
 918              		.loc 1 209 2 view .LVU288
 919              		.loc 1 210 2 view .LVU289
 920              		.loc 1 210 17 is_stmt 0 view .LVU290
 921 0144 48000001 		bl ps_guMtxScaleApply
 922              	.LVL96:
 923              		.loc 1 211 2 is_stmt 1 view .LVU291
 924              		.loc 1 212 2 is_stmt 0 view .LVU292
 925 0148 3D200000 		lis 9,.LC22@ha
 926 014c C0290000 		lfs 1,.LC22@l(9)
 927              		.loc 1 211 11 view .LVU293
 928 0150 3D200000 		lis 9,.LC1@ha
 929 0154 C3E90000 		lfs 31,.LC1@l(9)
 930              	.LVL97:
 931              		.loc 1 212 2 view .LVU294
 932 0158 38610038 		addi 3,1,56
 933 015c EC3A0072 		fmuls 1,26,1
 934 0160 388100E8 		addi 4,1,232
 935              		.loc 1 211 11 view .LVU295
 936 0164 D3C100F0 		stfs 30,240(1)
 937              		.loc 1 212 2 is_stmt 1 view .LVU296
 938              		.loc 1 211 11 is_stmt 0 view .LVU297
 939 0168 D3E100E8 		stfs 31,232(1)
 940 016c D3E100EC 		stfs 31,236(1)
 941              		.loc 1 212 2 view .LVU298
 942 0170 48000001 		bl ps_guMtxRotAxisRad
 943              	.LVL98:
 944              		.loc 1 213 2 is_stmt 1 view .LVU299
 945              		.loc 1 213 13 is_stmt 0 view .LVU300
 946 0174 38A10098 		addi 5,1,152
 947 0178 38810068 		addi 4,1,104
 948 017c 38610038 		addi 3,1,56
 949 0180 48000001 		bl ps_guMtxConcat
 950              	.LVL99:
 951              		.loc 1 215 2 is_stmt 1 view .LVU301
 952              		.loc 1 215 17 is_stmt 0 view .LVU302
 953 0184 6FAA8000 		xoris 10,29,0x8000
 954 0188 9141010C 		stw 10,268(1)
 955 018c 6F898000 		xoris 9,28,0x8000
 956 0190 93E10108 		stw 31,264(1)
 957 0194 FC60F890 		fmr 3,31
 958 0198 91210114 		stw 9,276(1)
 959 019c 38810098 		addi 4,1,152
 960 01a0 93E10110 		stw 31,272(1)
 961 01a4 7C832378 		mr 3,4
 962 01a8 C8010108 		lfd 0,264(1)
 963 01ac FD80E828 		fsub 12,0,29
 964 01b0 C8010110 		lfd 0,272(1)
 965 01b4 FC00E828 		fsub 0,0,29
 966 01b8 FD806018 		frsp 12,12
 967 01bc FC000018 		frsp 0,0
 968 01c0 EC4CD82A 		fadds 2,12,27
 969 01c4 EC20E02A 		fadds 1,0,28
 970 01c8 48000001 		bl ps_guMtxTransApply
 971              	.LVL100:
 972              		.loc 1 216 2 is_stmt 1 view .LVU303
 973              		.loc 1 216 14 is_stmt 0 view .LVU304
 974 01cc 38A10008 		addi 5,1,8
 975 01d0 38810098 		addi 4,1,152
 976 01d4 7F63DB78 		mr 3,27
 977 01d8 48000001 		bl ps_guMtxConcat
 978              	.LVL101:
 979              		.loc 1 217 2 is_stmt 1 view .LVU305
 980              		.loc 1 217 19 is_stmt 0 view .LVU306
 981 01dc 38610008 		addi 3,1,8
 982 01e0 38800000 		li 4,0
 983 01e4 48000001 		bl GX_LoadPosMtxImm
 984              	.LVL102:
 985              		.loc 1 219 2 is_stmt 1 view .LVU307
 986              		.loc 1 219 10 is_stmt 0 view .LVU308
 987 01e8 38A00004 		li 5,4
 988 01ec 38800000 		li 4,0
 989 01f0 38600080 		li 3,128
 990 01f4 48000001 		bl GX_Begin
 991              	.LVL103:
 992              		.loc 1 220 2 is_stmt 1 view .LVU309
 993              		.loc 1 220 18 is_stmt 0 view .LVU310
 994 01f8 7D1C00D0 		neg 8,28
 995              		.loc 1 220 17 view .LVU311
 996 01fc 6D088000 		xoris 8,8,0x8000
 997 0200 93E10118 		stw 31,280(1)
 998 0204 9101011C 		stw 8,284(1)
 999              		.loc 1 220 26 view .LVU312
 1000 0208 7D3D00D0 		neg 9,29
 1001              		.loc 1 220 17 view .LVU313
 1002 020c 6D298000 		xoris 9,9,0x8000
 1003 0210 93E10120 		stw 31,288(1)
 1004 0214 91210124 		stw 9,292(1)
 1005              	.LBB34:
 1006              	.LBB35:
 1007              		.file 2 "C:/devkitPro/libogc/include/ogc/gx.h"
 1008              		.loc 2 2123 2 view .LVU314
 1009 0218 3CC00000 		lis 6,wgPipe@ha
 1010              	.LBE35:
 1011              	.LBE34:
 1012              		.loc 1 220 17 view .LVU315
 1013 021c C8010118 		lfd 0,280(1)
 1014              	.LBB38:
 1015              	.LBB39:
 1016              		.loc 2 2229 13 view .LVU316
 1017 0220 3940FFFF 		li 10,-1
 1018              	.LBE39:
 1019              	.LBE38:
 1020              	.LBB41:
 1021              	.LBB36:
 1022              		.loc 2 2123 2 view .LVU317
 1023 0224 81260000 		lwz 9,wgPipe@l(6)
 1024              	.LBE36:
 1025              	.LBE41:
 1026              		.loc 1 224 17 view .LVU318
 1027 0228 3CE00000 		lis 7,.LC7@ha
 1028              		.loc 1 220 17 view .LVU319
 1029 022c FD80E828 		fsub 12,0,29
 1030 0230 C8010120 		lfd 0,288(1)
 1031              		.loc 1 224 17 view .LVU320
 1032 0234 C1470000 		lfs 10,.LC7@l(7)
 1033              		.loc 1 236 19 view .LVU321
 1034 0238 7F63DB78 		mr 3,27
 1035              		.loc 1 220 17 view .LVU322
 1036 023c FC00E828 		fsub 0,0,29
 1037              		.loc 1 236 19 view .LVU323
 1038 0240 38800000 		li 4,0
 1039              		.loc 1 220 17 view .LVU324
 1040 0244 FD806018 		frsp 12,12
 1041 0248 FC000018 		frsp 0,0
 1042              	.LVL104:
 1043              	.LBB42:
 1044              	.LBI34:
 1045              		.loc 2 2121 20 is_stmt 1 view .LVU325
 1046              	.LBB37:
 1047              		.loc 2 2123 2 view .LVU326
 1048              		.loc 2 2123 14 is_stmt 0 view .LVU327
 1049 024c D1890000 		stfs 12,0(9)
 1050              		.loc 2 2124 2 is_stmt 1 view .LVU328
 1051              		.loc 2 2124 14 is_stmt 0 view .LVU329
 1052 0250 D0090000 		stfs 0,0(9)
 1053              		.loc 2 2125 2 is_stmt 1 view .LVU330
 1054              		.loc 2 2125 14 is_stmt 0 view .LVU331
 1055 0254 D3E90000 		stfs 31,0(9)
 1056              	.LVL105:
 1057              		.loc 2 2125 14 view .LVU332
 1058              	.LBE37:
 1059              	.LBE42:
 1060              		.loc 1 221 2 is_stmt 1 view .LVU333
 1061              	.LBB43:
 1062              	.LBI38:
 1063              		.loc 2 2227 20 view .LVU334
 1064              	.LBB40:
 1065              		.loc 2 2229 2 view .LVU335
 1066              		.loc 2 2229 13 is_stmt 0 view .LVU336
 1067 0258 99490000 		stb 10,0(9)
 1068              		.loc 2 2230 2 is_stmt 1 view .LVU337
 1069              		.loc 2 2230 13 is_stmt 0 view .LVU338
 1070 025c 99490000 		stb 10,0(9)
 1071              		.loc 2 2231 2 is_stmt 1 view .LVU339
 1072              		.loc 2 2231 13 is_stmt 0 view .LVU340
 1073 0260 99490000 		stb 10,0(9)
 1074              		.loc 2 2232 2 is_stmt 1 view .LVU341
 1075              		.loc 2 2232 13 is_stmt 0 view .LVU342
 1076 0264 9BC90000 		stb 30,0(9)
 1077              	.LVL106:
 1078              		.loc 2 2232 13 view .LVU343
 1079              	.LBE40:
 1080              	.LBE43:
 1081              		.loc 1 222 2 is_stmt 1 view .LVU344
 1082              	.LBB44:
 1083              	.LBI44:
 1084              		.loc 2 2269 20 view .LVU345
 1085              	.LBB45:
 1086              		.loc 2 2271 2 view .LVU346
 1087              		.loc 2 2271 14 is_stmt 0 view .LVU347
 1088 0268 D3E90000 		stfs 31,0(9)
 1089              		.loc 2 2272 2 is_stmt 1 view .LVU348
 1090              		.loc 2 2272 14 is_stmt 0 view .LVU349
 1091 026c D3E90000 		stfs 31,0(9)
 1092              	.LVL107:
 1093              		.loc 2 2272 14 view .LVU350
 1094              	.LBE45:
 1095              	.LBE44:
 1096              		.loc 1 224 2 is_stmt 1 view .LVU351
 1097              		.loc 1 224 17 is_stmt 0 view .LVU352
 1098 0270 9381012C 		stw 28,300(1)
 1099 0274 93E10128 		stw 31,296(1)
 1100 0278 C9610128 		lfd 11,296(1)
 1101 027c FD6B5028 		fsub 11,11,10
 1102 0280 FD605818 		frsp 11,11
 1103              	.LVL108:
 1104              	.LBB46:
 1105              	.LBI46:
 1106              		.loc 2 2121 20 is_stmt 1 view .LVU353
 1107              	.LBB47:
 1108              		.loc 2 2123 2 view .LVU354
 1109              		.loc 2 2123 14 is_stmt 0 view .LVU355
 1110 0284 D1690000 		stfs 11,0(9)
 1111              		.loc 2 2124 2 is_stmt 1 view .LVU356
 1112              		.loc 2 2124 14 is_stmt 0 view .LVU357
 1113 0288 D0090000 		stfs 0,0(9)
 1114              		.loc 2 2125 2 is_stmt 1 view .LVU358
 1115              		.loc 2 2125 14 is_stmt 0 view .LVU359
 1116 028c D3E90000 		stfs 31,0(9)
 1117              	.LVL109:
 1118              		.loc 2 2125 14 view .LVU360
 1119              	.LBE47:
 1120              	.LBE46:
 1121              		.loc 1 225 2 is_stmt 1 view .LVU361
 1122              	.LBB48:
 1123              	.LBI48:
 1124              		.loc 2 2227 20 view .LVU362
 1125              	.LBB49:
 1126              		.loc 2 2229 2 view .LVU363
 1127              		.loc 2 2229 13 is_stmt 0 view .LVU364
 1128 0290 99490000 		stb 10,0(9)
 1129              		.loc 2 2230 2 is_stmt 1 view .LVU365
 1130              		.loc 2 2230 13 is_stmt 0 view .LVU366
 1131 0294 99490000 		stb 10,0(9)
 1132              		.loc 2 2231 2 is_stmt 1 view .LVU367
 1133              		.loc 2 2231 13 is_stmt 0 view .LVU368
 1134 0298 99490000 		stb 10,0(9)
 1135              		.loc 2 2232 2 is_stmt 1 view .LVU369
 1136              		.loc 2 2232 13 is_stmt 0 view .LVU370
 1137 029c 9BC90000 		stb 30,0(9)
 1138              	.LVL110:
 1139              		.loc 2 2232 13 view .LVU371
 1140              	.LBE49:
 1141              	.LBE48:
 1142              		.loc 1 226 2 is_stmt 1 view .LVU372
 1143              	.LBB50:
 1144              	.LBI50:
 1145              		.loc 2 2269 20 view .LVU373
 1146              	.LBB51:
 1147              		.loc 2 2271 2 view .LVU374
 1148              		.loc 2 2271 14 is_stmt 0 view .LVU375
 1149 02a0 D3C90000 		stfs 30,0(9)
 1150              		.loc 2 2272 2 is_stmt 1 view .LVU376
 1151              		.loc 2 2272 14 is_stmt 0 view .LVU377
 1152 02a4 D3E90000 		stfs 31,0(9)
 1153              	.LVL111:
 1154              		.loc 2 2272 14 view .LVU378
 1155              	.LBE51:
 1156              	.LBE50:
 1157              		.loc 1 228 2 is_stmt 1 view .LVU379
 1158              		.loc 1 228 17 is_stmt 0 view .LVU380
 1159 02a8 93A10134 		stw 29,308(1)
 1160 02ac 93E10130 		stw 31,304(1)
 1161 02b0 C8010130 		lfd 0,304(1)
 1162              	.LBB52:
 1163              	.LBB53:
 1164              		.loc 2 2123 14 view .LVU381
 1165 02b4 D1690000 		stfs 11,0(9)
 1166              	.LBE53:
 1167              	.LBE52:
 1168              		.loc 1 228 17 view .LVU382
 1169 02b8 FC005028 		fsub 0,0,10
 1170 02bc FC000018 		frsp 0,0
 1171              	.LVL112:
 1172              	.LBB55:
 1173              	.LBI52:
 1174              		.loc 2 2121 20 is_stmt 1 view .LVU383
 1175              	.LBB54:
 1176              		.loc 2 2123 2 view .LVU384
 1177              		.loc 2 2124 2 view .LVU385
 1178              		.loc 2 2124 14 is_stmt 0 view .LVU386
 1179 02c0 D0090000 		stfs 0,0(9)
 1180              		.loc 2 2125 2 is_stmt 1 view .LVU387
 1181              		.loc 2 2125 14 is_stmt 0 view .LVU388
 1182 02c4 D3E90000 		stfs 31,0(9)
 1183              	.LVL113:
 1184              		.loc 2 2125 14 view .LVU389
 1185              	.LBE54:
 1186              	.LBE55:
 1187              		.loc 1 229 2 is_stmt 1 view .LVU390
 1188              	.LBB56:
 1189              	.LBI56:
 1190              		.loc 2 2227 20 view .LVU391
 1191              	.LBB57:
 1192              		.loc 2 2229 2 view .LVU392
 1193              		.loc 2 2229 13 is_stmt 0 view .LVU393
 1194 02c8 99490000 		stb 10,0(9)
 1195              		.loc 2 2230 2 is_stmt 1 view .LVU394
 1196              		.loc 2 2230 13 is_stmt 0 view .LVU395
 1197 02cc 99490000 		stb 10,0(9)
 1198              		.loc 2 2231 2 is_stmt 1 view .LVU396
 1199              		.loc 2 2231 13 is_stmt 0 view .LVU397
 1200 02d0 99490000 		stb 10,0(9)
 1201              		.loc 2 2232 2 is_stmt 1 view .LVU398
 1202              		.loc 2 2232 13 is_stmt 0 view .LVU399
 1203 02d4 9BC90000 		stb 30,0(9)
 1204              	.LVL114:
 1205              		.loc 2 2232 13 view .LVU400
 1206              	.LBE57:
 1207              	.LBE56:
 1208              		.loc 1 230 2 is_stmt 1 view .LVU401
 1209              	.LBB58:
 1210              	.LBI58:
 1211              		.loc 2 2269 20 view .LVU402
 1212              	.LBB59:
 1213              		.loc 2 2271 2 view .LVU403
 1214              		.loc 2 2271 14 is_stmt 0 view .LVU404
 1215 02d8 D3C90000 		stfs 30,0(9)
 1216              		.loc 2 2272 2 is_stmt 1 view .LVU405
 1217              		.loc 2 2272 14 is_stmt 0 view .LVU406
 1218 02dc D3C90000 		stfs 30,0(9)
 1219              	.LVL115:
 1220              		.loc 2 2272 14 view .LVU407
 1221              	.LBE59:
 1222              	.LBE58:
 1223              		.loc 1 232 2 is_stmt 1 view .LVU408
 1224              	.LBB60:
 1225              	.LBI60:
 1226              		.loc 2 2121 20 view .LVU409
 1227              	.LBB61:
 1228              		.loc 2 2123 2 view .LVU410
 1229              		.loc 2 2123 14 is_stmt 0 view .LVU411
 1230 02e0 D1890000 		stfs 12,0(9)
 1231              		.loc 2 2124 2 is_stmt 1 view .LVU412
 1232              		.loc 2 2124 14 is_stmt 0 view .LVU413
 1233 02e4 D0090000 		stfs 0,0(9)
 1234              		.loc 2 2125 2 is_stmt 1 view .LVU414
 1235              		.loc 2 2125 14 is_stmt 0 view .LVU415
 1236 02e8 D3E90000 		stfs 31,0(9)
 1237              	.LVL116:
 1238              		.loc 2 2125 14 view .LVU416
 1239              	.LBE61:
 1240              	.LBE60:
 1241              		.loc 1 233 2 is_stmt 1 view .LVU417
 1242              	.LBB62:
 1243              	.LBI62:
 1244              		.loc 2 2227 20 view .LVU418
 1245              	.LBB63:
 1246              		.loc 2 2229 2 view .LVU419
 1247              		.loc 2 2229 13 is_stmt 0 view .LVU420
 1248 02ec 99490000 		stb 10,0(9)
 1249              		.loc 2 2230 2 is_stmt 1 view .LVU421
 1250              		.loc 2 2230 13 is_stmt 0 view .LVU422
 1251 02f0 99490000 		stb 10,0(9)
 1252              		.loc 2 2231 2 is_stmt 1 view .LVU423
 1253              		.loc 2 2231 13 is_stmt 0 view .LVU424
 1254 02f4 99490000 		stb 10,0(9)
 1255              		.loc 2 2232 2 is_stmt 1 view .LVU425
 1256              		.loc 2 2232 13 is_stmt 0 view .LVU426
 1257 02f8 9BC90000 		stb 30,0(9)
 1258              	.LVL117:
 1259              		.loc 2 2232 13 view .LVU427
 1260              	.LBE63:
 1261              	.LBE62:
 1262              		.loc 1 234 2 is_stmt 1 view .LVU428
 1263              	.LBB64:
 1264              	.LBI64:
 1265              		.loc 2 2269 20 view .LVU429
 1266              	.LBB65:
 1267              		.loc 2 2271 2 view .LVU430
 1268              		.loc 2 2271 14 is_stmt 0 view .LVU431
 1269 02fc D3E90000 		stfs 31,0(9)
 1270              		.loc 2 2272 2 is_stmt 1 view .LVU432
 1271              		.loc 2 2272 14 is_stmt 0 view .LVU433
 1272 0300 D3C90000 		stfs 30,0(9)
 1273              	.LVL118:
 1274              		.loc 2 2272 14 view .LVU434
 1275              	.LBE65:
 1276              	.LBE64:
 1277              		.loc 1 235 2 is_stmt 1 view .LVU435
 1278              		.loc 1 236 2 view .LVU436
 1279              		.loc 1 236 19 is_stmt 0 view .LVU437
 1280 0304 48000001 		bl GX_LoadPosMtxImm
 1281              	.LVL119:
 1282              		.loc 1 238 2 is_stmt 1 view .LVU438
 1283              		.loc 1 238 14 is_stmt 0 view .LVU439
 1284 0308 38800004 		li 4,4
 1285 030c 38600000 		li 3,0
 1286 0310 48000001 		bl GX_SetTevOp
 1287              	.LVL120:
 1288              		.loc 1 239 2 is_stmt 1 view .LVU440
 1289              		.loc 1 239 16 is_stmt 0 view .LVU441
 1290 0314 38800000 		li 4,0
 1291 0318 3860000D 		li 3,13
 1292 031c 48000001 		bl GX_SetVtxDesc
 1293              	.LVL121:
 1294              		.loc 1 240 1 view .LVU442
 1295 0320 8001018C 		lwz 0,396(1)
 1296 0324 83610144 		lwz 27,324(1)
 1297 0328 83810148 		lwz 28,328(1)
 1298              	.LVL122:
 1299              		.loc 1 240 1 view .LVU443
 1300 032c 7C0803A6 		mtlr 0
 1301              		.cfi_restore 65
 1302 0330 83A1014C 		lwz 29,332(1)
 1303              	.LVL123:
 1304              		.loc 1 240 1 view .LVU444
 1305 0334 83C10150 		lwz 30,336(1)
 1306              	.LVL124:
 1307              		.loc 1 240 1 view .LVU445
 1308 0338 83E10154 		lwz 31,340(1)
 1309 033c CB410158 		lfd 26,344(1)
 1310              	.LVL125:
 1311              		.loc 1 240 1 view .LVU446
 1312 0340 CB610160 		lfd 27,352(1)
 1313              	.LVL126:
 1314              		.loc 1 240 1 view .LVU447
 1315 0344 CB810168 		lfd 28,360(1)
 1316              	.LVL127:
 1317              		.loc 1 240 1 view .LVU448
 1318 0348 CBA10170 		lfd 29,368(1)
 1319 034c CBC10178 		lfd 30,376(1)
 1320 0350 CBE10180 		lfd 31,384(1)
 1321 0354 38210188 		addi 1,1,392
 1322              		.cfi_restore 63
 1323              		.cfi_restore 62
 1324              		.cfi_restore 61
 1325              		.cfi_restore 60
 1326              		.cfi_restore 59
 1327              		.cfi_restore 58
 1328              		.cfi_restore 31
 1329              		.cfi_restore 30
 1330              		.cfi_restore 29
 1331              		.cfi_restore 28
 1332              		.cfi_restore 27
 1333              		.cfi_def_cfa_offset 0
 1334 0358 4E800020 		blr
 1335              		.cfi_endproc
 1336              	.LFE2347:
 1337              		.size	_Z12Menu_DrawImgffttPhfffh, .-_Z12Menu_DrawImgffttPhfffh
 1338              		.section	.text._Z18Menu_DrawRectangleffff9_gx_colorh,"ax",@progbits
 1339              		.align 2
 1340              		.globl _Z18Menu_DrawRectangleffff9_gx_colorh
 1341              		.type	_Z18Menu_DrawRectangleffff9_gx_colorh, @function
 1342              	_Z18Menu_DrawRectangleffff9_gx_colorh:
 1343              	.LVL128:
 1344              	.LFB2348:
 1345              		.loc 1 248 1 is_stmt 1 view -0
 1346              		.cfi_startproc
 1347              		.loc 1 256 2 is_stmt 0 view .LVU450
 1348 0000 2C040000 		cmpwi 0,4,0
 1349              		.loc 1 249 2 is_stmt 1 view .LVU451
 1350              		.loc 1 250 2 view .LVU452
 1351              		.loc 1 251 2 view .LVU453
 1352              		.loc 1 252 2 view .LVU454
 1353              		.loc 1 248 1 is_stmt 0 view .LVU455
 1354 0004 9421FFD0 		stwu 1,-48(1)
 1355              		.cfi_def_cfa_offset 48
 1356 0008 7C0802A6 		mflr 0
 1357 000c DB810010 		stfd 28,16(1)
 1358              		.cfi_register 65, 0
 1359              		.cfi_offset 60, -32
 1360              		.loc 1 252 6 view .LVU456
 1361 0010 EF81182A 		fadds 28,1,3
 1362              	.LVL129:
 1363              		.loc 1 253 2 is_stmt 1 view .LVU457
 1364              		.loc 1 248 1 is_stmt 0 view .LVU458
 1365 0014 DBA10018 		stfd 29,24(1)
 1366              		.cfi_offset 61, -24
 1367              		.loc 1 253 6 view .LVU459
 1368 0018 EFA2202A 		fadds 29,2,4
 1369              	.LVL130:
 1370              		.loc 1 254 2 is_stmt 1 view .LVU460
 1371              		.loc 1 256 2 view .LVU461
 1372              		.loc 1 248 1 is_stmt 0 view .LVU462
 1373 001c DBC10020 		stfd 30,32(1)
 1374              		.cfi_offset 62, -16
 1375 0020 FFC00890 		fmr 30,1
 1376 0024 DBE10028 		stfd 31,40(1)
 1377              		.cfi_offset 63, -8
 1378 0028 FFE01090 		fmr 31,2
 1379 002c 93E1000C 		stw 31,12(1)
 1380 0030 90010034 		stw 0,52(1)
 1381              		.cfi_offset 31, -36
 1382              		.cfi_offset 65, 4
 1383              		.loc 1 248 1 view .LVU463
 1384 0034 83E30000 		lwz 31,0(3)
 1385              	.LVL131:
 1386              		.loc 1 256 2 view .LVU464
 1387 0038 408200E8 		bne- 0,.L36
 1388              	.LVL132:
 1389              		.loc 1 267 2 is_stmt 1 view .LVU465
 1390              		.loc 1 267 10 is_stmt 0 view .LVU466
 1391 003c 38A00005 		li 5,5
 1392 0040 386000B0 		li 3,176
 1393 0044 48000001 		bl GX_Begin
 1394              	.LVL133:
 1395              		.loc 1 268 12 is_stmt 1 discriminator 1 view .LVU467
 1396              		.loc 1 259 5 is_stmt 0 view .LVU468
 1397 0048 39200005 		li 9,5
 1398              	.LVL134:
 1399              	.L37:
 1400              		.loc 1 268 12 discriminator 1 view .LVU469
 1401 004c 2C090005 		cmpwi 0,9,5
 1402              	.LBB66:
 1403              	.LBB67:
 1404              		.loc 2 2125 14 view .LVU470
 1405 0050 3D400000 		lis 10,.LC1@ha
 1406              		.loc 2 2123 2 view .LVU471
 1407 0054 3D200000 		lis 9,wgPipe@ha
 1408              		.loc 2 2125 14 view .LVU472
 1409 0058 C00A0000 		lfs 0,.LC1@l(10)
 1410              		.loc 2 2123 2 view .LVU473
 1411 005c 81290000 		lwz 9,wgPipe@l(9)
 1412              	.LBE67:
 1413              	.LBE66:
 1414              		.loc 1 271 14 view .LVU474
 1415 0060 57E7463E 		srwi 7,31,24
 1416 0064 57E8843E 		srwi 8,31,16
 1417 0068 57EAC23E 		srwi 10,31,8
 1418              		.loc 1 270 3 is_stmt 1 view .LVU475
 1419              	.LVL135:
 1420              	.LBB73:
 1421              	.LBI66:
 1422              		.loc 2 2121 20 view .LVU476
 1423              	.LBB68:
 1424              		.loc 2 2123 2 view .LVU477
 1425              		.loc 2 2123 14 is_stmt 0 view .LVU478
 1426 006c D3C90000 		stfs 30,0(9)
 1427              		.loc 2 2124 2 is_stmt 1 view .LVU479
 1428              		.loc 2 2124 14 is_stmt 0 view .LVU480
 1429 0070 D3E90000 		stfs 31,0(9)
 1430              		.loc 2 2125 2 is_stmt 1 view .LVU481
 1431              		.loc 2 2125 14 is_stmt 0 view .LVU482
 1432 0074 D0090000 		stfs 0,0(9)
 1433              	.LVL136:
 1434              		.loc 2 2125 14 view .LVU483
 1435              	.LBE68:
 1436              	.LBE73:
 1437              		.loc 1 271 3 is_stmt 1 view .LVU484
 1438              	.LBB74:
 1439              	.LBI74:
 1440              		.loc 2 2227 20 view .LVU485
 1441              	.LBB75:
 1442              		.loc 2 2229 2 view .LVU486
 1443              		.loc 2 2229 13 is_stmt 0 view .LVU487
 1444 0078 98E90000 		stb 7,0(9)
 1445              		.loc 2 2230 2 is_stmt 1 view .LVU488
 1446              		.loc 2 2230 13 is_stmt 0 view .LVU489
 1447 007c 99090000 		stb 8,0(9)
 1448              		.loc 2 2231 2 is_stmt 1 view .LVU490
 1449              		.loc 2 2231 13 is_stmt 0 view .LVU491
 1450 0080 99490000 		stb 10,0(9)
 1451              		.loc 2 2232 2 is_stmt 1 view .LVU492
 1452              		.loc 2 2232 13 is_stmt 0 view .LVU493
 1453 0084 9BE90000 		stb 31,0(9)
 1454              	.LVL137:
 1455              		.loc 2 2232 13 view .LVU494
 1456              	.LBE75:
 1457              	.LBE74:
 1458              		.loc 1 268 2 is_stmt 1 discriminator 3 view .LVU495
 1459              		.loc 1 268 12 discriminator 1 view .LVU496
 1460              		.loc 1 270 3 view .LVU497
 1461              	.LBB80:
 1462              		.loc 2 2121 20 view .LVU498
 1463              	.LBB69:
 1464              		.loc 2 2123 2 view .LVU499
 1465              		.loc 2 2123 14 is_stmt 0 view .LVU500
 1466 0088 D3890000 		stfs 28,0(9)
 1467              		.loc 2 2124 2 is_stmt 1 view .LVU501
 1468              		.loc 2 2124 14 is_stmt 0 view .LVU502
 1469 008c D3E90000 		stfs 31,0(9)
 1470              		.loc 2 2125 2 is_stmt 1 view .LVU503
 1471              		.loc 2 2125 14 is_stmt 0 view .LVU504
 1472 0090 D0090000 		stfs 0,0(9)
 1473              	.LVL138:
 1474              		.loc 2 2125 14 view .LVU505
 1475              	.LBE69:
 1476              	.LBE80:
 1477              		.loc 1 271 3 is_stmt 1 view .LVU506
 1478              	.LBB81:
 1479              		.loc 2 2227 20 view .LVU507
 1480              	.LBB76:
 1481              		.loc 2 2229 2 view .LVU508
 1482              		.loc 2 2229 13 is_stmt 0 view .LVU509
 1483 0094 98E90000 		stb 7,0(9)
 1484              		.loc 2 2230 2 is_stmt 1 view .LVU510
 1485              		.loc 2 2230 13 is_stmt 0 view .LVU511
 1486 0098 99090000 		stb 8,0(9)
 1487              		.loc 2 2231 2 is_stmt 1 view .LVU512
 1488              		.loc 2 2231 13 is_stmt 0 view .LVU513
 1489 009c 99490000 		stb 10,0(9)
 1490              		.loc 2 2232 2 is_stmt 1 view .LVU514
 1491              		.loc 2 2232 13 is_stmt 0 view .LVU515
 1492 00a0 9BE90000 		stb 31,0(9)
 1493              	.LVL139:
 1494              		.loc 2 2232 13 view .LVU516
 1495              	.LBE76:
 1496              	.LBE81:
 1497              		.loc 1 268 2 is_stmt 1 discriminator 3 view .LVU517
 1498              		.loc 1 268 12 discriminator 1 view .LVU518
 1499              		.loc 1 270 3 view .LVU519
 1500              	.LBB82:
 1501              		.loc 2 2121 20 view .LVU520
 1502              	.LBB70:
 1503              		.loc 2 2123 2 view .LVU521
 1504              		.loc 2 2123 14 is_stmt 0 view .LVU522
 1505 00a4 D3890000 		stfs 28,0(9)
 1506              		.loc 2 2124 2 is_stmt 1 view .LVU523
 1507              		.loc 2 2124 14 is_stmt 0 view .LVU524
 1508 00a8 D3A90000 		stfs 29,0(9)
 1509              		.loc 2 2125 2 is_stmt 1 view .LVU525
 1510              		.loc 2 2125 14 is_stmt 0 view .LVU526
 1511 00ac D0090000 		stfs 0,0(9)
 1512              	.LVL140:
 1513              		.loc 2 2125 14 view .LVU527
 1514              	.LBE70:
 1515              	.LBE82:
 1516              		.loc 1 271 3 is_stmt 1 view .LVU528
 1517              	.LBB83:
 1518              		.loc 2 2227 20 view .LVU529
 1519              	.LBB77:
 1520              		.loc 2 2229 2 view .LVU530
 1521              		.loc 2 2229 13 is_stmt 0 view .LVU531
 1522 00b0 98E90000 		stb 7,0(9)
 1523              		.loc 2 2230 2 is_stmt 1 view .LVU532
 1524              		.loc 2 2230 13 is_stmt 0 view .LVU533
 1525 00b4 99090000 		stb 8,0(9)
 1526              		.loc 2 2231 2 is_stmt 1 view .LVU534
 1527              		.loc 2 2231 13 is_stmt 0 view .LVU535
 1528 00b8 99490000 		stb 10,0(9)
 1529              		.loc 2 2232 2 is_stmt 1 view .LVU536
 1530              		.loc 2 2232 13 is_stmt 0 view .LVU537
 1531 00bc 9BE90000 		stb 31,0(9)
 1532              	.LVL141:
 1533              		.loc 2 2232 13 view .LVU538
 1534              	.LBE77:
 1535              	.LBE83:
 1536              		.loc 1 268 2 is_stmt 1 discriminator 3 view .LVU539
 1537              		.loc 1 268 12 discriminator 1 view .LVU540
 1538              		.loc 1 270 3 view .LVU541
 1539              	.LBB84:
 1540              		.loc 2 2121 20 view .LVU542
 1541              	.LBB71:
 1542              		.loc 2 2123 2 view .LVU543
 1543              		.loc 2 2123 14 is_stmt 0 view .LVU544
 1544 00c0 D3C90000 		stfs 30,0(9)
 1545              		.loc 2 2124 2 is_stmt 1 view .LVU545
 1546              		.loc 2 2124 14 is_stmt 0 view .LVU546
 1547 00c4 D3A90000 		stfs 29,0(9)
 1548              		.loc 2 2125 2 is_stmt 1 view .LVU547
 1549              		.loc 2 2125 14 is_stmt 0 view .LVU548
 1550 00c8 D0090000 		stfs 0,0(9)
 1551              	.LVL142:
 1552              		.loc 2 2125 14 view .LVU549
 1553              	.LBE71:
 1554              	.LBE84:
 1555              		.loc 1 271 3 is_stmt 1 view .LVU550
 1556              	.LBB85:
 1557              		.loc 2 2227 20 view .LVU551
 1558              	.LBB78:
 1559              		.loc 2 2229 2 view .LVU552
 1560              		.loc 2 2229 13 is_stmt 0 view .LVU553
 1561 00cc 98E90000 		stb 7,0(9)
 1562              		.loc 2 2230 2 is_stmt 1 view .LVU554
 1563              		.loc 2 2230 13 is_stmt 0 view .LVU555
 1564 00d0 99090000 		stb 8,0(9)
 1565              		.loc 2 2231 2 is_stmt 1 view .LVU556
 1566              		.loc 2 2231 13 is_stmt 0 view .LVU557
 1567 00d4 99490000 		stb 10,0(9)
 1568              		.loc 2 2232 2 is_stmt 1 view .LVU558
 1569              		.loc 2 2232 13 is_stmt 0 view .LVU559
 1570 00d8 9BE90000 		stb 31,0(9)
 1571              	.LVL143:
 1572              		.loc 2 2232 13 view .LVU560
 1573              	.LBE78:
 1574              	.LBE85:
 1575              		.loc 1 268 2 is_stmt 1 discriminator 3 view .LVU561
 1576              		.loc 1 268 12 discriminator 1 view .LVU562
 1577 00dc 40820020 		bne- 0,.L35
 1578              		.loc 1 270 3 view .LVU563
 1579              	.LVL144:
 1580              	.LBB86:
 1581              		.loc 2 2121 20 view .LVU564
 1582              	.LBB72:
 1583              		.loc 2 2123 2 view .LVU565
 1584              		.loc 2 2123 14 is_stmt 0 view .LVU566
 1585 00e0 D3C90000 		stfs 30,0(9)
 1586              		.loc 2 2124 2 is_stmt 1 view .LVU567
 1587              		.loc 2 2124 14 is_stmt 0 view .LVU568
 1588 00e4 D3E90000 		stfs 31,0(9)
 1589              		.loc 2 2125 2 is_stmt 1 view .LVU569
 1590              		.loc 2 2125 14 is_stmt 0 view .LVU570
 1591 00e8 D0090000 		stfs 0,0(9)
 1592              	.LVL145:
 1593              		.loc 2 2125 14 view .LVU571
 1594              	.LBE72:
 1595              	.LBE86:
 1596              		.loc 1 271 3 is_stmt 1 view .LVU572
 1597              	.LBB87:
 1598              		.loc 2 2227 20 view .LVU573
 1599              	.LBB79:
 1600              		.loc 2 2229 2 view .LVU574
 1601              		.loc 2 2229 13 is_stmt 0 view .LVU575
 1602 00ec 98E90000 		stb 7,0(9)
 1603              		.loc 2 2230 2 is_stmt 1 view .LVU576
 1604              		.loc 2 2230 13 is_stmt 0 view .LVU577
 1605 00f0 99090000 		stb 8,0(9)
 1606              		.loc 2 2231 2 is_stmt 1 view .LVU578
 1607              		.loc 2 2231 13 is_stmt 0 view .LVU579
 1608 00f4 99490000 		stb 10,0(9)
 1609              		.loc 2 2232 2 is_stmt 1 view .LVU580
 1610              		.loc 2 2232 13 is_stmt 0 view .LVU581
 1611 00f8 9BE90000 		stb 31,0(9)
 1612              	.LVL146:
 1613              		.loc 2 2232 13 view .LVU582
 1614              	.LBE79:
 1615              	.LBE87:
 1616              		.loc 1 268 2 is_stmt 1 discriminator 3 view .LVU583
 1617              		.loc 1 268 12 discriminator 1 view .LVU584
 1618              		.loc 1 273 2 view .LVU585
 1619              	.L35:
 1620              		.loc 1 274 1 is_stmt 0 view .LVU586
 1621 00fc 80010034 		lwz 0,52(1)
 1622 0100 83E1000C 		lwz 31,12(1)
 1623              	.LVL147:
 1624              		.loc 1 274 1 view .LVU587
 1625 0104 CB810010 		lfd 28,16(1)
 1626              	.LVL148:
 1627              		.loc 1 274 1 view .LVU588
 1628 0108 7C0803A6 		mtlr 0
 1629              		.cfi_remember_state
 1630              		.cfi_restore 65
 1631 010c CBA10018 		lfd 29,24(1)
 1632              	.LVL149:
 1633              		.loc 1 274 1 view .LVU589
 1634 0110 CBC10020 		lfd 30,32(1)
 1635              	.LVL150:
 1636              		.loc 1 274 1 view .LVU590
 1637 0114 CBE10028 		lfd 31,40(1)
 1638              	.LVL151:
 1639              		.loc 1 274 1 view .LVU591
 1640 0118 38210030 		addi 1,1,48
 1641              		.cfi_restore 63
 1642              		.cfi_restore 62
 1643              		.cfi_restore 61
 1644              		.cfi_restore 60
 1645              		.cfi_restore 31
 1646              		.cfi_def_cfa_offset 0
 1647 011c 4E800020 		blr
 1648              	.LVL152:
 1649              	.L36:
 1650              		.cfi_restore_state
 1651              		.loc 1 263 3 is_stmt 1 view .LVU592
 1652              		.loc 1 264 3 view .LVU593
 1653              		.loc 1 267 2 view .LVU594
 1654              		.loc 1 267 10 is_stmt 0 view .LVU595
 1655 0120 38A00004 		li 5,4
 1656 0124 38800000 		li 4,0
 1657              	.LVL153:
 1658              		.loc 1 267 10 view .LVU596
 1659 0128 386000A0 		li 3,160
 1660 012c 48000001 		bl GX_Begin
 1661              	.LVL154:
 1662              		.loc 1 268 12 is_stmt 1 discriminator 1 view .LVU597
 1663              		.loc 1 264 5 is_stmt 0 view .LVU598
 1664 0130 39200004 		li 9,4
 1665 0134 4BFFFF18 		b .L37
 1666              		.cfi_endproc
 1667              	.LFE2348:
 1668              		.size	_Z18Menu_DrawRectangleffff9_gx_colorh, .-_Z18Menu_DrawRectangleffff9_gx_colorh
 1669              		.globl FrameTimer
 1670              		.section	.sbss.FrameTimer,"aw",@nobits
 1671              		.align 2
 1672              		.type	FrameTimer, @object
 1673              		.size	FrameTimer, 4
 1674              	FrameTimer:
 1675 0000 00000000 		.zero	4
 1676              		.globl screenwidth
 1677              		.section	.sbss.screenwidth,"aw",@nobits
 1678              		.align 2
 1679              		.type	screenwidth, @object
 1680              		.size	screenwidth, 4
 1681              	screenwidth:
 1682 0000 00000000 		.zero	4
 1683              		.globl screenheight
 1684              		.section	.sbss.screenheight,"aw",@nobits
 1685              		.align 2
 1686              		.type	screenheight, @object
 1687              		.size	screenheight, 4
 1688              	screenheight:
 1689 0000 00000000 		.zero	4
 1690              		.section	.bss._ZL13GXmodelView2D,"aw",@nobits
 1691              		.align 2
 1692              		.type	_ZL13GXmodelView2D, @object
 1693              		.size	_ZL13GXmodelView2D, 48
 1694              	_ZL13GXmodelView2D:
 1695 0000 00000000 		.zero	48
 1695      00000000 
 1695      00000000 
 1695      00000000 
 1695      00000000 
 1696              		.section	.bss._ZL7gp_fifo,"aw",@nobits
 1697              		.align 5
 1698              		.type	_ZL7gp_fifo, @object
 1699              		.size	_ZL7gp_fifo, 262144
 1700              	_ZL7gp_fifo:
 1701 0000 00000000 		.zero	262144
 1701      00000000 
 1701      00000000 
 1701      00000000 
 1701      00000000 
 1702              		.section	.bss._ZL5vmode,"aw",@nobits
 1703              		.align 2
 1704              		.type	_ZL5vmode, @object
 1705              		.size	_ZL5vmode, 4
 1706              	_ZL5vmode:
 1707 0000 00000000 		.zero	4
 1708              		.section	.bss._ZL7whichfb,"aw",@nobits
 1709              		.align 2
 1710              		.type	_ZL7whichfb, @object
 1711              		.size	_ZL7whichfb, 4
 1712              	_ZL7whichfb:
 1713 0000 00000000 		.zero	4
 1714              		.section	.bss._ZL3xfb,"aw",@nobits
 1715              		.align 2
 1716              		.type	_ZL3xfb, @object
 1717              		.size	_ZL3xfb, 8
 1718              	_ZL3xfb:
 1719 0000 00000000 		.zero	8
 1719      00000000 
 1720              		.section	.rodata.cst4,"aM",@progbits,4
 1721              		.align 2
 1722              	.LC0:
 1723 0000 C2480000 		.long	-1035468800
 1724              		.align 2
 1725              	.LC1:
 1726 0004 00000000 		.long	0
 1727              		.align 2
 1728              	.LC2:
 1729 0008 43960000 		.long	1133903872
 1730              		.align 2
 1731              	.LC3:
 1732 000c 441FC000 		.long	1142931456
 1733              		.align 2
 1734              	.LC4:
 1735 0010 43EF8000 		.long	1139769344
 1736              		.align 2
 1737              	.LC5:
 1738 0014 3F800000 		.long	1065353216
 1739              		.align 2
 1740              	.LC7:
 1741 0018 59800000 		.long	1501560832
 1742              		.align 2
 1743              	.LC19:
 1744 001c 59800004 		.long	1501560836
 1745              		.align 2
 1746              	.LC21:
 1747 0020 3F000000 		.long	1056964608
 1748              		.align 2
 1749              	.LC22:
 1750 0024 3C8EFA35 		.long	1016003125
 1751              		.section	".text"
 1752              	.Letext0:
 1753              		.file 3 "C:/devkitPro/devkitPPC/powerpc-eabi/include/machine/_default_types.h"
 1754              		.file 4 "C:/devkitPro/devkitPPC/powerpc-eabi/include/sys/_stdint.h"
 1755              		.file 5 "C:/devkitPro/libogc/include/gctypes.h"
 1756              		.file 6 "C:/devkitPro/libogc/include/ogc/gx_struct.h"
 1757              		.file 7 "C:/devkitPro/libogc/include/ogc/gu.h"
 1758              		.file 8 "C:/devkitPro/devkitPPC/lib/gcc/powerpc-eabi/13.1.0/include/stddef.h"
 1759              		.file 9 "C:/devkitPro/devkitPPC/powerpc-eabi/include/stdlib.h"
 1760              		.file 10 "C:/devkitPro/devkitPPC/powerpc-eabi/include/c++/13.1.0/cstdlib"
 1761              		.file 11 "C:/devkitPro/devkitPPC/powerpc-eabi/include/c++/13.1.0/bits/std_abs.h"
 1762              		.file 12 "C:/devkitPro/devkitPPC/powerpc-eabi/include/c++/13.1.0/type_traits"
 1763              		.file 13 "C:/devkitPro/devkitPPC/powerpc-eabi/include/c++/13.1.0/debug/debug.h"
 1764              		.file 14 "C:/devkitPro/devkitPPC/powerpc-eabi/include/c++/13.1.0/powerpc-eabi/bits/c++config.h"
 1765              		.file 15 "C:/devkitPro/devkitPPC/powerpc-eabi/include/c++/13.1.0/cstddef"
 1766              		.file 16 "C:/devkitPro/devkitPPC/powerpc-eabi/include/c++/13.1.0/bits/exception_ptr.h"
 1767              		.file 17 "C:/devkitPro/devkitPPC/powerpc-eabi/include/c++/13.1.0/cmath"
 1768              		.file 18 "C:/devkitPro/devkitPPC/powerpc-eabi/include/c++/13.1.0/bits/predefined_ops.h"
 1769              		.file 19 "C:/devkitPro/devkitPPC/powerpc-eabi/include/c++/13.1.0/stdlib.h"
 1770              		.file 20 "C:/devkitPro/devkitPPC/powerpc-eabi/include/math.h"
 1771              		.file 21 "C:/devkitPro/devkitPPC/powerpc-eabi/include/c++/13.1.0/math.h"
 1772              		.file 22 "F:/GameModding/MarioKartWii/Mods/Distro/RetroRewind6/dev/Launcher/RRLauncher/launcher/li
 1773              		.file 23 "F:/GameModding/MarioKartWii/Mods/Distro/RetroRewind6/dev/Launcher/RRLauncher/launcher/bu
 1774              		.file 24 "F:/GameModding/MarioKartWii/Mods/Distro/RetroRewind6/dev/Launcher/RRLauncher/launcher/bu
 1775              		.file 25 "F:/GameModding/MarioKartWii/Mods/Distro/RetroRewind6/dev/Launcher/RRLauncher/launcher/bu
 1776              		.file 26 "F:/GameModding/MarioKartWii/Mods/Distro/RetroRewind6/dev/Launcher/RRLauncher/launcher/bu
 1777              		.file 27 "F:/GameModding/MarioKartWii/Mods/Distro/RetroRewind6/dev/Launcher/RRLauncher/launcher/bu
 1778              		.file 28 "F:/GameModding/MarioKartWii/Mods/Distro/RetroRewind6/dev/Launcher/RRLauncher/launcher/bu
 1779              		.file 29 "F:/GameModding/MarioKartWii/Mods/Distro/RetroRewind6/dev/Launcher/RRLauncher/launcher/bu
 1780              		.file 30 "F:/GameModding/MarioKartWii/Mods/Distro/RetroRewind6/dev/Launcher/RRLauncher/launcher/bu
 1781              		.file 31 "F:/GameModding/MarioKartWii/Mods/Distro/RetroRewind6/dev/Launcher/RRLauncher/launcher/bu
 1782              		.file 32 "F:/GameModding/MarioKartWii/Mods/Distro/RetroRewind6/dev/Launcher/RRLauncher/launcher/bu
 1783              		.file 33 "F:/GameModding/MarioKartWii/Mods/Distro/RetroRewind6/dev/Launcher/RRLauncher/launcher/bu
 1784              		.file 34 "F:/GameModding/MarioKartWii/Mods/Distro/RetroRewind6/dev/Launcher/RRLauncher/launcher/bu
 1785              		.file 35 "F:/GameModding/MarioKartWii/Mods/Distro/RetroRewind6/dev/Launcher/RRLauncher/launcher/bu
 1786              		.file 36 "F:/GameModding/MarioKartWii/Mods/Distro/RetroRewind6/dev/Launcher/RRLauncher/launcher/bu
 1787              		.file 37 "F:/GameModding/MarioKartWii/Mods/Distro/RetroRewind6/dev/Launcher/RRLauncher/launcher/bu
 1788              		.file 38 "F:/GameModding/MarioKartWii/Mods/Distro/RetroRewind6/dev/Launcher/RRLauncher/launcher/bu
 1789              		.file 39 "F:/GameModding/MarioKartWii/Mods/Distro/RetroRewind6/dev/Launcher/RRLauncher/launcher/bu
 1790              		.file 40 "F:/GameModding/MarioKartWii/Mods/Distro/RetroRewind6/dev/Launcher/RRLauncher/launcher/bu
 1791              		.file 41 "F:/GameModding/MarioKartWii/Mods/Distro/RetroRewind6/dev/Launcher/RRLauncher/launcher/bu
 1792              		.file 42 "F:/GameModding/MarioKartWii/Mods/Distro/RetroRewind6/dev/Launcher/RRLauncher/launcher/bu
 1793              		.file 43 "F:/GameModding/MarioKartWii/Mods/Distro/RetroRewind6/dev/Launcher/RRLauncher/launcher/bu
 1794              		.file 44 "F:/GameModding/MarioKartWii/Mods/Distro/RetroRewind6/dev/Launcher/RRLauncher/launcher/bu
 1795              		.file 45 "F:/GameModding/MarioKartWii/Mods/Distro/RetroRewind6/dev/Launcher/RRLauncher/launcher/bu
 1796              		.file 46 "F:/GameModding/MarioKartWii/Mods/Distro/RetroRewind6/dev/Launcher/RRLauncher/launcher/bu
 1797              		.file 47 "F:/GameModding/MarioKartWii/Mods/Distro/RetroRewind6/dev/Launcher/RRLauncher/launcher/bu
 1798              		.file 48 "F:/GameModding/MarioKartWii/Mods/Distro/RetroRewind6/dev/Launcher/RRLauncher/launcher/bu
 1799              		.file 49 "F:/GameModding/MarioKartWii/Mods/Distro/RetroRewind6/dev/Launcher/RRLauncher/launcher/bu
 1800              		.file 50 "F:/GameModding/MarioKartWii/Mods/Distro/RetroRewind6/dev/Launcher/RRLauncher/launcher/bu
 1801              		.file 51 "F:/GameModding/MarioKartWii/Mods/Distro/RetroRewind6/dev/Launcher/RRLauncher/launcher/bu
 1802              		.file 52 "F:/GameModding/MarioKartWii/Mods/Distro/RetroRewind6/dev/Launcher/RRLauncher/launcher/bu
 1803              		.file 53 "F:/GameModding/MarioKartWii/Mods/Distro/RetroRewind6/dev/Launcher/RRLauncher/launcher/bu
 1804              		.file 54 "F:/GameModding/MarioKartWii/Mods/Distro/RetroRewind6/dev/Launcher/RRLauncher/launcher/bu
 1805              		.file 55 "F:/GameModding/MarioKartWii/Mods/Distro/RetroRewind6/dev/Launcher/RRLauncher/launcher/bu
 1806              		.file 56 "F:/GameModding/MarioKartWii/Mods/Distro/RetroRewind6/dev/Launcher/RRLauncher/launcher/bu
 1807              		.file 57 "F:/GameModding/MarioKartWii/Mods/Distro/RetroRewind6/dev/Launcher/RRLauncher/launcher/bu
 1808              		.file 58 "F:/GameModding/MarioKartWii/Mods/Distro/RetroRewind6/dev/Launcher/RRLauncher/launcher/li
 1809              		.file 59 "C:/devkitPro/devkitPPC/powerpc-eabi/include/string.h"
 1810              		.file 60 "C:/devkitPro/libogc/include/ogc/video.h"
 1811              		.file 61 "C:/devkitPro/libogc/include/ogc/consol.h"
 1812              		.file 62 "C:/devkitPro/libogc/include/ogc/system.h"
 1813              		.file 63 "C:/devkitPro/libogc/include/ogc/conf.h"
 1814              		.file 64 "C:/devkitPro/devkitPPC/powerpc-eabi/include/c++/13.1.0/bits/memory_resource.h"