   1              		.file	"wdvd.cpp"
   2              		.machine ppc
   3              		.section	".text"
   4              	.Ltext0:
   5              		.file 1 "F:/GameModding/MarioKartWii/Mods/Distro/RetroRewind6/dev/Launcher/RRLauncher/launcher/sou
   6              		.section	.rodata.WDVD_Init.str1.4,"aMS",@progbits,1
   7              		.align 2
   8              	.LC0:
   9 0000 2F646576 		.string	"/dev/do"
   9      2F646F00 
  10              		.align 2
  11              	.LC1:
  12 0008 2F646576 		.string	"/dev/di"
  12      2F646900 
  13              		.section	.text.WDVD_Init,"ax",@progbits
  14              		.align 2
  15              		.globl WDVD_Init
  16              		.type	WDVD_Init, @function
  17              	WDVD_Init:
  18              	.LFB0:
  19              		.loc 1 13 17 view -0
  20              		.cfi_startproc
  21              		.loc 1 14 5 view .LVU1
  22              		.loc 1 13 17 is_stmt 0 view .LVU2
  23 0000 9421FFF0 		stwu 1,-16(1)
  24              		.cfi_def_cfa_offset 16
  25 0004 93E1000C 		stw 31,12(1)
  26              		.cfi_offset 31, -4
  27              		.loc 1 14 15 view .LVU3
  28 0008 3FE00000 		lis 31,_ZL5di_fd@ha
  29 000c 807F0000 		lwz 3,_ZL5di_fd@l(31)
  30              		.loc 1 14 5 view .LVU4
  31 0010 2C030000 		cmpwi 0,3,0
  32 0014 41800010 		blt- 0,.L7
  33              		.loc 1 22 1 view .LVU5
  34 0018 83E1000C 		lwz 31,12(1)
  35 001c 38210010 		addi 1,1,16
  36              		.cfi_remember_state
  37              		.cfi_restore 31
  38              		.cfi_def_cfa_offset 0
  39 0020 4E800020 		blr
  40              	.L7:
  41              		.cfi_restore_state
  42              		.loc 1 17 5 is_stmt 1 view .LVU6
  43              		.loc 1 17 21 is_stmt 0 view .LVU7
  44 0024 3C600000 		lis 3,.LC0@ha
  45 0028 7C0802A6 		mflr 0
  46              		.cfi_register 65, 0
  47 002c 38800000 		li 4,0
  48 0030 38630000 		la 3,.LC0@l(3)
  49 0034 90010014 		stw 0,20(1)
  50              		.cfi_offset 65, 4
  51              		.loc 1 17 21 view .LVU8
  52 0038 48000001 		bl IOS_Open
  53              	.LVL0:
  54              		.loc 1 18 5 view .LVU9
  55 003c 2C030000 		cmpwi 0,3,0
  56              		.loc 1 17 11 discriminator 1 view .LVU10
  57 0040 907F0000 		stw 3,_ZL5di_fd@l(31)
  58              		.loc 1 18 5 is_stmt 1 view .LVU11
  59 0044 41800018 		blt- 0,.L8
  60 0048 80010014 		lwz 0,20(1)
  61              		.loc 1 22 1 is_stmt 0 view .LVU12
  62 004c 83E1000C 		lwz 31,12(1)
  63 0050 38210010 		addi 1,1,16
  64              		.cfi_remember_state
  65              		.cfi_restore 31
  66              		.cfi_def_cfa_offset 0
  67 0054 7C0803A6 		mtlr 0
  68              		.cfi_restore 65
  69 0058 4E800020 		blr
  70              	.L8:
  71              		.cfi_restore_state
  72              		.loc 1 19 6 is_stmt 1 view .LVU13
  73              		.loc 1 19 22 is_stmt 0 view .LVU14
  74 005c 3C600000 		lis 3,.LC1@ha
  75 0060 38800000 		li 4,0
  76 0064 38630000 		la 3,.LC1@l(3)
  77 0068 48000001 		bl IOS_Open
  78              	.LVL1:
  79              		.loc 1 19 12 discriminator 1 view .LVU15
  80 006c 80010014 		lwz 0,20(1)
  81 0070 907F0000 		stw 3,_ZL5di_fd@l(31)
  82              		.loc 1 21 5 is_stmt 1 view .LVU16
  83              		.loc 1 22 1 is_stmt 0 view .LVU17
  84 0074 83E1000C 		lwz 31,12(1)
  85              		.loc 1 19 12 discriminator 1 view .LVU18
  86 0078 7C0803A6 		mtlr 0
  87              		.cfi_restore 65
  88              		.loc 1 22 1 view .LVU19
  89 007c 38210010 		addi 1,1,16
  90              		.cfi_restore 31
  91              		.cfi_def_cfa_offset 0
  92 0080 4E800020 		blr
  93              		.cfi_endproc
  94              	.LFE0:
  95              		.size	WDVD_Init, .-WDVD_Init
  96              		.section	.text._Z22WDVD_LowClosePartitionv,"ax",@progbits
  97              		.align 2
  98              		.globl _Z22WDVD_LowClosePartitionv
  99              		.type	_Z22WDVD_LowClosePartitionv, @function
 100              	_Z22WDVD_LowClosePartitionv:
 101              	.LFB1:
 102              		.loc 1 24 31 is_stmt 1 view -0
 103              		.cfi_startproc
 104              		.loc 1 26 2 view .LVU21
 105              		.loc 1 26 11 is_stmt 0 view .LVU22
 106 0000 3D400000 		lis 10,_ZL5di_fd@ha
 107 0004 806A0000 		lwz 3,_ZL5di_fd@l(10)
 108              		.loc 1 26 2 view .LVU23
 109 0008 2C030000 		cmpwi 0,3,0
 110 000c 41800050 		blt- 0,.L12
 111              		.loc 1 29 2 is_stmt 1 view .LVU24
 112              		.loc 1 24 31 is_stmt 0 view .LVU25
 113 0010 9421FFF8 		stwu 1,-8(1)
 114              		.cfi_def_cfa_offset 8
 115              		.loc 1 29 17 view .LVU26
 116 0014 3D200000 		lis 9,_ZL8inbuffer@ha
 117              		.loc 1 24 31 view .LVU27
 118 0018 7C0802A6 		mflr 0
 119              		.loc 1 29 17 view .LVU28
 120 001c 3D408C00 		lis 10,0x8c00
 121              		.loc 1 31 20 view .LVU29
 122 0020 38A90000 		la 5,_ZL8inbuffer@l(9)
 123 0024 39000000 		li 8,0
 124 0028 38E00000 		li 7,0
 125 002c 38C00020 		li 6,32
 126 0030 3880008C 		li 4,140
 127              		.loc 1 24 31 view .LVU30
 128 0034 9001000C 		stw 0,12(1)
 129              		.cfi_offset 65, 4
 130              		.loc 1 29 17 view .LVU31
 131 0038 91490000 		stw 10,_ZL8inbuffer@l(9)
 132              		.loc 1 31 2 is_stmt 1 view .LVU32
 133              		.loc 1 31 20 is_stmt 0 view .LVU33
 134 003c 48000001 		bl IOS_Ioctl
 135              	.LVL2:
 136              		.loc 1 31 54 discriminator 1 view .LVU34
 137 0040 3123FFFF 		addic 9,3,-1
 138              		.loc 1 32 1 view .LVU35
 139 0044 8001000C 		lwz 0,12(1)
 140              		.loc 1 31 54 discriminator 1 view .LVU36
 141 0048 7D291910 		subfe 9,9,3
 142              		.loc 1 32 1 view .LVU37
 143 004c 38210008 		addi 1,1,8
 144              		.cfi_def_cfa_offset 0
 145 0050 552307FE 		rlwinm 3,9,0,31,31
 146 0054 7C0803A6 		mtlr 0
 147              		.cfi_restore 65
 148 0058 4E800020 		blr
 149              	.L12:
 150 005c 39200000 		li 9,0
 151 0060 552307FE 		rlwinm 3,9,0,31,31
 152 0064 4E800020 		blr
 153              		.cfi_endproc
 154              	.LFE1:
 155              		.size	_Z22WDVD_LowClosePartitionv, .-_Z22WDVD_LowClosePartitionv
 156              		.section	.text.WDVD_Reset,"ax",@progbits
 157              		.align 2
 158              		.globl WDVD_Reset
 159              		.type	WDVD_Reset, @function
 160              	WDVD_Reset:
 161              	.LFB2:
 162              		.loc 1 34 19 is_stmt 1 view -0
 163              		.cfi_startproc
 164              		.loc 1 35 2 view .LVU39
 165              		.loc 1 35 12 is_stmt 0 view .LVU40
 166 0000 3D400000 		lis 10,_ZL5di_fd@ha
 167 0004 806A0000 		lwz 3,_ZL5di_fd@l(10)
 168              		.loc 1 35 2 view .LVU41
 169 0008 2C030000 		cmpwi 0,3,0
 170 000c 4180005C 		blt- 0,.L20
 171              		.loc 1 38 2 is_stmt 1 view .LVU42
 172              		.loc 1 38 17 is_stmt 0 view .LVU43
 173 0010 3D200000 		lis 9,_ZL8inbuffer@ha
 174              		.loc 1 34 19 view .LVU44
 175 0014 9421FFF8 		stwu 1,-8(1)
 176              		.cfi_def_cfa_offset 8
 177              		.loc 1 38 17 view .LVU45
 178 0018 38A90000 		la 5,_ZL8inbuffer@l(9)
 179              		.loc 1 34 19 view .LVU46
 180 001c 7C0802A6 		mflr 0
 181              		.loc 1 38 17 view .LVU47
 182 0020 3D608A00 		lis 11,0x8a00
 183              		.loc 1 39 17 view .LVU48
 184 0024 39400001 		li 10,1
 185              		.loc 1 40 19 view .LVU49
 186 0028 38E50020 		addi 7,5,32
 187 002c 39000020 		li 8,32
 188 0030 38C00020 		li 6,32
 189 0034 3880008A 		li 4,138
 190              		.loc 1 34 19 view .LVU50
 191 0038 9001000C 		stw 0,12(1)
 192              		.cfi_offset 65, 4
 193              		.loc 1 38 17 view .LVU51
 194 003c 91690000 		stw 11,_ZL8inbuffer@l(9)
 195              		.loc 1 39 2 is_stmt 1 view .LVU52
 196              		.loc 1 39 17 is_stmt 0 view .LVU53
 197 0040 91450004 		stw 10,4(5)
 198              		.loc 1 40 2 is_stmt 1 view .LVU54
 199              		.loc 1 40 19 is_stmt 0 view .LVU55
 200 0044 48000001 		bl IOS_Ioctl
 201              	.LVL3:
 202              		.loc 1 40 74 discriminator 1 view .LVU56
 203 0048 68690001 		xori 9,3,0x1
 204              		.loc 1 41 1 view .LVU57
 205 004c 8001000C 		lwz 0,12(1)
 206              		.loc 1 40 74 discriminator 1 view .LVU58
 207 0050 7D290034 		cntlzw 9,9
 208              		.loc 1 41 1 view .LVU59
 209 0054 38210008 		addi 1,1,8
 210              		.cfi_def_cfa_offset 0
 211              		.loc 1 40 74 discriminator 1 view .LVU60
 212 0058 5529D97E 		srwi 9,9,5
 213              		.loc 1 41 1 view .LVU61
 214 005c 7C0803A6 		mtlr 0
 215              		.cfi_restore 65
 216 0060 552307FE 		rlwinm 3,9,0,31,31
 217 0064 4E800020 		blr
 218              	.L20:
 219 0068 39200000 		li 9,0
 220 006c 552307FE 		rlwinm 3,9,0,31,31
 221 0070 4E800020 		blr
 222              		.cfi_endproc
 223              	.LFE2:
 224              		.size	WDVD_Reset, .-WDVD_Reset
 225              		.section	.text.WDVD_LowUnencryptedRead,"ax",@progbits
 226              		.align 2
 227              		.globl WDVD_LowUnencryptedRead
 228              		.type	WDVD_LowUnencryptedRead, @function
 229              	WDVD_LowUnencryptedRead:
 230              	.LVL4:
 231              	.LFB3:
 232              		.loc 1 43 61 is_stmt 1 view -0
 233              		.cfi_startproc
 234              		.loc 1 44 2 view .LVU63
 235              		.loc 1 46 2 view .LVU64
 236              		.loc 1 46 11 is_stmt 0 view .LVU65
 237 0000 3D200000 		lis 9,_ZL5di_fd@ha
 238              		.loc 1 43 61 view .LVU66
 239 0004 7C671B78 		mr 7,3
 240              		.loc 1 46 11 view .LVU67
 241 0008 80690000 		lwz 3,_ZL5di_fd@l(9)
 242              	.LVL5:
 243              		.loc 1 46 2 view .LVU68
 244 000c 2C030000 		cmpwi 0,3,0
 245 0010 41800070 		blt- 0,.L28
 246              		.loc 1 46 14 discriminator 1 view .LVU69
 247 0014 70E9001F 		andi. 9,7,0x1f
 248 0018 40820068 		bne- 0,.L28
 249              		.loc 1 49 2 is_stmt 1 view .LVU70
 250              		.loc 1 43 61 is_stmt 0 view .LVU71
 251 001c 9421FFF8 		stwu 1,-8(1)
 252              		.cfi_def_cfa_offset 8
 253              		.loc 1 49 14 view .LVU72
 254 0020 3D600000 		lis 11,_ZL8inbuffer@ha
 255 0024 394B0000 		la 10,_ZL8inbuffer@l(11)
 256              		.loc 1 43 61 view .LVU73
 257 0028 7C0802A6 		mflr 0
 258              		.loc 1 51 23 view .LVU74
 259 002c 54C9F0BE 		srwi 9,6,2
 260              		.loc 1 43 61 view .LVU75
 261 0030 9001000C 		stw 0,12(1)
 262              		.cfi_offset 65, 4
 263              		.loc 1 51 23 view .LVU76
 264 0034 50A9F002 		rlwimi 9,5,30,0,31-30
 265 0038 7C882378 		mr 8,4
 266              		.loc 1 49 14 view .LVU77
 267 003c 3C008D00 		lis 0,0x8d00
 268              		.loc 1 53 20 view .LVU78
 269 0040 7D455378 		mr 5,10
 270              	.LVL6:
 271              		.loc 1 53 20 view .LVU79
 272 0044 38C00020 		li 6,32
 273 0048 3880008D 		li 4,141
 274              	.LVL7:
 275              		.loc 1 51 14 view .LVU80
 276 004c 912A0008 		stw 9,8(10)
 277              		.loc 1 50 14 view .LVU81
 278 0050 910A0004 		stw 8,4(10)
 279              		.loc 1 49 14 view .LVU82
 280 0054 900B0000 		stw 0,_ZL8inbuffer@l(11)
 281              		.loc 1 50 2 is_stmt 1 view .LVU83
 282              		.loc 1 51 2 view .LVU84
 283              		.loc 1 53 2 view .LVU85
 284              		.loc 1 53 20 is_stmt 0 view .LVU86
 285 0058 48000001 		bl IOS_Ioctl
 286              	.LVL8:
 287              		.loc 1 53 20 view .LVU87
 288 005c 7C691B78 		mr 9,3
 289              		.loc 1 55 21 discriminator 2 view .LVU88
 290 0060 38600000 		li 3,0
 291              	.LVL9:
 292              		.loc 1 55 2 is_stmt 1 view .LVU89
 293              		.loc 1 55 21 is_stmt 0 view .LVU90
 294 0064 2C090001 		cmpwi 0,9,1
 295 0068 41820008 		beq- 0,.L25
 296              		.loc 1 55 21 discriminator 1 view .LVU91
 297 006c 7C6900D0 		neg 3,9
 298              	.L25:
 299              		.loc 1 56 1 view .LVU92
 300 0070 8001000C 		lwz 0,12(1)
 301 0074 38210008 		addi 1,1,8
 302              		.cfi_def_cfa_offset 0
 303 0078 7C0803A6 		mtlr 0
 304              		.cfi_restore 65
 305 007c 4E800020 		blr
 306              	.LVL10:
 307              	.L28:
 308              		.loc 1 47 11 view .LVU93
 309 0080 3860FFFF 		li 3,-1
 310              		.loc 1 56 1 view .LVU94
 311 0084 4E800020 		blr
 312              		.cfi_endproc
 313              	.LFE3:
 314              		.size	WDVD_LowUnencryptedRead, .-WDVD_LowUnencryptedRead
 315              		.section	.text.WDVD_LowRead,"ax",@progbits
 316              		.align 2
 317              		.globl WDVD_LowRead
 318              		.type	WDVD_LowRead, @function
 319              	WDVD_LowRead:
 320              	.LVL11:
 321              	.LFB4:
 322              		.loc 1 59 50 is_stmt 1 view -0
 323              		.cfi_startproc
 324              		.loc 1 60 2 view .LVU96
 325              		.loc 1 62 2 view .LVU97
 326              		.loc 1 62 11 is_stmt 0 view .LVU98
 327 0000 3D200000 		lis 9,_ZL5di_fd@ha
 328              		.loc 1 59 50 view .LVU99
 329 0004 7C671B78 		mr 7,3
 330              		.loc 1 62 11 view .LVU100
 331 0008 80690000 		lwz 3,_ZL5di_fd@l(9)
 332              	.LVL12:
 333              		.loc 1 62 2 view .LVU101
 334 000c 2C030000 		cmpwi 0,3,0
 335 0010 41800084 		blt- 0,.L38
 336              		.loc 1 62 14 discriminator 1 view .LVU102
 337 0014 70EB001F 		andi. 11,7,0x1f
 338 0018 4082007C 		bne- 0,.L38
 339              		.loc 1 65 2 is_stmt 1 view .LVU103
 340              		.loc 1 59 50 is_stmt 0 view .LVU104
 341 001c 9421FFF8 		stwu 1,-8(1)
 342              		.cfi_def_cfa_offset 8
 343 0020 7C882378 		mr 8,4
 344              		.loc 1 65 8 view .LVU105
 345 0024 3C800000 		lis 4,_ZL8inbuffer+12@ha
 346              	.LVL13:
 347              		.loc 1 59 50 view .LVU106
 348 0028 7C0802A6 		mflr 0
 349              		.loc 1 65 8 view .LVU107
 350 002c 39440000 		la 10,_ZL8inbuffer+12@l(4)
 351              		.loc 1 68 23 view .LVU108
 352 0030 54C9F0BE 		srwi 9,6,2
 353              		.loc 1 59 50 view .LVU109
 354 0034 9001000C 		stw 0,12(1)
 355              		.cfi_offset 65, 4
 356              		.loc 1 68 23 view .LVU110
 357 0038 50A9F002 		rlwimi 9,5,30,0,31-30
 358              		.loc 1 65 8 view .LVU111
 359 003c 91640000 		stw 11,_ZL8inbuffer+12@l(4)
 360              		.loc 1 66 14 view .LVU112
 361 0040 38AAFFF4 		addi 5,10,-12
 362              	.LVL14:
 363              		.loc 1 66 14 view .LVU113
 364 0044 3C007100 		lis 0,0x7100
 365              		.loc 1 70 20 view .LVU114
 366 0048 38C00020 		li 6,32
 367 004c 38800071 		li 4,113
 368              		.loc 1 68 14 view .LVU115
 369 0050 91250008 		stw 9,8(5)
 370              		.loc 1 65 8 view .LVU116
 371 0054 916A0004 		stw 11,4(10)
 372 0058 916A0008 		stw 11,8(10)
 373 005c 916A000C 		stw 11,12(10)
 374 0060 916A0010 		stw 11,16(10)
 375              		.loc 1 66 2 is_stmt 1 view .LVU117
 376              		.loc 1 66 14 is_stmt 0 view .LVU118
 377 0064 900AFFF4 		stw 0,-12(10)
 378              		.loc 1 67 2 is_stmt 1 view .LVU119
 379              		.loc 1 68 2 view .LVU120
 380              		.loc 1 70 2 view .LVU121
 381              		.loc 1 67 14 is_stmt 0 view .LVU122
 382 0068 91050004 		stw 8,4(5)
 383              		.loc 1 70 20 view .LVU123
 384 006c 48000001 		bl IOS_Ioctl
 385              	.LVL15:
 386              		.loc 1 70 20 view .LVU124
 387 0070 7C691B78 		mr 9,3
 388              		.loc 1 72 21 discriminator 2 view .LVU125
 389 0074 38600000 		li 3,0
 390              	.LVL16:
 391              		.loc 1 72 2 is_stmt 1 view .LVU126
 392              		.loc 1 72 21 is_stmt 0 view .LVU127
 393 0078 2C090001 		cmpwi 0,9,1
 394 007c 41820008 		beq- 0,.L35
 395              		.loc 1 72 21 discriminator 1 view .LVU128
 396 0080 7C6900D0 		neg 3,9
 397              	.L35:
 398              		.loc 1 73 1 view .LVU129
 399 0084 8001000C 		lwz 0,12(1)
 400 0088 38210008 		addi 1,1,8
 401              		.cfi_def_cfa_offset 0
 402 008c 7C0803A6 		mtlr 0
 403              		.cfi_restore 65
 404 0090 4E800020 		blr
 405              	.LVL17:
 406              	.L38:
 407              		.loc 1 63 11 view .LVU130
 408 0094 3860FFFF 		li 3,-1
 409              		.loc 1 73 1 view .LVU131
 410 0098 4E800020 		blr
 411              		.cfi_endproc
 412              	.LFE4:
 413              		.size	WDVD_LowRead, .-WDVD_LowRead
 414              		.section	.text.WDVD_LowReadSectors,"ax",@progbits
 415              		.align 2
 416              		.globl WDVD_LowReadSectors
 417              		.type	WDVD_LowReadSectors, @function
 418              	WDVD_LowReadSectors:
 419              	.LVL18:
 420              	.LFB5:
 421              		.loc 1 76 1 is_stmt 1 view -0
 422              		.cfi_startproc
 423              		.loc 1 78 5 view .LVU133
 424              		.loc 1 79 5 view .LVU134
 425              		.loc 1 78 9 is_stmt 0 view .LVU135
 426 0000 546936BE 		srwi 9,3,26
 427              		.loc 1 79 19 view .LVU136
 428 0004 61290010 		ori 9,9,0x10
 429              		.loc 1 79 5 view .LVU137
 430 0008 2C090034 		cmpwi 0,9,52
 431 000c 40820088 		bne- 0,.L49
 432              		.loc 1 79 37 discriminator 1 view .LVU138
 433 0010 7069001F 		andi. 9,3,0x1f
 434 0014 7C671B78 		mr 7,3
 435 0018 4082007C 		bne- 0,.L49
 436              		.loc 1 82 2 is_stmt 1 view .LVU139
 437              	.LBB4:
 438              	.LBB5:
 439              		.loc 1 46 11 is_stmt 0 view .LVU140
 440 001c 3D200000 		lis 9,_ZL5di_fd@ha
 441              	.LBE5:
 442              	.LBE4:
 443              		.loc 1 82 32 view .LVU141
 444 0020 54A65D7E 		srwi 6,5,21
 445              	.LBB11:
 446              	.LBB6:
 447              		.loc 1 46 11 view .LVU142
 448 0024 80690000 		lwz 3,_ZL5di_fd@l(9)
 449              	.LVL19:
 450              		.loc 1 46 11 view .LVU143
 451              	.LBE6:
 452              	.LBE11:
 453              		.loc 1 82 32 view .LVU144
 454 0028 54885828 		slwi 8,4,11
 455 002c 54A55828 		slwi 5,5,11
 456              	.LVL20:
 457              	.LBB12:
 458              	.LBI4:
 459              		.loc 1 43 5 is_stmt 1 view .LVU145
 460              	.LBB7:
 461              		.loc 1 44 2 view .LVU146
 462              		.loc 1 46 2 view .LVU147
 463 0030 2C030000 		cmpwi 0,3,0
 464 0034 41800060 		blt- 0,.L49
 465              		.loc 1 49 2 view .LVU148
 466              	.LBE7:
 467              	.LBE12:
 468              		.loc 1 76 1 is_stmt 0 view .LVU149
 469 0038 9421FFF8 		stwu 1,-8(1)
 470              		.cfi_def_cfa_offset 8
 471              	.LBB13:
 472              	.LBB8:
 473              		.loc 1 49 14 view .LVU150
 474 003c 3D400000 		lis 10,_ZL8inbuffer@ha
 475              		.loc 1 51 23 view .LVU151
 476 0040 54A9F0BE 		srwi 9,5,2
 477              	.LBE8:
 478              	.LBE13:
 479              		.loc 1 76 1 view .LVU152
 480 0044 7C0802A6 		mflr 0
 481              	.LBB14:
 482              	.LBB9:
 483              		.loc 1 51 23 view .LVU153
 484 0048 50C9F002 		rlwimi 9,6,30,0,31-30
 485              		.loc 1 49 14 view .LVU154
 486 004c 38AA0000 		la 5,_ZL8inbuffer@l(10)
 487              	.LVL21:
 488              		.loc 1 49 14 view .LVU155
 489 0050 3D608D00 		lis 11,0x8d00
 490              		.loc 1 53 20 view .LVU156
 491 0054 38C00020 		li 6,32
 492              	.LVL22:
 493              		.loc 1 53 20 view .LVU157
 494 0058 3880008D 		li 4,141
 495              	.LVL23:
 496              		.loc 1 53 20 view .LVU158
 497              	.LBE9:
 498              	.LBE14:
 499              		.loc 1 76 1 view .LVU159
 500 005c 9001000C 		stw 0,12(1)
 501              		.cfi_offset 65, 4
 502              	.LBB15:
 503              	.LBB10:
 504              		.loc 1 49 14 view .LVU160
 505 0060 916A0000 		stw 11,_ZL8inbuffer@l(10)
 506              		.loc 1 50 2 is_stmt 1 view .LVU161
 507              		.loc 1 51 2 view .LVU162
 508              		.loc 1 53 2 view .LVU163
 509              		.loc 1 51 14 is_stmt 0 view .LVU164
 510 0064 91250008 		stw 9,8(5)
 511              		.loc 1 50 14 view .LVU165
 512 0068 91050004 		stw 8,4(5)
 513              		.loc 1 53 20 view .LVU166
 514 006c 48000001 		bl IOS_Ioctl
 515              	.LVL24:
 516              		.loc 1 53 20 view .LVU167
 517 0070 7C691B78 		mr 9,3
 518              		.loc 1 55 21 discriminator 2 view .LVU168
 519 0074 38600000 		li 3,0
 520              	.LVL25:
 521              		.loc 1 55 2 is_stmt 1 view .LVU169
 522              		.loc 1 55 21 is_stmt 0 view .LVU170
 523 0078 2C090001 		cmpwi 0,9,1
 524 007c 41820008 		beq- 0,.L45
 525              		.loc 1 55 21 discriminator 1 view .LVU171
 526 0080 7C6900D0 		neg 3,9
 527              	.L45:
 528              	.LBE10:
 529              	.LBE15:
 530              		.loc 1 83 1 view .LVU172
 531 0084 8001000C 		lwz 0,12(1)
 532 0088 38210008 		addi 1,1,8
 533              		.cfi_def_cfa_offset 0
 534 008c 7C0803A6 		mtlr 0
 535              		.cfi_restore 65
 536 0090 4E800020 		blr
 537              	.LVL26:
 538              	.L49:
 539              		.loc 1 80 15 view .LVU173
 540 0094 3860FFFF 		li 3,-1
 541              		.loc 1 83 1 view .LVU174
 542 0098 4E800020 		blr
 543              		.cfi_endproc
 544              	.LFE5:
 545              		.size	WDVD_LowReadSectors, .-WDVD_LowReadSectors
 546              		.section	.text.WDVD_LowReadDiskId,"ax",@progbits
 547              		.align 2
 548              		.globl WDVD_LowReadDiskId
 549              		.type	WDVD_LowReadDiskId, @function
 550              	WDVD_LowReadDiskId:
 551              	.LFB6:
 552              		.loc 1 85 26 is_stmt 1 view -0
 553              		.cfi_startproc
 554              		.loc 1 86 2 view .LVU176
 555              		.loc 1 87 2 view .LVU177
 556              	.LVL27:
 557              		.loc 1 89 2 view .LVU178
 558              		.loc 1 89 11 is_stmt 0 view .LVU179
 559 0000 3D200000 		lis 9,_ZL5di_fd@ha
 560 0004 80690000 		lwz 3,_ZL5di_fd@l(9)
 561              		.loc 1 89 2 view .LVU180
 562 0008 2C030000 		cmpwi 0,3,0
 563 000c 41800080 		blt- 0,.L58
 564              		.loc 1 92 2 is_stmt 1 view .LVU181
 565              		.loc 1 85 26 is_stmt 0 view .LVU182
 566 0010 9421FFF8 		stwu 1,-8(1)
 567              		.cfi_def_cfa_offset 8
 568              		.loc 1 92 8 view .LVU183
 569 0014 3D208000 		lis 9,0x8000
 570 0018 39400000 		li 10,0
 571              		.loc 1 85 26 view .LVU184
 572 001c 7C0802A6 		mflr 0
 573 0020 9001000C 		stw 0,12(1)
 574              		.cfi_offset 65, 4
 575              		.loc 1 93 14 view .LVU185
 576 0024 3D600000 		lis 11,_ZL8inbuffer@ha
 577              		.loc 1 92 8 view .LVU186
 578 0028 91490000 		stw 10,0(9)
 579              		.loc 1 93 14 view .LVU187
 580 002c 3C007000 		lis 0,0x7000
 581              		.loc 1 92 8 view .LVU188
 582 0030 91490004 		stw 10,4(9)
 583              		.loc 1 95 20 view .LVU189
 584 0034 38AB0000 		la 5,_ZL8inbuffer@l(11)
 585              		.loc 1 92 8 view .LVU190
 586 0038 91490008 		stw 10,8(9)
 587              		.loc 1 95 20 view .LVU191
 588 003c 39000020 		li 8,32
 589              		.loc 1 92 8 view .LVU192
 590 0040 9149000C 		stw 10,12(9)
 591              		.loc 1 95 20 view .LVU193
 592 0044 3CE08000 		lis 7,0x8000
 593              		.loc 1 92 8 view .LVU194
 594 0048 91490010 		stw 10,16(9)
 595              		.loc 1 95 20 view .LVU195
 596 004c 38C00020 		li 6,32
 597              		.loc 1 92 8 view .LVU196
 598 0050 91490014 		stw 10,20(9)
 599              		.loc 1 95 20 view .LVU197
 600 0054 38800070 		li 4,112
 601              		.loc 1 92 8 view .LVU198
 602 0058 91490018 		stw 10,24(9)
 603 005c 9149001C 		stw 10,28(9)
 604              		.loc 1 93 2 is_stmt 1 view .LVU199
 605              		.loc 1 93 14 is_stmt 0 view .LVU200
 606 0060 900B0000 		stw 0,_ZL8inbuffer@l(11)
 607              		.loc 1 95 2 is_stmt 1 view .LVU201
 608              		.loc 1 95 20 is_stmt 0 view .LVU202
 609 0064 48000001 		bl IOS_Ioctl
 610              	.LVL28:
 611 0068 7C691B78 		mr 9,3
 612              	.LVL29:
 613              		.loc 1 96 2 is_stmt 1 view .LVU203
 614              		.loc 1 96 21 is_stmt 0 discriminator 2 view .LVU204
 615 006c 38600000 		li 3,0
 616              	.LVL30:
 617              		.loc 1 96 21 view .LVU205
 618 0070 2C090001 		cmpwi 0,9,1
 619 0074 41820008 		beq- 0,.L56
 620              		.loc 1 96 21 discriminator 1 view .LVU206
 621 0078 7C6900D0 		neg 3,9
 622              	.L56:
 623              		.loc 1 97 1 view .LVU207
 624 007c 8001000C 		lwz 0,12(1)
 625 0080 38210008 		addi 1,1,8
 626              		.cfi_def_cfa_offset 0
 627 0084 7C0803A6 		mtlr 0
 628              		.cfi_restore 65
 629 0088 4E800020 		blr
 630              	.LVL31:
 631              	.L58:
 632              		.loc 1 90 11 view .LVU208
 633 008c 3860FFFF 		li 3,-1
 634              		.loc 1 97 1 view .LVU209
 635 0090 4E800020 		blr
 636              		.cfi_endproc
 637              	.LFE6:
 638              		.size	WDVD_LowReadDiskId, .-WDVD_LowReadDiskId
 639              		.section	.text.WDVD_LowOpenPartition,"ax",@progbits
 640              		.align 2
 641              		.globl WDVD_LowOpenPartition
 642              		.type	WDVD_LowOpenPartition, @function
 643              	WDVD_LowOpenPartition:
 644              	.LVL32:
 645              	.LFB7:
 646              		.loc 1 102 39 is_stmt 1 view -0
 647              		.cfi_startproc
 648              		.loc 1 103 2 view .LVU211
 649              		.loc 1 105 2 view .LVU212
 650              		.loc 1 102 39 is_stmt 0 view .LVU213
 651 0000 9421FFE0 		stwu 1,-32(1)
 652              		.cfi_def_cfa_offset 32
 653 0004 9361000C 		stw 27,12(1)
 654              		.cfi_offset 27, -20
 655              		.loc 1 105 11 view .LVU214
 656 0008 3F600000 		lis 27,_ZL5di_fd@ha
 657 000c 813B0000 		lwz 9,_ZL5di_fd@l(27)
 658              		.loc 1 105 2 view .LVU215
 659 0010 2C090000 		cmpwi 0,9,0
 660 0014 41800108 		blt- 0,.L67
 661              		.loc 1 108 2 is_stmt 1 view .LVU216
 662              	.LBB18:
 663              	.LBI18:
 664              		.loc 1 24 6 view .LVU217
 665              	.LBB19:
 666              		.loc 1 26 2 view .LVU218
 667              		.loc 1 29 2 view .LVU219
 668 0018 93810010 		stw 28,16(1)
 669              		.cfi_offset 28, -16
 670              		.loc 1 29 17 is_stmt 0 view .LVU220
 671 001c 3F800000 		lis 28,_ZL8inbuffer@ha
 672 0020 93E1001C 		stw 31,28(1)
 673              		.cfi_offset 31, -4
 674 0024 3BFC0000 		la 31,_ZL8inbuffer@l(28)
 675 0028 7C0802A6 		mflr 0
 676              		.cfi_register 65, 0
 677 002c 93A10014 		stw 29,20(1)
 678              		.cfi_offset 29, -12
 679 0030 93C10018 		stw 30,24(1)
 680              		.cfi_offset 30, -8
 681 0034 7C7D1B78 		mr 29,3
 682 0038 7C9E2378 		mr 30,4
 683              		.loc 1 31 20 view .LVU221
 684 003c 7D234B78 		mr 3,9
 685              	.LVL33:
 686              		.loc 1 31 20 view .LVU222
 687 0040 7FE5FB78 		mr 5,31
 688              		.loc 1 29 17 view .LVU223
 689 0044 3D208C00 		lis 9,0x8c00
 690              		.loc 1 31 20 view .LVU224
 691 0048 39000000 		li 8,0
 692 004c 38E00000 		li 7,0
 693 0050 38C00020 		li 6,32
 694 0054 3880008C 		li 4,140
 695 0058 90010024 		stw 0,36(1)
 696              		.cfi_offset 65, 4
 697              		.loc 1 29 17 view .LVU225
 698 005c 913C0000 		stw 9,_ZL8inbuffer@l(28)
 699              		.loc 1 31 2 is_stmt 1 view .LVU226
 700              		.loc 1 31 20 is_stmt 0 view .LVU227
 701 0060 48000001 		bl IOS_Ioctl
 702              	.LVL34:
 703              	.LBE19:
 704              	.LBE18:
 705              		.loc 1 110 2 is_stmt 1 view .LVU228
 706              		.loc 1 111 24 is_stmt 0 view .LVU229
 707 0064 57C4F0BE 		srwi 4,30,2
 708              		.loc 1 110 15 view .LVU230
 709 0068 3CC08B00 		lis 6,0x8b00
 710              		.loc 1 111 24 view .LVU231
 711 006c 53A4F002 		rlwimi 4,29,30,0,31-30
 712              		.loc 1 114 19 view .LVU232
 713 0070 38BF0030 		addi 5,31,48
 714              		.loc 1 125 21 view .LVU233
 715 0074 807B0000 		lwz 3,_ZL5di_fd@l(27)
 716              		.loc 1 120 19 view .LVU234
 717 0078 3D000000 		lis 8,_ZL8tmd_data@ha
 718              		.loc 1 122 19 view .LVU235
 719 007c 3D400000 		lis 10,_ZL11errorbuffer@ha
 720              		.loc 1 112 30 view .LVU236
 721 0080 39200000 		li 9,0
 722              		.loc 1 115 18 view .LVU237
 723 0084 39600020 		li 11,32
 724              		.loc 1 111 15 view .LVU238
 725 0088 909F0034 		stw 4,52(31)
 726              		.loc 1 110 15 view .LVU239
 727 008c 90DF0030 		stw 6,48(31)
 728              		.loc 1 111 2 is_stmt 1 view .LVU240
 729              		.loc 1 112 2 view .LVU241
 730              		.loc 1 120 19 is_stmt 0 view .LVU242
 731 0090 39080000 		la 8,_ZL8tmd_data@l(8)
 732              		.loc 1 114 19 view .LVU243
 733 0094 90BC0000 		stw 5,_ZL8inbuffer@l(28)
 734              		.loc 1 121 18 view .LVU244
 735 0098 380049E4 		li 0,18916
 736              		.loc 1 122 19 view .LVU245
 737 009c 394A0000 		la 10,_ZL11errorbuffer@l(10)
 738              		.loc 1 117 18 view .LVU246
 739 00a0 3BC002A4 		li 30,676
 740              		.loc 1 125 21 view .LVU247
 741 00a4 7FE7FB78 		mr 7,31
 742 00a8 38C00002 		li 6,2
 743 00ac 38A00003 		li 5,3
 744 00b0 3880008B 		li 4,139
 745              		.loc 1 112 30 view .LVU248
 746 00b4 913F003C 		stw 9,60(31)
 747              		.loc 1 112 15 view .LVU249
 748 00b8 913F0038 		stw 9,56(31)
 749              		.loc 1 114 2 is_stmt 1 view .LVU250
 750              		.loc 1 115 2 view .LVU251
 751              		.loc 1 116 19 is_stmt 0 view .LVU252
 752 00bc 913F0008 		stw 9,8(31)
 753              		.loc 1 118 19 view .LVU253
 754 00c0 913F0010 		stw 9,16(31)
 755              		.loc 1 119 18 view .LVU254
 756 00c4 913F0014 		stw 9,20(31)
 757              		.loc 1 117 18 view .LVU255
 758 00c8 93DF000C 		stw 30,12(31)
 759              		.loc 1 120 19 view .LVU256
 760 00cc 911F0018 		stw 8,24(31)
 761              		.loc 1 121 18 view .LVU257
 762 00d0 901F001C 		stw 0,28(31)
 763              		.loc 1 122 19 view .LVU258
 764 00d4 915F0020 		stw 10,32(31)
 765              		.loc 1 115 18 view .LVU259
 766 00d8 917F0004 		stw 11,4(31)
 767              		.loc 1 116 2 is_stmt 1 view .LVU260
 768              		.loc 1 117 2 view .LVU261
 769              		.loc 1 118 2 view .LVU262
 770              		.loc 1 119 2 view .LVU263
 771              		.loc 1 120 2 view .LVU264
 772              		.loc 1 121 2 view .LVU265
 773              		.loc 1 122 2 view .LVU266
 774              		.loc 1 123 2 view .LVU267
 775              		.loc 1 123 18 is_stmt 0 view .LVU268
 776 00dc 917F0024 		stw 11,36(31)
 777              		.loc 1 125 2 is_stmt 1 view .LVU269
 778              		.loc 1 125 21 is_stmt 0 view .LVU270
 779 00e0 48000001 		bl IOS_Ioctlv
 780              	.LVL35:
 781 00e4 7C691B78 		mr 9,3
 782              		.loc 1 127 21 discriminator 2 view .LVU271
 783 00e8 38600000 		li 3,0
 784              	.LVL36:
 785              		.loc 1 127 2 is_stmt 1 view .LVU272
 786              		.loc 1 127 21 is_stmt 0 view .LVU273
 787 00ec 2C090001 		cmpwi 0,9,1
 788 00f0 41820008 		beq- 0,.L71
 789              		.loc 1 127 21 discriminator 1 view .LVU274
 790 00f4 7C6900D0 		neg 3,9
 791              	.L71:
 792 00f8 80010024 		lwz 0,36(1)
 793 00fc 83810010 		lwz 28,16(1)
 794              		.cfi_restore 28
 795 0100 83A10014 		lwz 29,20(1)
 796              		.cfi_restore 29
 797 0104 7C0803A6 		mtlr 0
 798              		.cfi_restore 65
 799 0108 83C10018 		lwz 30,24(1)
 800              		.cfi_restore 30
 801 010c 83E1001C 		lwz 31,28(1)
 802              		.cfi_restore 31
 803              	.LVL37:
 804              	.L65:
 805              		.loc 1 128 1 view .LVU275
 806 0110 8361000C 		lwz 27,12(1)
 807 0114 38210020 		addi 1,1,32
 808              		.cfi_remember_state
 809              		.cfi_restore 27
 810              		.cfi_def_cfa_offset 0
 811 0118 4E800020 		blr
 812              	.LVL38:
 813              	.L67:
 814              		.cfi_restore_state
 815              		.loc 1 106 11 view .LVU276
 816 011c 3860FFFF 		li 3,-1
 817              	.LVL39:
 818              		.loc 1 106 11 view .LVU277
 819 0120 4BFFFFF0 		b .L65
 820              		.cfi_endproc
 821              	.LFE7:
 822              		.size	WDVD_LowOpenPartition, .-WDVD_LowOpenPartition
 823              		.section	.text.WDVD_GetTMD,"ax",@progbits
 824              		.align 2
 825              		.globl WDVD_GetTMD
 826              		.type	WDVD_GetTMD, @function
 827              	WDVD_GetTMD:
 828              	.LFB8:
 829              		.loc 1 130 1 is_stmt 1 view -0
 830              		.cfi_startproc
 831              		.loc 1 131 2 view .LVU279
 832              		.loc 1 131 44 is_stmt 0 discriminator 1 view .LVU280
 833 0000 3C600000 		lis 3,_ZL8tmd_data+320@ha
 834              		.loc 1 132 1 view .LVU281
 835 0004 38630000 		la 3,_ZL8tmd_data+320@l(3)
 836 0008 4E800020 		blr
 837              		.cfi_endproc
 838              	.LFE8:
 839              		.size	WDVD_GetTMD, .-WDVD_GetTMD
 840              		.section	.text.WDVD_Close,"ax",@progbits
 841              		.align 2
 842              		.globl WDVD_Close
 843              		.type	WDVD_Close, @function
 844              	WDVD_Close:
 845              	.LFB9:
 846              		.loc 1 134 19 is_stmt 1 view -0
 847              		.cfi_startproc
 848              		.loc 1 135 2 view .LVU283
 849              		.loc 1 134 19 is_stmt 0 view .LVU284
 850 0000 9421FFF0 		stwu 1,-16(1)
 851              		.cfi_def_cfa_offset 16
 852 0004 93E1000C 		stw 31,12(1)
 853              		.cfi_offset 31, -4
 854              		.loc 1 135 12 view .LVU285
 855 0008 3FE00000 		lis 31,_ZL5di_fd@ha
 856 000c 807F0000 		lwz 3,_ZL5di_fd@l(31)
 857              		.loc 1 135 2 view .LVU286
 858 0010 2C030000 		cmpwi 0,3,0
 859 0014 41800020 		blt- 0,.L73
 860 0018 7C0802A6 		mflr 0
 861              		.cfi_register 65, 0
 862 001c 90010014 		stw 0,20(1)
 863              		.cfi_offset 65, 4
 864              		.loc 1 138 2 is_stmt 1 view .LVU287
 865              		.loc 1 138 11 is_stmt 0 view .LVU288
 866 0020 48000001 		bl IOS_Close
 867              	.LVL40:
 868              		.loc 1 139 2 is_stmt 1 view .LVU289
 869              		.loc 1 139 8 is_stmt 0 view .LVU290
 870 0024 80010014 		lwz 0,20(1)
 871 0028 3920FFFF 		li 9,-1
 872 002c 913F0000 		stw 9,_ZL5di_fd@l(31)
 873 0030 7C0803A6 		mtlr 0
 874              		.cfi_restore 65
 875              	.L73:
 876              		.loc 1 140 1 view .LVU291
 877 0034 83E1000C 		lwz 31,12(1)
 878 0038 38210010 		addi 1,1,16
 879              		.cfi_restore 31
 880              		.cfi_def_cfa_offset 0
 881 003c 4E800020 		blr
 882              		.cfi_endproc
 883              	.LFE9:
 884              		.size	WDVD_Close, .-WDVD_Close
 885              		.section	.text.WDVD_CheckCover,"ax",@progbits
 886              		.align 2
 887              		.globl WDVD_CheckCover
 888              		.type	WDVD_CheckCover, @function
 889              	WDVD_CheckCover:
 890              	.LFB10:
 891              		.loc 1 142 23 is_stmt 1 view -0
 892              		.cfi_startproc
 893              		.loc 1 143 2 view .LVU293
 894              		.loc 1 144 2 view .LVU294
 895              		.loc 1 144 11 is_stmt 0 view .LVU295
 896 0000 3D200000 		lis 9,_ZL5di_fd@ha
 897 0004 80690000 		lwz 3,_ZL5di_fd@l(9)
 898              		.loc 1 144 2 view .LVU296
 899 0008 2C030000 		cmpwi 0,3,0
 900 000c 41800050 		blt- 0,.L78
 901              		.loc 1 147 2 is_stmt 1 view .LVU297
 902              		.loc 1 147 14 is_stmt 0 view .LVU298
 903 0010 3D200000 		lis 9,_ZL8inbuffer@ha
 904              		.loc 1 142 23 view .LVU299
 905 0014 9421FFF8 		stwu 1,-8(1)
 906              		.cfi_def_cfa_offset 8
 907              		.loc 1 147 14 view .LVU300
 908 0018 38A90000 		la 5,_ZL8inbuffer@l(9)
 909              		.loc 1 142 23 view .LVU301
 910 001c 7C0802A6 		mflr 0
 911              		.loc 1 147 14 view .LVU302
 912 0020 3D408800 		lis 10,0x8800
 913              		.loc 1 148 20 view .LVU303
 914 0024 38E50020 		addi 7,5,32
 915 0028 39000020 		li 8,32
 916 002c 38C00020 		li 6,32
 917 0030 38800088 		li 4,136
 918              		.loc 1 142 23 view .LVU304
 919 0034 9001000C 		stw 0,12(1)
 920              		.cfi_offset 65, 4
 921              		.loc 1 147 14 view .LVU305
 922 0038 91490000 		stw 10,_ZL8inbuffer@l(9)
 923              		.loc 1 148 2 is_stmt 1 view .LVU306
 924              		.loc 1 148 20 is_stmt 0 view .LVU307
 925 003c 48000001 		bl IOS_Ioctl
 926              	.LVL41:
 927              		.loc 1 149 2 is_stmt 1 view .LVU308
 928              		.loc 1 149 21 is_stmt 0 view .LVU309
 929 0040 2C030001 		cmpwi 0,3,1
 930 0044 41820008 		beq- 0,.L76
 931              		.loc 1 149 21 discriminator 1 view .LVU310
 932 0048 7C6300D0 		neg 3,3
 933              	.LVL42:
 934              	.L76:
 935              		.loc 1 150 1 view .LVU311
 936 004c 8001000C 		lwz 0,12(1)
 937 0050 38210008 		addi 1,1,8
 938              		.cfi_def_cfa_offset 0
 939 0054 7C0803A6 		mtlr 0
 940              		.cfi_restore 65
 941 0058 4E800020 		blr
 942              	.LVL43:
 943              	.L78:
 944              		.loc 1 145 11 view .LVU312
 945 005c 3860FFFF 		li 3,-1
 946              		.loc 1 150 1 view .LVU313
 947 0060 4E800020 		blr
 948              		.cfi_endproc
 949              	.LFE10:
 950              		.size	WDVD_CheckCover, .-WDVD_CheckCover
 951              		.section	.text.WDVD_VerifyCover,"ax",@progbits
 952              		.align 2
 953              		.globl WDVD_VerifyCover
 954              		.type	WDVD_VerifyCover, @function
 955              	WDVD_VerifyCover:
 956              	.LVL44:
 957              	.LFB11:
 958              		.loc 1 152 35 is_stmt 1 view -0
 959              		.cfi_startproc
 960              		.loc 1 153 2 view .LVU315
 961              		.loc 1 152 35 is_stmt 0 view .LVU316
 962 0000 9421FFF0 		stwu 1,-16(1)
 963              		.cfi_def_cfa_offset 16
 964              		.loc 1 154 11 view .LVU317
 965 0004 3D200000 		lis 9,_ZL5di_fd@ha
 966              		.loc 1 152 35 view .LVU318
 967 0008 93E1000C 		stw 31,12(1)
 968              		.cfi_offset 31, -4
 969 000c 7C7F1B78 		mr 31,3
 970              		.loc 1 154 11 view .LVU319
 971 0010 80690000 		lwz 3,_ZL5di_fd@l(9)
 972              	.LVL45:
 973              		.loc 1 153 9 view .LVU320
 974 0014 39200000 		li 9,0
 975 0018 993F0000 		stb 9,0(31)
 976              		.loc 1 154 2 is_stmt 1 view .LVU321
 977 001c 2C030000 		cmpwi 0,3,0
 978 0020 41800078 		blt- 0,.L89
 979              		.loc 1 157 2 view .LVU322
 980              		.loc 1 157 14 is_stmt 0 view .LVU323
 981 0024 3D200000 		lis 9,_ZL8inbuffer@ha
 982 0028 93C10008 		stw 30,8(1)
 983              		.cfi_offset 30, -8
 984 002c 3BC90000 		la 30,_ZL8inbuffer@l(9)
 985 0030 7C0802A6 		mflr 0
 986              		.cfi_register 65, 0
 987 0034 3D40DB00 		lis 10,0xdb00
 988              		.loc 1 158 15 view .LVU324
 989 0038 38FE0020 		addi 7,30,32
 990 003c 7FC5F378 		mr 5,30
 991 0040 39000020 		li 8,32
 992 0044 38C00020 		li 6,32
 993 0048 388000DB 		li 4,219
 994 004c 90010014 		stw 0,20(1)
 995              		.cfi_offset 65, 4
 996              		.loc 1 157 14 view .LVU325
 997 0050 91490000 		stw 10,_ZL8inbuffer@l(9)
 998              		.loc 1 158 2 is_stmt 1 view .LVU326
 999              		.loc 1 158 15 is_stmt 0 view .LVU327
 1000 0054 48000001 		bl IOS_Ioctl
 1001              	.LVL46:
 1002              		.loc 1 158 2 discriminator 1 view .LVU328
 1003 0058 2C030001 		cmpwi 0,3,1
 1004 005c 40820030 		bne- 0,.L91
 1005              		.loc 1 161 2 is_stmt 1 view .LVU329
 1006              		.loc 1 161 11 is_stmt 0 view .LVU330
 1007 0060 813E0020 		lwz 9,32(30)
 1008              		.loc 1 162 9 view .LVU331
 1009 0064 38600000 		li 3,0
 1010              		.loc 1 161 11 view .LVU332
 1011 0068 80010014 		lwz 0,20(1)
 1012 006c 7D290034 		cntlzw 9,9
 1013 0070 83C10008 		lwz 30,8(1)
 1014              		.cfi_restore 30
 1015 0074 5529D97E 		srwi 9,9,5
 1016 0078 7C0803A6 		mtlr 0
 1017              		.cfi_restore 65
 1018 007c 993F0000 		stb 9,0(31)
 1019              		.loc 1 162 2 is_stmt 1 view .LVU333
 1020              	.L86:
 1021              		.loc 1 163 1 is_stmt 0 view .LVU334
 1022 0080 83E1000C 		lwz 31,12(1)
 1023              	.LVL47:
 1024              		.loc 1 163 1 view .LVU335
 1025 0084 38210010 		addi 1,1,16
 1026              		.cfi_restore 31
 1027              		.cfi_def_cfa_offset 0
 1028 0088 4E800020 		blr
 1029              	.LVL48:
 1030              	.L91:
 1031              		.cfi_def_cfa_offset 16
 1032              		.cfi_offset 30, -8
 1033              		.cfi_offset 31, -4
 1034              		.cfi_offset 65, 4
 1035              		.loc 1 163 1 view .LVU336
 1036 008c 80010014 		lwz 0,20(1)
 1037 0090 83C10008 		lwz 30,8(1)
 1038              		.cfi_restore 30
 1039 0094 7C0803A6 		mtlr 0
 1040              		.cfi_restore 65
 1041              	.L89:
 1042              		.loc 1 155 11 view .LVU337
 1043 0098 3860FFFF 		li 3,-1
 1044 009c 4BFFFFE4 		b .L86
 1045              		.cfi_endproc
 1046              	.LFE11:
 1047              		.size	WDVD_VerifyCover, .-WDVD_VerifyCover
 1048              		.section	.text.WDVD_DiscInserted,"ax",@progbits
 1049              		.align 2
 1050              		.globl WDVD_DiscInserted
 1051              		.type	WDVD_DiscInserted, @function
 1052              	WDVD_DiscInserted:
 1053              	.LFB12:
 1054              		.loc 1 165 25 is_stmt 1 view -0
 1055              		.cfi_startproc
 1056              		.loc 1 166 2 view .LVU339
 1057              		.loc 1 166 11 is_stmt 0 view .LVU340
 1058 0000 3D200000 		lis 9,_ZL5di_fd@ha
 1059 0004 80690000 		lwz 3,_ZL5di_fd@l(9)
 1060              		.loc 1 166 2 view .LVU341
 1061 0008 2C030000 		cmpwi 0,3,0
 1062 000c 41800020 		blt- 0,.L93
 1063              		.loc 1 169 2 is_stmt 1 view .LVU342
 1064              		.loc 1 169 18 is_stmt 0 view .LVU343
 1065 0010 3CE00000 		lis 7,_ZL8inbuffer+32@ha
 1066 0014 39000020 		li 8,32
 1067 0018 38E70000 		la 7,_ZL8inbuffer+32@l(7)
 1068 001c 38C00020 		li 6,32
 1069 0020 38A7FFE0 		addi 5,7,-32
 1070 0024 388000CE 		li 4,206
 1071 0028 48000000 		b IOS_Ioctl
 1072              	.LVL49:
 1073              	.L93:
 1074              		.loc 1 170 1 view .LVU344
 1075 002c 3860FFFF 		li 3,-1
 1076 0030 4E800020 		blr
 1077              		.cfi_endproc
 1078              	.LFE12:
 1079              		.size	WDVD_DiscInserted, .-WDVD_DiscInserted
 1080              		.section	.text.WDVD_LowReadBCA,"ax",@progbits
 1081              		.align 2
 1082              		.globl WDVD_LowReadBCA
 1083              		.type	WDVD_LowReadBCA, @function
 1084              	WDVD_LowReadBCA:
 1085              	.LVL50:
 1086              	.LFB13:
 1087              		.loc 1 173 1 is_stmt 1 view -0
 1088              		.cfi_startproc
 1089              		.loc 1 174 2 view .LVU346
 1090              		.loc 1 175 2 view .LVU347
 1091              		.loc 1 175 11 is_stmt 0 view .LVU348
 1092 0000 3D200000 		lis 9,_ZL5di_fd@ha
 1093 0004 81290000 		lwz 9,_ZL5di_fd@l(9)
 1094              		.loc 1 175 2 view .LVU349
 1095 0008 2C090000 		cmpwi 0,9,0
 1096 000c 41800098 		blt- 0,.L96
 1097              		.loc 1 178 2 is_stmt 1 view .LVU350
 1098              		.loc 1 173 1 is_stmt 0 view .LVU351
 1099 0010 9421FFE8 		stwu 1,-24(1)
 1100              		.cfi_def_cfa_offset 24
 1101              		.loc 1 178 14 view .LVU352
 1102 0014 3D400000 		lis 10,_ZL8inbuffer@ha
 1103              		.loc 1 173 1 view .LVU353
 1104 0018 7C0802A6 		mflr 0
 1105              		.loc 1 179 20 view .LVU354
 1106 001c 38AA0000 		la 5,_ZL8inbuffer@l(10)
 1107              		.loc 1 173 1 view .LVU355
 1108 0020 93E10014 		stw 31,20(1)
 1109              		.cfi_register 65, 0
 1110              		.cfi_offset 31, -4
 1111              		.loc 1 179 20 view .LVU356
 1112 0024 3FE00000 		lis 31,_ZL11errorbuffer@ha
 1113 0028 3BFF0000 		la 31,_ZL11errorbuffer@l(31)
 1114              		.loc 1 173 1 view .LVU357
 1115 002c 93A1000C 		stw 29,12(1)
 1116              		.loc 1 179 20 view .LVU358
 1117 0030 7FE7FB78 		mr 7,31
 1118              		.loc 1 173 1 view .LVU359
 1119 0034 93C10010 		stw 30,16(1)
 1120              		.cfi_offset 29, -12
 1121              		.cfi_offset 30, -8
 1122 0038 7C9D2378 		mr 29,4
 1123 003c 7C7E1B78 		mr 30,3
 1124              		.loc 1 179 20 view .LVU360
 1125 0040 39000040 		li 8,64
 1126 0044 7D234B78 		mr 3,9
 1127              	.LVL51:
 1128              		.loc 1 179 20 view .LVU361
 1129 0048 38C00020 		li 6,32
 1130              		.loc 1 178 14 view .LVU362
 1131 004c 3D20DA00 		lis 9,0xda00
 1132              		.loc 1 179 20 view .LVU363
 1133 0050 388000DA 		li 4,218
 1134              	.LVL52:
 1135              		.loc 1 178 14 view .LVU364
 1136 0054 912A0000 		stw 9,_ZL8inbuffer@l(10)
 1137              		.loc 1 179 2 is_stmt 1 view .LVU365
 1138              		.loc 1 173 1 is_stmt 0 view .LVU366
 1139 0058 9001001C 		stw 0,28(1)
 1140              		.cfi_offset 65, 4
 1141              		.loc 1 179 20 view .LVU367
 1142 005c 48000001 		bl IOS_Ioctl
 1143              	.LVL53:
 1144 0060 7C691B78 		mr 9,3
 1145              		.loc 1 180 8 view .LVU368
 1146 0064 7FE4FB78 		mr 4,31
 1147 0068 7FA5EB78 		mr 5,29
 1148              		.loc 1 179 20 view .LVU369
 1149 006c 7D3F4B78 		mr 31,9
 1150              	.LVL54:
 1151              		.loc 1 180 2 is_stmt 1 view .LVU370
 1152              		.loc 1 180 8 is_stmt 0 view .LVU371
 1153 0070 7FC3F378 		mr 3,30
 1154              	.LVL55:
 1155              		.loc 1 180 8 view .LVU372
 1156 0074 48000001 		bl memcpy
 1157              	.LVL56:
 1158              		.loc 1 181 2 is_stmt 1 view .LVU373
 1159              		.loc 1 181 21 is_stmt 0 view .LVU374
 1160 0078 2C1F0001 		cmpwi 0,31,1
 1161              		.loc 1 181 21 discriminator 2 view .LVU375
 1162 007c 38600000 		li 3,0
 1163              		.loc 1 181 21 view .LVU376
 1164 0080 41820008 		beq- 0,.L94
 1165              		.loc 1 181 21 discriminator 1 view .LVU377
 1166 0084 7C7F00D0 		neg 3,31
 1167              	.L94:
 1168              		.loc 1 182 1 view .LVU378
 1169 0088 8001001C 		lwz 0,28(1)
 1170 008c 83A1000C 		lwz 29,12(1)
 1171              	.LVL57:
 1172              		.loc 1 182 1 view .LVU379
 1173 0090 83C10010 		lwz 30,16(1)
 1174              	.LVL58:
 1175              		.loc 1 182 1 view .LVU380
 1176 0094 7C0803A6 		mtlr 0
 1177              		.cfi_restore 65
 1178 0098 83E10014 		lwz 31,20(1)
 1179              	.LVL59:
 1180              		.loc 1 182 1 view .LVU381
 1181 009c 38210018 		addi 1,1,24
 1182              		.cfi_restore 31
 1183              		.cfi_restore 30
 1184              		.cfi_restore 29
 1185              		.cfi_def_cfa_offset 0
 1186 00a0 4E800020 		blr
 1187              	.LVL60:
 1188              	.L96:
 1189              		.loc 1 176 11 view .LVU382
 1190 00a4 3860FFFF 		li 3,-1
 1191              	.LVL61:
 1192              		.loc 1 182 1 view .LVU383
 1193 00a8 4E800020 		blr
 1194              		.cfi_endproc
 1195              	.LFE13:
 1196              		.size	WDVD_LowReadBCA, .-WDVD_LowReadBCA
 1197              		.section	.text.WDVD_StopMotor,"ax",@progbits
 1198              		.align 2
 1199              		.globl WDVD_StopMotor
 1200              		.type	WDVD_StopMotor, @function
 1201              	WDVD_StopMotor:
 1202              	.LVL62:
 1203              	.LFB14:
 1204              		.loc 1 185 1 is_stmt 1 view -0
 1205              		.cfi_startproc
 1206              		.loc 1 186 2 view .LVU385
 1207              		.loc 1 186 11 is_stmt 0 view .LVU386
 1208 0000 3D200000 		lis 9,_ZL5di_fd@ha
 1209              		.loc 1 185 1 view .LVU387
 1210 0004 7C6A1B78 		mr 10,3
 1211              		.loc 1 186 11 view .LVU388
 1212 0008 81090000 		lwz 8,_ZL5di_fd@l(9)
 1213              		.loc 1 185 1 view .LVU389
 1214 000c 7C892378 		mr 9,4
 1215              		.loc 1 186 2 view .LVU390
 1216 0010 2C080000 		cmpwi 0,8,0
 1217 0014 41800034 		blt- 0,.L104
 1218              		.loc 1 189 2 is_stmt 1 view .LVU391
 1219              		.loc 1 189 14 is_stmt 0 view .LVU392
 1220 0018 3D600000 		lis 11,_ZL8inbuffer@ha
 1221              		.loc 1 192 18 view .LVU393
 1222 001c 7D034378 		mr 3,8
 1223              	.LVL63:
 1224              		.loc 1 189 14 view .LVU394
 1225 0020 38AB0000 		la 5,_ZL8inbuffer@l(11)
 1226 0024 3C00E300 		lis 0,0xe300
 1227              		.loc 1 192 18 view .LVU395
 1228 0028 38E50020 		addi 7,5,32
 1229 002c 39000020 		li 8,32
 1230 0030 38C00020 		li 6,32
 1231 0034 388000E3 		li 4,227
 1232              	.LVL64:
 1233              		.loc 1 189 14 view .LVU396
 1234 0038 900B0000 		stw 0,_ZL8inbuffer@l(11)
 1235              		.loc 1 190 2 is_stmt 1 view .LVU397
 1236              		.loc 1 190 22 is_stmt 0 view .LVU398
 1237 003c 91450004 		stw 10,4(5)
 1238              		.loc 1 191 2 is_stmt 1 view .LVU399
 1239              		.loc 1 191 21 is_stmt 0 view .LVU400
 1240 0040 91250008 		stw 9,8(5)
 1241              		.loc 1 192 2 is_stmt 1 view .LVU401
 1242              		.loc 1 192 18 is_stmt 0 view .LVU402
 1243 0044 48000000 		b IOS_Ioctl
 1244              	.LVL65:
 1245              	.L104:
 1246              		.loc 1 193 1 view .LVU403
 1247 0048 3860FFFF 		li 3,-1
 1248              	.LVL66:
 1249              		.loc 1 193 1 view .LVU404
 1250 004c 4E800020 		blr
 1251              		.cfi_endproc
 1252              	.LFE14:
 1253              		.size	WDVD_StopMotor, .-WDVD_StopMotor
 1254              		.section	.text.WDVD_SetDVDMode,"ax",@progbits
 1255              		.align 2
 1256              		.globl WDVD_SetDVDMode
 1257              		.type	WDVD_SetDVDMode, @function
 1258              	WDVD_SetDVDMode:
 1259              	.LVL67:
 1260              	.LFB15:
 1261              		.loc 1 196 1 is_stmt 1 view -0
 1262              		.cfi_startproc
 1263              		.loc 1 197 2 view .LVU406
 1264              		.loc 1 198 2 view .LVU407
 1265              		.loc 1 198 11 is_stmt 0 view .LVU408
 1266 0000 3D200000 		lis 9,_ZL5di_fd@ha
 1267 0004 81490000 		lwz 10,_ZL5di_fd@l(9)
 1268              		.loc 1 198 2 view .LVU409
 1269 0008 2C0A0000 		cmpwi 0,10,0
 1270 000c 4180005C 		blt- 0,.L107
 1271              		.loc 1 201 2 is_stmt 1 view .LVU410
 1272              		.loc 1 201 14 is_stmt 0 view .LVU411
 1273 0010 3D600000 		lis 11,_ZL8inbuffer@ha
 1274              		.loc 1 196 1 view .LVU412
 1275 0014 9421FFF8 		stwu 1,-8(1)
 1276              		.cfi_def_cfa_offset 8
 1277              		.loc 1 201 14 view .LVU413
 1278 0018 38AB0000 		la 5,_ZL8inbuffer@l(11)
 1279              		.loc 1 201 23 view .LVU414
 1280 001c 5469C00E 		slwi 9,3,24
 1281              		.loc 1 196 1 view .LVU415
 1282 0020 7C0802A6 		mflr 0
 1283              		.loc 1 202 20 view .LVU416
 1284 0024 7D435378 		mr 3,10
 1285              	.LVL68:
 1286              		.loc 1 202 20 view .LVU417
 1287 0028 38E50020 		addi 7,5,32
 1288 002c 39000020 		li 8,32
 1289 0030 38C00020 		li 6,32
 1290 0034 3880008E 		li 4,142
 1291              		.loc 1 201 14 view .LVU418
 1292 0038 912B0000 		stw 9,_ZL8inbuffer@l(11)
 1293              		.loc 1 202 2 is_stmt 1 view .LVU419
 1294              		.loc 1 196 1 is_stmt 0 view .LVU420
 1295 003c 9001000C 		stw 0,12(1)
 1296              		.cfi_offset 65, 4
 1297              		.loc 1 202 20 view .LVU421
 1298 0040 48000001 		bl IOS_Ioctl
 1299              	.LVL69:
 1300 0044 7C691B78 		mr 9,3
 1301              	.LVL70:
 1302              		.loc 1 203 2 is_stmt 1 view .LVU422
 1303              		.loc 1 203 21 is_stmt 0 discriminator 2 view .LVU423
 1304 0048 38600000 		li 3,0
 1305              	.LVL71:
 1306              		.loc 1 203 21 view .LVU424
 1307 004c 2C090001 		cmpwi 0,9,1
 1308 0050 41820008 		beq- 0,.L105
 1309              		.loc 1 203 21 discriminator 1 view .LVU425
 1310 0054 7C6900D0 		neg 3,9
 1311              	.L105:
 1312              		.loc 1 204 1 view .LVU426
 1313 0058 8001000C 		lwz 0,12(1)
 1314 005c 38210008 		addi 1,1,8
 1315              		.cfi_def_cfa_offset 0
 1316 0060 7C0803A6 		mtlr 0
 1317              		.cfi_restore 65
 1318 0064 4E800020 		blr
 1319              	.LVL72:
 1320              	.L107:
 1321              		.loc 1 199 11 view .LVU427
 1322 0068 3860FFFF 		li 3,-1
 1323              	.LVL73:
 1324              		.loc 1 204 1 view .LVU428
 1325 006c 4E800020 		blr
 1326              		.cfi_endproc
 1327              	.LFE15:
 1328              		.size	WDVD_SetDVDMode, .-WDVD_SetDVDMode
 1329              		.section	.text.WDVD_DVDRead,"ax",@progbits
 1330              		.align 2
 1331              		.globl WDVD_DVDRead
 1332              		.type	WDVD_DVDRead, @function
 1333              	WDVD_DVDRead:
 1334              	.LVL74:
 1335              	.LFB16:
 1336              		.loc 1 207 1 is_stmt 1 view -0
 1337              		.cfi_startproc
 1338              		.loc 1 208 2 view .LVU430
 1339              		.loc 1 209 2 view .LVU431
 1340              		.loc 1 209 11 is_stmt 0 view .LVU432
 1341 0000 3D200000 		lis 9,_ZL5di_fd@ha
 1342              		.loc 1 207 1 view .LVU433
 1343 0004 7C671B78 		mr 7,3
 1344              		.loc 1 209 11 view .LVU434
 1345 0008 80690000 		lwz 3,_ZL5di_fd@l(9)
 1346              	.LVL75:
 1347              		.loc 1 209 2 view .LVU435
 1348 000c 2C030000 		cmpwi 0,3,0
 1349 0010 41800074 		blt- 0,.L117
 1350              		.loc 1 209 14 discriminator 1 view .LVU436
 1351 0014 70EB001F 		andi. 11,7,0x1f
 1352 0018 4082006C 		bne- 0,.L117
 1353              		.loc 1 212 2 is_stmt 1 view .LVU437
 1354              		.loc 1 207 1 is_stmt 0 view .LVU438
 1355 001c 9421FFF8 		stwu 1,-8(1)
 1356              		.cfi_def_cfa_offset 8
 1357 0020 7C0802A6 		mflr 0
 1358 0024 7C892378 		mr 9,4
 1359              		.loc 1 212 14 view .LVU439
 1360 0028 3C800000 		lis 4,_ZL8inbuffer@ha
 1361              	.LVL76:
 1362              		.loc 1 207 1 view .LVU440
 1363 002c 9001000C 		stw 0,12(1)
 1364              		.cfi_offset 65, 4
 1365              		.loc 1 212 14 view .LVU441
 1366 0030 3C00D000 		lis 0,0xd000
 1367 0034 7CAA2B78 		mr 10,5
 1368 0038 90040000 		stw 0,_ZL8inbuffer@l(4)
 1369              		.loc 1 213 2 is_stmt 1 view .LVU442
 1370              		.loc 1 212 14 is_stmt 0 view .LVU443
 1371 003c 38A40000 		la 5,_ZL8inbuffer@l(4)
 1372              	.LVL77:
 1373              		.loc 1 218 20 view .LVU444
 1374 0040 55285828 		slwi 8,9,11
 1375 0044 38C00020 		li 6,32
 1376 0048 388000D0 		li 4,208
 1377              		.loc 1 215 14 view .LVU445
 1378 004c 9125000C 		stw 9,12(5)
 1379              		.loc 1 213 14 view .LVU446
 1380 0050 91650004 		stw 11,4(5)
 1381              		.loc 1 214 2 is_stmt 1 view .LVU447
 1382              		.loc 1 214 14 is_stmt 0 view .LVU448
 1383 0054 91650008 		stw 11,8(5)
 1384              		.loc 1 215 2 is_stmt 1 view .LVU449
 1385              		.loc 1 216 2 view .LVU450
 1386              		.loc 1 216 14 is_stmt 0 view .LVU451
 1387 0058 91450010 		stw 10,16(5)
 1388              		.loc 1 218 2 is_stmt 1 view .LVU452
 1389              		.loc 1 218 20 is_stmt 0 view .LVU453
 1390 005c 48000001 		bl IOS_Ioctl
 1391              	.LVL78:
 1392              		.loc 1 218 20 view .LVU454
 1393 0060 7C691B78 		mr 9,3
 1394              		.loc 1 220 21 discriminator 2 view .LVU455
 1395 0064 38600000 		li 3,0
 1396              	.LVL79:
 1397              		.loc 1 220 2 is_stmt 1 view .LVU456
 1398              		.loc 1 220 21 is_stmt 0 view .LVU457
 1399 0068 2C090001 		cmpwi 0,9,1
 1400 006c 41820008 		beq- 0,.L114
 1401              		.loc 1 220 21 discriminator 1 view .LVU458
 1402 0070 7C6900D0 		neg 3,9
 1403              	.L114:
 1404              		.loc 1 221 1 view .LVU459
 1405 0074 8001000C 		lwz 0,12(1)
 1406 0078 38210008 		addi 1,1,8
 1407              		.cfi_def_cfa_offset 0
 1408 007c 7C0803A6 		mtlr 0
 1409              		.cfi_restore 65
 1410 0080 4E800020 		blr
 1411              	.LVL80:
 1412              	.L117:
 1413              		.loc 1 210 11 view .LVU460
 1414 0084 3860FFFF 		li 3,-1
 1415              		.loc 1 221 1 view .LVU461
 1416 0088 4E800020 		blr
 1417              		.cfi_endproc
 1418              	.LFE16:
 1419              		.size	WDVD_DVDRead, .-WDVD_DVDRead
 1420              		.section	.text.WDVD_ReportKey,"ax",@progbits
 1421              		.align 2
 1422              		.globl WDVD_ReportKey
 1423              		.type	WDVD_ReportKey, @function
 1424              	WDVD_ReportKey:
 1425              	.LVL81:
 1426              	.LFB17:
 1427              		.loc 1 225 1 is_stmt 1 view -0
 1428              		.cfi_startproc
 1429              		.loc 1 226 2 view .LVU463
 1430              		.loc 1 227 2 view .LVU464
 1431              		.loc 1 227 11 is_stmt 0 view .LVU465
 1432 0000 3D200000 		lis 9,_ZL5di_fd@ha
 1433 0004 81090000 		lwz 8,_ZL5di_fd@l(9)
 1434              		.loc 1 227 2 view .LVU466
 1435 0008 2C080000 		cmpwi 0,8,0
 1436 000c 418000D0 		blt- 0,.L126
 1437              		.loc 1 225 1 view .LVU467
 1438 0010 9421FFE8 		stwu 1,-24(1)
 1439              		.cfi_def_cfa_offset 24
 1440 0014 7C6A1B78 		mr 10,3
 1441              		.loc 1 230 14 view .LVU468
 1442 0018 3CC00000 		lis 6,_ZL8inbuffer@ha
 1443              		.loc 1 234 20 view .LVU469
 1444 001c 7D034378 		mr 3,8
 1445              	.LVL82:
 1446              		.loc 1 225 1 view .LVU470
 1447 0020 93A1000C 		stw 29,12(1)
 1448              		.cfi_offset 29, -12
 1449              		.loc 1 234 20 view .LVU471
 1450 0024 3FA00000 		lis 29,_ZL11errorbuffer@ha
 1451              		.loc 1 225 1 view .LVU472
 1452 0028 93C10010 		stw 30,16(1)
 1453              		.loc 1 230 14 view .LVU473
 1454 002c 3D00A400 		lis 8,0xa400
 1455              		.cfi_offset 30, -8
 1456              		.loc 1 234 20 view .LVU474
 1457 0030 3BDD0000 		la 30,_ZL11errorbuffer@l(29)
 1458              		.loc 1 225 1 view .LVU475
 1459 0034 93E10014 		stw 31,20(1)
 1460 0038 7C892378 		mr 9,4
 1461              		.cfi_offset 31, -4
 1462 003c 7CBF2B78 		mr 31,5
 1463              		.loc 1 230 2 is_stmt 1 view .LVU476
 1464              		.loc 1 230 14 is_stmt 0 view .LVU477
 1465 0040 91060000 		stw 8,_ZL8inbuffer@l(6)
 1466              		.loc 1 231 2 is_stmt 1 view .LVU478
 1467              		.loc 1 230 14 is_stmt 0 view .LVU479
 1468 0044 38A60000 		la 5,_ZL8inbuffer@l(6)
 1469              	.LVL83:
 1470              		.loc 1 225 1 view .LVU480
 1471 0048 7C0802A6 		mflr 0
 1472              		.loc 1 234 20 view .LVU481
 1473 004c 7FC7F378 		mr 7,30
 1474 0050 39000020 		li 8,32
 1475 0054 38C00020 		li 6,32
 1476 0058 388000A4 		li 4,164
 1477              	.LVL84:
 1478              		.loc 1 225 1 view .LVU482
 1479 005c 9001001C 		stw 0,28(1)
 1480              		.cfi_offset 65, 4
 1481              		.loc 1 231 14 view .LVU483
 1482 0060 91450004 		stw 10,4(5)
 1483              		.loc 1 232 2 is_stmt 1 view .LVU484
 1484              		.loc 1 232 14 is_stmt 0 view .LVU485
 1485 0064 91250008 		stw 9,8(5)
 1486              		.loc 1 234 2 is_stmt 1 view .LVU486
 1487              		.loc 1 234 20 is_stmt 0 view .LVU487
 1488 0068 48000001 		bl IOS_Ioctl
 1489              	.LVL85:
 1490              		.loc 1 235 8 view .LVU488
 1491 006c 80DD0000 		lwz 6,_ZL11errorbuffer@l(29)
 1492              		.loc 1 236 21 view .LVU489
 1493 0070 2C030001 		cmpwi 0,3,1
 1494              		.loc 1 235 8 view .LVU490
 1495 0074 80FE0004 		lwz 7,4(30)
 1496              		.loc 1 234 20 view .LVU491
 1497 0078 7C691B78 		mr 9,3
 1498              	.LVL86:
 1499              		.loc 1 235 2 is_stmt 1 view .LVU492
 1500              		.loc 1 235 8 is_stmt 0 view .LVU493
 1501 007c 811E0008 		lwz 8,8(30)
 1502              		.loc 1 236 21 discriminator 2 view .LVU494
 1503 0080 38600000 		li 3,0
 1504              	.LVL87:
 1505              		.loc 1 235 8 view .LVU495
 1506 0084 815E000C 		lwz 10,12(30)
 1507 0088 90DF0000 		stw 6,0(31)
 1508 008c 90FF0004 		stw 7,4(31)
 1509 0090 911F0008 		stw 8,8(31)
 1510 0094 915F000C 		stw 10,12(31)
 1511 0098 80DE0010 		lwz 6,16(30)
 1512 009c 80FE0014 		lwz 7,20(30)
 1513 00a0 811E0018 		lwz 8,24(30)
 1514 00a4 815E001C 		lwz 10,28(30)
 1515 00a8 90DF0010 		stw 6,16(31)
 1516 00ac 90FF0014 		stw 7,20(31)
 1517 00b0 911F0018 		stw 8,24(31)
 1518 00b4 915F001C 		stw 10,28(31)
 1519              		.loc 1 236 2 is_stmt 1 view .LVU496
 1520              		.loc 1 236 21 is_stmt 0 view .LVU497
 1521 00b8 41820008 		beq- 0,.L124
 1522              		.loc 1 236 21 discriminator 1 view .LVU498
 1523 00bc 7C6900D0 		neg 3,9
 1524              	.L124:
 1525              		.loc 1 237 1 view .LVU499
 1526 00c0 8001001C 		lwz 0,28(1)
 1527 00c4 83A1000C 		lwz 29,12(1)
 1528 00c8 83C10010 		lwz 30,16(1)
 1529 00cc 7C0803A6 		mtlr 0
 1530              		.cfi_restore 65
 1531 00d0 83E10014 		lwz 31,20(1)
 1532              	.LVL88:
 1533              		.loc 1 237 1 view .LVU500
 1534 00d4 38210018 		addi 1,1,24
 1535              		.cfi_restore 31
 1536              		.cfi_restore 30
 1537              		.cfi_restore 29
 1538              		.cfi_def_cfa_offset 0
 1539 00d8 4E800020 		blr
 1540              	.LVL89:
 1541              	.L126:
 1542              		.loc 1 228 11 view .LVU501
 1543 00dc 3860FFFF 		li 3,-1
 1544              	.LVL90:
 1545              		.loc 1 237 1 view .LVU502
 1546 00e0 4E800020 		blr
 1547              		.cfi_endproc
 1548              	.LFE17:
 1549              		.size	WDVD_ReportKey, .-WDVD_ReportKey
 1550              		.section	.text.WDVD_StartLog,"ax",@progbits
 1551              		.align 2
 1552              		.globl WDVD_StartLog
 1553              		.type	WDVD_StartLog, @function
 1554              	WDVD_StartLog:
 1555              	.LFB18:
 1556              		.loc 1 241 1 is_stmt 1 view -0
 1557              		.cfi_startproc
 1558              		.loc 1 242 2 view .LVU504
 1559              		.loc 1 242 11 is_stmt 0 view .LVU505
 1560 0000 3D200000 		lis 9,_ZL5di_fd@ha
 1561 0004 80690000 		lwz 3,_ZL5di_fd@l(9)
 1562              		.loc 1 242 2 view .LVU506
 1563 0008 2C030000 		cmpwi 0,3,0
 1564 000c 41800020 		blt- 0,.L134
 1565              		.loc 1 244 2 is_stmt 1 view .LVU507
 1566              		.loc 1 244 18 is_stmt 0 view .LVU508
 1567 0010 3CE00000 		lis 7,_ZL8inbuffer+32@ha
 1568 0014 39000020 		li 8,32
 1569 0018 38E70000 		la 7,_ZL8inbuffer+32@l(7)
 1570 001c 38C00020 		li 6,32
 1571 0020 38A7FFE0 		addi 5,7,-32
 1572 0024 388000CF 		li 4,207
 1573 0028 48000000 		b IOS_Ioctl
 1574              	.LVL91:
 1575              	.L134:
 1576              		.loc 1 245 1 view .LVU509
 1577 002c 3860FFFF 		li 3,-1
 1578 0030 4E800020 		blr
 1579              		.cfi_endproc
 1580              	.LFE18:
 1581              		.size	WDVD_StartLog, .-WDVD_StartLog
 1582              		.section	.bss._ZL11errorbuffer,"aw",@nobits
 1583              		.align 5
 1584              		.type	_ZL11errorbuffer, @object
 1585              		.size	_ZL11errorbuffer, 64
 1586              	_ZL11errorbuffer:
 1587 0000 00000000 		.zero	64
 1587      00000000 
 1587      00000000 
 1587      00000000 
 1587      00000000 
 1588              		.section	.bss._ZL8tmd_data,"aw",@nobits
 1589              		.align 5
 1590              		.type	_ZL8tmd_data, @object
 1591              		.size	_ZL8tmd_data, 18916
 1592              	_ZL8tmd_data:
 1593 0000 00000000 		.zero	18916
 1593      00000000 
 1593      00000000 
 1593      00000000 
 1593      00000000 
 1594              		.section	.bss._ZL8inbuffer,"aw",@nobits
 1595              		.align 5
 1596              		.type	_ZL8inbuffer, @object
 1597              		.size	_ZL8inbuffer, 64
 1598              	_ZL8inbuffer:
 1599 0000 00000000 		.zero	64
 1599      00000000 
 1599      00000000 
 1599      00000000 
 1599      00000000 
 1600              		.section	.data._ZL5di_fd,"aw"
 1601              		.align 2
 1602              		.type	_ZL5di_fd, @object
 1603              		.size	_ZL5di_fd, 4
 1604              	_ZL5di_fd:
 1605 0000 FFFFFFFF 		.long	-1
 1606              		.section	".text"
 1607              	.Letext0:
 1608              		.file 2 "C:/devkitPro/devkitPPC/powerpc-eabi/include/machine/_default_types.h"
 1609              		.file 3 "C:/devkitPro/devkitPPC/powerpc-eabi/include/sys/_stdint.h"
 1610              		.file 4 "C:/devkitPro/libogc/include/gctypes.h"
 1611              		.file 5 "C:/devkitPro/libogc/include/ogc/ipc.h"
 1612              		.file 6 "C:/devkitPro/devkitPPC/lib/gcc/powerpc-eabi/13.1.0/include/stddef.h"
 1613              		.file 7 "C:/devkitPro/libogc/include/ogc/es.h"
 1614              		.file 8 "C:/devkitPro/devkitPPC/powerpc-eabi/include/string.h"